MINIMAP

FILES
0 *
1 <absolute>
2 <common>
3 <linker-defined>
4 ChooseTypeMenu.cpp.obj
5 FarEditor.cpp.obj
6 FarEditorSet.cpp.obj
7 FarHrcSettings.cpp.obj
8 HrcSettingsForm.cpp.obj
9 LIBCMT:alloca16.obj
10 LIBCMT:argv_mode.obj
11 LIBCMT:chkstk.obj
12 LIBCMT:cpu_disp.obj
13 LIBCMT:default_local_stdio_options.obj
14 LIBCMT:delete_array.obj
15 LIBCMT:delete_array_size.obj
16 LIBCMT:delete_scalar.obj
17 LIBCMT:delete_scalar_size.obj
18 LIBCMT:dll_dllmain.obj
19 LIBCMT:dll_dllmain_stub.obj
20 LIBCMT:dyn_tls_init.obj
21 LIBCMT:ehprolg3.obj
22 LIBCMT:ehvecctr.obj
23 LIBCMT:ehvecdtr.obj
24 LIBCMT:fltused.obj
25 LIBCMT:ftol3.obj
26 LIBCMT:gs_cookie.obj
27 LIBCMT:gs_report.obj
28 LIBCMT:gs_support.obj
29 LIBCMT:guard_support.obj
30 LIBCMT:initializers.obj
31 LIBCMT:initsect.obj
32 LIBCMT:lldiv.obj
33 LIBCMT:lldvrm.obj
34 LIBCMT:llmul.obj
35 LIBCMT:llrem.obj
36 LIBCMT:llshl.obj
37 LIBCMT:loadcfg.obj
38 LIBCMT:new_array.obj
39 LIBCMT:new_array_nothrow.obj
40 LIBCMT:new_scalar.obj
41 LIBCMT:new_scalar_nothrow.obj
42 LIBCMT:pesect.obj
43 LIBCMT:secchk.obj
44 LIBCMT:sehprolg4.obj
45 LIBCMT:std_type_info_static.obj
46 LIBCMT:thread_safe_statics.obj
47 LIBCMT:throw_bad_alloc.obj
48 LIBCMT:tlssup.obj
49 LIBCMT:tncleanup.obj
50 LIBCMT:ucrt_detection.obj
51 LIBCMT:ulldiv.obj
52 LIBCMT:ulldvrm.obj
53 LIBCMT:ullrem.obj
54 LIBCMT:ullshr.obj
55 LIBCMT:utility.obj
56 LIBCMT:utility_desktop.obj
57 LIBCMT:x86_exception_filter.obj
58 SettingsControl.cpp.obj
59 colorer.exp
60 colorer:BaseEditor.cpp.obj
61 colorer:CatalogParser.cpp.obj
62 colorer:Character.cpp.obj
63 colorer:Encodings.cpp.obj
64 colorer:Environment.cpp.obj
65 colorer:Exception.cpp.obj
66 colorer:FileInputSource.cpp.obj
67 colorer:FileType.cpp.obj
68 colorer:FileTypeChooser.cpp.obj
69 colorer:FileTypeImpl.cpp.obj
70 colorer:HrcLibrary.cpp.obj
71 colorer:HrcLibraryImpl.cpp.obj
72 colorer:InputSource.cpp.obj
73 colorer:KeywordList.cpp.obj
74 colorer:LibXmlInputSource.cpp.obj
75 colorer:LibXmlReader.cpp.obj
76 colorer:LineRegion.cpp.obj
77 colorer:LineRegionsCompactSupport.cpp.obj
78 colorer:LineRegionsSupport.cpp.obj
79 colorer:Logger.cpp.obj
80 colorer:MemoryFile.cpp.obj
81 colorer:Outliner.cpp.obj
82 colorer:ParserFactory.cpp.obj
83 colorer:ParserFactoryImpl.cpp.obj
84 colorer:RegionMapper.cpp.obj
85 colorer:SchemeNode.cpp.obj
86 colorer:SharedXmlInputSource.cpp.obj
87 colorer:StyledHRDMapper.cpp.obj
88 colorer:StyledRegion.cpp.obj
89 colorer:TextConsoleViewer.cpp.obj
90 colorer:TextHRDMapper.cpp.obj
91 colorer:TextLinesStore.cpp.obj
92 colorer:TextParser.cpp.obj
93 colorer:TextParserHelpers.cpp.obj
94 colorer:TextParserImpl.cpp.obj
95 colorer:TextRegion.cpp.obj
96 colorer:UStr.cpp.obj
97 colorer:UnicodeTools.cpp.obj
98 colorer:XMLNode.cpp.obj
99 colorer:XmlInputSource.cpp.obj
100 colorer:XmlReader.cpp.obj
101 colorer:cregexp.cpp.obj
102 icudt:stubdata.ao
103 icuuc:bmpset.ao
104 icuuc:bytesinkutil.ao
105 icuuc:bytestream.ao
106 icuuc:bytestrie.ao
107 icuuc:characterproperties.ao
108 icuuc:charstr.ao
109 icuuc:cmemory.ao
110 icuuc:cstring.ao
111 icuuc:cwchar.ao
112 icuuc:edits.ao
113 icuuc:emojiprops.ao
114 icuuc:loadednormalizer2impl.ao
115 icuuc:localebuilder.ao
116 icuuc:locid.ao
117 icuuc:loclikely.ao
118 icuuc:locmap.ao
119 icuuc:normalizer2.ao
120 icuuc:normalizer2impl.ao
121 icuuc:parsepos.ao
122 icuuc:patternprops.ao
123 icuuc:propname.ao
124 icuuc:putil.ao
125 icuuc:resource.ao
126 icuuc:ruleiter.ao
127 icuuc:stringpiece.ao
128 icuuc:uarrsort.ao
129 icuuc:ubidi_props.ao
130 icuuc:ucase.ao
131 icuuc:uchar.ao
132 icuuc:ucharstrie.ao
133 icuuc:ucharstrieiterator.ao
134 icuuc:ucln_cmn.ao
135 icuuc:ucmndata.ao
136 icuuc:ucnv.ao
137 icuuc:ucnv2022.ao
138 icuuc:ucnv_bld.ao
139 icuuc:ucnv_cb.ao
140 icuuc:ucnv_cnv.ao
141 icuuc:ucnv_ct.ao
142 icuuc:ucnv_err.ao
143 icuuc:ucnv_ext.ao
144 icuuc:ucnv_io.ao
145 icuuc:ucnv_lmb.ao
146 icuuc:ucnv_u16.ao
147 icuuc:ucnv_u32.ao
148 icuuc:ucnv_u7.ao
149 icuuc:ucnv_u8.ao
150 icuuc:ucnvbocu.ao
151 icuuc:ucnvhz.ao
152 icuuc:ucnvisci.ao
153 icuuc:ucnvlat1.ao
154 icuuc:ucnvmbcs.ao
155 icuuc:ucnvscsu.ao
156 icuuc:ucptrie.ao
157 icuuc:udata.ao
158 icuuc:udatamem.ao
159 icuuc:uenum.ao
160 icuuc:uhash.ao
161 icuuc:uinvchar.ao
162 icuuc:uloc.ao
163 icuuc:uloc_keytype.ao
164 icuuc:uloc_tag.ao
165 icuuc:umapfile.ao
166 icuuc:umath.ao
167 icuuc:umutablecptrie.ao
168 icuuc:umutex.ao
169 icuuc:unames.ao
170 icuuc:unifilt.ao
171 icuuc:unifunct.ao
172 icuuc:uniset.ao
173 icuuc:uniset_props.ao
174 icuuc:unisetspan.ao
175 icuuc:unistr.ao
176 icuuc:unistr_case.ao
177 icuuc:unistr_case_locale.ao
178 icuuc:unistr_cnv.ao
179 icuuc:unistr_props.ao
180 icuuc:uobject.ao
181 icuuc:uprops.ao
182 icuuc:uresbund.ao
183 icuuc:uresdata.ao
184 icuuc:uscript_props.ao
185 icuuc:ustr_cnv.ao
186 icuuc:ustrcase.ao
187 icuuc:ustrcase_locale.ao
188 icuuc:ustrenum.ao
189 icuuc:ustring.ao
190 icuuc:ustrtrns.ao
191 icuuc:utf_impl.ao
192 icuuc:util.ao
193 icuuc:utrace.ao
194 icuuc:utrie2.ao
195 icuuc:utypes.ao
196 icuuc:uvector.ao
197 icuuc:uvectr32.ao
198 icuuc:wintz.ao
199 kernel32:KERNEL32.dll
200 libcpmt:StlCompareStringA.obj
201 libcpmt:StlLCMapStringA.obj
202 libcpmt:_tolower.obj
203 libcpmt:_toupper.obj
204 libcpmt:asan_noop.obj
205 libcpmt:cond.obj
206 libcpmt:filesystem.obj
207 libcpmt:fiopen.obj
208 libcpmt:ios.obj
209 libcpmt:iosptrs.obj
210 libcpmt:locale.obj
211 libcpmt:locale0.obj
212 libcpmt:mutex.obj
213 libcpmt:nothrow.obj
214 libcpmt:syserror.obj
215 libcpmt:syserror_import_lib.obj
216 libcpmt:thread0.obj
217 libcpmt:uncaught_exception.obj
218 libcpmt:vector_algorithms.obj
219 libcpmt:winapisupp.obj
220 libcpmt:wlocale.obj
221 libcpmt:xlocale.obj
222 libcpmt:xlock.obj
223 libcpmt:xmtx.obj
224 libcpmt:xonce2.obj
225 libcpmt:xstoul.obj
226 libcpmt:xstoull.obj
227 libcpmt:xstrcoll.obj
228 libcpmt:xstrxfrm.obj
229 libcpmt:xthrow.obj
230 libcpmt:xtime.obj
231 libcpmt:xwctomb.obj
232 libucrt:87cdisp.obj
233 libucrt:87disp.obj
234 libucrt:87except.obj
235 libucrt:87fmod_impl.obj
236 libucrt:87tran.obj
237 libucrt:_ctype.obj
238 libucrt:_fenvutils.obj
239 libucrt:_filbuf.obj
240 libucrt:_file.obj
241 libucrt:_flsbuf.obj
242 libucrt:_fptostr.obj
243 libucrt:_freebuf.obj
244 libucrt:_getbuf.obj
245 libucrt:_sftbuf.obj
246 libucrt:_strnicm.obj
247 libucrt:_test.obj
248 libucrt:_wctype.obj
249 libucrt:abort.obj
250 libucrt:argv_data.obj
251 libucrt:argv_parsing.obj
252 libucrt:argv_wildcards.obj
253 libucrt:atox.obj
254 libucrt:c16rtomb.obj
255 libucrt:c32rtomb.obj
256 libucrt:calloc.obj
257 libucrt:calloc_base.obj
258 libucrt:ceil.obj
259 libucrt:ceil_pentium4.obj
260 libucrt:cfout.obj
261 libucrt:checkcfg.obj
262 libucrt:chsize.obj
263 libucrt:close.obj
264 libucrt:closeall.obj
265 libucrt:commit.obj
266 libucrt:common.obj
267 libucrt:common_utf8.obj
268 libucrt:comparestringa.obj
269 libucrt:comparestringw.obj
270 libucrt:console_output_initializer.obj
271 libucrt:contrlfp.obj
272 libucrt:ctype.obj
273 libucrt:cvt.obj
274 libucrt:days.obj
275 libucrt:drive.obj
276 libucrt:environment_initialization.obj
277 libucrt:errno.obj
278 libucrt:exception_filter.obj
279 libucrt:exit.obj
280 libucrt:fclose.obj
281 libucrt:fegetenv.obj
282 libucrt:fegetround.obj
283 libucrt:feholdexcept.obj
284 libucrt:feoferr.obj
285 libucrt:fesetenv.obj
286 libucrt:fflush.obj
287 libucrt:fgetc.obj
288 libucrt:fgetpos.obj
289 libucrt:fileno.obj
290 libucrt:floor.obj
291 libucrt:floor_pentium4.obj
292 libucrt:fmode_initializer.obj
293 libucrt:fopen.obj
294 libucrt:fp_flags.obj
295 libucrt:fpctrl.obj
296 libucrt:fpexcept.obj
297 libucrt:fputc.obj
298 libucrt:fread.obj
299 libucrt:free.obj
300 libucrt:free_base.obj
301 libucrt:frexp.obj
302 libucrt:frnd.obj
303 libucrt:fseek.obj
304 libucrt:fsetpos.obj
305 libucrt:ftell.obj
306 libucrt:fullpath.obj
307 libucrt:fwrite.obj
308 libucrt:genexcep.obj
309 libucrt:get_environment_from_os.obj
310 libucrt:get_qualified_locale.obj
311 libucrt:getcwd.obj
312 libucrt:getenv.obj
313 libucrt:getlocaleinfoa.obj
314 libucrt:getmodulefilenamea.obj
315 libucrt:getqloc_downlevel.obj
316 libucrt:getstringtypea.obj
317 libucrt:getstringtypew.obj
318 libucrt:glstatus.obj
319 libucrt:gmtime.obj
320 libucrt:heap_handle.obj
321 libucrt:ieee87.obj
322 libucrt:ieeemisc.obj
323 libucrt:initcon.obj
324 libucrt:initctype.obj
325 libucrt:initialization.obj
326 libucrt:initmon.obj
327 libucrt:initnum.obj
328 libucrt:initterm.obj
329 libucrt:inittime.obj
330 libucrt:input.obj
331 libucrt:invalid_parameter.obj
332 libucrt:ioinit.obj
333 libucrt:isatty.obj
334 libucrt:isctype.obj
335 libucrt:ismbbyte.obj
336 libucrt:iswctype.obj
337 libucrt:lcidtoname_downlevel.obj
338 libucrt:lcmapstringa.obj
339 libucrt:lcmapstringw.obj
340 libucrt:libm_error.obj
341 libucrt:locale_initializer.obj
342 libucrt:locale_refcounting.obj
343 libucrt:locale_update.obj
344 libucrt:localeconv.obj
345 libucrt:localtime.obj
346 libucrt:locks.obj
347 libucrt:loctotime.obj
348 libucrt:log10_impl.obj
349 libucrt:log10_pentium4.obj
350 libucrt:log10_sse2_precise.obj
351 libucrt:log10_tables.obj
352 libucrt:log_impl.obj
353 libucrt:log_pentium4.obj
354 libucrt:log_sse2_precise.obj
355 libucrt:log_tables.obj
356 libucrt:lseek.obj
357 libucrt:malloc.obj
358 libucrt:malloc_base.obj
359 libucrt:matherr.obj
360 libucrt:mathfcns.obj
361 libucrt:mbctype.obj
362 libucrt:mbrtoc32.obj
363 libucrt:mbrtowc.obj
364 libucrt:mbsdec.obj
365 libucrt:mbstowcs.obj
366 libucrt:mbtowc.obj
367 libucrt:modf.obj
368 libucrt:modf_pentium4.obj
369 libucrt:msize.obj
370 libucrt:multibyte_initializer.obj
371 libucrt:multibytetowidechar.obj
372 libucrt:nan.obj
373 libucrt:ncommode.obj
374 libucrt:new_handler.obj
375 libucrt:new_mode.obj
376 libucrt:nlsdata.obj
377 libucrt:onexit.obj
378 libucrt:open.obj
379 libucrt:openfile.obj
380 libucrt:osfinfo.obj
381 libucrt:output.obj
382 libucrt:peb_access.obj
383 libucrt:per_thread_data.obj
384 libucrt:pow_impl.obj
385 libucrt:pow_pentium4.obj
386 libucrt:pow_sse2_precise.obj
387 libucrt:pow_tables.obj
388 libucrt:powhlp.obj
389 libucrt:printf_count_output.obj
390 libucrt:putwch.obj
391 libucrt:qsort.obj
392 libucrt:rand.obj
393 libucrt:read.obj
394 libucrt:realloc.obj
395 libucrt:realloc_base.obj
396 libucrt:recalloc.obj
397 libucrt:report_runtime_error.obj
398 libucrt:setenv.obj
399 libucrt:setenvironmentvariablea.obj
400 libucrt:setlocale.obj
401 libucrt:setmode.obj
402 libucrt:setvbuf.obj
403 libucrt:shared_initialization.obj
404 libucrt:signal.obj
405 libucrt:sse2_initializer.obj
406 libucrt:stat.obj
407 libucrt:stdio_initializer.obj
408 libucrt:strcpy_s.obj
409 libucrt:strcspn.obj
410 libucrt:strdup.obj
411 libucrt:stream.obj
412 libucrt:strftime.obj
413 libucrt:strncmp.obj
414 libucrt:strncnt.obj
415 libucrt:strncpy.obj
416 libucrt:strncpy_s.obj
417 libucrt:strnicmp.obj
418 libucrt:strnicol.obj
419 libucrt:strnlen.obj
420 libucrt:strpbrk.obj
421 libucrt:strtod.obj
422 libucrt:strtox.obj
423 libucrt:terminate.obj
424 libucrt:thread.obj
425 libucrt:time.obj
426 libucrt:timeset.obj
427 libucrt:timeset_initializer.obj
428 libucrt:tolower_toupper.obj
429 libucrt:towlower.obj
430 libucrt:txtmode.obj
431 libucrt:tzset.obj
432 libucrt:umask.obj
433 libucrt:ungetc.obj
434 libucrt:wcrtomb.obj
435 libucrt:wcscat_s.obj
436 libucrt:wcscpy_s.obj
437 libucrt:wcscspn.obj
438 libucrt:wcsdup.obj
439 libucrt:wcsftime.obj
440 libucrt:wcsicmp.obj
441 libucrt:wcsncat.obj
442 libucrt:wcsncat_s.obj
443 libucrt:wcsncmp.obj
444 libucrt:wcsncpy.obj
445 libucrt:wcsncpy_s.obj
446 libucrt:wcsnicmp.obj
447 libucrt:wcsnicol.obj
448 libucrt:wcspbrk.obj
449 libucrt:wcstombs.obj
450 libucrt:wctomb.obj
451 libucrt:widechartomultibyte.obj
452 libucrt:win_policies.obj
453 libucrt:winapi_thunks.obj
454 libucrt:write.obj
455 libucrt:wsetlocale.obj
456 libucrt:xtoa.obj
457 libvcruntime:chandler4.obj
458 libvcruntime:ehhelpers.obj
459 libvcruntime:ehstate.obj
460 libvcruntime:exsup.obj
461 libvcruntime:exsup4.obj
462 libvcruntime:frame.obj
463 libvcruntime:initialization.obj
464 libvcruntime:jbcxrval.obj
465 libvcruntime:locks.obj
466 libvcruntime:lowhelpr.obj
467 libvcruntime:memcmp.obj
468 libvcruntime:memcpy.obj
469 libvcruntime:memset.obj
470 libvcruntime:per_thread_data.obj
471 libvcruntime:purevirt.obj
472 libvcruntime:purevirt_data.obj
473 libvcruntime:rtti.obj
474 libvcruntime:std_exception.obj
475 libvcruntime:std_type_info.obj
476 libvcruntime:strchr.obj
477 libvcruntime:strrchr.obj
478 libvcruntime:strstr.obj
479 libvcruntime:throw.obj
480 libvcruntime:trnsctrl.obj
481 libvcruntime:uncaught_exception.obj
482 libvcruntime:undname.obj
483 libvcruntime:unexpected.obj
484 libvcruntime:wcschr.obj
485 libvcruntime:wcsrchr.obj
486 libvcruntime:winapi_downlevel.obj
487 libxml2:HTMLparser.c.obj
488 libxml2:HTMLtree.c.obj
489 libxml2:SAX2.c.obj
490 libxml2:buf.c.obj
491 libxml2:catalog.c.obj
492 libxml2:chvalid.c.obj
493 libxml2:debugXML.c.obj
494 libxml2:dict.c.obj
495 libxml2:encoding.c.obj
496 libxml2:entities.c.obj
497 libxml2:error.c.obj
498 libxml2:globals.c.obj
499 libxml2:hash.c.obj
500 libxml2:list.c.obj
501 libxml2:parser.c.obj
502 libxml2:parserInternals.c.obj
503 libxml2:relaxng.c.obj
504 libxml2:threads.c.obj
505 libxml2:tree.c.obj
506 libxml2:uri.c.obj
507 libxml2:valid.c.obj
508 libxml2:xmlIO.c.obj
509 libxml2:xmlmemory.c.obj
510 libxml2:xmlregexp.c.obj
511 libxml2:xmlsave.c.obj
512 libxml2:xmlschemas.c.obj
513 libxml2:xmlschemastypes.c.obj
514 libxml2:xmlstring.c.obj
515 libxml2:xmlunicode.c.obj
516 libxml2:xpath.c.obj
517 minizip:ioapi.c.obj
518 minizip:unzip.c.obj
519 pcolorer.cpp.obj
520 pcolorer3.rc.res
521 tools.cpp.obj
522 user32:USER32.dll
523 zlib:adler32.c.obj
524 zlib:crc32.c.obj
525 zlib:inffast.c.obj
526 zlib:inflate.c.obj
527 zlib:inftrees.c.obj
528 zlib:zutil.c.obj

SYMBOLS
0 1 ___AbsoluteZero
2C 1 __tls_array
100 1 ___guard_flags
195 1 ___safe_se_handler_count
1000 6 ??__EDConsole@@YAXXZ
1020 6 ??__EDRgb@@YAXXZ
1040 6 ??__EDAutodetect@@YAXXZ
1060 6 ??__Elogger@@YAXXZ
1070 7 ??__EDConsole@@YAXXZ
1090 7 ??__EDRgb@@YAXXZ
10B0 7 ??__EDAutodetect@@YAXXZ
10D0 7 ??__EcatTagCatalog@@YAXXZ
10F0 7 ??__EcatTagHrcSets@@YAXXZ
1110 7 ??__EcatTagLocation@@YAXXZ
1130 7 ??__EcatLocationAttrLink@@YAXXZ
1150 7 ??__EcatTagHrdSets@@YAXXZ
1170 7 ??__EcatTagHrd@@YAXXZ
1190 7 ??__EcatHrdAttrClass@@YAXXZ
11B0 7 ??__EcatHrdAttrName@@YAXXZ
11D0 7 ??__EcatHrdAttrDescription@@YAXXZ
11F0 7 ??__EhrcTagHrc@@YAXXZ
1210 7 ??__EhrcHrcAttrVersion@@YAXXZ
1230 7 ??__EhrcTagAnnotation@@YAXXZ
1250 7 ??__EhrcTagPrototype@@YAXXZ
1270 7 ??__EhrcPrototypeAttrName@@YAXXZ
1290 7 ??__EhrcPrototypeAttrDescription@@YAXXZ
12B0 7 ??__EhrcPrototypeAttrGroup@@YAXXZ
12D0 7 ??__EhrcTagLocation@@YAXXZ
12F0 7 ??__EhrcLocationAttrLink@@YAXXZ
1310 7 ??__EhrcTagFilename@@YAXXZ
1330 7 ??__EhrcFilenameAttrWeight@@YAXXZ
1350 7 ??__EhrcTagFirstline@@YAXXZ
1370 7 ??__EhrcFirstlineAttrWeight@@YAXXZ
1390 7 ??__EhrcTagParametrs@@YAXXZ
13B0 7 ??__EhrcTagParam@@YAXXZ
13D0 7 ??__EhrcParamAttrName@@YAXXZ
13F0 7 ??__EhrcParamAttrValue@@YAXXZ
1410 7 ??__EhrcParamAttrDescription@@YAXXZ
1430 7 ??__EhrcTagPackage@@YAXXZ
1450 7 ??__EhrcPackageAttrName@@YAXXZ
1470 7 ??__EhrcPackageAttrDescription@@YAXXZ
1490 7 ??__EhrcPackageAttrGroup@@YAXXZ
14B0 7 ??__EhrcTagType@@YAXXZ
14D0 7 ??__EhrcTypeAttrName@@YAXXZ
14F0 7 ??__EhrcTagImport@@YAXXZ
1510 7 ??__EhrcImportAttrType@@YAXXZ
1530 7 ??__EhrcTagRegion@@YAXXZ
1550 7 ??__EhrcRegionAttrName@@YAXXZ
1570 7 ??__EhrcRegionAttrParent@@YAXXZ
1590 7 ??__EhrcRegionAttrDescription@@YAXXZ
15B0 7 ??__EhrcTagEntity@@YAXXZ
15D0 7 ??__EhrcEntityAttrName@@YAXXZ
15F0 7 ??__EhrcEntityAttrValue@@YAXXZ
1610 7 ??__EhrcTagScheme@@YAXXZ
1630 7 ??__EhrcSchemeAttrName@@YAXXZ
1650 7 ??__EhrcSchemeAttrIf@@YAXXZ
1670 7 ??__EhrcSchemeAttrUnless@@YAXXZ
1690 7 ??__EhrcTagKeywords@@YAXXZ
16B0 7 ??__EhrcKeywordsAttrIgnorecase@@YAXXZ
16D0 7 ??__EhrcKeywordsAttrPriority@@YAXXZ
16F0 7 ??__EhrcKeywordsAttrWorddiv@@YAXXZ
1710 7 ??__EhrcKeywordsAttrRegion@@YAXXZ
1730 7 ??__EhrcTagWord@@YAXXZ
1750 7 ??__EhrcWordAttrName@@YAXXZ
1770 7 ??__EhrcWordAttrRegion@@YAXXZ
1790 7 ??__EhrcTagSymb@@YAXXZ
17B0 7 ??__EhrcSymbAttrName@@YAXXZ
17D0 7 ??__EhrcSymbAttrRegion@@YAXXZ
17F0 7 ??__EhrcTagRegexp@@YAXXZ
1810 7 ??__EhrcRegexpAttrMatch@@YAXXZ
1830 7 ??__EhrcRegexpAttrPriority@@YAXXZ
1850 7 ??__EhrcRegexpAttrRegion@@YAXXZ
1870 7 ??__EhrcTagBlock@@YAXXZ
1890 7 ??__EhrcBlockAttrStart@@YAXXZ
18B0 7 ??__EhrcBlockAttrEnd@@YAXXZ
18D0 7 ??__EhrcBlockAttrScheme@@YAXXZ
18F0 7 ??__EhrcBlockAttrPriority@@YAXXZ
1910 7 ??__EhrcBlockAttrContentPriority@@YAXXZ
1930 7 ??__EhrcBlockAttrInnerRegion@@YAXXZ
1950 7 ??__EhrcBlockAttrMatch@@YAXXZ
1970 7 ??__EhrcTagInherit@@YAXXZ
1990 7 ??__EhrcInheritAttrScheme@@YAXXZ
19B0 7 ??__EhrcTagVirtual@@YAXXZ
19D0 7 ??__EhrcVirtualAttrScheme@@YAXXZ
19F0 7 ??__EhrcVirtualAttrSubstScheme@@YAXXZ
1A10 7 ??__EhrdTagHrd@@YAXXZ
1A30 7 ??__EhrdTagAssign@@YAXXZ
1A50 7 ??__EhrdAssignAttrName@@YAXXZ
1A70 7 ??__EhrdAssignAttrFore@@YAXXZ
1A90 7 ??__EhrdAssignAttrBack@@YAXXZ
1AB0 7 ??__EhrdAssignAttrStyle@@YAXXZ
1AD0 7 ??__EhrdAssignAttrSBack@@YAXXZ
1AF0 7 ??__EhrdAssignAttrEBack@@YAXXZ
1B10 7 ??__EhrdAssignAttrSText@@YAXXZ
1B30 7 ??__EhrdAssignAttrEText@@YAXXZ
1B50 7 ??__Evalue_low@@YAXXZ
1B70 7 ??__Evalue_yes@@YAXXZ
1B90 8 ??__EDConsole@@YAXXZ
1BB0 8 ??__EDRgb@@YAXXZ
1BD0 8 ??__EDAutodetect@@YAXXZ
1BF0 519 ??__EDConsole@@YAXXZ
1C10 519 ??__EDRgb@@YAXXZ
1C30 519 ??__EDAutodetect@@YAXXZ
1C50 61 ??__EcatHrdAttrClass@@YAXXZ
1C70 61 ??__EcatHrdAttrDescription@@YAXXZ
1C90 61 ??__EcatHrdAttrName@@YAXXZ
1CB0 61 ??__EcatLocationAttrLink@@YAXXZ
1CD0 61 ??__EcatTagCatalog@@YAXXZ
1CF0 61 ??__EcatTagHrcSets@@YAXXZ
1D10 61 ??__EcatTagHrd@@YAXXZ
1D30 61 ??__EcatTagHrdSets@@YAXXZ
1D50 61 ??__EcatTagLocation@@YAXXZ
1D70 61 ??__EhrcBlockAttrContentPriority@@YAXXZ
1D90 61 ??__EhrcBlockAttrEnd@@YAXXZ
1DB0 61 ??__EhrcBlockAttrInnerRegion@@YAXXZ
1DD0 61 ??__EhrcBlockAttrMatch@@YAXXZ
1DF0 61 ??__EhrcBlockAttrPriority@@YAXXZ
1E10 61 ??__EhrcBlockAttrScheme@@YAXXZ
1E30 61 ??__EhrcBlockAttrStart@@YAXXZ
1E50 61 ??__EhrcEntityAttrName@@YAXXZ
1E70 61 ??__EhrcEntityAttrValue@@YAXXZ
1E90 61 ??__EhrcFilenameAttrWeight@@YAXXZ
1EB0 61 ??__EhrcFirstlineAttrWeight@@YAXXZ
1ED0 61 ??__EhrcHrcAttrVersion@@YAXXZ
1EF0 61 ??__EhrcImportAttrType@@YAXXZ
1F10 61 ??__EhrcInheritAttrScheme@@YAXXZ
1F30 61 ??__EhrcKeywordsAttrIgnorecase@@YAXXZ
1F50 61 ??__EhrcKeywordsAttrPriority@@YAXXZ
1F70 61 ??__EhrcKeywordsAttrRegion@@YAXXZ
1F90 61 ??__EhrcKeywordsAttrWorddiv@@YAXXZ
1FB0 61 ??__EhrcLocationAttrLink@@YAXXZ
1FD0 61 ??__EhrcPackageAttrDescription@@YAXXZ
1FF0 61 ??__EhrcPackageAttrGroup@@YAXXZ
2010 61 ??__EhrcPackageAttrName@@YAXXZ
2030 61 ??__EhrcParamAttrDescription@@YAXXZ
2050 61 ??__EhrcParamAttrName@@YAXXZ
2070 61 ??__EhrcParamAttrValue@@YAXXZ
2090 61 ??__EhrcPrototypeAttrDescription@@YAXXZ
20B0 61 ??__EhrcPrototypeAttrGroup@@YAXXZ
20D0 61 ??__EhrcPrototypeAttrName@@YAXXZ
20F0 61 ??__EhrcRegexpAttrMatch@@YAXXZ
2110 61 ??__EhrcRegexpAttrPriority@@YAXXZ
2130 61 ??__EhrcRegexpAttrRegion@@YAXXZ
2150 61 ??__EhrcRegionAttrDescription@@YAXXZ
2170 61 ??__EhrcRegionAttrName@@YAXXZ
2190 61 ??__EhrcRegionAttrParent@@YAXXZ
21B0 61 ??__EhrcSchemeAttrIf@@YAXXZ
21D0 61 ??__EhrcSchemeAttrName@@YAXXZ
21F0 61 ??__EhrcSchemeAttrUnless@@YAXXZ
2210 61 ??__EhrcSymbAttrName@@YAXXZ
2230 61 ??__EhrcSymbAttrRegion@@YAXXZ
2250 61 ??__EhrcTagAnnotation@@YAXXZ
2270 61 ??__EhrcTagBlock@@YAXXZ
2290 61 ??__EhrcTagEntity@@YAXXZ
22B0 61 ??__EhrcTagFilename@@YAXXZ
22D0 61 ??__EhrcTagFirstline@@YAXXZ
22F0 61 ??__EhrcTagHrc@@YAXXZ
2310 61 ??__EhrcTagImport@@YAXXZ
2330 61 ??__EhrcTagInherit@@YAXXZ
2350 61 ??__EhrcTagKeywords@@YAXXZ
2370 61 ??__EhrcTagLocation@@YAXXZ
2390 61 ??__EhrcTagPackage@@YAXXZ
23B0 61 ??__EhrcTagParam@@YAXXZ
23D0 61 ??__EhrcTagParametrs@@YAXXZ
23F0 61 ??__EhrcTagPrototype@@YAXXZ
2410 61 ??__EhrcTagRegexp@@YAXXZ
2430 61 ??__EhrcTagRegion@@YAXXZ
2450 61 ??__EhrcTagScheme@@YAXXZ
2470 61 ??__EhrcTagSymb@@YAXXZ
2490 61 ??__EhrcTagType@@YAXXZ
24B0 61 ??__EhrcTagVirtual@@YAXXZ
24D0 61 ??__EhrcTagWord@@YAXXZ
24F0 61 ??__EhrcTypeAttrName@@YAXXZ
2510 61 ??__EhrcVirtualAttrScheme@@YAXXZ
2530 61 ??__EhrcVirtualAttrSubstScheme@@YAXXZ
2550 61 ??__EhrcWordAttrName@@YAXXZ
2570 61 ??__EhrcWordAttrRegion@@YAXXZ
2590 61 ??__EhrdAssignAttrBack@@YAXXZ
25B0 61 ??__EhrdAssignAttrEBack@@YAXXZ
25D0 61 ??__EhrdAssignAttrEText@@YAXXZ
25F0 61 ??__EhrdAssignAttrFore@@YAXXZ
2610 61 ??__EhrdAssignAttrName@@YAXXZ
2630 61 ??__EhrdAssignAttrSBack@@YAXXZ
2650 61 ??__EhrdAssignAttrSText@@YAXXZ
2670 61 ??__EhrdAssignAttrStyle@@YAXXZ
2690 61 ??__EhrdTagAssign@@YAXXZ
26B0 61 ??__EhrdTagHrd@@YAXXZ
26D0 61 ??__Evalue_low@@YAXXZ
26F0 61 ??__Evalue_yes@@YAXXZ
2710 74 ??__Ejar@@YAXXZ
2730 99 ??__Ejar@@YAXXZ
2750 83 ??__Ejar@@YAXXZ
2770 71 ??__EcatHrdAttrClass@@YAXXZ
2790 71 ??__EcatHrdAttrDescription@@YAXXZ
27B0 71 ??__EcatHrdAttrName@@YAXXZ
27D0 71 ??__EcatLocationAttrLink@@YAXXZ
27F0 71 ??__EcatTagCatalog@@YAXXZ
2810 71 ??__EcatTagHrcSets@@YAXXZ
2830 71 ??__EcatTagHrd@@YAXXZ
2850 71 ??__EcatTagHrdSets@@YAXXZ
2870 71 ??__EcatTagLocation@@YAXXZ
2890 71 ??__EhrcBlockAttrContentPriority@@YAXXZ
28B0 71 ??__EhrcBlockAttrEnd@@YAXXZ
28D0 71 ??__EhrcBlockAttrInnerRegion@@YAXXZ
28F0 71 ??__EhrcBlockAttrMatch@@YAXXZ
2910 71 ??__EhrcBlockAttrPriority@@YAXXZ
2930 71 ??__EhrcBlockAttrScheme@@YAXXZ
2950 71 ??__EhrcBlockAttrStart@@YAXXZ
2970 71 ??__EhrcEntityAttrName@@YAXXZ
2990 71 ??__EhrcEntityAttrValue@@YAXXZ
29B0 71 ??__EhrcFilenameAttrWeight@@YAXXZ
29D0 71 ??__EhrcFirstlineAttrWeight@@YAXXZ
29F0 71 ??__EhrcHrcAttrVersion@@YAXXZ
2A10 71 ??__EhrcImportAttrType@@YAXXZ
2A30 71 ??__EhrcInheritAttrScheme@@YAXXZ
2A50 71 ??__EhrcKeywordsAttrIgnorecase@@YAXXZ
2A70 71 ??__EhrcKeywordsAttrPriority@@YAXXZ
2A90 71 ??__EhrcKeywordsAttrRegion@@YAXXZ
2AB0 71 ??__EhrcKeywordsAttrWorddiv@@YAXXZ
2AD0 71 ??__EhrcLocationAttrLink@@YAXXZ
2AF0 71 ??__EhrcPackageAttrDescription@@YAXXZ
2B10 71 ??__EhrcPackageAttrGroup@@YAXXZ
2B30 71 ??__EhrcPackageAttrName@@YAXXZ
2B50 71 ??__EhrcParamAttrDescription@@YAXXZ
2B70 71 ??__EhrcParamAttrName@@YAXXZ
2B90 71 ??__EhrcParamAttrValue@@YAXXZ
2BB0 71 ??__EhrcPrototypeAttrDescription@@YAXXZ
2BD0 71 ??__EhrcPrototypeAttrGroup@@YAXXZ
2BF0 71 ??__EhrcPrototypeAttrName@@YAXXZ
2C10 71 ??__EhrcRegexpAttrMatch@@YAXXZ
2C30 71 ??__EhrcRegexpAttrPriority@@YAXXZ
2C50 71 ??__EhrcRegexpAttrRegion@@YAXXZ
2C70 71 ??__EhrcRegionAttrDescription@@YAXXZ
2C90 71 ??__EhrcRegionAttrName@@YAXXZ
2CB0 71 ??__EhrcRegionAttrParent@@YAXXZ
2CD0 71 ??__EhrcSchemeAttrIf@@YAXXZ
2CF0 71 ??__EhrcSchemeAttrName@@YAXXZ
2D10 71 ??__EhrcSchemeAttrUnless@@YAXXZ
2D30 71 ??__EhrcSymbAttrName@@YAXXZ
2D50 71 ??__EhrcSymbAttrRegion@@YAXXZ
2D70 71 ??__EhrcTagAnnotation@@YAXXZ
2D90 71 ??__EhrcTagBlock@@YAXXZ
2DB0 71 ??__EhrcTagEntity@@YAXXZ
2DD0 71 ??__EhrcTagFilename@@YAXXZ
2DF0 71 ??__EhrcTagFirstline@@YAXXZ
2E10 71 ??__EhrcTagHrc@@YAXXZ
2E30 71 ??__EhrcTagImport@@YAXXZ
2E50 71 ??__EhrcTagInherit@@YAXXZ
2E70 71 ??__EhrcTagKeywords@@YAXXZ
2E90 71 ??__EhrcTagLocation@@YAXXZ
2EB0 71 ??__EhrcTagPackage@@YAXXZ
2ED0 71 ??__EhrcTagParam@@YAXXZ
2EF0 71 ??__EhrcTagParametrs@@YAXXZ
2F10 71 ??__EhrcTagPrototype@@YAXXZ
2F30 71 ??__EhrcTagRegexp@@YAXXZ
2F50 71 ??__EhrcTagRegion@@YAXXZ
2F70 71 ??__EhrcTagScheme@@YAXXZ
2F90 71 ??__EhrcTagSymb@@YAXXZ
2FB0 71 ??__EhrcTagType@@YAXXZ
2FD0 71 ??__EhrcTagVirtual@@YAXXZ
2FF0 71 ??__EhrcTagWord@@YAXXZ
3010 71 ??__EhrcTypeAttrName@@YAXXZ
3030 71 ??__EhrcVirtualAttrScheme@@YAXXZ
3050 71 ??__EhrcVirtualAttrSubstScheme@@YAXXZ
3070 71 ??__EhrcWordAttrName@@YAXXZ
3090 71 ??__EhrcWordAttrRegion@@YAXXZ
30B0 71 ??__EhrdAssignAttrBack@@YAXXZ
30D0 71 ??__EhrdAssignAttrEBack@@YAXXZ
30F0 71 ??__EhrdAssignAttrEText@@YAXXZ
3110 71 ??__EhrdAssignAttrFore@@YAXXZ
3130 71 ??__EhrdAssignAttrName@@YAXXZ
3150 71 ??__EhrdAssignAttrSBack@@YAXXZ
3170 71 ??__EhrdAssignAttrSText@@YAXXZ
3190 71 ??__EhrdAssignAttrStyle@@YAXXZ
31B0 71 ??__EhrdTagAssign@@YAXXZ
31D0 71 ??__EhrdTagHrd@@YAXXZ
31F0 71 ??__Evalue_low@@YAXXZ
3210 71 ??__Evalue_yes@@YAXXZ
3230 75 ??__E?current_file@LibXmlReader@@0V?$unique_ptr@VUnicodeString@icu_72@@U?$default_delete@VUnicodeString@icu_72@@@std@@@std@@A@@YAXXZ
3240 75 ??__Ejar@@YAXXZ
3260 87 ??__EcatHrdAttrClass@@YAXXZ
3280 87 ??__EcatHrdAttrDescription@@YAXXZ
32A0 87 ??__EcatHrdAttrName@@YAXXZ
32C0 87 ??__EcatLocationAttrLink@@YAXXZ
32E0 87 ??__EcatTagCatalog@@YAXXZ
3300 87 ??__EcatTagHrcSets@@YAXXZ
3320 87 ??__EcatTagHrd@@YAXXZ
3340 87 ??__EcatTagHrdSets@@YAXXZ
3360 87 ??__EcatTagLocation@@YAXXZ
3380 87 ??__EhrcBlockAttrContentPriority@@YAXXZ
33A0 87 ??__EhrcBlockAttrEnd@@YAXXZ
33C0 87 ??__EhrcBlockAttrInnerRegion@@YAXXZ
33E0 87 ??__EhrcBlockAttrMatch@@YAXXZ
3400 87 ??__EhrcBlockAttrPriority@@YAXXZ
3420 87 ??__EhrcBlockAttrScheme@@YAXXZ
3440 87 ??__EhrcBlockAttrStart@@YAXXZ
3460 87 ??__EhrcEntityAttrName@@YAXXZ
3480 87 ??__EhrcEntityAttrValue@@YAXXZ
34A0 87 ??__EhrcFilenameAttrWeight@@YAXXZ
34C0 87 ??__EhrcFirstlineAttrWeight@@YAXXZ
34E0 87 ??__EhrcHrcAttrVersion@@YAXXZ
3500 87 ??__EhrcImportAttrType@@YAXXZ
3520 87 ??__EhrcInheritAttrScheme@@YAXXZ
3540 87 ??__EhrcKeywordsAttrIgnorecase@@YAXXZ
3560 87 ??__EhrcKeywordsAttrPriority@@YAXXZ
3580 87 ??__EhrcKeywordsAttrRegion@@YAXXZ
35A0 87 ??__EhrcKeywordsAttrWorddiv@@YAXXZ
35C0 87 ??__EhrcLocationAttrLink@@YAXXZ
35E0 87 ??__EhrcPackageAttrDescription@@YAXXZ
3600 87 ??__EhrcPackageAttrGroup@@YAXXZ
3620 87 ??__EhrcPackageAttrName@@YAXXZ
3640 87 ??__EhrcParamAttrDescription@@YAXXZ
3660 87 ??__EhrcParamAttrName@@YAXXZ
3680 87 ??__EhrcParamAttrValue@@YAXXZ
36A0 87 ??__EhrcPrototypeAttrDescription@@YAXXZ
36C0 87 ??__EhrcPrototypeAttrGroup@@YAXXZ
36E0 87 ??__EhrcPrototypeAttrName@@YAXXZ
3700 87 ??__EhrcRegexpAttrMatch@@YAXXZ
3720 87 ??__EhrcRegexpAttrPriority@@YAXXZ
3740 87 ??__EhrcRegexpAttrRegion@@YAXXZ
3760 87 ??__EhrcRegionAttrDescription@@YAXXZ
3780 87 ??__EhrcRegionAttrName@@YAXXZ
37A0 87 ??__EhrcRegionAttrParent@@YAXXZ
37C0 87 ??__EhrcSchemeAttrIf@@YAXXZ
37E0 87 ??__EhrcSchemeAttrName@@YAXXZ
3800 87 ??__EhrcSchemeAttrUnless@@YAXXZ
3820 87 ??__EhrcSymbAttrName@@YAXXZ
3840 87 ??__EhrcSymbAttrRegion@@YAXXZ
3860 87 ??__EhrcTagAnnotation@@YAXXZ
3880 87 ??__EhrcTagBlock@@YAXXZ
38A0 87 ??__EhrcTagEntity@@YAXXZ
38C0 87 ??__EhrcTagFilename@@YAXXZ
38E0 87 ??__EhrcTagFirstline@@YAXXZ
3900 87 ??__EhrcTagHrc@@YAXXZ
3920 87 ??__EhrcTagImport@@YAXXZ
3940 87 ??__EhrcTagInherit@@YAXXZ
3960 87 ??__EhrcTagKeywords@@YAXXZ
3980 87 ??__EhrcTagLocation@@YAXXZ
39A0 87 ??__EhrcTagPackage@@YAXXZ
39C0 87 ??__EhrcTagParam@@YAXXZ
39E0 87 ??__EhrcTagParametrs@@YAXXZ
3A00 87 ??__EhrcTagPrototype@@YAXXZ
3A20 87 ??__EhrcTagRegexp@@YAXXZ
3A40 87 ??__EhrcTagRegion@@YAXXZ
3A60 87 ??__EhrcTagScheme@@YAXXZ
3A80 87 ??__EhrcTagSymb@@YAXXZ
3AA0 87 ??__EhrcTagType@@YAXXZ
3AC0 87 ??__EhrcTagVirtual@@YAXXZ
3AE0 87 ??__EhrcTagWord@@YAXXZ
3B00 87 ??__EhrcTypeAttrName@@YAXXZ
3B20 87 ??__EhrcVirtualAttrScheme@@YAXXZ
3B40 87 ??__EhrcVirtualAttrSubstScheme@@YAXXZ
3B60 87 ??__EhrcWordAttrName@@YAXXZ
3B80 87 ??__EhrcWordAttrRegion@@YAXXZ
3BA0 87 ??__EhrdAssignAttrBack@@YAXXZ
3BC0 87 ??__EhrdAssignAttrEBack@@YAXXZ
3BE0 87 ??__EhrdAssignAttrEText@@YAXXZ
3C00 87 ??__EhrdAssignAttrFore@@YAXXZ
3C20 87 ??__EhrdAssignAttrName@@YAXXZ
3C40 87 ??__EhrdAssignAttrSBack@@YAXXZ
3C60 87 ??__EhrdAssignAttrSText@@YAXXZ
3C80 87 ??__EhrdAssignAttrStyle@@YAXXZ
3CA0 87 ??__EhrdTagAssign@@YAXXZ
3CC0 87 ??__EhrdTagHrd@@YAXXZ
3CE0 87 ??__Evalue_low@@YAXXZ
3D00 87 ??__Evalue_yes@@YAXXZ
3D20 90 ??__EcatHrdAttrClass@@YAXXZ
3D40 90 ??__EcatHrdAttrDescription@@YAXXZ
3D60 90 ??__EcatHrdAttrName@@YAXXZ
3D80 90 ??__EcatLocationAttrLink@@YAXXZ
3DA0 90 ??__EcatTagCatalog@@YAXXZ
3DC0 90 ??__EcatTagHrcSets@@YAXXZ
3DE0 90 ??__EcatTagHrd@@YAXXZ
3E00 90 ??__EcatTagHrdSets@@YAXXZ
3E20 90 ??__EcatTagLocation@@YAXXZ
3E40 90 ??__EhrcBlockAttrContentPriority@@YAXXZ
3E60 90 ??__EhrcBlockAttrEnd@@YAXXZ
3E80 90 ??__EhrcBlockAttrInnerRegion@@YAXXZ
3EA0 90 ??__EhrcBlockAttrMatch@@YAXXZ
3EC0 90 ??__EhrcBlockAttrPriority@@YAXXZ
3EE0 90 ??__EhrcBlockAttrScheme@@YAXXZ
3F00 90 ??__EhrcBlockAttrStart@@YAXXZ
3F20 90 ??__EhrcEntityAttrName@@YAXXZ
3F40 90 ??__EhrcEntityAttrValue@@YAXXZ
3F60 90 ??__EhrcFilenameAttrWeight@@YAXXZ
3F80 90 ??__EhrcFirstlineAttrWeight@@YAXXZ
3FA0 90 ??__EhrcHrcAttrVersion@@YAXXZ
3FC0 90 ??__EhrcImportAttrType@@YAXXZ
3FE0 90 ??__EhrcInheritAttrScheme@@YAXXZ
4000 90 ??__EhrcKeywordsAttrIgnorecase@@YAXXZ
4020 90 ??__EhrcKeywordsAttrPriority@@YAXXZ
4040 90 ??__EhrcKeywordsAttrRegion@@YAXXZ
4060 90 ??__EhrcKeywordsAttrWorddiv@@YAXXZ
4080 90 ??__EhrcLocationAttrLink@@YAXXZ
40A0 90 ??__EhrcPackageAttrDescription@@YAXXZ
40C0 90 ??__EhrcPackageAttrGroup@@YAXXZ
40E0 90 ??__EhrcPackageAttrName@@YAXXZ
4100 90 ??__EhrcParamAttrDescription@@YAXXZ
4120 90 ??__EhrcParamAttrName@@YAXXZ
4140 90 ??__EhrcParamAttrValue@@YAXXZ
4160 90 ??__EhrcPrototypeAttrDescription@@YAXXZ
4180 90 ??__EhrcPrototypeAttrGroup@@YAXXZ
41A0 90 ??__EhrcPrototypeAttrName@@YAXXZ
41C0 90 ??__EhrcRegexpAttrMatch@@YAXXZ
41E0 90 ??__EhrcRegexpAttrPriority@@YAXXZ
4200 90 ??__EhrcRegexpAttrRegion@@YAXXZ
4220 90 ??__EhrcRegionAttrDescription@@YAXXZ
4240 90 ??__EhrcRegionAttrName@@YAXXZ
4260 90 ??__EhrcRegionAttrParent@@YAXXZ
4280 90 ??__EhrcSchemeAttrIf@@YAXXZ
42A0 90 ??__EhrcSchemeAttrName@@YAXXZ
42C0 90 ??__EhrcSchemeAttrUnless@@YAXXZ
42E0 90 ??__EhrcSymbAttrName@@YAXXZ
4300 90 ??__EhrcSymbAttrRegion@@YAXXZ
4320 90 ??__EhrcTagAnnotation@@YAXXZ
4340 90 ??__EhrcTagBlock@@YAXXZ
4360 90 ??__EhrcTagEntity@@YAXXZ
4380 90 ??__EhrcTagFilename@@YAXXZ
43A0 90 ??__EhrcTagFirstline@@YAXXZ
43C0 90 ??__EhrcTagHrc@@YAXXZ
43E0 90 ??__EhrcTagImport@@YAXXZ
4400 90 ??__EhrcTagInherit@@YAXXZ
4420 90 ??__EhrcTagKeywords@@YAXXZ
4440 90 ??__EhrcTagLocation@@YAXXZ
4460 90 ??__EhrcTagPackage@@YAXXZ
4480 90 ??__EhrcTagParam@@YAXXZ
44A0 90 ??__EhrcTagParametrs@@YAXXZ
44C0 90 ??__EhrcTagPrototype@@YAXXZ
44E0 90 ??__EhrcTagRegexp@@YAXXZ
4500 90 ??__EhrcTagRegion@@YAXXZ
4520 90 ??__EhrcTagScheme@@YAXXZ
4540 90 ??__EhrcTagSymb@@YAXXZ
4560 90 ??__EhrcTagType@@YAXXZ
4580 90 ??__EhrcTagVirtual@@YAXXZ
45A0 90 ??__EhrcTagWord@@YAXXZ
45C0 90 ??__EhrcTypeAttrName@@YAXXZ
45E0 90 ??__EhrcVirtualAttrScheme@@YAXXZ
4600 90 ??__EhrcVirtualAttrSubstScheme@@YAXXZ
4620 90 ??__EhrcWordAttrName@@YAXXZ
4640 90 ??__EhrcWordAttrRegion@@YAXXZ
4660 90 ??__EhrdAssignAttrBack@@YAXXZ
4680 90 ??__EhrdAssignAttrEBack@@YAXXZ
46A0 90 ??__EhrdAssignAttrEText@@YAXXZ
46C0 90 ??__EhrdAssignAttrFore@@YAXXZ
46E0 90 ??__EhrdAssignAttrName@@YAXXZ
4700 90 ??__EhrdAssignAttrSBack@@YAXXZ
4720 90 ??__EhrdAssignAttrSText@@YAXXZ
4740 90 ??__EhrdAssignAttrStyle@@YAXXZ
4760 90 ??__EhrdTagAssign@@YAXXZ
4780 90 ??__EhrdTagHrd@@YAXXZ
47A0 90 ??__Evalue_low@@YAXXZ
47C0 90 ??__Evalue_yes@@YAXXZ
47DB 222 ??__Einitlocks@std@@YAXXZ
47F1 211 ??__E_Fac_tidy_reg@std@@YAXXZ
47FD 211 ??__Eclassic_locale@std@@YAXXZ
4809 209 ??__Einit_atexit@@YAXXZ
4815 209 ??__Einitlocks@std@@YAXXZ
4830 4 ??0exception@std@@QAE@ABV01@@Z
4860 473 ??1__non_rtti_object@std@@UAE@XZ
4880 4 ?what@exception@std@@UBEPBDXZ
4890 0 ??_Ebad_alloc@std@@UAEPAXI@Z
48C0 4 ??0bad_array_new_length@std@@QAE@XZ
48E0 4 ?_Throw_bad_array_new_length@std@@YAXXZ
4900 4 ??0bad_array_new_length@std@@QAE@ABV01@@Z
4930 4 ??0bad_alloc@std@@QAE@ABV01@@Z
4960 0 ??_EReplaceable@icu_72@@UAEPAXI@Z
49A0 0 ??_EUObject@icu_72@@UAEPAXI@Z
49E0 4 ?_Xlen_string@std@@YAXXZ
49F0 4 ?pinIndices@UnicodeString@icu_72@@ABEXAAH0@Z
4A40 0 ??_EUnicodeString@icu_72@@UAEPAXI@Z
4A80 175 ?getLength@UnicodeString@icu_72@@MBEHXZ
4AA0 4 ?compare@UnicodeString@icu_72@@QBECABV12@@Z
4B40 4 ?append@UnicodeString@icu_72@@QAEAAV12@ABV12@@Z
4B70 4 ??1Exception@@UAE@XZ
4BD0 4 ??1ChooseTypeMenu@@QAE@XZ
4C10 4 ?AddItem@ChooseTypeMenu@@AAEIPB_W_KPBVFileType@@I@Z
4CF0 4 ??0Exception@@QAE@ABV0@@Z
4D60 61 ??_ECatalogParserException@@UAEPAXI@Z
4D80 4 ?AddItem@ChooseTypeMenu@@QAEIPBVFileType@@I@Z
4E40 4 ?AddFavorite@ChooseTypeMenu@@QAEIPBVFileType@@@Z
4F30 4 ?DelFromFavorites@ChooseTypeMenu@@QAEXI@Z
50E0 4 ?AddItemInGroup@ChooseTypeMenu@@QAEIPAVFileType@@@Z
5290 4 ?GenerateName@ChooseTypeMenu@@SAPAVUnicodeString@icu_72@@PBVFileType@@@Z
5460 89 ??1TextConsoleViewer@@QAE@XZ
5470 64 ??1?$basic_string@_SU?$char_traits@_S@std@@V?$allocator@_S@2@@std@@QAE@XZ
54D0 4 ??1?$basic_string@DU?$char_traits@D@std@@V?$allocator@D@2@@std@@QAE@XZ
5520 4 ??0?$basic_string@DU?$char_traits@D@std@@V?$allocator@D@2@@std@@QAE@ABV01@@Z
55D0 4 ?deallocate@?$allocator@D@std@@QAEXQADI@Z
5610 4 ??$_Allocate_for_capacity@$0A@@?$basic_string@DU?$char_traits@D@std@@V?$allocator@D@2@@std@@CAPADAAV?$allocator@D@1@AAI@Z
5670 4 ??$_Allocate_at_least_helper@V?$allocator@D@std@@@std@@YAPADAAV?$allocator@D@0@AAI@Z
56C0 5 ___local_stdio_printf_options
56D0 5 __vsnwprintf_l
5710 5 __snwprintf
5730 5 __vsprintf_s_l
5770 5 _sprintf_s
5790 5 ??0exception@std@@QAE@QBD@Z
57D0 0 ??_EByteSink@icu_72@@UAEPAXI@Z
5810 5 ??AUnicodeString@icu_72@@QBE_SH@Z
5860 5 ??0bad_cast@std@@QAE@XZ
5880 5 ?_Throw_bad_cast@std@@YAXXZ
58A0 5 ??0bad_cast@std@@QAE@ABV01@@Z
58D0 5 ??0runtime_error@std@@QAE@ABV?$basic_string@DU?$char_traits@D@std@@V?$allocator@D@2@@1@@Z
5920 5 ??0runtime_error@std@@QAE@ABV01@@Z
5950 5 ?default_error_condition@error_category@std@@UBE?AVerror_condition@2@H@Z
5960 5 ?equivalent@error_category@std@@UBE_NHABVerror_condition@2@@Z
59A0 5 ?equivalent@error_category@std@@UBE_NABVerror_code@2@H@Z
59D0 5 ?make_error_code@std@@YA?AVerror_code@1@W4io_errc@1@@Z
59F0 5 ??0_System_error@std@@IAE@Verror_code@1@ABV?$basic_string@DU?$char_traits@D@std@@V?$allocator@D@2@@1@@Z
5B80 0 ??_E_System_error@std@@UAEPAXI@Z
5BB0 5 ??0system_error@std@@QAE@ABV01@@Z
5C00 5 ??0_System_error@std@@QAE@ABV01@@Z
5C40 5 ?name@_Iostream_error_category2@std@@UBEPBDXZ
5C50 5 ?message@_Iostream_error_category2@std@@UBE?AV?$basic_string@DU?$char_traits@D@std@@V?$allocator@D@2@@2@H@Z
5D10 64 ??_E_Generic_error_category@std@@UAEPAXI@Z
5D30 0 ??_E_Facet_base@std@@UAEPAXI@Z
5D60 5 ??0_Locinfo@std@@QAE@PBD@Z
5E00 5 ??1_Locinfo@std@@QAE@XZ
5ED0 5 ?_Incref@facet@locale@std@@UAEXXZ
5EE0 5 ?_Decref@facet@locale@std@@UAEPAV_Facet_base@3@XZ
5F00 5 ??1facet@locale@std@@MAE@XZ
5F10 5 ??1locale@std@@QAE@XZ
5F30 5 ?do_tolower@?$ctype@D@std@@MBEDD@Z
5F50 5 ?do_tolower@?$ctype@D@std@@MBEPBDPADPBD@Z
5F80 5 ?do_toupper@?$ctype@D@std@@MBEDD@Z
5FA0 5 ?do_toupper@?$ctype@D@std@@MBEPBDPADPBD@Z
5FD0 5 ?do_widen@?$ctype@D@std@@MBEDD@Z
5FE0 5 ?do_widen@?$ctype@D@std@@MBEPBDPBD0PAD@Z
6000 5 ?do_narrow@?$ctype@D@std@@MBEDDD@Z
6010 5 ?do_narrow@?$ctype@D@std@@MBEPBDPBD0DPAD@Z
6030 0 ??_E?$ctype@D@std@@MAEPAXI@Z
6080 5 ??0failure@ios_base@std@@QAE@PBDABVerror_code@2@@Z
6160 5 ?clear@ios_base@std@@QAEXH_N@Z
61E0 5 ??0failure@ios_base@std@@QAE@ABV012@@Z
6230 0 ??_Eios_base@std@@UAEPAXI@Z
6290 5 ?print@?$ArgumentT@VUnicodeString@icu_72@@@details@@UBEXAAV?$basic_ostream@DU?$char_traits@D@std@@@std@@@Z
6380 5 ?endJob@LineSource@@UAEXI@Z
6390 5 ??0FarEditor@@QAE@PAUPluginStartupInfo@@PAVParserFactory@@PBVUnicodeString@icu_72@@@Z
64D0 0 ??_EFarEditor@@UAEPAXI@Z
6580 5 ?init@FarEditor@@AAEXXZ
6720 5 ?destroy@FarEditor@@AAEXXZ
67A0 5 ?endJob@FarEditor@@UAEXI@Z
67C0 5 ?getLine@FarEditor@@UAEPAVUnicodeString@icu_72@@I@Z
68D0 5 ?chooseFileType@FarEditor@@QAEXPBVUnicodeString@icu_72@@@Z
6C00 5 ?setFileType@FarEditor@@QAEXPAVFileType@@@Z
6C70 5 ?reloadTypeSettings@FarEditor@@AAEXXZ
7190 5 ?setCrossState@FarEditor@@QAEXHH@Z
7440 5 ?matchPair@FarEditor@@QAEXXZ
7520 5 ?selectPair@FarEditor@@QAEXXZ
75F0 5 ?selectBlock@FarEditor@@QAEXXZ
76C0 5 ?selectRegion@FarEditor@@QAEXXZ
77B0 5 ?getNameCurrentScheme@FarEditor@@QAEXXZ
79C0 5 ?listFunctions@FarEditor@@QAEXXZ
79E0 5 ?listErrors@FarEditor@@QAEXXZ
7A00 5 ?locateFunction@FarEditor@@QAEXXZ
7D80 5 ?updateHighlighting@FarEditor@@QAEXXZ
7DD0 5 ?editorEvent@FarEditor@@QAEHHPAX@Z
85BC 5 $LN205
85C8 5 $LN204
85D8 5 $LN208
85E4 5 $LN207
8600 5 ?showOutliner@FarEditor@@AAEXPAVOutliner@@@Z
9788 5 $LN429
97C0 5 ?getEditorInfo@FarEditor@@AAE?AUEditorInfo@@XZ
9800 5 ?convert@FarEditor@@ABE?AUFarColor@@PBVStyledRegion@@@Z
9A20 5 ?addFARColor@FarEditor@@ABEXHHHABUFarColor@@_K@Z
9C50 5 ?cleanEditor@FarEditor@@QAEXXZ
9CE0 5 ?changeCrossStyle@FarEditor@@QAEXW4CROSS_STYLE@1@@Z
9D14 5 $LN9
9D30 5 ?hasWork@FarEditor@@QAEEXZ
9D90 64 ??1?$_Vb_val@V?$allocator@_N@std@@@std@@QAE@XZ
9DF0 5 ??1?$unique_ptr@VBaseEditor@@U?$default_delete@VBaseEditor@@@std@@@std@@QAE@XZ
9E00 5 ??1?$unique_ptr@VLineRegion@@U?$default_delete@VLineRegion@@@std@@@std@@QAE@XZ
9E20 116 ??1?$LocalPointer@VStringEnumeration@icu_72@@@icu_72@@QAE@XZ
9E30 5 ??1?$basic_ostream@DU?$char_traits@D@std@@@std@@UAE@XZ
9E50 5 ??1?$basic_ios@DU?$char_traits@D@std@@@std@@UAE@XZ
9EA0 5 ??1?$_Yarn@D@std@@QAE@XZ
9EC0 5 ??0?$basic_string@DU?$char_traits@D@std@@V?$allocator@D@2@@std@@QAE@ID@Z
9F70 5 ??0?$basic_string@DU?$char_traits@D@std@@V?$allocator@D@2@@std@@QAE@QBD@Z
9FB0 5 ??0?$basic_string_view@DU?$char_traits@D@std@@@std@@QAE@QBD@Z
9FE0 0 ??_E?$basic_ostream@DU?$char_traits@D@std@@@std@@UAEPAXI@Z
A060 0 ??_E?$basic_ios@DU?$char_traits@D@std@@@std@@UAEPAXI@Z
A0C0 5 ?append@?$basic_string@DU?$char_traits@D@std@@V?$allocator@D@2@@std@@QAEAAV12@QBDI@Z
A220 5 ??$use_facet@V?$ctype@D@std@@@std@@YAABV?$ctype@D@0@ABVlocale@0@@Z
A3A0 5 ??$toUTF8String@V?$basic_string@DU?$char_traits@D@std@@V?$allocator@D@2@@std@@@UnicodeString@icu_72@@QBEAAV?$basic_string@DU?$char_traits@D@std@@V?$allocator@D@2@@std@@AAV23@@Z
A430 5 ??$log@AAVUnicodeString@icu_72@@@Log@@SAXW4LogLevel@Logger@@PBDH1V?$basic_string_view@DU?$char_traits@D@std@@@std@@AAVUnicodeString@icu_72@@@Z
A520 5 ??$_Construct@$00PBD@?$basic_string@DU?$char_traits@D@std@@V?$allocator@D@2@@std@@AAEXQBDI@Z
A5B0 5 ??1?$StringByteSink@V?$basic_string@DU?$char_traits@D@std@@V?$allocator@D@2@@std@@@icu_72@@UAE@XZ
A5C0 5 ??_D?$basic_stringstream@DU?$char_traits@D@std@@V?$allocator@D@2@@std@@QAEXXZ
A680 5 ?seekpos@?$basic_stringbuf@DU?$char_traits@D@std@@V?$allocator@D@2@@std@@MAE?AV?$fpos@U_Mbstatet@@@2@V32@H@Z
A7F0 5 ?seekoff@?$basic_stringbuf@DU?$char_traits@D@std@@V?$allocator@D@2@@std@@MAE?AV?$fpos@U_Mbstatet@@@2@_JHH@Z
A9E0 5 ?underflow@?$basic_stringbuf@DU?$char_traits@D@std@@V?$allocator@D@2@@std@@MAEHXZ
AA40 5 ?pbackfail@?$basic_stringbuf@DU?$char_traits@D@std@@V?$allocator@D@2@@std@@MAEHH@Z
AA90 5 ?overflow@?$basic_stringbuf@DU?$char_traits@D@std@@V?$allocator@D@2@@std@@MAEHH@Z
ABE0 5 ??1?$basic_stringbuf@DU?$char_traits@D@std@@V?$allocator@D@2@@std@@UAE@XZ
ACF0 175 ?clone@Replaceable@icu_72@@UBEPAV12@XZ
AD00 5 ?setbuf@?$basic_streambuf@DU?$char_traits@D@std@@@std@@MAEPAV12@PAD_J@Z
AD10 5 ?seekpos@?$basic_streambuf@DU?$char_traits@D@std@@@std@@MAE?AV?$fpos@U_Mbstatet@@@2@V32@H@Z
AD40 5 ?seekoff@?$basic_streambuf@DU?$char_traits@D@std@@@std@@MAE?AV?$fpos@U_Mbstatet@@@2@_JHH@Z
AD70 5 ?xsputn@?$basic_streambuf@DU?$char_traits@D@std@@@std@@MAE_JPBD_J@Z
AE50 5 ?xsgetn@?$basic_streambuf@DU?$char_traits@D@std@@@std@@MAE_JPAD_J@Z
AF30 5 ?uflow@?$basic_streambuf@DU?$char_traits@D@std@@@std@@MAEHXZ
AF60 5 ?underflow@?$basic_streambuf@DU?$char_traits@D@std@@@std@@MAEHXZ
AF70 5 ?showmanyc@?$basic_streambuf@DU?$char_traits@D@std@@@std@@MAE_JXZ
AF80 5 ?overflow@?$basic_streambuf@DU?$char_traits@D@std@@@std@@MAEHH@Z
AF90 5 ?str@?$basic_stringstream@DU?$char_traits@D@std@@V?$allocator@D@2@@std@@QBE?AV?$basic_string@DU?$char_traits@D@std@@V?$allocator@D@2@@2@XZ
B070 5 ??0?$basic_stringstream@DU?$char_traits@D@std@@V?$allocator@D@2@@std@@QAE@XZ
B180 5 ??1?$basic_iostream@DU?$char_traits@D@std@@@std@@UAE@XZ
B1E0 5 ??1?$basic_istream@DU?$char_traits@D@std@@@std@@UAE@XZ
B200 5 ?Append@?$StringByteSink@V?$basic_string@DU?$char_traits@D@std@@V?$allocator@D@2@@std@@@icu_72@@UAEXPBDH@Z
B210 0 ??_E?$basic_stringbuf@DU?$char_traits@D@std@@V?$allocator@D@2@@std@@UAEPAXI@Z
B230 0 ??_E?$basic_streambuf@DU?$char_traits@D@std@@@std@@UAEPAXI@Z
B280 0 ??_E?$basic_stringstream@DU?$char_traits@D@std@@V?$allocator@D@2@@std@@UAEPAXI@Z
B2B0 0 ??_E?$basic_iostream@DU?$char_traits@D@std@@@std@@UAEPAXI@Z
B360 0 ??_E?$basic_istream@DU?$char_traits@D@std@@@std@@UAEPAXI@Z
B3E0 0 ??_E?$StringByteSink@V?$basic_string@DU?$char_traits@D@std@@V?$allocator@D@2@@std@@@icu_72@@UAEPAXI@Z
B420 5 ??0?$fpos@U_Mbstatet@@@std@@QAE@_J@Z
B450 5 ??0?$basic_ios@DU?$char_traits@D@std@@@std@@IAE@XZ
B4C0 5 ?reserve@?$basic_string@DU?$char_traits@D@std@@V?$allocator@D@2@@std@@QAEXI@Z
B610 5 ??0?$basic_streambuf@DU?$char_traits@D@std@@@std@@IAE@XZ
B6D0 5 ?assign@?$basic_string@DU?$char_traits@D@std@@V?$allocator@D@2@@std@@QAEAAV12@QBDI@Z
B7C0 5 ?_Init@?$basic_streambuf@DU?$char_traits@D@std@@@std@@IAEXXZ
B820 5 ?init@?$basic_ios@DU?$char_traits@D@std@@@std@@IAEXPAV?$basic_streambuf@DU?$char_traits@D@std@@@2@_N@Z
B950 5 ?setstate@?$basic_ios@DU?$char_traits@D@std@@@std@@QAEXH_N@Z
B980 5 ??$_Insert_string@DU?$char_traits@D@std@@I@std@@YAAAV?$basic_ostream@DU?$char_traits@D@std@@@0@AAV10@QBDI@Z
BB2A 5 __catch$??$_Insert_string@DU?$char_traits@D@std@@I@std@@YAAAV?$basic_ostream@DU?$char_traits@D@std@@@0@AAV10@QBDI@Z$0
BBC0 5 ??$format_log_string@AAVUnicodeString@icu_72@@@@YAXAAV?$basic_ostream@DU?$char_traits@D@std@@@std@@V?$basic_string_view@DU?$char_traits@D@std@@@1@AAVUnicodeString@icu_72@@@Z
BC10 5 ?print@?$ArgumentT@K@details@@UBEXAAV?$basic_ostream@DU?$char_traits@D@std@@@std@@@Z
BC30 5 ?print@?$ArgumentT@H@details@@UBEXAAV?$basic_ostream@DU?$char_traits@D@std@@@std@@@Z
BC50 5 ??1sentry@?$basic_ostream@DU?$char_traits@D@std@@@std@@QAE@XZ
BCB0 5 ??0sentry@?$basic_ostream@DU?$char_traits@D@std@@@std@@QAE@AAV12@@Z
BD40 5 ?sputn@?$basic_streambuf@DU?$char_traits@D@std@@@std@@QAE_JPBD_J@Z
BD60 5 ??1_Sentry_base@?$basic_ostream@DU?$char_traits@D@std@@@std@@QAE@XZ
BDA0 5 ?flush@?$basic_ostream@DU?$char_traits@D@std@@@std@@QAEAAV12@XZ
BE13 5 __catch$?flush@?$basic_ostream@DU?$char_traits@D@std@@@std@@QAEAAV12@XZ$0
BEA0 5 ??6?$basic_ostream@DU?$char_traits@D@std@@@std@@QAEAAV01@K@Z
BFB7 5 __catch$??6?$basic_ostream@DU?$char_traits@D@std@@@std@@QAEAAV01@K@Z$0
C040 5 ??6?$basic_ostream@DU?$char_traits@D@std@@@std@@QAEAAV01@H@Z
C158 5 __catch$??6?$basic_ostream@DU?$char_traits@D@std@@@std@@QAEAAV01@H@Z$0
C1E0 5 ?_Osfx@?$basic_ostream@DU?$char_traits@D@std@@@std@@QAEXXZ
C252 5 __catch$?_Osfx@?$basic_ostream@DU?$char_traits@D@std@@@std@@QAEXXZ$0
C260 5 ?do_put@?$num_put@DV?$ostreambuf_iterator@DU?$char_traits@D@std@@@std@@@std@@MBE?AV?$ostreambuf_iterator@DU?$char_traits@D@std@@@2@V32@AAVios_base@2@DPBX@Z
C2B0 5 ?do_put@?$num_put@DV?$ostreambuf_iterator@DU?$char_traits@D@std@@@std@@@std@@MBE?AV?$ostreambuf_iterator@DU?$char_traits@D@std@@@2@V32@AAVios_base@2@DO@Z
C490 5 ?do_put@?$num_put@DV?$ostreambuf_iterator@DU?$char_traits@D@std@@@std@@@std@@MBE?AV?$ostreambuf_iterator@DU?$char_traits@D@std@@@2@V32@AAVios_base@2@DN@Z
C670 5 ?do_put@?$num_put@DV?$ostreambuf_iterator@DU?$char_traits@D@std@@@std@@@std@@MBE?AV?$ostreambuf_iterator@DU?$char_traits@D@std@@@2@V32@AAVios_base@2@D_K@Z
C730 5 ?do_put@?$num_put@DV?$ostreambuf_iterator@DU?$char_traits@D@std@@@std@@@std@@MBE?AV?$ostreambuf_iterator@DU?$char_traits@D@std@@@2@V32@AAVios_base@2@D_J@Z
C7F0 5 ?do_put@?$num_put@DV?$ostreambuf_iterator@DU?$char_traits@D@std@@@std@@@std@@MBE?AV?$ostreambuf_iterator@DU?$char_traits@D@std@@@2@V32@AAVios_base@2@DK@Z
C8A0 5 ?do_put@?$num_put@DV?$ostreambuf_iterator@DU?$char_traits@D@std@@@std@@@std@@MBE?AV?$ostreambuf_iterator@DU?$char_traits@D@std@@@2@V32@AAVios_base@2@DJ@Z
C950 5 ?do_put@?$num_put@DV?$ostreambuf_iterator@DU?$char_traits@D@std@@@std@@@std@@MBE?AV?$ostreambuf_iterator@DU?$char_traits@D@std@@@2@V32@AAVios_base@2@D_N@Z
CB40 0 ??_E?$codecvt@DDU_Mbstatet@@@std@@MAEPAXI@Z
CB70 5 ?do_truename@?$numpunct@D@std@@MBE?AV?$basic_string@DU?$char_traits@D@std@@V?$allocator@D@2@@2@XZ
CBB0 5 ?do_falsename@?$numpunct@D@std@@MBE?AV?$basic_string@DU?$char_traits@D@std@@V?$allocator@D@2@@2@XZ
CBF0 5 ?do_grouping@?$numpunct@D@std@@MBE?AV?$basic_string@DU?$char_traits@D@std@@V?$allocator@D@2@@2@XZ
CC30 5 ?do_thousands_sep@?$numpunct@D@std@@MBEDXZ
CC40 5 ?do_decimal_point@?$numpunct@D@std@@MBEDXZ
CC50 5 ?_Rep@?$num_put@DV?$ostreambuf_iterator@DU?$char_traits@D@std@@@std@@@std@@ABA?AV?$ostreambuf_iterator@DU?$char_traits@D@std@@@2@V32@DI@Z
CCC0 5 ?_Put@?$num_put@DV?$ostreambuf_iterator@DU?$char_traits@D@std@@@std@@@std@@ABA?AV?$ostreambuf_iterator@DU?$char_traits@D@std@@@2@V32@PBDI@Z
CD40 5 ?_Iput@?$num_put@DV?$ostreambuf_iterator@DU?$char_traits@D@std@@@std@@@std@@ABA?AV?$ostreambuf_iterator@DU?$char_traits@D@std@@@2@V32@AAVios_base@2@DPADI@Z
D240 5 ?_Ffmt@?$num_put@DV?$ostreambuf_iterator@DU?$char_traits@D@std@@@std@@@std@@ABAPADPADDH@Z
D300 0 ??_E?$numpunct@D@std@@MAEPAXI@Z
D350 5 ?append@?$basic_string@DU?$char_traits@D@std@@V?$allocator@D@2@@std@@QAEAAV12@ID@Z
D4B0 5 ?_Xran@?$_String_val@U?$_Simple_types@D@std@@@std@@SAXXZ
D4C0 5 ??$use_facet@V?$num_put@DV?$ostreambuf_iterator@DU?$char_traits@D@std@@@std@@@std@@@std@@YAABV?$num_put@DV?$ostreambuf_iterator@DU?$char_traits@D@std@@@std@@@0@ABVlocale@0@@Z
D600 5 ??$_Fput_v3@$0A@@?$num_put@DV?$ostreambuf_iterator@DU?$char_traits@D@std@@@std@@@std@@ABE?AV?$ostreambuf_iterator@DU?$char_traits@D@std@@@1@V21@AAVios_base@1@DPBDI_N@Z
DB60 5 ??$use_facet@V?$numpunct@D@std@@@std@@YAABV?$numpunct@D@0@ABVlocale@0@@Z
DD80 5 ??1?$_Tidy_guard@V?$numpunct@D@std@@@std@@QAE@XZ
DDA4 5 ??_E?$basic_ostream@DU?$char_traits@D@std@@@std@@$4PPPPPPPM@A@AEPAXI@Z
DDAC 5 ??_E?$basic_stringstream@DU?$char_traits@D@std@@V?$allocator@D@2@@std@@$4PPPPPPPM@A@AEPAXI@Z
DDB4 5 ??_E?$basic_istream@DU?$char_traits@D@std@@@std@@$4PPPPPPPM@A@AEPAXI@Z
DDBC 5 ??_E?$basic_iostream@DU?$char_traits@D@std@@@std@@$4PPPPPPPM@A@AEPAXI@Z
DDD0 6 _ceilf
DE10 6 ??8UnicodeString@icu_72@@QBE_NABV01@@Z
DE70 6 ?do_encoding@codecvt_base@std@@MBEHXZ
DE80 6 ??0FarMacroValue@@QAE@XZ
DE90 6 ?SaveValue@PluginCheckBoxBinding@@UAEXPBUFarDialogItem@@H@Z
DEE0 0 ??_EPluginCheckBoxBinding@@UAEPAXI@Z
DF00 6 ?SaveValue@PluginEditFieldBinding@@UAEXPBUFarDialogItem@@H@Z
E040 6 ?SaveValue@PluginIntEditFieldBinding@@UAEXPBUFarDialogItem@@H@Z
E070 0 ??_EPluginIntEditFieldBinding@@UAEPAXI@Z
E090 6 ?SaveValue@PluginListControlBinding@@UAEXPBUFarDialogItem@@H@Z
E100 0 ??_EPluginListControlBinding@@UAEPAXI@Z
E140 6 ??0PluginDialogBuilder@@QAE@ABUPluginStartupInfo@@ABU_GUID@@1HPB_WP6GHPAXHH3@Z3_K@Z
E220 6 ??1PluginDialogBuilder@@QAE@XZ
E2A0 6 ?AddCheckbox@PluginDialogBuilder@@QAEPAUFarDialogItem@@HPAHH_N@Z
E398 6 $LN41
E3A8 6 $LN40
E3C0 6 ?AddTextBefore@PluginDialogBuilder@@QAEPAUFarDialogItem@@PAU2@H@Z
E484 6 $LN35
E494 6 $LN34
E4A0 6 ?AddEditField@PluginDialogBuilder@@QAEPAUFarDialogItem@@PA_WHHPB_W_N@Z
E550 6 ?AddComboBox@PluginDialogBuilder@@QAEPAUFarDialogItem@@PAHPA_WHPBQB_WI_K@Z
E6A0 6 ?AddButtons@PluginDialogBuilder@@QAEXHPBHHH@Z
E894 6 $LN52
E8A4 6 $LN51
E8B0 6 ?ShowDialogEx@PluginDialogBuilder@@QAEHXZ
EB1C 6 $LN76
EB2C 6 $LN75
EB40 6 ?AddDialogItem@PluginDialogBuilder@@AAEPAUFarDialogItem@@W4FARDIALOGITEMTYPES@@PB_W@Z
EC50 6 ??$_Fputc@D@std@@YA_NDPAU_iobuf@@@Z
EC70 6 ?open_logfile@SimpleLogger@@QAEXXZ
EDC0 6 ?log@SimpleLogger@@UAEXW4LogLevel@Logger@@PBDH11@Z
EE90 6 ?getLogLevel@SimpleLogger@@SA?AW4LogLevel@Logger@@ABV?$basic_string@DU?$char_traits@D@std@@V?$allocator@D@2@@std@@@Z
EF10 6 ?flush@SimpleLogger@@UAEXXZ
EF30 0 ??_ESimpleLogger@@UAEPAXI@Z
F070 6 ??_D?$basic_ofstream@DU?$char_traits@D@std@@@std@@QAEXXZ
F100 6 ??0FarEditorSet@@QAE@XZ
F320 6 ??1?$unordered_map@HPAVFarEditor@@U?$hash@H@std@@U?$equal_to@H@3@V?$allocator@U?$pair@$$CBHPAVFarEditor@@@std@@@3@@std@@QAE@XZ
F330 6 ??1?$_Hash@V?$_Umap_traits@HPAVFarEditor@@V?$_Uhash_compare@HU?$hash@H@std@@U?$equal_to@H@2@@std@@V?$allocator@U?$pair@$$CBHPAVFarEditor@@@std@@@3@$0A@@std@@@std@@QAE@XZ
F3C0 6 ??1FarEditorSet@@QAE@XZ
F520 6 ?ColorThread@@YGXPAXE@Z
F540 6 ?menuConfigure@FarEditorSet@@QAEXXZ
F730 6 $LN54
F750 6 ?showMenu@FarEditorSet@@CA?AW4MENU_ACTION@1@_N0@Z
F9C0 6 ?execMenuAction@FarEditorSet@@AAEXW4MENU_ACTION@1@PAVFarEditor@@@Z
FB35 6 __catch$?execMenuAction@FarEditorSet@@AAEXW4MENU_ACTION@1@PAVFarEditor@@@Z$0
FBF0 6 $LN32
FC30 6 ?openMenu@FarEditorSet@@QAEXXZ
FC80 6 ?viewFile@FarEditorSet@@QAEXABVUnicodeString@icu_72@@@Z
FD5F 6 __catch$?viewFile@FarEditorSet@@QAEXABVUnicodeString@icu_72@@@Z$0
FFB2 6 __catch$?viewFile@FarEditorSet@@QAEXABVUnicodeString@icu_72@@@Z$2
10010 0 ??_ETextLinesStore@@UAEPAXI@Z
10030 6 ?FillTypeMenu@FarEditorSet@@ABEXPAVChooseTypeMenu@@PAVFileType@@@Z
103B0 6 ?KeyDialogProc@@YGHPAXHH0@Z
104B0 6 ?chooseType@FarEditorSet@@AAE_NXZ
10F10 6 ?SettingDialogProc@@YGHPAXHH0@Z
110D0 6 ?configure@FarEditorSet@@QAE_NXZ
11DCA 6 __catch$?configure@FarEditorSet@@QAE_NXZ$0
11EA4 6 $LN593
11EB4 6 $LN592
11EC0 6 ?editorInput@FarEditorSet@@QAEHABU_INPUT_RECORD@@@Z
12000 6 ?editorEvent@FarEditorSet@@QAEHPBUProcessEditorEventInfo@@@Z
12160 6 __catch$?editorEvent@FarEditorSet@@QAEHPBUProcessEditorEventInfo@@@Z$0
12250 6 $LN149
12280 6 ?TestLoadBase@FarEditorSet@@QAE_NPB_W0000_NW4HRC_MODE@1@@Z
125E1 6 __catch$?TestLoadBase@FarEditorSet@@QAE_NPB_W0000_NW4HRC_MODE@1@@Z$0
12799 6 __catch$?TestLoadBase@FarEditorSet@@QAE_NPB_W0000_NW4HRC_MODE@1@@Z$2
129A3 6 __catch$?TestLoadBase@FarEditorSet@@QAE_NPB_W0000_NW4HRC_MODE@1@@Z$4
12AD0 6 ?ReloadBase@FarEditorSet@@AAEXXZ
12DA9 6 __catch$?ReloadBase@FarEditorSet@@AAEXXZ$0
12F91 6 __catch$?ReloadBase@FarEditorSet@@AAEXXZ$2
1307B 6 __catch$?ReloadBase@FarEditorSet@@AAEXXZ$3
131A0 6 ?addCurrentEditor@FarEditorSet@@AAEPAVFarEditor@@XZ
13280 6 ?getCurrentFileName@FarEditorSet@@CAPAVUnicodeString@icu_72@@XZ
13390 6 ?getCurrentEditor@FarEditorSet@@AAEPAVFarEditor@@XZ
13430 6 ?disableColorer@FarEditorSet@@QAEXXZ
13520 6 ?applySettingsToEditor@FarEditorSet@@AAEXPAVFarEditor@@@Z
13610 6 ?dropCurrentEditor@FarEditorSet@@AAEX_N@Z
136F0 6 ?ReadSettings@FarEditorSet@@QAEXXZ
13C40 6 ?applyLogSetting@FarEditorSet@@QAEXXZ
14090 6 __catch$?applyLogSetting@FarEditorSet@@QAEXXZ$0
14110 6 ?SaveSettings@FarEditorSet@@ABEXXZ
14330 6 ?SaveLogSettings@FarEditorSet@@ABEXXZ
14420 6 ?configureHrc@FarEditorSet@@QAE_N_N@Z
14490 6 ?showExceptionMessage@FarEditorSet@@SAXPBVUnicodeString@icu_72@@@Z
14560 6 ?configureLogging@FarEditorSet@@QAE_NXZ
14850 6 ?getHrdArrayWithCurrent@FarEditorSet@@CAHPB_WPAV?$vector@PBVHrdNode@@V?$allocator@PBVHrdNode@@@std@@@std@@PAV?$vector@PB_WV?$allocator@PB_W@std@@@3@@Z
14AB0 6 ?enableColorerInEditor@FarEditorSet@@AAEXXZ
14C00 6 ?addEventTimer@FarEditorSet@@AAEXXZ
14C40 6 ?removeEventTimer@FarEditorSet@@AAEXXZ
14C70 6 ?execMacro@FarEditorSet@@QAEPAXW4FARMACROAREA@@PAUOpenMacroInfo@@@Z
15100 6 ?macroSettings@FarEditorSet@@AAEPAXW4FARMACROAREA@@PAUOpenMacroInfo@@@Z
153F0 6 ?macroTypes@FarEditorSet@@AAEPAXW4FARMACROAREA@@PAUOpenMacroInfo@@@Z
15890 6 ??_H@YGXPAXIIP6EPAX0@Z@Z
158C0 6 ?macroRegion@FarEditorSet@@AAEPAXW4FARMACROAREA@@PAUOpenMacroInfo@@@Z
15BD0 6 ?macroFunctions@FarEditorSet@@AAEPAXW4FARMACROAREA@@PAUOpenMacroInfo@@@Z
15F40 6 ?macroErrors@FarEditorSet@@AAEPAXW4FARMACROAREA@@PAUOpenMacroInfo@@@Z
16250 6 ?macroEditor@FarEditorSet@@AAEPAXW4FARMACROAREA@@PAUOpenMacroInfo@@@Z
16820 6 ?macroParams@FarEditorSet@@AAEPAXW4FARMACROAREA@@PAUOpenMacroInfo@@@Z
16FD0 6 ??1?$unique_ptr@VHrdNode@@U?$default_delete@VHrdNode@@@std@@@std@@QAE@XZ
17010 6 ?imbue@?$basic_filebuf@DU?$char_traits@D@std@@@std@@MAEXABVlocale@2@@Z
17030 6 ?sync@?$basic_filebuf@DU?$char_traits@D@std@@@std@@MAEHXZ
17060 6 ?setbuf@?$basic_filebuf@DU?$char_traits@D@std@@@std@@MAEPAV?$basic_streambuf@DU?$char_traits@D@std@@@2@PAD_J@Z
170B0 6 ?seekpos@?$basic_filebuf@DU?$char_traits@D@std@@@std@@MAE?AV?$fpos@U_Mbstatet@@@2@V32@H@Z
17180 6 ?seekoff@?$basic_filebuf@DU?$char_traits@D@std@@@std@@MAE?AV?$fpos@U_Mbstatet@@@2@_JHH@Z
17290 6 ?xsputn@?$basic_filebuf@DU?$char_traits@D@std@@@std@@MAE_JPBD_J@Z
17450 6 ?xsgetn@?$basic_filebuf@DU?$char_traits@D@std@@@std@@MAE_JPAD_J@Z
17640 6 ?uflow@?$basic_filebuf@DU?$char_traits@D@std@@@std@@MAEHXZ
17990 6 ?underflow@?$basic_filebuf@DU?$char_traits@D@std@@@std@@MAEHXZ
179D0 6 ?pbackfail@?$basic_filebuf@DU?$char_traits@D@std@@@std@@MAEHH@Z
17A80 6 ?overflow@?$basic_filebuf@DU?$char_traits@D@std@@@std@@MAEHH@Z
17BD0 6 ?_Unlock@?$basic_filebuf@DU?$char_traits@D@std@@@std@@UAEXXZ
17BE0 6 ?_Lock@?$basic_filebuf@DU?$char_traits@D@std@@@std@@UAEXXZ
17BF0 6 ??1?$basic_filebuf@DU?$char_traits@D@std@@@std@@UAE@XZ
17C90 6 ??1?$unique_ptr@VParserFactory@@U?$default_delete@VParserFactory@@@std@@@std@@QAE@XZ
17CF0 6 ??1?$_Hash_vec@V?$allocator@V?$_List_unchecked_iterator@V?$_List_val@U?$_List_simple_types@U?$pair@$$CBHPAVFarEditor@@@std@@@std@@@std@@@std@@@std@@@std@@QAE@XZ
17D50 6 ?clear@?$_Hash@V?$_Umap_traits@HPAVFarEditor@@V?$_Uhash_compare@HU?$hash@H@std@@U?$equal_to@H@2@@std@@V?$allocator@U?$pair@$$CBHPAVFarEditor@@@std@@@3@$0A@@std@@@std@@QAEXXZ
17DD0 6 ?erase@?$_Hash@V?$_Umap_traits@HPAVFarEditor@@V?$_Uhash_compare@HU?$hash@H@std@@U?$equal_to@H@2@@std@@V?$allocator@U?$pair@$$CBHPAVFarEditor@@@std@@@3@$0A@@std@@@std@@QAEIABH@Z
17E90 6 ??1?$list@U?$pair@$$CBHPAVFarEditor@@@std@@V?$allocator@U?$pair@$$CBHPAVFarEditor@@@std@@@2@@std@@QAE@XZ
17ED0 6 ??1?$vector@VUnicodeString@icu_72@@V?$allocator@VUnicodeString@icu_72@@@std@@@std@@QAE@XZ
17F40 0 ??_E?$basic_filebuf@DU?$char_traits@D@std@@@std@@UAEPAXI@Z
17F60 0 ??_E?$basic_ofstream@DU?$char_traits@D@std@@@std@@UAEPAXI@Z
18000 6 ?do_length@?$codecvt@DDU_Mbstatet@@@std@@MBEHAAU_Mbstatet@@PBD1I@Z
18020 6 ?do_unshift@?$codecvt@DDU_Mbstatet@@@std@@MBEHAAU_Mbstatet@@PAD1AAPAD@Z
18040 6 ?do_in@?$codecvt@DDU_Mbstatet@@@std@@MBEHAAU_Mbstatet@@PBD1AAPBDPAD3AAPAD@Z
18060 6 ?do_always_noconv@?$codecvt@DDU_Mbstatet@@@std@@MBE_NXZ
18070 6 ?_Initcvt@?$basic_filebuf@DU?$char_traits@D@std@@@std@@IAEXABV?$codecvt@DDU_Mbstatet@@@2@@Z
180F0 6 ?_Endwrite@?$basic_filebuf@DU?$char_traits@D@std@@@std@@IAE_NXZ
18190 6 ?_Init@?$basic_filebuf@DU?$char_traits@D@std@@@std@@IAEXPAU_iobuf@@W4_Initfl@12@@Z
18270 6 ?close@?$basic_filebuf@DU?$char_traits@D@std@@@std@@QAEPAV12@XZ
18350 6 ?_Unchecked_erase@?$_Hash@V?$_Umap_traits@HPAVFarEditor@@V?$_Uhash_compare@HU?$hash@H@std@@U?$equal_to@H@2@@std@@V?$allocator@U?$pair@$$CBHPAVFarEditor@@@std@@@3@$0A@@std@@@std@@AAEPAU?$_List_node@U?$pair@$$CBHPAVFarEditor@@@std@@PAX@2@PAU32@QAU32@@Z
18500 78 ?_Xrange@?$vector@PAVLineRegion@@V?$allocator@PAVLineRegion@@@std@@@std@@CAXXZ
18510 6 ??1HrdNode@@QAE@XZ
18540 6 ??1ParserFactory@@QAE@XZ
18590 6 ?_Assign_grow@?$_Hash_vec@V?$allocator@V?$_List_unchecked_iterator@V?$_List_val@U?$_List_simple_types@U?$pair@$$CBHPAVFarEditor@@@std@@@std@@@std@@@std@@@std@@@std@@QAEXIV?$_List_unchecked_iterator@V?$_List_val@U?$_List_simple_types@U?$pair@$$CBHPAVFarEditor@@@std@@@std@@@std@@@2@@Z
18680 6 ?deallocate@?$allocator@VUnicodeString@icu_72@@@std@@QAEXQAVUnicodeString@icu_72@@I@Z
186C0 6 ?assign@?$basic_string@_WU?$char_traits@_W@std@@V?$allocator@_W@2@@std@@QAEAAV12@QB_WI@Z
187C0 6 ??$?HDU?$char_traits@D@std@@V?$allocator@D@1@@std@@YA?AV?$basic_string@DU?$char_traits@D@std@@V?$allocator@D@2@@0@QBDABV10@@Z
188A0 6 ??$?6U?$char_traits@D@std@@@std@@YAAAV?$basic_ostream@DU?$char_traits@D@std@@@0@AAV10@PBD@Z
18A9D 6 __catch$??$?6U?$char_traits@D@std@@@std@@YAAAV?$basic_ostream@DU?$char_traits@D@std@@@0@AAV10@PBD@Z$0
18B30 6 ??$?6U?$char_traits@D@std@@@std@@YAAAV?$basic_ostream@DU?$char_traits@D@std@@@0@AAV10@D@Z
18D4A 6 __catch$??$?6U?$char_traits@D@std@@@std@@YAAAV?$basic_ostream@DU?$char_traits@D@std@@@0@AAV10@D@Z$0
18DF0 6 ??$log@PBD@Log@@SAXW4LogLevel@Logger@@PBDH1V?$basic_string_view@DU?$char_traits@D@std@@@std@@$$QAPBD@Z
18EE0 6 ??$make_unique@VHrdNode@@$$V$0A@@std@@YA?AV?$unique_ptr@VHrdNode@@U?$default_delete@VHrdNode@@@std@@@0@XZ
18F60 6 ??$find@X@?$_Hash@V?$_Umap_traits@HPAVFarEditor@@V?$_Uhash_compare@HU?$hash@H@std@@U?$equal_to@H@2@@std@@V?$allocator@U?$pair@$$CBHPAVFarEditor@@@std@@@3@$0A@@std@@@std@@QAE?AV?$_List_iterator@V?$_List_val@U?$_List_simple_types@U?$pair@$$CBHPAVFarEditor@@@std@@@std@@@std@@@1@ABH@Z
18FD0 6 ??$emplace@AAU?$pair@HPAVFarEditor@@@std@@@?$_Hash@V?$_Umap_traits@HPAVFarEditor@@V?$_Uhash_compare@HU?$hash@H@std@@U?$equal_to@H@2@@std@@V?$allocator@U?$pair@$$CBHPAVFarEditor@@@std@@@3@$0A@@std@@@std@@QAE?AU?$pair@V?$_List_iterator@V?$_List_val@U?$_List_simple_types@U?$pair@$$CBHPAVFarEditor@@@std@@@std@@@std@@@std@@_N@1@AAU?$pair@HPAVFarEditor@@@1@@Z
191B0 6 ??$use_facet@V?$codecvt@DDU_Mbstatet@@@std@@@std@@YAABV?$codecvt@DDU_Mbstatet@@@0@ABVlocale@0@@Z
192F0 6 ??$fill@PAV?$_List_unchecked_iterator@V?$_List_val@U?$_List_simple_types@U?$pair@$$CBHPAVFarEditor@@@std@@@std@@@std@@@std@@V12@@std@@YAXQAV?$_List_unchecked_iterator@V?$_List_val@U?$_List_simple_types@U?$pair@$$CBHPAVFarEditor@@@std@@@std@@@std@@@0@0ABV10@@Z
19350 6 ??$_Destroy_range@V?$allocator@VUnicodeString@icu_72@@@std@@@std@@YAXPAVUnicodeString@icu_72@@QAV12@AAV?$allocator@VUnicodeString@icu_72@@@0@@Z
19380 6 ??$uninitialized_fill@PAV?$_List_unchecked_iterator@V?$_List_val@U?$_List_simple_types@U?$pair@$$CBHPAVFarEditor@@@std@@@std@@@std@@@std@@V12@@std@@YAXQAV?$_List_unchecked_iterator@V?$_List_val@U?$_List_simple_types@U?$pair@$$CBHPAVFarEditor@@@std@@@std@@@std@@@0@0ABV10@@Z
193A0 6 ??1?$_Alloc_construct_ptr@V?$allocator@U?$_List_node@U?$pair@$$CBHPAVFarEditor@@@std@@PAX@std@@@std@@@std@@QAE@XZ
193C0 6 ?_Forced_rehash@?$_Hash@V?$_Umap_traits@HPAVFarEditor@@V?$_Uhash_compare@HU?$hash@H@std@@U?$equal_to@H@2@@std@@V?$allocator@U?$pair@$$CBHPAVFarEditor@@@std@@@3@$0A@@std@@@std@@IAEXI@Z
19520 6 ??$format_log_string@PBD@@YAXAAV?$basic_ostream@DU?$char_traits@D@std@@@std@@V?$basic_string_view@DU?$char_traits@D@std@@@1@$$QAPBD@Z
19570 6 ??$_Find_last@H@?$_Hash@V?$_Umap_traits@HPAVFarEditor@@V?$_Uhash_compare@HU?$hash@H@std@@U?$equal_to@H@2@@std@@V?$allocator@U?$pair@$$CBHPAVFarEditor@@@std@@@3@$0A@@std@@@std@@IBE?AU?$_Hash_find_last_result@PAU?$_List_node@U?$pair@$$CBHPAVFarEditor@@@std@@PAX@std@@@1@ABHI@Z
195E0 6 ??$_Sort_unchecked@PAPBVHrdNode@@V<lambda_85fe6422f3902895f06d7a876f82eb00>@@@std@@YAXPAPBVHrdNode@@0HV<lambda_85fe6422f3902895f06d7a876f82eb00>@@@Z
196E0 81 ??$_Emplace_reallocate@ABH@?$vector@HV?$allocator@H@std@@@std@@AAEPAHQAHABH@Z
19840 64 ??$_Allocate_for_capacity@$0A@@?$basic_string@_SU?$char_traits@_S@std@@V?$allocator@_S@2@@std@@CAPA_SAAV?$allocator@_S@1@AAI@Z
198A0 6 ??$_Traits_equal@U?$char_traits@D@std@@@std@@YA_NQBDI0I@Z
19920 6 ?print@?$ArgumentT@PBD@details@@UBEXAAV?$basic_ostream@DU?$char_traits@D@std@@@std@@@Z
19940 91 ?_Xlength@?$vector@DV?$allocator@D@std@@@std@@CAXXZ
19950 6 ??$_Insertion_sort_unchecked@PAPBVHrdNode@@V<lambda_85fe6422f3902895f06d7a876f82eb00>@@@std@@YAPAPBVHrdNode@@QAPBV1@0V<lambda_85fe6422f3902895f06d7a876f82eb00>@@@Z
19BA0 6 ??$?RPBVHrdNode@@PBV0@@<lambda_85fe6422f3902895f06d7a876f82eb00>@@QBE?A_PPBVHrdNode@@0@Z
19C90 6 ??$_Make_heap_unchecked@PAPBVHrdNode@@V<lambda_85fe6422f3902895f06d7a876f82eb00>@@@std@@YAXPAPBVHrdNode@@0V<lambda_85fe6422f3902895f06d7a876f82eb00>@@@Z
19F20 6 ??$_Partition_by_median_guess_unchecked@PAPBVHrdNode@@V<lambda_85fe6422f3902895f06d7a876f82eb00>@@@std@@YA?AU?$pair@PAPBVHrdNode@@PAPBV1@@0@PAPBVHrdNode@@0V<lambda_85fe6422f3902895f06d7a876f82eb00>@@@Z
1A710 6 ??$_Pop_heap_hole_by_index@PAPBVHrdNode@@PBV1@V<lambda_85fe6422f3902895f06d7a876f82eb00>@@@std@@YAXPAPBVHrdNode@@HH$$QAPBV1@V<lambda_85fe6422f3902895f06d7a876f82eb00>@@@Z
1A970 6 ??$_Guess_median_unchecked@PAPBVHrdNode@@V<lambda_85fe6422f3902895f06d7a876f82eb00>@@@std@@YAXPAPBVHrdNode@@00V<lambda_85fe6422f3902895f06d7a876f82eb00>@@@Z
1AB4A 6 ??_E?$basic_ofstream@DU?$char_traits@D@std@@@std@@$4PPPPPPPM@A@AEPAXI@Z
1AB60 7 ??0ParserFactoryException@@QAE@ABVUnicodeString@icu_72@@@Z
1ABE0 61 ??1CatalogParserException@@UAE@XZ
1ABF0 7 ??0FarHrcSettingsException@@QAE@ABVUnicodeString@icu_72@@@Z
1AC70 7 ?loadUserHrd@FarHrcSettings@@QAEXPBVUnicodeString@icu_72@@@Z
1AE60 7 ??1?$unique_ptr@VLibXmlInputSource@@U?$default_delete@VLibXmlInputSource@@@std@@@std@@QAE@XZ
1AE80 7 ??0ParserFactoryException@@QAE@ABV0@@Z
1AF00 7 ?readPluginHrcSettings@FarHrcSettings@@QAEXPBVUnicodeString@icu_72@@@Z
1AFB0 7 ?readXML@FarHrcSettings@@QAEXPBVUnicodeString@icu_72@@@Z
1B1A0 7 ??0FarHrcSettingsException@@QAE@ABV0@@Z
1B220 7 ?UpdatePrototype@FarHrcSettings@@AAEXABVXMLNode@@@Z
1B3C0 7 ?readUserProfile@FarHrcSettings@@QAEXPBVFileType@@@Z
1B670 7 ?writeUserProfile@FarHrcSettings@@QAEXXZ
1BA10 7 ??1?$list@VXMLNode@@V?$allocator@VXMLNode@@@std@@@std@@QAE@XZ
1BB60 7 ??1XMLNode@@QAE@XZ
1BC40 7 ??1?$unordered_map@VUnicodeString@icu_72@@V12@U?$hash@VUnicodeString@icu_72@@@std@@U?$equal_to@VUnicodeString@icu_72@@@4@V?$allocator@U?$pair@$$CBVUnicodeString@icu_72@@V12@@std@@@4@@std@@QAE@XZ
1BCF0 7 ??1?$list@U?$pair@$$CBVUnicodeString@icu_72@@V12@@std@@V?$allocator@U?$pair@$$CBVUnicodeString@icu_72@@V12@@std@@@2@@std@@QAE@XZ
1BD50 7 ??$_Free_non_head@V?$allocator@U?$_List_node@U?$pair@$$CBVUnicodeString@icu_72@@V12@@std@@PAX@std@@@std@@@?$_List_node@U?$pair@$$CBVUnicodeString@icu_72@@V12@@std@@PAX@std@@SAXAAV?$allocator@U?$_List_node@U?$pair@$$CBVUnicodeString@icu_72@@V12@@std@@PAX@std@@@1@PAU01@@Z
1BD90 8 ?SettingHrcDialogProc@@YGHPAXHH0@Z
1BE68 8 $LN21
1BE7C 8 $LN20
1BE90 8 ?showForm@HrcSettingsForm@@QAE_NXZ
1C200 8 ?getCountFileTypeAndGroup@HrcSettingsForm@@QBEIXZ
1C340 8 ?buildHrcList@HrcSettingsForm@@QBEPAUFarList@@XZ
1C800 8 ?OnChangeParam@HrcSettingsForm@@QAEXH@Z
1CD70 8 ?SaveChangedValueParam@HrcSettingsForm@@QBEXXZ
1CEF0 8 ?OnChangeHrc@HrcSettingsForm@@QAEXXZ
1CFB0 8 ?setYNListValueToCombobox@HrcSettingsForm@@QBEXABVUnicodeString@icu_72@@@Z
1D250 8 ?setTFListValueToCombobox@HrcSettingsForm@@QBEXABVUnicodeString@icu_72@@@Z
1D4F0 8 ?setCustomListValueToCombobox@HrcSettingsForm@@QBEXABVUnicodeString@icu_72@@@Z
1D6F0 8 ?setCrossValueListToCombobox@HrcSettingsForm@@QBEXXZ
1DA40 8 ?setCrossPosValueListToCombobox@HrcSettingsForm@@QBEXXZ
1DCE0 8 ?getParamDefValue@HrcSettingsForm@@QBEPBVUnicodeString@icu_72@@PAVFileType@@ABV23@@Z
1DE10 8 ?buildParamsList@HrcSettingsForm@@QBEPAUFarList@@PAVFileType@@@Z
1E010 8 ?removeFarList@HrcSettingsForm@@SAXPAUFarList@@@Z
1E050 8 ??$_Move_unchecked@PAVUnicodeString@icu_72@@PAV12@@std@@YAPAVUnicodeString@icu_72@@PAV12@00@Z
1E080 8 ??$_Construct@$00PB_W@?$basic_string@_WU?$char_traits@_W@std@@V?$allocator@_W@2@@std@@AAEXQB_WI@Z
1E120 8 ??$_Insert_counted_range@PAVUnicodeString@icu_72@@@?$vector@VUnicodeString@icu_72@@V?$allocator@VUnicodeString@icu_72@@@std@@@std@@AAEXV?$_Vector_const_iterator@V?$_Vector_val@U?$_Simple_types@VUnicodeString@icu_72@@@std@@@std@@@1@PAVUnicodeString@icu_72@@I@Z
1E40E 8 __catch$??$_Insert_counted_range@PAVUnicodeString@icu_72@@@?$vector@VUnicodeString@icu_72@@V?$allocator@VUnicodeString@icu_72@@@std@@@std@@AAEXV?$_Vector_const_iterator@V?$_Vector_val@U?$_Simple_types@VUnicodeString@icu_72@@@std@@@std@@@1@PAVUnicodeString@icu_72@@I@Z$6
1E451 8 __catch$??$_Insert_counted_range@PAVUnicodeString@icu_72@@@?$vector@VUnicodeString@icu_72@@V?$allocator@VUnicodeString@icu_72@@@std@@@std@@AAEXV?$_Vector_const_iterator@V?$_Vector_val@U?$_Simple_types@VUnicodeString@icu_72@@@std@@@std@@@1@PAVUnicodeString@icu_72@@I@Z$0
1E47D 8 __catch$??$_Insert_counted_range@PAVUnicodeString@icu_72@@@?$vector@VUnicodeString@icu_72@@V?$allocator@VUnicodeString@icu_72@@@std@@@std@@AAEXV?$_Vector_const_iterator@V?$_Vector_val@U?$_Simple_types@VUnicodeString@icu_72@@@std@@@std@@@1@PAVUnicodeString@icu_72@@I@Z$2
1E4F0 8 ?_Change_array@?$vector@VUnicodeString@icu_72@@V?$allocator@VUnicodeString@icu_72@@@std@@@std@@AAEXQAVUnicodeString@icu_72@@II@Z
1E570 8 ??$_Allocate_at_least_helper@V?$allocator@VUnicodeString@icu_72@@@std@@@std@@YAPAVUnicodeString@icu_72@@AAV?$allocator@VUnicodeString@icu_72@@@0@AAI@Z
1E5C0 8 ??$_Uninitialized_copy_n@PAVUnicodeString@icu_72@@V?$allocator@VUnicodeString@icu_72@@@std@@@std@@YAPAVUnicodeString@icu_72@@PAV12@I0AAV?$allocator@VUnicodeString@icu_72@@@0@@Z
1E630 8 ??$_Uninitialized_move@PAVUnicodeString@icu_72@@V?$allocator@VUnicodeString@icu_72@@@std@@@std@@YAPAVUnicodeString@icu_72@@QAV12@0PAV12@AAV?$allocator@VUnicodeString@icu_72@@@0@@Z
1E660 8 ??$_Move_backward_unchecked@PAVUnicodeString@icu_72@@PAV12@@std@@YAPAVUnicodeString@icu_72@@PAV12@00@Z
1E690 8 ??$_Sort_unchecked@PAVUnicodeString@icu_72@@U?$less@X@std@@@std@@YAXPAVUnicodeString@icu_72@@0HU?$less@X@0@@Z
1E7E0 8 ??1?$_Uninitialized_backout_al@V?$allocator@VUnicodeString@icu_72@@@std@@@std@@QAE@XZ
1E810 8 ??$_Insertion_sort_unchecked@PAVUnicodeString@icu_72@@U?$less@X@std@@@std@@YAPAVUnicodeString@icu_72@@QAV12@0U?$less@X@0@@Z
1E9F0 8 ??$_Make_heap_unchecked@PAVUnicodeString@icu_72@@U?$less@X@std@@@std@@YAXPAVUnicodeString@icu_72@@0U?$less@X@0@@Z
1EBA0 8 ??$_Partition_by_median_guess_unchecked@PAVUnicodeString@icu_72@@U?$less@X@std@@@std@@YA?AU?$pair@PAVUnicodeString@icu_72@@PAV12@@0@PAVUnicodeString@icu_72@@0U?$less@X@0@@Z
1F1D0 8 ??$?RAAVUnicodeString@icu_72@@AAV01@@?$less@X@std@@QBECAAVUnicodeString@icu_72@@0@Z
1F270 8 ??$_Pop_heap_hole_by_index@PAVUnicodeString@icu_72@@V12@U?$less@X@std@@@std@@YAXPAVUnicodeString@icu_72@@HH$$QAV12@U?$less@X@0@@Z
1F3D0 8 ??$_Guess_median_unchecked@PAVUnicodeString@icu_72@@U?$less@X@std@@@std@@YAXPAVUnicodeString@icu_72@@00U?$less@X@0@@Z
1F570 8 ??$_Push_heap_by_index@PAVUnicodeString@icu_72@@V12@U?$less@X@std@@@std@@YAXPAVUnicodeString@icu_72@@HH$$QAV12@U?$less@X@0@@Z
1F680 58 ??0SettingsControlException@@QAE@ABVUnicodeString@icu_72@@@Z
1F700 58 ??0SettingsControl@@QAE@XZ
1F7C0 58 ??0SettingsControlException@@QAE@ABV0@@Z
1F840 58 ??1SettingsControl@@QAE@XZ
1F880 58 ?Get@SettingsControl@@QAEHIPB_WH@Z
1F8E0 58 ?Get@SettingsControl@@QAE_NIPB_W_N@Z
1F970 58 ?Set@SettingsControl@@QAE_NIPB_WH@Z
1F9D0 519 _GetGlobalInfoW@4
1FA50 519 _SetStartupInfoW@4
1FA90 519 _GetPluginInfoW@4
1FB40 519 _ExitFARW@4
1FB70 519 _OpenW@4
1FC40 519 _ConfigureW@4
1FC90 519 _ProcessEditorEventW@4
1FD00 519 _ProcessEditorInputW@4
1FD70 519 _ProcessSynchroEventW@4
1FDEE 519 __catch$_ProcessSynchroEventW@4$0
1FE10 521 ?trim@@YAPA_WPA_W@Z
1FE80 521 ?PathToFull@@YAPA_WPB_W_N@Z
1FFD0 521 ?PathToFullS@@YAPAVUnicodeString@icu_72@@PB_W_N@Z
20050 521 ?macroGetValue@@YAHPAUFarMacroValue@@H@Z
20070 521 ?MacroCallback@@YGXPAXPAUFarMacroValue@@I@Z
200F0 521 ?macroReturnInt@@YAPAUFarMacroCall@@_J@Z
20170 521 ?macroReturnValues@@YAPAUFarMacroCall@@PAUFarMacroValue@@H@Z
201A0 65 ??0Exception@@QAE@ABVUnicodeString@icu_72@@@Z
202D0 65 ??0Exception@@QAE@PBD@Z
20350 65 ??0InputSourceException@@QAE@ABVUnicodeString@icu_72@@@Z
204D0 65 ?what@Exception@@UBEPBDXZ
204E0 96 ??$?0PAD$0A@@?$basic_string@DU?$char_traits@D@std@@V?$allocator@D@2@@std@@QAE@PAD0ABV?$allocator@D@1@@Z
205A0 96 ??$_UIntegral_to_buff@DI@std@@YAPADPADI@Z
205E0 96 ??$log@ABVUnicodeString@icu_72@@PBD@Log@@SAXW4LogLevel@Logger@@PBDH1V?$basic_string_view@DU?$char_traits@D@std@@@std@@ABVUnicodeString@icu_72@@$$QAPBD@Z
20990 64 ??1?$unique_ptr@$$BY0A@DU?$default_delete@$$BY0A@D@std@@@std@@QAE@XZ
209A0 107 ??1?$LocalPointer@VUnicodeSet@icu_72@@@icu_72@@QAE@XZ
209C0 96 ??_EUnicodeSet@icu_72@@UAEPAXI@Z
20A00 96 ?HexToUInt@UStr@@SA_NABVUnicodeString@icu_72@@PAI@Z
20B74 96 __catch$?HexToUInt@UStr@@SA_NABVUnicodeString@icu_72@@PAI@Z$0
20C10 96 ?caseCompare@UStr@@SACABVUnicodeString@icu_72@@0@Z
20CA0 96 ?createCharClass@UStr@@SA?AV?$unique_ptr@VUnicodeSet@icu_72@@U?$default_delete@VUnicodeSet@icu_72@@@std@@@std@@ABVUnicodeString@icu_72@@HPAH_N@Z
21A94 96 $LN767
21AB8 96 $LN766
21AF0 96 ?indexOf@UnicodeString@icu_72@@QBEHABV12@H@Z
21BD0 96 ?indexOfIgnoreCase@UStr@@SAHABVUnicodeString@icu_72@@0H@Z
21C80 96 ?pinIndex@UnicodeString@icu_72@@ABEXAAH@Z
21CC0 96 ?to_stdstr@UStr@@SA?AV?$basic_string@DU?$char_traits@D@std@@V?$allocator@D@2@@std@@ABV?$unique_ptr@VUnicodeString@icu_72@@U?$default_delete@VUnicodeString@icu_72@@@std@@@3@@Z
21D50 96 ?to_stdstr@UStr@@SA?AV?$basic_string@DU?$char_traits@D@std@@V?$allocator@D@2@@std@@PBVUnicodeString@icu_72@@@Z
21DD0 96 ?to_stdwstr@UStr@@SA?AV?$basic_string@_WU?$char_traits@_W@std@@V?$allocator@_W@2@@std@@ABVUnicodeString@icu_72@@@Z
21DF0 96 ?to_stdwstr@UStr@@SA?AV?$basic_string@_WU?$char_traits@_W@std@@V?$allocator@_W@2@@std@@PBVUnicodeString@icu_72@@@Z
22010 96 ?to_unistr@UStr@@SA?AVUnicodeString@icu_72@@ABV?$basic_string@DU?$char_traits@D@std@@V?$allocator@D@2@@std@@@Z
22040 96 ?to_unistr@UStr@@SA?AVUnicodeString@icu_72@@H@Z
22120 67 ??$_Destroy_range@V?$allocator@VFileTypeChooser@@@std@@@std@@YAXPAVFileTypeChooser@@QAV1@AAV?$allocator@VFileTypeChooser@@@0@@Z
22160 67 ??$_Free_non_head@V?$allocator@U?$_List_node@U?$pair@$$CBVUnicodeString@icu_72@@VTypeParameter@@@std@@PAX@std@@@std@@@?$_List_node@U?$pair@$$CBVUnicodeString@icu_72@@VTypeParameter@@@std@@PAX@std@@SAXAAV?$allocator@U?$_List_node@U?$pair@$$CBVUnicodeString@icu_72@@VTypeParameter@@@std@@PAX@std@@@1@PAU01@@Z
221E0 67 ??$default_delete@VImpl@FileType@@@details@spimpl@@YAXPAVImpl@FileType@@@Z
22200 67 ??0FileType@@QAE@VUnicodeString@icu_72@@00@Z
222D0 67 ??0FileTypeException@@QAE@ABV0@@Z
22350 67 ??0FileTypeException@@QAE@ABVUnicodeString@icu_72@@@Z
223F0 67 ??1?$list@U?$pair@$$CBVUnicodeString@icu_72@@VTypeParameter@@@std@@V?$allocator@U?$pair@$$CBVUnicodeString@icu_72@@VTypeParameter@@@std@@@2@@std@@QAE@XZ
22480 67 ??1?$unique_ptr@VCRegExp@@U?$default_delete@VCRegExp@@@std@@@std@@QAE@XZ
224A0 67 ??1?$unique_ptr@VXmlInputSource@@U?$default_delete@VXmlInputSource@@@std@@@std@@QAE@XZ
224D0 67 ??1?$unordered_map@VUnicodeString@icu_72@@VTypeParameter@@U?$hash@VUnicodeString@icu_72@@@std@@U?$equal_to@VUnicodeString@icu_72@@@5@V?$allocator@U?$pair@$$CBVUnicodeString@icu_72@@VTypeParameter@@@std@@@5@@std@@QAE@XZ
225C0 67 ??1?$vector@VFileTypeChooser@@V?$allocator@VFileTypeChooser@@@std@@@std@@QAE@XZ
22660 67 ??1Impl@FileType@@QAE@XZ
22840 67 ?addParam@FileType@@QAEXABVUnicodeString@icu_72@@0@Z
22850 67 ?deallocate@?$allocator@VFileTypeChooser@@@std@@QAEXQAVFileTypeChooser@@I@Z
22890 67 ?enumParams@FileType@@QBE?AV?$vector@VUnicodeString@icu_72@@V?$allocator@VUnicodeString@icu_72@@@std@@@std@@XZ
228B0 67 ?getBaseScheme@FileType@@QAEPAVScheme@@XZ
228C0 67 ?getDescription@FileType@@QBEABVUnicodeString@icu_72@@XZ
228D0 67 ?getGroup@FileType@@QBEABVUnicodeString@icu_72@@XZ
228E0 67 ?getName@FileType@@QBEABVUnicodeString@icu_72@@XZ
228F0 67 ?getParamCount@FileType@@QBEIXZ
22900 67 ?getParamDefaultValue@FileType@@QBEPBVUnicodeString@icu_72@@ABV23@@Z
22910 67 ?getParamDescription@FileType@@QBEPBVUnicodeString@icu_72@@ABV23@@Z
22920 67 ?getParamUserValue@FileType@@QBEPBVUnicodeString@icu_72@@ABV23@@Z
22930 67 ?getParamValue@FileType@@QBEPBVUnicodeString@icu_72@@ABV23@@Z
22940 67 ?getParamValueInt@FileType@@QBEHABVUnicodeString@icu_72@@H@Z
22950 67 ?setParamDefaultValue@FileType@@QAEXABVUnicodeString@icu_72@@PBV23@@Z
22960 67 ?setParamDescription@FileType@@QAEXABVUnicodeString@icu_72@@PBV23@@Z
22970 67 ?setParamValue@FileType@@QAEXABVUnicodeString@icu_72@@0@Z
22980 79 ??0invalid_argument@std@@QAE@ABV01@@Z
229B0 79 ??0invalid_argument@std@@QAE@PBD@Z
22A00 79 ??0logic_error@std@@QAE@ABV01@@Z
22A30 79 ?print_impl_inner@details@@YAXAAV?$basic_ostream@DU?$char_traits@D@std@@@std@@V?$basic_string_view@DU?$char_traits@D@std@@@3@IPAPBVArgument@1@@Z
22AD0 82 ??$default_delete@VImpl@ParserFactory@@@details@spimpl@@YAXPAVImpl@ParserFactory@@@Z
22AF0 82 ??0ParserFactory@@QAE@XZ
22B60 82 ??1?$unique_ptr@VTextParser@@U?$default_delete@VTextParser@@@std@@@std@@QAE@XZ
22BC0 82 ?addHrd@ParserFactory@@QAEXV?$unique_ptr@VHrdNode@@U?$default_delete@VHrdNode@@@std@@@std@@@Z
22CD0 82 ?createStyledMapper@ParserFactory@@QAE?AV?$unique_ptr@VStyledHRDMapper@@U?$default_delete@VStyledHRDMapper@@@std@@@std@@PBVUnicodeString@icu_72@@0@Z
22CF0 82 ?createTextParser@ParserFactory@@QAE?AV?$unique_ptr@VTextParser@@U?$default_delete@VTextParser@@@std@@@std@@XZ
22D10 82 ?enumHrdInstances@ParserFactory@@QAE?AV?$vector@PBVHrdNode@@V?$allocator@PBVHrdNode@@@std@@@std@@ABVUnicodeString@icu_72@@@Z
22D30 82 ?getHrcLibrary@ParserFactory@@QBEAAVHrcLibrary@@XZ
22D40 82 ?loadCatalog@ParserFactory@@QAEXPBVUnicodeString@icu_72@@@Z
22D50 82 ?loadHrcPath@ParserFactory@@QAEXABVUnicodeString@icu_72@@@Z
22D60 88 ??0StyledRegion@@QAE@ABV0@@Z
22DA0 88 ??0StyledRegion@@QAE@_N0III@Z
22DE0 88 ??_EStyledRegion@@UAEPAXI@Z
22E00 88 ?assignParent@StyledRegion@@UAEXPBVRegionDefine@@@Z
22E50 88 ?cast@StyledRegion@@SAPBV1@PBVRegionDefine@@@Z
22EC0 88 ?clone@StyledRegion@@UBEPAVRegionDefine@@XZ
22F70 88 ?setValues@StyledRegion@@UAEXPBVRegionDefine@@@Z
22FB0 62 ?isDigit@Character@@SA_N_S@Z
22FD0 62 ?isLetter@Character@@SA_N_S@Z
22FF0 62 ?isLetterOrDigit@Character@@SA_N_S@Z
23020 62 ?isLowerCase@Character@@SA_N_S@Z
23040 62 ?isUpperCase@Character@@SA_N_S@Z
23060 62 ?isWhitespace@Character@@SA_N_S@Z
23080 62 ?toLowerCase@Character@@SA_S_S@Z
23090 62 ?toTitleCase@Character@@SA_S_S@Z
230A0 62 ?toUpperCase@Character@@SA_S_S@Z
230B0 76 ??0LineRegion@@QAE@ABV0@@Z
23100 76 ??0LineRegion@@QAE@XZ
23140 76 ??1LineRegion@@QAE@XZ
23150 76 ?styled@LineRegion@@QBEPBVStyledRegion@@XZ
23160 64 ??$_Allocate_at_least_helper@V?$allocator@I@std@@@std@@YAPAIAAV?$allocator@I@0@AAI@Z
231B0 71 ??$_Emplace_reallocate@ABQAVFileType@@@?$vector@PAVFileType@@V?$allocator@PAVFileType@@@std@@@std@@AAEPAPAVFileType@@QAPAV2@ABQAV2@@Z
23290 78 ??$_Resize_reallocate@U_Value_init_tag@std@@@?$vector@PAVLineRegion@@V?$allocator@PAVLineRegion@@@std@@@std@@AAEXIABU_Value_init_tag@1@@Z
23330 81 ??0Outliner@@QAE@PAVBaseEditor@@PBVRegion@@@Z
233D1 81 ??_EOutliner@@W3AEPAXI@Z
233E0 81 ??_EEditorListener@@UAEPAXI@Z
23400 81 ??_EOutliner@@UAEPAXI@Z
23510 71 ?_Change_array@?$vector@PAVFileType@@V?$allocator@PAVFileType@@@std@@@std@@AAEXQAPAVFileType@@II@Z
23570 81 ?addRegion@Outliner@@UAEXIPAVUnicodeString@icu_72@@HHPBVRegion@@@Z
236F0 81 ?clearLine@Outliner@@UAEXIPAVUnicodeString@icu_72@@@Z
23700 81 ?endParsing@Outliner@@UAEXI@Z
23720 81 ?enterScheme@Outliner@@UAEXIPAVUnicodeString@icu_72@@HHPBVRegion@@PBVScheme@@@Z
23730 81 ?getItem@Outliner@@QAEPAVOutlineItem@@I@Z
23750 81 ?itemCount@Outliner@@QBEIXZ
23760 81 ?leaveScheme@Outliner@@UAEXIPAVUnicodeString@icu_72@@HHPBVRegion@@PBVScheme@@@Z
23770 81 ?manageTree@Outliner@@SAIAAV?$vector@HV?$allocator@H@std@@@std@@H@Z
237F0 81 ?modifyEvent@Outliner@@UAEXI@Z
238B0 81 ?startParsing@Outliner@@UAEXI@Z
238C0 70 ??$default_delete@VImpl@HrcLibrary@@@details@spimpl@@YAXPAVImpl@HrcLibrary@@@Z
238E0 70 ??0HrcLibrary@@QAE@XZ
23950 70 ?chooseFileType@HrcLibrary@@QAEPAVFileType@@PBVUnicodeString@icu_72@@0H@Z
23960 70 ?enumerateFileTypes@HrcLibrary@@QAEPAVFileType@@I@Z
23970 70 ?getFileType@HrcLibrary@@QAEPAVFileType@@ABVUnicodeString@icu_72@@@Z
23980 70 ?getFileTypesCount@HrcLibrary@@QAEIXZ
23990 70 ?getRegion@HrcLibrary@@QAEPBVRegion@@PBVUnicodeString@icu_72@@@Z
239A0 70 ?loadFileType@HrcLibrary@@QAEXPAVFileType@@@Z
239B0 70 ?loadSource@HrcLibrary@@QAEXPAVXmlInputSource@@@Z
239C0 60 ??$log@$$V@Log@@SAXW4LogLevel@Logger@@PBDH1V?$basic_string_view@DU?$char_traits@D@std@@@std@@@Z
23AD0 60 ??$log@AAH@Log@@SAXW4LogLevel@Logger@@PBDH1V?$basic_string_view@DU?$char_traits@D@std@@@std@@AAH@Z
23BF0 60 ??$log@ABVUnicodeString@icu_72@@@Log@@SAXW4LogLevel@Logger@@PBDH1V?$basic_string_view@DU?$char_traits@D@std@@@std@@ABVUnicodeString@icu_72@@@Z
23D10 60 ??0BaseEditor@@QAE@PAVParserFactory@@PAVLineSource@@@Z
23FD0 60 ??1BaseEditor@@UAE@XZ
24110 60 ??6?$basic_ostream@DU?$char_traits@D@std@@@std@@QAEAAV01@I@Z
241E7 60 __catch$??6?$basic_ostream@DU?$char_traits@D@std@@@std@@QAEAAV01@I@Z$0
242C0 60 ??_EBaseEditor@@UAEPAXI@Z
242E0 60 ??_ELineRegionsCompactSupport@@UAEPAXI@Z
24300 60 ??_EPairMatch@@UAEPAXI@Z
24360 60 ?addEditorListener@BaseEditor@@QAEXPAVEditorListener@@@Z
24390 60 ?addRegion@BaseEditor@@UAEXIPAVUnicodeString@icu_72@@HHPBVRegion@@@Z
243F0 60 ?addRegionHandler@BaseEditor@@QAEXPAVRegionHandler@@@Z
24420 60 ?chooseFileType@BaseEditor@@QAEPAVFileType@@PBVUnicodeString@icu_72@@@Z
24560 60 ?chooseFileTypeCh@BaseEditor@@AAEPAVFileType@@PBVUnicodeString@icu_72@@HH@Z
24760 60 ?clearLine@BaseEditor@@UAEXIPAVUnicodeString@icu_72@@@Z
247A0 60 ?endParsing@BaseEditor@@UAEXI@Z
247E0 60 ?enterScheme@BaseEditor@@UAEXIPAVUnicodeString@icu_72@@HHPBVRegion@@PBVScheme@@@Z
24840 60 ?getFileType@BaseEditor@@QAEPAVFileType@@XZ
24850 60 ?getInvalidLine@BaseEditor@@QBEHXZ
24860 60 ?getLineRegions@BaseEditor@@QAEPAVLineRegion@@H@Z
248A0 60 ?getPairMatch@BaseEditor@@AAEPAVPairMatch@@HHPAPAVLineRegion@@@Z
24AA0 60 ?haveInvalidLine@BaseEditor@@QBE_NXZ
24AB0 60 ?idleJob@BaseEditor@@QAEXH@Z
24AE0 60 ?leaveScheme@BaseEditor@@UAEXIPAVUnicodeString@icu_72@@HHPBVRegion@@PBVScheme@@@Z
24B40 60 ?lineCountEvent@BaseEditor@@QAEXH@Z
24B80 60 ?modifyEvent@BaseEditor@@QAEXH@Z
24BF0 60 ?print@?$ArgumentT@I@details@@UBEXAAV?$basic_ostream@DU?$char_traits@D@std@@@std@@@Z
24C10 60 ?releasePairMatch@BaseEditor@@QAEXPAVPairMatch@@@Z
24C30 60 ?remapLRS@BaseEditor@@AAEX_N@Z
24E00 60 ?removeEditorListener@BaseEditor@@QAEXPAVEditorListener@@@Z
24E40 60 ?removeRegionHandler@BaseEditor@@QAEXPAVRegionHandler@@@Z
24E80 60 ?searchGlobalPair@BaseEditor@@QAEPAVPairMatch@@HH@Z
24EA0 60 ?searchLocalPair@BaseEditor@@QAEPAVPairMatch@@HH@Z
24ED0 60 ?searchPair@BaseEditor@@AAEPAVPairMatch@@HHHH@Z
250D0 60 ?setBackParse@BaseEditor@@QAEXH@Z
250E0 60 ?setFileType@BaseEditor@@QAEXPAVFileType@@@Z
25250 60 ?setMaxBlockSize@BaseEditor@@QAEXH@Z
25260 60 ?setRegionMapper@BaseEditor@@QAEXPAVRegionMapper@@@Z
25290 60 ?startParsing@BaseEditor@@UAEXI@Z
252D0 60 ?validate@BaseEditor@@QAEXH_N@Z
257B0 60 ?visibleTextEvent@BaseEditor@@QAEXHH@Z
25900 86 ??$_Find_last@VUnicodeString@icu_72@@@?$_Hash@V?$_Umap_traits@VUnicodeString@icu_72@@PAVSharedXmlInputSource@@V?$_Uhash_compare@VUnicodeString@icu_72@@U?$hash@VUnicodeString@icu_72@@@std@@U?$equal_to@VUnicodeString@icu_72@@@4@@std@@V?$allocator@U?$pair@$$CBVUnicodeString@icu_72@@PAVSharedXmlInputSource@@@std@@@5@$0A@@std@@@std@@IBE?AU?$_Hash_find_last_result@PAU?$_List_node@U?$pair@$$CBVUnicodeString@icu_72@@PAVSharedXmlInputSource@@@std@@PAX@std@@@1@ABVUnicodeString@icu_72@@I@Z
25A10 84 ?getRegionDefine@RegionMapper@@QBEPBVRegionDefine@@ABVUnicodeString@icu_72@@@Z
25A60 84 ?getRegionDefine@RegionMapper@@QBEPBVRegionDefine@@PBVRegion@@@Z
25BD0 89 ??0TextConsoleViewer@@QAE@PAVBaseEditor@@PAVTextLinesStore@@G@Z
25BF0 89 ?view@TextConsoleViewer@@QAEXXZ
26258 89 $LN140
26280 71 ??$_Reallocate@$0A@@?$vector@PAVFileType@@V?$allocator@PAVFileType@@@std@@@std@@AAEXAAI@Z
26350 91 ??$_Resize_reallocate@U_Value_init_tag@std@@@?$vector@DV?$allocator@D@std@@@std@@AAEXIABU_Value_init_tag@1@@Z
26460 91 ??$make_unique@VUnicodeString@icu_72@@ABV12@$0A@@std@@YA?AV?$unique_ptr@VUnicodeString@icu_72@@U?$default_delete@VUnicodeString@icu_72@@@std@@@0@ABVUnicodeString@icu_72@@@Z
264E0 91 ??1?$vector@DV?$allocator@D@std@@@std@@QAE@XZ
26530 91 ??1TextLinesStore@@UAE@XZ
265A0 91 ?freeFile@TextLinesStore@@IAEXXZ
265F0 91 ?getLine@TextLinesStore@@UAEPAVUnicodeString@icu_72@@I@Z
26610 91 ?getLineCount@TextLinesStore@@QBEIXZ
26620 91 ?loadFile@TextLinesStore@@QAEXPBVUnicodeString@icu_72@@_N@Z
26ABB 91 __catch$?loadFile@TextLinesStore@@QAEXPBVUnicodeString@icu_72@@_N@Z$0
26AE0 61 ??$_Destroy_range@V?$allocator@V?$unique_ptr@VHrdNode@@U?$default_delete@VHrdNode@@@std@@@std@@@std@@@std@@YAXPAV?$unique_ptr@VHrdNode@@U?$default_delete@VHrdNode@@@std@@@0@QAV10@AAV?$allocator@V?$unique_ptr@VHrdNode@@U?$default_delete@VHrdNode@@@std@@@std@@@0@@Z
26B40 61 ??$_Emplace_reallocate@AAVUnicodeString@icu_72@@@?$vector@VUnicodeString@icu_72@@V?$allocator@VUnicodeString@icu_72@@@std@@@std@@AAEPAVUnicodeString@icu_72@@QAV23@AAV23@@Z
26C7F 61 __catch$??$_Emplace_reallocate@AAVUnicodeString@icu_72@@@?$vector@VUnicodeString@icu_72@@V?$allocator@VUnicodeString@icu_72@@@std@@@std@@AAEPAVUnicodeString@icu_72@@QAV23@AAV23@@Z$0
26CC0 61 ??$_Emplace_reallocate@V?$unique_ptr@VHrdNode@@U?$default_delete@VHrdNode@@@std@@@std@@@?$vector@V?$unique_ptr@VHrdNode@@U?$default_delete@VHrdNode@@@std@@@std@@V?$allocator@V?$unique_ptr@VHrdNode@@U?$default_delete@VHrdNode@@@std@@@std@@@2@@std@@AAEPAV?$unique_ptr@VHrdNode@@U?$default_delete@VHrdNode@@@std@@@1@QAV21@$$QAV21@@Z
26E20 61 ??$_Uninitialized_move@PAV?$unique_ptr@VHrdNode@@U?$default_delete@VHrdNode@@@std@@@std@@V?$allocator@V?$unique_ptr@VHrdNode@@U?$default_delete@VHrdNode@@@std@@@std@@@2@@std@@YAPAV?$unique_ptr@VHrdNode@@U?$default_delete@VHrdNode@@@std@@@0@QAV10@0PAV10@AAV?$allocator@V?$unique_ptr@VHrdNode@@U?$default_delete@VHrdNode@@@std@@@std@@@0@@Z
26E60 61 ??$log@AAVUnicodeString@icu_72@@AAV12@@Log@@SAXW4LogLevel@Logger@@PBDH1V?$basic_string_view@DU?$char_traits@D@std@@@std@@AAVUnicodeString@icu_72@@3@Z
26F90 61 ??0CatalogParserException@@QAE@ABV0@@Z
27010 61 ??0CatalogParserException@@QAE@ABVUnicodeString@icu_72@@@Z
270B0 61 ?addHrcSetsLocation@CatalogParser@@AAEXABVXMLNode@@@Z
27380 61 ?parse@CatalogParser@@QAEXPBVUnicodeString@icu_72@@@Z
276C0 61 ?parseCatalogBlock@CatalogParser@@AAEXABVXMLNode@@@Z
27930 61 ?parseHRDSetsChild@CatalogParser@@SA?AV?$unique_ptr@VHrdNode@@U?$default_delete@VHrdNode@@@std@@@std@@ABVXMLNode@@@Z
27E50 100 ??0XmlReader@@QAE@ABVXmlInputSource@@@Z
27E70 100 ??1XmlReader@@QAE@XZ
27E90 100 ?getNodes@XmlReader@@QBEXAAV?$list@VXMLNode@@V?$allocator@VXMLNode@@@std@@@std@@@Z
27EA0 100 ?parse@XmlReader@@QAE_NXZ
27F10 98 ?getAttrValue@XMLNode@@QBEABVUnicodeString@icu_72@@ABV23@@Z
28000 98 ?isExist@XMLNode@@QBE_NABVUnicodeString@icu_72@@@Z
28050 74 ??0InputSourceException@@QAE@ABV0@@Z
280D0 74 ??0LibXmlInputSource@@QAE@ABVUnicodeString@icu_72@@PBV12@@Z
282C0 74 ??1LibXmlInputSource@@QAE@XZ
28310 74 ??1PathInJar@@QAE@XZ
28330 74 ?getFullPathsToZip@LibXmlInputSource@@SA?AUPathInJar@@ABVUnicodeString@icu_72@@PBV34@@Z
28970 74 ?getPath@LibXmlInputSource@@QAEAAVUnicodeString@icu_72@@XZ
28980 74 ?startsWith@UnicodeString@icu_72@@QBECABV12@@Z
28A20 99 ??0XmlInputSource@@QAE@ABVUnicodeString@icu_72@@@Z
28AB0 99 ??0XmlInputSource@@QAE@ABVUnicodeString@icu_72@@PBV12@@Z
28B40 99 ?createRelative@XmlInputSource@@QBE?AV?$unique_ptr@VXmlInputSource@@U?$default_delete@VXmlInputSource@@@std@@@std@@ABVUnicodeString@icu_72@@@Z
28BE0 99 ?getPath@XmlInputSource@@QBEAAVUnicodeString@icu_72@@XZ
28BF0 99 ?isFsURI@XmlInputSource@@SA_NABVUnicodeString@icu_72@@PBV23@@Z
28C20 97 ?getCurlyContent@UnicodeTools@@SA?AV?$unique_ptr@VUnicodeString@icu_72@@U?$default_delete@VUnicodeString@icu_72@@@std@@@std@@ABVUnicodeString@icu_72@@H@Z
28D80 97 ?getEscapedChar@UnicodeTools@@SA_SABVUnicodeString@icu_72@@HAAH@Z
28FB0 97 ?getHex@UnicodeTools@@SAH_S@Z
28FF0 97 ?getHexNumber@UnicodeTools@@SAHPBVUnicodeString@icu_72@@@Z
290D0 97 ?getNumber@UnicodeTools@@SAHPBVUnicodeString@icu_72@@@Z
291E0 101 ??0CRegExp@@QAE@PBVUnicodeString@icu_72@@@Z
29270 101 ??0CRegExp@@QAE@XZ
292F0 101 ??0SRegInfo@@QAE@XZ
29340 101 ??1CRegExp@@QAE@XZ
29380 101 ??_GSRegInfo@@QAEPAXI@Z
29400 101 ?checkMetaSymbol@CRegExp@@AAE_NW4EMetaSymbols@@AAH@Z
298A4 101 $LN62
298F0 101 ?clearRegExpStack@CRegExp@@SAXXZ
29920 101 ?getBackTrace@CRegExp@@QAE_NPAPBVUnicodeString@icu_72@@PAPAUSMatches@@@Z
29940 101 ?getBracketName@CRegExp@@QAEPAVUnicodeString@icu_72@@H@Z
29960 101 ?insert_stack@CRegExp@@AAEXPAPAVSRegInfo@@0PAHPA_NHH00H@Z
29A70 101 ?isOk@CRegExp@@QAE_NXZ
29A80 101 ?isWordBoundary@CRegExp@@AAE_NH@Z
29BC0 101 ?lowParse@CRegExp@@AAE_NPAVSRegInfo@@0H@Z
2AAD0 101 $LN830
2AB30 101 $LN831
2AB60 101 ?parse@CRegExp@@QAE_NPBVUnicodeString@icu_72@@HHPAUSMatches@@HH@Z
2ABB0 101 ?parse@CRegExp@@QAE_NPBVUnicodeString@icu_72@@PAUSMatches@@@Z
2ABF0 101 ?parseRE@CRegExp@@AAE_NH@Z
2AD10 101 ?setBackRE@CRegExp@@QAE_NPAV1@@Z
2AD20 101 ?setBackTrace@CRegExp@@QAE_NPBVUnicodeString@icu_72@@PAUSMatches@@@Z
2AD40 101 ?setPositionMoves@CRegExp@@QAE_N_N@Z
2AD50 101 ?setRE@CRegExp@@QAE_NPBVUnicodeString@icu_72@@@Z
2AD70 101 ?setRELow@CRegExp@@AAE?AW4EError@@ABVUnicodeString@icu_72@@@Z
2B1C0 101 ?setStructs@CRegExp@@AAE?AW4EError@@AAPAVSRegInfo@@ABVUnicodeString@icu_72@@AAH@Z
2C76C 101 $LN1399
2C7B8 101 $LN1398
2C7F0 69 ??$_Reallocate@$0A@@?$vector@VUnicodeString@icu_72@@V?$allocator@VUnicodeString@icu_72@@@std@@@std@@AAEXAAI@Z
2C8A0 69 ??$_Try_emplace@ABVUnicodeString@icu_72@@ABV12@ABV12@@?$_Hash@V?$_Umap_traits@VUnicodeString@icu_72@@VTypeParameter@@V?$_Uhash_compare@VUnicodeString@icu_72@@U?$hash@VUnicodeString@icu_72@@@std@@U?$equal_to@VUnicodeString@icu_72@@@4@@std@@V?$allocator@U?$pair@$$CBVUnicodeString@icu_72@@VTypeParameter@@@std@@@5@$0A@@std@@@std@@IAE?AU?$pair@PAU?$_List_node@U?$pair@$$CBVUnicodeString@icu_72@@VTypeParameter@@@std@@PAX@std@@_N@1@ABVUnicodeString@icu_72@@00@Z
2CAD0 71 ??$fill@PAV?$_List_unchecked_iterator@V?$_List_val@U?$_List_simple_types@U?$pair@$$CBVUnicodeString@icu_72@@PAV12@@std@@@std@@@std@@@std@@V12@@std@@YAXQAV?$_List_unchecked_iterator@V?$_List_val@U?$_List_simple_types@U?$pair@$$CBVUnicodeString@icu_72@@PAV12@@std@@@std@@@std@@@0@0ABV10@@Z
2CB30 69 ??$log@ABVUnicodeString@icu_72@@AAV?$basic_string@DU?$char_traits@D@std@@V?$allocator@D@2@@std@@@Log@@SAXW4LogLevel@Logger@@PBDH1V?$basic_string_view@DU?$char_traits@D@std@@@std@@ABVUnicodeString@icu_72@@AAV?$basic_string@DU?$char_traits@D@std@@V?$allocator@D@2@@4@@Z
2CEE0 69 ??0Impl@FileType@@QAE@VUnicodeString@icu_72@@00@Z
2D090 69 ??1?$_Alloc_construct_ptr@V?$allocator@U?$_List_node@U?$pair@$$CBVUnicodeString@icu_72@@VTypeParameter@@@std@@PAX@std@@@std@@@std@@QAE@XZ
2D0B0 69 ??1?$_List_node_emplace_op2@V?$allocator@U?$_List_node@U?$pair@$$CBVUnicodeString@icu_72@@VTypeParameter@@@std@@PAX@std@@@std@@@std@@QAE@XZ
2D120 69 ??1_Clear_guard@?$_Hash@V?$_Umap_traits@VUnicodeString@icu_72@@VTypeParameter@@V?$_Uhash_compare@VUnicodeString@icu_72@@U?$hash@VUnicodeString@icu_72@@@std@@U?$equal_to@VUnicodeString@icu_72@@@4@@std@@V?$allocator@U?$pair@$$CBVUnicodeString@icu_72@@VTypeParameter@@@std@@@5@$0A@@std@@@std@@QAE@XZ
2D170 71 ?_Assign_grow@?$_Hash_vec@V?$allocator@V?$_List_unchecked_iterator@V?$_List_val@U?$_List_simple_types@U?$pair@$$CBVUnicodeString@icu_72@@PAV12@@std@@@std@@@std@@@std@@@std@@@std@@QAEXIV?$_List_unchecked_iterator@V?$_List_val@U?$_List_simple_types@U?$pair@$$CBVUnicodeString@icu_72@@PAV12@@std@@@std@@@std@@@2@@Z
2D260 69 ?_Forced_rehash@?$_Hash@V?$_Umap_traits@VUnicodeString@icu_72@@VTypeParameter@@V?$_Uhash_compare@VUnicodeString@icu_72@@U?$hash@VUnicodeString@icu_72@@@std@@U?$equal_to@VUnicodeString@icu_72@@@4@@std@@V?$allocator@U?$pair@$$CBVUnicodeString@icu_72@@VTypeParameter@@@std@@@5@$0A@@std@@@std@@IAEXI@Z
2D510 69 ?addParam@Impl@FileType@@QAEAAVTypeParameter@@ABVUnicodeString@icu_72@@0@Z
2D540 69 ?enumParams@Impl@FileType@@QBE?AV?$vector@VUnicodeString@icu_72@@V?$allocator@VUnicodeString@icu_72@@@std@@@std@@XZ
2D610 69 ?getBaseScheme@Impl@FileType@@QBEPAVScheme@@XZ
2D620 69 ?getDescription@Impl@FileType@@QBEABVUnicodeString@icu_72@@XZ
2D630 69 ?getGroup@Impl@FileType@@QBEABVUnicodeString@icu_72@@XZ
2D640 69 ?getName@Impl@FileType@@QBEABVUnicodeString@icu_72@@XZ
2D650 69 ?getParamCount@Impl@FileType@@QBEIXZ
2D660 69 ?getParamDefaultValue@Impl@FileType@@QBEPBVUnicodeString@icu_72@@ABV34@@Z
2D6B0 69 ?getParamDescription@Impl@FileType@@QBEPBVUnicodeString@icu_72@@ABV34@@Z
2D700 69 ?getParamUserValue@Impl@FileType@@QBEPBVUnicodeString@icu_72@@ABV34@@Z
2D750 69 ?getParamValue@Impl@FileType@@QBEPBVUnicodeString@icu_72@@ABV34@@Z
2D7B0 69 ?getParamValueInt@Impl@FileType@@QBEHABVUnicodeString@icu_72@@H@Z
2D8A0 69 __catch$?getParamValueInt@Impl@FileType@@QBEHABVUnicodeString@icu_72@@H@Z$0
2D920 69 ?getPriority@Impl@FileType@@QBENPBVUnicodeString@icu_72@@0@Z
2D9B0 69 ?print@?$ArgumentT@V?$basic_string@DU?$char_traits@D@std@@V?$allocator@D@2@@std@@@details@@UBEXAAV?$basic_ostream@DU?$char_traits@D@std@@@std@@@Z
2D9D0 69 ?setParamDefaultValue@Impl@FileType@@QAEXABVUnicodeString@icu_72@@PBV34@@Z
2DB60 69 ?setParamDescription@Impl@FileType@@QAEXABVUnicodeString@icu_72@@PBV34@@Z
2DCC0 69 ?setParamValue@Impl@FileType@@QAEXABVUnicodeString@icu_72@@PBV34@@Z
2DE20 71 ??$_Find_last@VUnicodeString@icu_72@@@?$_Hash@V?$_Umap_traits@VUnicodeString@icu_72@@PAV12@V?$_Uhash_compare@VUnicodeString@icu_72@@U?$hash@VUnicodeString@icu_72@@@std@@U?$equal_to@VUnicodeString@icu_72@@@4@@std@@V?$allocator@U?$pair@$$CBVUnicodeString@icu_72@@PAV12@@std@@@4@$0A@@std@@@std@@IBE?AU?$_Hash_find_last_result@PAU?$_List_node@U?$pair@$$CBVUnicodeString@icu_72@@PAV12@@std@@PAX@std@@@1@ABVUnicodeString@icu_72@@I@Z
2DEA0 83 ??$_Free_non_head@V?$allocator@U?$_List_node@U?$pair@$$CBVUnicodeString@icu_72@@V?$unique_ptr@V?$vector@V?$unique_ptr@VHrdNode@@U?$default_delete@VHrdNode@@@std@@@std@@V?$allocator@V?$unique_ptr@VHrdNode@@U?$default_delete@VHrdNode@@@std@@@std@@@2@@std@@U?$default_delete@V?$vector@V?$unique_ptr@VHrdNode@@U?$default_delete@VHrdNode@@@std@@@std@@V?$allocator@V?$unique_ptr@VHrdNode@@U?$default_delete@VHrdNode@@@std@@@std@@@2@@std@@@2@@std@@@std@@PAX@std@@@std@@@?$_List_node@U?$pair@$$CBVUnicodeString@icu_72@@V?$unique_ptr@V?$vector@V?$unique_ptr@VHrdNode@@U?$default_delete@VHrdNode@@@std@@@std@@V?$allocator@V?$unique_ptr@VHrdNode@@U?$default_delete@VHrdNode@@@std@@@std@@@2@@std@@U?$default_delete@V?$vector@V?$unique_ptr@VHrdNode@@U?$default_delete@VHrdNode@@@std@@@std@@V?$allocator@V?$unique_ptr@VHrdNode@@U?$default_delete@VHrdNode@@@std@@@std@@@2@@std@@@2@@std@@@std@@PAX@std@@SAXAAV?$allocator@U?$_List_node@U?$pair@$$CBVUnicodeString@icu_72@@V?$unique_ptr@V?$vector@V?$unique_ptr@VHrdNode@@U?$default_delete@VHrdNode@@@std@@@std@@V?$allocator@V?$unique_ptr@VHrdNode@@U?$default_delete@VHrdNode@@@std@@@std@@@2@@std@@U?$default_delete@V?$vector@V?$unique_ptr@VHrdNode@@U?$default_delete@VHrdNode@@@std@@@std@@V?$allocator@V?$unique_ptr@VHrdNode@@U?$default_delete@VHrdNode@@@std@@@std@@@2@@std@@@2@@std@@@std@@PAX@std@@@1@PAU01@@Z
2DEF0 83 ??$_Try_emplace@ABVUnicodeString@icu_72@@V?$unique_ptr@V?$vector@V?$unique_ptr@VHrdNode@@U?$default_delete@VHrdNode@@@std@@@std@@V?$allocator@V?$unique_ptr@VHrdNode@@U?$default_delete@VHrdNode@@@std@@@std@@@2@@std@@U?$default_delete@V?$vector@V?$unique_ptr@VHrdNode@@U?$default_delete@VHrdNode@@@std@@@std@@V?$allocator@V?$unique_ptr@VHrdNode@@U?$default_delete@VHrdNode@@@std@@@std@@@2@@std@@@2@@std@@@?$_Hash@V?$_Umap_traits@VUnicodeString@icu_72@@V?$unique_ptr@V?$vector@V?$unique_ptr@VHrdNode@@U?$default_delete@VHrdNode@@@std@@@std@@V?$allocator@V?$unique_ptr@VHrdNode@@U?$default_delete@VHrdNode@@@std@@@std@@@2@@std@@U?$default_delete@V?$vector@V?$unique_ptr@VHrdNode@@U?$default_delete@VHrdNode@@@std@@@std@@V?$allocator@V?$unique_ptr@VHrdNode@@U?$default_delete@VHrdNode@@@std@@@std@@@2@@std@@@2@@std@@V?$_Uhash_compare@VUnicodeString@icu_72@@U?$hash@VUnicodeString@icu_72@@@std@@U?$equal_to@VUnicodeString@icu_72@@@4@@4@V?$allocator@U?$pair@$$CBVUnicodeString@icu_72@@V?$unique_ptr@V?$vector@V?$unique_ptr@VHrdNode@@U?$default_delete@VHrdNode@@@std@@@std@@V?$allocator@V?$unique_ptr@VHrdNode@@U?$default_delete@VHrdNode@@@std@@@std@@@2@@std@@U?$default_delete@V?$vector@V?$unique_ptr@VHrdNode@@U?$default_delete@VHrdNode@@@std@@@std@@V?$allocator@V?$unique_ptr@VHrdNode@@U?$default_delete@VHrdNode@@@std@@@std@@@2@@std@@@2@@std@@@std@@@4@$0A@@std@@@std@@IAE?AU?$pair@PAU?$_List_node@U?$pair@$$CBVUnicodeString@icu_72@@V?$unique_ptr@V?$vector@V?$unique_ptr@VHrdNode@@U?$default_delete@VHrdNode@@@std@@@std@@V?$allocator@V?$unique_ptr@VHrdNode@@U?$default_delete@VHrdNode@@@std@@@std@@@2@@std@@U?$default_delete@V?$vector@V?$unique_ptr@VHrdNode@@U?$default_delete@VHrdNode@@@std@@@std@@V?$allocator@V?$unique_ptr@VHrdNode@@U?$default_delete@VHrdNode@@@std@@@std@@@2@@std@@@2@@std@@@std@@PAX@std@@_N@1@ABVUnicodeString@icu_72@@$$QAV?$unique_ptr@V?$vector@V?$unique_ptr@VHrdNode@@U?$default_delete@VHrdNode@@@std@@@std@@V?$allocator@V?$unique_ptr@VHrdNode@@U?$default_delete@VHrdNode@@@std@@@std@@@2@@std@@U?$default_delete@V?$vector@V?$unique_ptr@VHrdNode@@U?$default_delete@VHrdNode@@@std@@@std@@V?$allocator@V?$unique_ptr@VHrdNode@@U?$default_delete@VHrdNode@@@std@@@std@@@2@@std@@@2@@1@@Z
2E0D0 83 ??0HrdNode@@QAE@ABV0@@Z
2E240 83 ??0Impl@ParserFactory@@QAE@XZ
2E350 83 ??0RegionMapper@@QAE@XZ
2E420 71 ??1?$_Alloc_construct_ptr@V?$allocator@U?$_List_node@U?$pair@$$CBVUnicodeString@icu_72@@PAV12@@std@@PAX@std@@@std@@@std@@QAE@XZ
2E440 83 ??1?$_Hash@V?$_Umap_traits@VUnicodeString@icu_72@@V?$unique_ptr@V?$vector@V?$unique_ptr@VHrdNode@@U?$default_delete@VHrdNode@@@std@@@std@@V?$allocator@V?$unique_ptr@VHrdNode@@U?$default_delete@VHrdNode@@@std@@@std@@@2@@std@@U?$default_delete@V?$vector@V?$unique_ptr@VHrdNode@@U?$default_delete@VHrdNode@@@std@@@std@@V?$allocator@V?$unique_ptr@VHrdNode@@U?$default_delete@VHrdNode@@@std@@@std@@@2@@std@@@2@@std@@V?$_Uhash_compare@VUnicodeString@icu_72@@U?$hash@VUnicodeString@icu_72@@@std@@U?$equal_to@VUnicodeString@icu_72@@@4@@4@V?$allocator@U?$pair@$$CBVUnicodeString@icu_72@@V?$unique_ptr@V?$vector@V?$unique_ptr@VHrdNode@@U?$default_delete@VHrdNode@@@std@@@std@@V?$allocator@V?$unique_ptr@VHrdNode@@U?$default_delete@VHrdNode@@@std@@@std@@@2@@std@@U?$default_delete@V?$vector@V?$unique_ptr@VHrdNode@@U?$default_delete@VHrdNode@@@std@@@std@@V?$allocator@V?$unique_ptr@VHrdNode@@U?$default_delete@VHrdNode@@@std@@@std@@@2@@std@@@2@@std@@@std@@@4@$0A@@std@@@std@@QAE@XZ
2E4B0 83 ??1?$_Hash@V?$_Umap_traits@VUnicodeString@icu_72@@V?$unique_ptr@VRegionDefine@@U?$default_delete@VRegionDefine@@@std@@@std@@V?$_Uhash_compare@VUnicodeString@icu_72@@U?$hash@VUnicodeString@icu_72@@@std@@U?$equal_to@VUnicodeString@icu_72@@@4@@4@V?$allocator@U?$pair@$$CBVUnicodeString@icu_72@@V?$unique_ptr@VRegionDefine@@U?$default_delete@VRegionDefine@@@std@@@std@@@std@@@4@$0A@@std@@@std@@QAE@XZ
2E510 83 ??1?$_List_node_emplace_op2@V?$allocator@U?$_List_node@U?$pair@$$CBVUnicodeString@icu_72@@V?$unique_ptr@V?$vector@V?$unique_ptr@VHrdNode@@U?$default_delete@VHrdNode@@@std@@@std@@V?$allocator@V?$unique_ptr@VHrdNode@@U?$default_delete@VHrdNode@@@std@@@std@@@2@@std@@U?$default_delete@V?$vector@V?$unique_ptr@VHrdNode@@U?$default_delete@VHrdNode@@@std@@@std@@V?$allocator@V?$unique_ptr@VHrdNode@@U?$default_delete@VHrdNode@@@std@@@std@@@2@@std@@@2@@std@@@std@@PAX@std@@@std@@@std@@QAE@XZ
2E560 83 ??1?$_Tidy_guard@V?$vector@VUnicodeString@icu_72@@V?$allocator@VUnicodeString@icu_72@@@std@@@std@@@std@@QAE@XZ
2E570 83 ??1?$list@U?$pair@$$CBVUnicodeString@icu_72@@V?$unique_ptr@V?$vector@V?$unique_ptr@VHrdNode@@U?$default_delete@VHrdNode@@@std@@@std@@V?$allocator@V?$unique_ptr@VHrdNode@@U?$default_delete@VHrdNode@@@std@@@std@@@2@@std@@U?$default_delete@V?$vector@V?$unique_ptr@VHrdNode@@U?$default_delete@VHrdNode@@@std@@@std@@V?$allocator@V?$unique_ptr@VHrdNode@@U?$default_delete@VHrdNode@@@std@@@std@@@2@@std@@@2@@std@@@std@@V?$allocator@U?$pair@$$CBVUnicodeString@icu_72@@V?$unique_ptr@V?$vector@V?$unique_ptr@VHrdNode@@U?$default_delete@VHrdNode@@@std@@@std@@V?$allocator@V?$unique_ptr@VHrdNode@@U?$default_delete@VHrdNode@@@std@@@std@@@2@@std@@U?$default_delete@V?$vector@V?$unique_ptr@VHrdNode@@U?$default_delete@VHrdNode@@@std@@@std@@V?$allocator@V?$unique_ptr@VHrdNode@@U?$default_delete@VHrdNode@@@std@@@std@@@2@@std@@@2@@std@@@std@@@2@@std@@QAE@XZ
2E590 83 ??1?$list@U?$pair@$$CBVUnicodeString@icu_72@@V?$unique_ptr@VRegionDefine@@U?$default_delete@VRegionDefine@@@std@@@std@@@std@@V?$allocator@U?$pair@$$CBVUnicodeString@icu_72@@V?$unique_ptr@VRegionDefine@@U?$default_delete@VRegionDefine@@@std@@@std@@@std@@@2@@std@@QAE@XZ
2E5F0 83 ??1?$unique_ptr@V?$vector@V?$unique_ptr@VHrdNode@@U?$default_delete@VHrdNode@@@std@@@std@@V?$allocator@V?$unique_ptr@VHrdNode@@U?$default_delete@VHrdNode@@@std@@@std@@@2@@std@@U?$default_delete@V?$vector@V?$unique_ptr@VHrdNode@@U?$default_delete@VHrdNode@@@std@@@std@@V?$allocator@V?$unique_ptr@VHrdNode@@U?$default_delete@VHrdNode@@@std@@@std@@@2@@std@@@2@@std@@QAE@XZ
2E610 83 ??1?$unordered_map@VUnicodeString@icu_72@@V?$unique_ptr@V?$vector@V?$unique_ptr@VHrdNode@@U?$default_delete@VHrdNode@@@std@@@std@@V?$allocator@V?$unique_ptr@VHrdNode@@U?$default_delete@VHrdNode@@@std@@@std@@@2@@std@@U?$default_delete@V?$vector@V?$unique_ptr@VHrdNode@@U?$default_delete@VHrdNode@@@std@@@std@@V?$allocator@V?$unique_ptr@VHrdNode@@U?$default_delete@VHrdNode@@@std@@@std@@@2@@std@@@2@@std@@U?$hash@VUnicodeString@icu_72@@@4@U?$equal_to@VUnicodeString@icu_72@@@4@V?$allocator@U?$pair@$$CBVUnicodeString@icu_72@@V?$unique_ptr@V?$vector@V?$unique_ptr@VHrdNode@@U?$default_delete@VHrdNode@@@std@@@std@@V?$allocator@V?$unique_ptr@VHrdNode@@U?$default_delete@VHrdNode@@@std@@@std@@@2@@std@@U?$default_delete@V?$vector@V?$unique_ptr@VHrdNode@@U?$default_delete@VHrdNode@@@std@@@std@@V?$allocator@V?$unique_ptr@VHrdNode@@U?$default_delete@VHrdNode@@@std@@@std@@@2@@std@@@2@@std@@@std@@@4@@std@@QAE@XZ
2E620 83 ??1?$vector@V?$unique_ptr@VHrdNode@@U?$default_delete@VHrdNode@@@std@@@std@@V?$allocator@V?$unique_ptr@VHrdNode@@U?$default_delete@VHrdNode@@@std@@@std@@@2@@std@@QAE@XZ
2E680 83 ??1CatalogParser@@QAE@XZ
2E6A0 83 ??1Impl@ParserFactory@@QAE@XZ
2E730 83 ??1RegionMapper@@UAE@XZ
2E790 83 ??1_Clear_guard@?$_Hash@V?$_Umap_traits@VUnicodeString@icu_72@@V?$unique_ptr@V?$vector@V?$unique_ptr@VHrdNode@@U?$default_delete@VHrdNode@@@std@@@std@@V?$allocator@V?$unique_ptr@VHrdNode@@U?$default_delete@VHrdNode@@@std@@@std@@@2@@std@@U?$default_delete@V?$vector@V?$unique_ptr@VHrdNode@@U?$default_delete@VHrdNode@@@std@@@std@@V?$allocator@V?$unique_ptr@VHrdNode@@U?$default_delete@VHrdNode@@@std@@@std@@@2@@std@@@2@@std@@V?$_Uhash_compare@VUnicodeString@icu_72@@U?$hash@VUnicodeString@icu_72@@@std@@U?$equal_to@VUnicodeString@icu_72@@@4@@4@V?$allocator@U?$pair@$$CBVUnicodeString@icu_72@@V?$unique_ptr@V?$vector@V?$unique_ptr@VHrdNode@@U?$default_delete@VHrdNode@@@std@@@std@@V?$allocator@V?$unique_ptr@VHrdNode@@U?$default_delete@VHrdNode@@@std@@@std@@@2@@std@@U?$default_delete@V?$vector@V?$unique_ptr@VHrdNode@@U?$default_delete@VHrdNode@@@std@@@std@@V?$allocator@V?$unique_ptr@VHrdNode@@U?$default_delete@VHrdNode@@@std@@@std@@@2@@std@@@2@@std@@@std@@@4@$0A@@std@@@std@@QAE@XZ
2E7E0 83 ??_ERegionMapper@@UAEPAXI@Z
2E800 71 ?_Assign_grow@?$_Hash_vec@V?$allocator@V?$_List_unchecked_iterator@V?$_List_val@U?$_List_simple_types@U?$pair@$$CBVUnicodeString@icu_72@@H@std@@@std@@@std@@@std@@@std@@@std@@QAEXIV?$_List_unchecked_iterator@V?$_List_val@U?$_List_simple_types@U?$pair@$$CBVUnicodeString@icu_72@@H@std@@@std@@@std@@@2@@Z
2E940 83 ?_Forced_rehash@?$_Hash@V?$_Umap_traits@VUnicodeString@icu_72@@V?$unique_ptr@V?$vector@V?$unique_ptr@VHrdNode@@U?$default_delete@VHrdNode@@@std@@@std@@V?$allocator@V?$unique_ptr@VHrdNode@@U?$default_delete@VHrdNode@@@std@@@std@@@2@@std@@U?$default_delete@V?$vector@V?$unique_ptr@VHrdNode@@U?$default_delete@VHrdNode@@@std@@@std@@V?$allocator@V?$unique_ptr@VHrdNode@@U?$default_delete@VHrdNode@@@std@@@std@@@2@@std@@@2@@std@@V?$_Uhash_compare@VUnicodeString@icu_72@@U?$hash@VUnicodeString@icu_72@@@std@@U?$equal_to@VUnicodeString@icu_72@@@4@@4@V?$allocator@U?$pair@$$CBVUnicodeString@icu_72@@V?$unique_ptr@V?$vector@V?$unique_ptr@VHrdNode@@U?$default_delete@VHrdNode@@@std@@@std@@V?$allocator@V?$unique_ptr@VHrdNode@@U?$default_delete@VHrdNode@@@std@@@std@@@2@@std@@U?$default_delete@V?$vector@V?$unique_ptr@VHrdNode@@U?$default_delete@VHrdNode@@@std@@@std@@V?$allocator@V?$unique_ptr@VHrdNode@@U?$default_delete@VHrdNode@@@std@@@std@@@2@@std@@@2@@std@@@std@@@4@$0A@@std@@@std@@IAEXI@Z
2EAC0 83 ?addHrd@Impl@ParserFactory@@QAEXV?$unique_ptr@VHrdNode@@U?$default_delete@VHrdNode@@@std@@@std@@@Z
2EC20 83 ?createStyledMapper@Impl@ParserFactory@@QAE?AV?$unique_ptr@VStyledHRDMapper@@U?$default_delete@VStyledHRDMapper@@@std@@@std@@PBVUnicodeString@icu_72@@0@Z
2ED00 83 ?createTextParser@Impl@ParserFactory@@SA?AV?$unique_ptr@VTextParser@@U?$default_delete@VTextParser@@@std@@@std@@XZ
2ED80 83 ?enumHrdInstances@Impl@ParserFactory@@QAE?AV?$vector@PBVHrdNode@@V?$allocator@PBVHrdNode@@@std@@@std@@ABVUnicodeString@icu_72@@@Z
2EE80 83 ?fillMapper@Impl@ParserFactory@@AAEXABVUnicodeString@icu_72@@PBV34@AAVRegionMapper@@@Z
2F01E 83 __catch$?fillMapper@Impl@ParserFactory@@AAEXABVUnicodeString@icu_72@@PBV34@AAVRegionMapper@@@Z$0
2F0C0 83 ?getHrcLibrary@Impl@ParserFactory@@QBEAAVHrcLibrary@@XZ
2F0D0 83 ?getHrdNode@Impl@ParserFactory@@QAEABVHrdNode@@ABVUnicodeString@icu_72@@0@Z
2F330 83 ?loadCatalog@Impl@ParserFactory@@QAEXPBVUnicodeString@icu_72@@@Z
2F550 83 ?loadHrc@Impl@ParserFactory@@ABEXABVUnicodeString@icu_72@@PBV34@@Z
2F5CF 83 __catch$?loadHrc@Impl@ParserFactory@@ABEXABVUnicodeString@icu_72@@PBV34@@Z$0
2F640 83 ?loadHrcPath@Impl@ParserFactory@@QAEXABVUnicodeString@icu_72@@@Z
2F72D 83 __catch$?loadHrcPath@Impl@ParserFactory@@QAEXABVUnicodeString@icu_72@@@Z$0
2F770 83 ?parseCatalog@Impl@ParserFactory@@AAEXABVUnicodeString@icu_72@@@Z
2F980 95 ?_Get_deleter@_Ref_count_base@std@@UBEPAXABVtype_info@@@Z
2F990 71 ??$?4U?$default_delete@VCRegExp@@@std@@$0A@@?$unique_ptr@VCRegExp@@U?$default_delete@VCRegExp@@@std@@@std@@QAEAAV01@$$QAV01@@Z
2F9D0 71 ??$_Emplace_reallocate@AAW4ChooserType@FileTypeChooser@@AANPAVCRegExp@@@?$vector@VFileTypeChooser@@V?$allocator@VFileTypeChooser@@@std@@@std@@AAEPAVFileTypeChooser@@QAV2@AAW4ChooserType@2@AAN$$QAPAVCRegExp@@@Z
2FBD3 71 __catch$??$_Emplace_reallocate@AAW4ChooserType@FileTypeChooser@@AANPAVCRegExp@@@?$vector@VFileTypeChooser@@V?$allocator@VFileTypeChooser@@@std@@@std@@AAEPAVFileTypeChooser@@QAV2@AAW4ChooserType@2@AAN$$QAPAVCRegExp@@@Z$0
2FC00 71 ??$_Emplace_reallocate@V?$unique_ptr@VSchemeNode@@U?$default_delete@VSchemeNode@@@std@@@std@@@?$vector@V?$unique_ptr@VSchemeNode@@U?$default_delete@VSchemeNode@@@std@@@std@@V?$allocator@V?$unique_ptr@VSchemeNode@@U?$default_delete@VSchemeNode@@@std@@@std@@@2@@std@@AAEPAV?$unique_ptr@VSchemeNode@@U?$default_delete@VSchemeNode@@@std@@@1@QAV21@$$QAV21@@Z
2FDB0 71 ??$_Try_emplace@ABVUnicodeString@icu_72@@AAPAVFileType@@@?$_Hash@V?$_Umap_traits@VUnicodeString@icu_72@@PAVFileType@@V?$_Uhash_compare@VUnicodeString@icu_72@@U?$hash@VUnicodeString@icu_72@@@std@@U?$equal_to@VUnicodeString@icu_72@@@4@@std@@V?$allocator@U?$pair@$$CBVUnicodeString@icu_72@@PAVFileType@@@std@@@5@$0A@@std@@@std@@IAE?AU?$pair@PAU?$_List_node@U?$pair@$$CBVUnicodeString@icu_72@@PAVFileType@@@std@@PAX@std@@_N@1@ABVUnicodeString@icu_72@@AAPAVFileType@@@Z
2FF80 71 ??$_Uninitialized_move@PAVFileTypeChooser@@V?$allocator@VFileTypeChooser@@@std@@@std@@YAPAVFileTypeChooser@@QAV1@0PAV1@AAV?$allocator@VFileTypeChooser@@@0@@Z
2FFE0 71 ??$find@X@?$_Hash@V?$_Umap_traits@VUnicodeString@icu_72@@PAVSchemeImpl@@V?$_Uhash_compare@VUnicodeString@icu_72@@U?$hash@VUnicodeString@icu_72@@@std@@U?$equal_to@VUnicodeString@icu_72@@@4@@std@@V?$allocator@U?$pair@$$CBVUnicodeString@icu_72@@PAVSchemeImpl@@@std@@@5@$0A@@std@@@std@@QAE?AV?$_List_iterator@V?$_List_val@U?$_List_simple_types@U?$pair@$$CBVUnicodeString@icu_72@@PAVSchemeImpl@@@std@@@std@@@std@@@1@ABVUnicodeString@icu_72@@@Z
30020 71 ??$log@AAVUnicodeString@icu_72@@ABV12@PBDAAV12@@Log@@SAXW4LogLevel@Logger@@PBDH1V?$basic_string_view@DU?$char_traits@D@std@@@std@@AAVUnicodeString@icu_72@@ABV56@$$QAPBD3@Z
30180 71 ??$log@ABVUnicodeString@icu_72@@AAV12@AAV12@@Log@@SAXW4LogLevel@Logger@@PBDH1V?$basic_string_view@DU?$char_traits@D@std@@@std@@ABVUnicodeString@icu_72@@AAV56@4@Z
302D0 71 ??$log@PBDVUnicodeString@icu_72@@@Log@@SAXW4LogLevel@Logger@@PBDH1V?$basic_string_view@DU?$char_traits@D@std@@@std@@$$QAPBD$$QAVUnicodeString@icu_72@@@Z
30400 71 ??$make_unique@VCRegExp@@PAVUnicodeString@icu_72@@$0A@@std@@YA?AV?$unique_ptr@VCRegExp@@U?$default_delete@VCRegExp@@@std@@@0@$$QAPAVUnicodeString@icu_72@@@Z
30480 71 ??0HrcLibraryException@@QAE@ABV0@@Z
30500 71 ??0HrcLibraryException@@QAE@ABVUnicodeString@icu_72@@@Z
305A0 71 ??0Impl@HrcLibrary@@QAE@XZ
30A50 71 ??1?$_Hash@V?$_Umap_traits@VUnicodeString@icu_72@@HV?$_Uhash_compare@VUnicodeString@icu_72@@U?$hash@VUnicodeString@icu_72@@@std@@U?$equal_to@VUnicodeString@icu_72@@@4@@std@@V?$allocator@U?$pair@$$CBVUnicodeString@icu_72@@H@std@@@4@$0A@@std@@@std@@QAE@XZ
30AB0 71 ??1?$_List_node_emplace_op2@V?$allocator@U?$_List_node@U?$pair@$$CBVUnicodeString@icu_72@@PAV12@@std@@PAX@std@@@std@@@std@@QAE@XZ
30AE0 71 ??1?$list@U?$pair@$$CBVUnicodeString@icu_72@@H@std@@V?$allocator@U?$pair@$$CBVUnicodeString@icu_72@@H@std@@@2@@std@@QAE@XZ
30B30 71 ??1?$unique_ptr@VSchemeNodeBlock@@U?$default_delete@VSchemeNodeBlock@@@std@@@std@@QAE@XZ
30B90 71 ??1?$unique_ptr@VSchemeNodeInherit@@U?$default_delete@VSchemeNodeInherit@@@std@@@std@@QAE@XZ
30BB0 71 ??1?$unique_ptr@VSchemeNodeKeywords@@U?$default_delete@VSchemeNodeKeywords@@@std@@@std@@QAE@XZ
30C00 71 ??1?$unique_ptr@VSchemeNodeRegexp@@U?$default_delete@VSchemeNodeRegexp@@@std@@@std@@QAE@XZ
30C40 71 ??1?$unordered_map@VUnicodeString@icu_72@@HU?$hash@VUnicodeString@icu_72@@@std@@U?$equal_to@VUnicodeString@icu_72@@@4@V?$allocator@U?$pair@$$CBVUnicodeString@icu_72@@H@std@@@4@@std@@QAE@XZ
30C50 71 ??1?$vector@V?$unique_ptr@VSchemeNode@@U?$default_delete@VSchemeNode@@@std@@@std@@V?$allocator@V?$unique_ptr@VSchemeNode@@U?$default_delete@VSchemeNode@@@std@@@std@@@2@@std@@QAE@XZ
30CD0 71 ??1Impl@HrcLibrary@@QAE@XZ
30E80 71 ??1_Clear_guard@?$_Hash@V?$_Umap_traits@VUnicodeString@icu_72@@PAV12@V?$_Uhash_compare@VUnicodeString@icu_72@@U?$hash@VUnicodeString@icu_72@@@std@@U?$equal_to@VUnicodeString@icu_72@@@4@@std@@V?$allocator@U?$pair@$$CBVUnicodeString@icu_72@@PAV12@@std@@@4@$0A@@std@@@std@@QAE@XZ
30EF0 71 ??6?$basic_ostream@DU?$char_traits@D@std@@@std@@QAEAAV01@N@Z
30FD1 71 __catch$??6?$basic_ostream@DU?$char_traits@D@std@@@std@@QAEAAV01@N@Z$0
310B0 71 ??_ERegion@@UAEPAXI@Z
310E0 71 ??_ESchemeImpl@@UAEPAXI@Z
31110 71 ??_ESchemeNodeBlock@@UAEPAXI@Z
31180 71 ??_ESchemeNodeInherit@@UAEPAXI@Z
311A0 71 ??_ESchemeNodeKeywords@@UAEPAXI@Z
311F0 71 ??_ESchemeNodeRegexp@@UAEPAXI@Z
31230 71 ?_Forced_rehash@?$_Hash@V?$_Umap_traits@VUnicodeString@icu_72@@PAV12@V?$_Uhash_compare@VUnicodeString@icu_72@@U?$hash@VUnicodeString@icu_72@@@std@@U?$equal_to@VUnicodeString@icu_72@@@4@@std@@V?$allocator@U?$pair@$$CBVUnicodeString@icu_72@@PAV12@@std@@@4@$0A@@std@@@std@@IAEXI@Z
313B0 71 ?addPrototype@Impl@HrcLibrary@@IAEXABVXMLNode@@@Z
315C0 71 ?addPrototypeDetectParam@Impl@HrcLibrary@@IAEXABVXMLNode@@PAVFileType@@@Z
318D8 71 __catch$?addPrototypeDetectParam@Impl@HrcLibrary@@IAEXABVXMLNode@@PAVFileType@@@Z$0
319E0 71 ?addPrototypeParameters@Impl@HrcLibrary@@IAEXABVXMLNode@@PAVFileType@@@Z
31D70 71 ?addScheme@Impl@HrcLibrary@@IAEXABVXMLNode@@@Z
320B0 71 ?addSchemeBlock@Impl@HrcLibrary@@IAEXPAVSchemeImpl@@ABVXMLNode@@@Z
328D0 71 ?addSchemeInherit@Impl@HrcLibrary@@IAEXPAVSchemeImpl@@ABVXMLNode@@@Z
32C80 71 ?addSchemeKeyword@Impl@HrcLibrary@@IAEXABVXMLNode@@PBVSchemeImpl@@PBVSchemeNodeKeywords@@PBVRegion@@W4KeywordType@KeywordInfo@@@Z
32FE0 71 ?addSchemeRegexp@Impl@HrcLibrary@@IAEXPAVSchemeImpl@@ABVXMLNode@@@Z
33420 71 ?addType@Impl@HrcLibrary@@IAEXABVXMLNode@@@Z
33640 71 ?addTypeRegion@Impl@HrcLibrary@@IAEXABVXMLNode@@@Z
33990 71 ?checkNameExist@Impl@HrcLibrary@@IAE_NPBVUnicodeString@icu_72@@PAVFileType@@W4QualifyNameType@12@_N@Z
33AF0 71 ?chooseFileType@Impl@HrcLibrary@@QAEPAVFileType@@PBVUnicodeString@icu_72@@0H@Z
33BA0 71 ?enumerateFileTypes@Impl@HrcLibrary@@QBEPAVFileType@@I@Z
33BC0 71 ?getDescription@Region@@UBEABVUnicodeString@icu_72@@XZ
33BD0 71 ?getFileType@Impl@HrcLibrary@@QAEPAVFileType@@PBVUnicodeString@icu_72@@@Z
33C20 71 ?getFileType@SchemeImpl@@UBEPAVFileType@@XZ
33C30 71 ?getFileTypesCount@Impl@HrcLibrary@@QBEIXZ
33C40 71 ?getID@Region@@UBEIXZ
33C50 71 ?getNCRegion@Impl@HrcLibrary@@IAEPBVRegion@@PBVUnicodeString@icu_72@@_N@Z
33DF0 66 ?getLocation@FileInputSource@@UBEPBVUnicodeString@icu_72@@XZ
33E00 78 ?getFirstLine@LineRegionsSupport@@QBEIXZ
33E10 71 ?getRegion@Impl@HrcLibrary@@QAEPBVRegion@@PBVUnicodeString@icu_72@@@Z
33E40 71 ?loadFileType@Impl@HrcLibrary@@QAEXPAVFileType@@@Z
33EDB 71 __catch$?loadFileType@Impl@HrcLibrary@@QAEXPAVFileType@@@Z$0
33F22 71 __catch$?loadFileType@Impl@HrcLibrary@@QAEXPAVFileType@@@Z$1
33FDD 71 __catch$?loadFileType@Impl@HrcLibrary@@QAEXPAVFileType@@@Z$2
3408C 71 __catch$?loadFileType@Impl@HrcLibrary@@QAEXPAVFileType@@@Z$3
34100 71 ?loadRegions@Impl@HrcLibrary@@IAEXPAVSchemeNodeBlock@@PBVXMLNode@@_N@Z
342E0 71 ?loadSource@Impl@HrcLibrary@@QAEXPAVXmlInputSource@@@Z
3435A 71 __catch$?loadSource@Impl@HrcLibrary@@QAEXPAVXmlInputSource@@@Z$0
343A0 71 ?loopSchemeKeywords@Impl@HrcLibrary@@IAEXABVXMLNode@@PBVSchemeImpl@@ABV?$unique_ptr@VSchemeNodeKeywords@@U?$default_delete@VSchemeNodeKeywords@@@std@@@std@@PBVRegion@@@Z
344B0 71 ?parseHRC@Impl@HrcLibrary@@IAEXABVXmlInputSource@@@Z
34940 71 ?parseHrcBlock@Impl@HrcLibrary@@IAEXABVXMLNode@@@Z
34AE0 71 ?parsePrototypeBlock@Impl@HrcLibrary@@IAEXABVXMLNode@@PAVFileType@@@Z
34DB0 71 ?parseSchemeBlock@Impl@HrcLibrary@@IAEXPAVSchemeImpl@@ABVXMLNode@@@Z
34F40 71 ?parseSchemeKeywords@Impl@HrcLibrary@@IAEXPAVSchemeImpl@@ABVXMLNode@@@Z
35350 71 ?parseTypeBlock@Impl@HrcLibrary@@IAEXABVXMLNode@@@Z
356A0 71 ?print@?$ArgumentT@N@details@@UBEXAAV?$basic_ostream@DU?$char_traits@D@std@@@std@@@Z
356C0 71 ?push_back@?$vector@V?$unique_ptr@VSchemeNode@@U?$default_delete@VSchemeNode@@@std@@@std@@V?$allocator@V?$unique_ptr@VSchemeNode@@U?$default_delete@VSchemeNode@@@std@@@std@@@2@@std@@QAEX$$QAV?$unique_ptr@VSchemeNode@@U?$default_delete@VSchemeNode@@@std@@@2@@Z
356F0 71 ?qualifyForeignName@Impl@HrcLibrary@@IAE?AV?$unique_ptr@VUnicodeString@icu_72@@U?$default_delete@VUnicodeString@icu_72@@@std@@@std@@PBVUnicodeString@icu_72@@W4QualifyNameType@12@_N@Z
35B70 71 ?qualifyOwnName@Impl@HrcLibrary@@IBE?AV?$unique_ptr@VUnicodeString@icu_72@@U?$default_delete@VUnicodeString@icu_72@@@std@@@std@@ABVUnicodeString@icu_72@@@Z
35D40 71 ?unloadFileType@Impl@HrcLibrary@@IAEXPBVFileType@@@Z
35EE0 71 ?updateSchemeLink@Impl@HrcLibrary@@IAEXAAV?$unique_ptr@VUnicodeString@icu_72@@U?$default_delete@VUnicodeString@icu_72@@@std@@@std@@PAPAVSchemeImpl@@EPBV5@@Z
35FF0 71 ?useEntities@Impl@HrcLibrary@@IAE?AV?$unique_ptr@VUnicodeString@icu_72@@U?$default_delete@VUnicodeString@icu_72@@@std@@@std@@PBVUnicodeString@icu_72@@@Z
36380 92 ??$default_delete@VImpl@TextParser@@@details@spimpl@@YAXPAVImpl@TextParser@@@Z
363A0 92 ??0TextParser@@QAE@XZ
36410 92 ?breakParse@TextParser@@QAEXXZ
36420 92 ?parse@TextParser@@QAEHHHW4TextParseMode@1@@Z
36430 92 ?setFileType@TextParser@@QAEXPAVFileType@@@Z
36440 92 ?setLineSource@TextParser@@QAEXPAVLineSource@@@Z
36450 92 ?setMaxBlockSize@TextParser@@QAEXH@Z
36460 92 ?setRegionHandler@TextParser@@QAEXPAVRegionHandler@@@Z
36470 78 ??$log@AAI@Log@@SAXW4LogLevel@Logger@@PBDH1V?$basic_string_view@DU?$char_traits@D@std@@@std@@AAI@Z
36810 78 ??0LineRegionsSupport@@QAE@XZ
368C0 78 ??1LineRegionsSupport@@UAE@XZ
36A10 78 ?addLineRegion@LineRegionsSupport@@MAEXIPAVLineRegion@@@Z
36A80 78 ?addRegion@LineRegionsSupport@@UAEXIPAVUnicodeString@icu_72@@HHPBVRegion@@@Z
36BD0 78 ?clear@LineRegionsSupport@@QAEXXZ
36C20 78 ?clearLine@LineRegionsSupport@@UAEXIPAVUnicodeString@icu_72@@@Z
36D60 78 ?enterScheme@LineRegionsSupport@@UAEXIPAVUnicodeString@icu_72@@HHPBVRegion@@PBVScheme@@@Z
36EE0 78 ?getLineIndex@LineRegionsSupport@@IBEII@Z
36F00 78 ?getLineRegions@LineRegionsSupport@@QBEPAVLineRegion@@I@Z
36F80 78 ?leaveScheme@LineRegionsSupport@@UAEXIPAVUnicodeString@icu_72@@HHPBVRegion@@PBVScheme@@@Z
37090 78 ?resize@LineRegionsSupport@@QAEXI@Z
37110 78 ?setFirstLine@LineRegionsSupport@@QAEXI@Z
37120 78 ?setRegionMapper@LineRegionsSupport@@QAEXPBVRegionMapper@@@Z
37130 78 ?setSpecialRegion@LineRegionsSupport@@QAEXPBVRegion@@@Z
37140 78 ?startParsing@LineRegionsSupport@@UAEXI@Z
371D0 77 ?addLineRegion@LineRegionsCompactSupport@@MAEXIPAVLineRegion@@@Z
37490 63 ?fromUTF8@Encodings@@SA?AV?$unique_ptr@VUnicodeString@icu_72@@U?$default_delete@VUnicodeString@icu_72@@@std@@@std@@PADH@Z
37510 63 ?fromUTF8@Encodings@@SA?AV?$unique_ptr@VUnicodeString@icu_72@@U?$default_delete@VUnicodeString@icu_72@@@std@@@std@@PAE@Z
375B0 63 ?toUnicodeString@Encodings@@SA?AV?$unique_ptr@VUnicodeString@icu_72@@U?$default_delete@VUnicodeString@icu_72@@@std@@@std@@PADH@Z
376C0 72 ?getAbsolutePath@InputSource@colorer@@SAPAVUnicodeString@icu_72@@PBV34@0@Z
377F0 72 ?isRelative@InputSource@colorer@@SA_NPBVUnicodeString@icu_72@@@Z
37890 72 ?newInstance@InputSource@colorer@@SAPAV12@PBVUnicodeString@icu_72@@@Z
37930 75 ??$?0V?$allocator@U?$_List_node@U?$pair@$$CBVUnicodeString@icu_72@@V12@@std@@PAX@std@@@std@@@?$_Hash@V?$_Umap_traits@VUnicodeString@icu_72@@V12@V?$_Uhash_compare@VUnicodeString@icu_72@@U?$hash@VUnicodeString@icu_72@@@std@@U?$equal_to@VUnicodeString@icu_72@@@4@@std@@V?$allocator@U?$pair@$$CBVUnicodeString@icu_72@@V12@@std@@@4@$0A@@std@@@std@@IAE@ABV01@ABV?$allocator@U?$_List_node@U?$pair@$$CBVUnicodeString@icu_72@@V12@@std@@PAX@std@@@1@@Z
37B00 75 ??0LibXmlReader@@QAE@ABVXmlInputSource@@@Z
37C20 75 ??0XMLNode@@QAE@ABV0@@Z
37DB0 75 ??1?$_Alloc_construct_ptr@V?$allocator@U?$_List_node@U?$pair@$$CBVUnicodeString@icu_72@@V12@@std@@PAX@std@@@std@@@std@@QAE@XZ
37DD0 75 ??1?$_Alloc_construct_ptr@V?$allocator@U?$_List_node@VXMLNode@@PAX@std@@@std@@@std@@QAE@XZ
37DF0 75 ??1?$_List_node_emplace_op2@V?$allocator@U?$_List_node@U?$pair@$$CBVUnicodeString@icu_72@@V12@@std@@PAX@std@@@std@@@std@@QAE@XZ
37E30 75 ??1?$_List_node_insert_op2@V?$allocator@U?$_List_node@VXMLNode@@PAX@std@@@std@@@std@@QAE@XZ
37E80 75 ??1?$unique_ptr@V?$vector@EV?$allocator@E@std@@@std@@U?$default_delete@V?$vector@EV?$allocator@E@std@@@std@@@2@@std@@QAE@XZ
37EE0 75 ??1LibXmlReader@@QAE@XZ
37F10 75 ??1_Clear_guard@?$_Hash@V?$_Umap_traits@VUnicodeString@icu_72@@V12@V?$_Uhash_compare@VUnicodeString@icu_72@@U?$hash@VUnicodeString@icu_72@@@std@@U?$equal_to@VUnicodeString@icu_72@@@4@@std@@V?$allocator@U?$pair@$$CBVUnicodeString@icu_72@@V12@@std@@@4@$0A@@std@@@std@@QAE@XZ
37F60 75 ?_Forced_rehash@?$_Hash@V?$_Umap_traits@VUnicodeString@icu_72@@V12@V?$_Uhash_compare@VUnicodeString@icu_72@@U?$hash@VUnicodeString@icu_72@@@std@@U?$equal_to@VUnicodeString@icu_72@@@4@@std@@V?$allocator@U?$pair@$$CBVUnicodeString@icu_72@@V12@@std@@@4@$0A@@std@@@std@@IAEXI@Z
38210 75 ?_Insert_new_node_before@?$_Hash@V?$_Umap_traits@VUnicodeString@icu_72@@V12@V?$_Uhash_compare@VUnicodeString@icu_72@@U?$hash@VUnicodeString@icu_72@@@std@@U?$equal_to@VUnicodeString@icu_72@@@4@@std@@V?$allocator@U?$pair@$$CBVUnicodeString@icu_72@@V12@@std@@@4@$0A@@std@@@std@@IAEPAU?$_List_node@U?$pair@$$CBVUnicodeString@icu_72@@V12@@std@@PAX@2@IQAU32@0@Z
38270 75 ?_Rehash_for_1@?$_Hash@V?$_Umap_traits@VUnicodeString@icu_72@@V12@V?$_Uhash_compare@VUnicodeString@icu_72@@U?$hash@VUnicodeString@icu_72@@@std@@U?$equal_to@VUnicodeString@icu_72@@@4@@std@@V?$allocator@U?$pair@$$CBVUnicodeString@icu_72@@V12@@std@@@4@$0A@@std@@@std@@IAEXXZ
38300 75 ?getAttributes@LibXmlReader@@CAXPBU_xmlNode@@AAV?$unordered_map@VUnicodeString@icu_72@@V12@U?$hash@VUnicodeString@icu_72@@@std@@U?$equal_to@VUnicodeString@icu_72@@@4@V?$allocator@U?$pair@$$CBVUnicodeString@icu_72@@V12@@std@@@4@@std@@@Z
384D0 75 ?getChildren@LibXmlReader@@AAEXPAU_xmlNode@@AAVXMLNode@@@Z
387C0 75 ?parse@LibXmlReader@@QAEXAAV?$list@VXMLNode@@V?$allocator@VXMLNode@@@std@@@std@@@Z
38A90 75 ?populateNode@LibXmlReader@@AAE_NPAU_xmlNode@@AAVXMLNode@@@Z
38BF0 75 ?print@?$ArgumentT@$$BY0BAAA@D@details@@UBEXAAV?$basic_ostream@DU?$char_traits@D@std@@@std@@@Z
38C10 75 ?xmlMyExternalEntityLoader@LibXmlReader@@CAPAU_xmlParserInput@@PBD0PAU_xmlParserCtxt@@@Z
38E35 75 __catch$?xmlMyExternalEntityLoader@LibXmlReader@@CAPAU_xmlParserInput@@PBD0PAU_xmlParserCtxt@@@Z$0
38EF0 75 ?xmlZipEntityLoader@LibXmlReader@@CAPAU_xmlParserInput@@ABUPathInJar@@PAU_xmlParserCtxt@@@Z
39090 75 ?xml_error_func@LibXmlReader@@CAXPAXPBDZZ
39350 86 ??$_Try_emplace@ABVUnicodeString@icu_72@@AAPAVSharedXmlInputSource@@@?$_Hash@V?$_Umap_traits@VUnicodeString@icu_72@@PAVSharedXmlInputSource@@V?$_Uhash_compare@VUnicodeString@icu_72@@U?$hash@VUnicodeString@icu_72@@@std@@U?$equal_to@VUnicodeString@icu_72@@@4@@std@@V?$allocator@U?$pair@$$CBVUnicodeString@icu_72@@PAVSharedXmlInputSource@@@std@@@5@$0A@@std@@@std@@IAE?AU?$pair@PAU?$_List_node@U?$pair@$$CBVUnicodeString@icu_72@@PAVSharedXmlInputSource@@@std@@PAX@std@@_N@1@ABVUnicodeString@icu_72@@AAPAVSharedXmlInputSource@@@Z
39520 86 ??0?$basic_ifstream@DU?$char_traits@D@std@@@std@@QAE@PB_WHH@Z
39750 86 ??1_Sentry_base@?$basic_istream@DU?$char_traits@D@std@@@std@@QAE@XZ
397A0 86 ??1sentry@?$basic_istream@DU?$char_traits@D@std@@@std@@QAE@XZ
39800 86 ??_D?$basic_ifstream@DU?$char_traits@D@std@@@std@@QAEXXZ
3988F 86 ??_E?$basic_ifstream@DU?$char_traits@D@std@@@std@@$4PPPPPPPM@A@AEPAXI@Z
398A0 86 ??_E?$basic_ifstream@DU?$char_traits@D@std@@@std@@UAEPAXI@Z
398D0 86 ?_Forced_rehash@?$_Hash@V?$_Umap_traits@VUnicodeString@icu_72@@PAVSharedXmlInputSource@@V?$_Uhash_compare@VUnicodeString@icu_72@@U?$hash@VUnicodeString@icu_72@@@std@@U?$equal_to@VUnicodeString@icu_72@@@4@@std@@V?$allocator@U?$pair@$$CBVUnicodeString@icu_72@@PAVSharedXmlInputSource@@@std@@@5@$0A@@std@@@std@@IAEXI@Z
39B80 86 ?_Ipfx@?$basic_istream@DU?$char_traits@D@std@@@std@@QAE_N_N@Z
39D6D 86 __catch$?_Ipfx@?$basic_istream@DU?$char_traits@D@std@@@std@@QAE_N_N@Z$0
39E40 86 ?delref@SharedXmlInputSource@@QAEHXZ
39F60 86 ?getSharedInputSource@SharedXmlInputSource@@SAPAV1@ABVUnicodeString@icu_72@@@Z
3A0E0 86 ?open@SharedXmlInputSource@@QAEXXZ
3A310 86 ?read@?$basic_istream@DU?$char_traits@D@std@@@std@@QAEAAV12@PAD_J@Z
3A3BD 86 __catch$?read@?$basic_istream@DU?$char_traits@D@std@@@std@@QAEAAV12@PAD_J@Z$0
3A480 64 ??$?_0V?$basic_string_view@_WU?$char_traits@_W@std@@@std@@$0A@@path@filesystem@std@@QAEAAV012@ABV?$basic_string_view@_WU?$char_traits@_W@std@@@2@@Z
3A540 64 ??$_Allocate_at_least_helper@V?$allocator@U_Grp_t@?$_Tgt_state_t@V?$_String_const_iterator@V?$_String_val@U?$_Simple_types@D@std@@@std@@@std@@@std@@@std@@@std@@YAPAU_Grp_t@?$_Tgt_state_t@V?$_String_const_iterator@V?$_String_val@U?$_Simple_types@D@std@@@std@@@std@@@0@AAV?$allocator@U_Grp_t@?$_Tgt_state_t@V?$_String_const_iterator@V?$_String_val@U?$_Simple_types@D@std@@@std@@@std@@@std@@@0@AAI@Z
3A590 64 ??$_Compare@V?$_String_const_iterator@V?$_String_val@U?$_Simple_types@D@std@@@std@@@std@@PBDV?$regex_traits@D@2@@std@@YA?AV?$_String_const_iterator@V?$_String_val@U?$_Simple_types@D@std@@@std@@@0@V10@0PBD1ABV?$regex_traits@D@0@W4syntax_option_type@regex_constants@0@@Z
3A740 64 ??$_Compare@V?$_String_const_iterator@V?$_String_val@U?$_Simple_types@D@std@@@std@@@std@@V12@V?$regex_traits@D@2@@std@@YA?AV?$_String_const_iterator@V?$_String_val@U?$_Simple_types@D@std@@@std@@@0@V10@000ABV?$regex_traits@D@0@W4syntax_option_type@regex_constants@0@@Z
3A8F0 64 ??$_Convert_wide_to_narrow_replace_chars@U?$char_traits@D@std@@V?$allocator@D@2@@filesystem@std@@YA?AV?$basic_string@DU?$char_traits@D@std@@V?$allocator@D@2@@1@W4__std_code_page@@V?$basic_string_view@_WU?$char_traits@_W@std@@@1@ABV?$allocator@D@1@@Z
3A9F0 64 ??$_Copy_vbool@V?$_Vb_iterator@U?$_Wrap_alloc@V?$allocator@I@std@@@std@@@std@@V12@@std@@YA?AV?$_Vb_iterator@U?$_Wrap_alloc@V?$allocator@I@std@@@std@@@0@V10@00@Z
3AE30 64 ??$_Emplace_reallocate@$$V@?$vector@V?$basic_string_view@_WU?$char_traits@_W@std@@@std@@V?$allocator@V?$basic_string_view@_WU?$char_traits@_W@std@@@std@@@2@@std@@AAEPAV?$basic_string_view@_WU?$char_traits@_W@std@@@1@QAV21@@Z
3AF20 64 ??$_Emplace_reallocate@AAPB_WI@?$vector@V?$basic_string_view@_WU?$char_traits@_W@std@@@std@@V?$allocator@V?$basic_string_view@_WU?$char_traits@_W@std@@@std@@@2@@std@@AAEPAV?$basic_string_view@_WU?$char_traits@_W@std@@@1@QAV21@AAPB_W$$QAI@Z
3B010 64 ??$_Emplace_reallocate@PB_W@?$vector@VUnicodeString@icu_72@@V?$allocator@VUnicodeString@icu_72@@@std@@@std@@AAEPAVUnicodeString@icu_72@@QAV23@$$QAPB_W@Z
3B239 64 __catch$??$_Emplace_reallocate@PB_W@?$vector@VUnicodeString@icu_72@@V?$allocator@VUnicodeString@icu_72@@@std@@@std@@AAEPAVUnicodeString@icu_72@@QAV23@$$QAPB_W@Z$0
3B270 64 ??$_Initialize_dir_enum@U_Dir_enum_impl@filesystem@std@@@_Dir_enum_impl@filesystem@std@@SA?AW4__std_win_error@@AAV?$shared_ptr@U_Dir_enum_impl@filesystem@std@@@2@ABVpath@12@W4directory_options@12@@Z
3B380 64 ??$_Lookup_coll@V?$_String_const_iterator@V?$_String_val@U?$_Simple_types@D@std@@@std@@@std@@D@std@@YA?AV?$_String_const_iterator@V?$_String_val@U?$_Simple_types@D@std@@@std@@@0@V10@0PBU?$_Sequence@D@0@@Z
3B400 64 ??$_Lookup_range@D@std@@YA_NIPBU?$_Buf@D@0@@Z
3B440 64 ??$_Match@V?$allocator@V?$sub_match@V?$_String_const_iterator@V?$_String_val@U?$_Simple_types@D@std@@@std@@@std@@@std@@@std@@@?$_Matcher@V?$_String_const_iterator@V?$_String_val@U?$_Simple_types@D@std@@@std@@@std@@DV?$regex_traits@D@2@V12@@std@@QAE_NPAV?$match_results@V?$_String_const_iterator@V?$_String_val@U?$_Simple_types@D@std@@@std@@@std@@V?$allocator@V?$sub_match@V?$_String_const_iterator@V?$_String_val@U?$_Simple_types@D@std@@@std@@@std@@@std@@@2@@1@_N@Z
3B5C0 64 ??$_Reallocate@$0A@@?$vector@V?$basic_string_view@_WU?$char_traits@_W@std@@@std@@V?$allocator@V?$basic_string_view@_WU?$char_traits@_W@std@@@std@@@2@@std@@AAEXAAI@Z
3B690 64 ??$_Regex_search2@V?$_String_const_iterator@V?$_String_val@U?$_Simple_types@D@std@@@std@@@std@@V?$allocator@V?$sub_match@V?$_String_const_iterator@V?$_String_val@U?$_Simple_types@D@std@@@std@@@std@@@std@@@2@DV?$regex_traits@D@2@V12@@std@@YA_NV?$_String_const_iterator@V?$_String_val@U?$_Simple_types@D@std@@@std@@@0@0PAV?$match_results@V?$_String_const_iterator@V?$_String_val@U?$_Simple_types@D@std@@@std@@@std@@V?$allocator@V?$sub_match@V?$_String_const_iterator@V?$_String_val@U?$_Simple_types@D@std@@@std@@@std@@@std@@@2@@0@ABV?$basic_regex@DV?$regex_traits@D@std@@@0@W4match_flag_type@regex_constants@0@0@Z
3B9E0 64 ??$_Reset@PBD@?$basic_regex@DV?$regex_traits@D@std@@@std@@AAEXPBD0W4syntax_option_type@regex_constants@1@@Z
3BBF0 64 ??$_Resize_and_overwrite@V<lambda_08b351448d63fa136453c4cf833656f1>@@@?$basic_string@_WU?$char_traits@_W@std@@V?$allocator@_W@2@@std@@QAEXIV<lambda_08b351448d63fa136453c4cf833656f1>@@@Z
3BD40 64 ??$_Resize_reallocate@I@?$vector@IV?$allocator@I@std@@@std@@AAEXIABI@Z
3BE30 64 ??$_Resize_reallocate@U_Value_init_tag@std@@@?$vector@U_Grp_t@?$_Tgt_state_t@V?$_String_const_iterator@V?$_String_val@U?$_Simple_types@D@std@@@std@@@std@@@std@@V?$allocator@U_Grp_t@?$_Tgt_state_t@V?$_String_const_iterator@V?$_String_val@U?$_Simple_types@D@std@@@std@@@std@@@std@@@3@@std@@AAEXIABU_Value_init_tag@1@@Z
3BF30 64 ??$_Resize_reallocate@U_Value_init_tag@std@@@?$vector@U_Loop_vals_t@std@@V?$allocator@U_Loop_vals_t@std@@@2@@std@@AAEXIABU_Value_init_tag@1@@Z
3C050 64 ??$_Resize_reallocate@U_Value_init_tag@std@@@?$vector@V?$sub_match@V?$_String_const_iterator@V?$_String_val@U?$_Simple_types@D@std@@@std@@@std@@@std@@V?$allocator@V?$sub_match@V?$_String_const_iterator@V?$_String_val@U?$_Simple_types@D@std@@@std@@@std@@@std@@@2@@std@@AAEXIABU_Value_init_tag@1@@Z
3C1C0 64 ??$_Uninitialized_fill_n@V?$allocator@I@std@@@std@@YAPAIPAIIABIAAV?$allocator@I@0@@Z
3C220 64 ??$_Uninitialized_value_construct_n@V?$allocator@U_Grp_t@?$_Tgt_state_t@V?$_String_const_iterator@V?$_String_val@U?$_Simple_types@D@std@@@std@@@std@@@std@@@std@@@std@@YAPAU_Grp_t@?$_Tgt_state_t@V?$_String_const_iterator@V?$_String_val@U?$_Simple_types@D@std@@@std@@@std@@@0@PAU120@IAAV?$allocator@U_Grp_t@?$_Tgt_state_t@V?$_String_const_iterator@V?$_String_val@U?$_Simple_types@D@std@@@std@@@std@@@std@@@0@@Z
3C250 64 ??$_Uninitialized_value_construct_n@V?$allocator@V?$sub_match@V?$_String_const_iterator@V?$_String_val@U?$_Simple_types@D@std@@@std@@@std@@@std@@@std@@@std@@YAPAV?$sub_match@V?$_String_const_iterator@V?$_String_val@U?$_Simple_types@D@std@@@std@@@std@@@0@PAV10@IAAV?$allocator@V?$sub_match@V?$_String_const_iterator@V?$_String_val@U?$_Simple_types@D@std@@@std@@@std@@@std@@@0@@Z
3C280 64 ??$fill_n@V?$_Vb_iterator@U?$_Wrap_alloc@V?$allocator@I@std@@@std@@@std@@I_N@std@@YA?AV?$_Vb_iterator@U?$_Wrap_alloc@V?$allocator@I@std@@@std@@@0@V10@IAB_N@Z
3C3B0 64 ??$find@V?$_String_const_iterator@V?$_String_val@U?$_Simple_types@D@std@@@std@@@std@@W4_Meta_type@2@@std@@YA?AV?$_String_const_iterator@V?$_String_val@U?$_Simple_types@D@std@@@std@@@0@V10@V10@ABW4_Meta_type@0@@Z
3C3E0 64 ??$find_if@PB_WU_Is_slash_oper@filesystem@std@@@std@@YAPB_WPB_WQB_WU_Is_slash_oper@filesystem@0@@Z
3C410 64 ??$lookup_classname@PBD@?$_Regex_traits@D@std@@QBEFPBD0_N@Z
3C4F0 64 ??$transform_primary@PAD@?$_Regex_traits@D@std@@QBE?AV?$basic_string@DU?$char_traits@D@std@@V?$allocator@D@2@@1@PAD0@Z
3C6F0 64 ??0?$_Bt_state_t@V?$_String_const_iterator@V?$_String_val@U?$_Simple_types@D@std@@@std@@@std@@@std@@QAE@ABV01@@Z
3C770 64 ??0?$_Tgt_state_t@V?$_String_const_iterator@V?$_String_val@U?$_Simple_types@D@std@@@std@@@std@@@std@@QAE@ABV01@@Z
3C820 64 ??0?$basic_regex@DV?$regex_traits@D@std@@@std@@QAE@PBDW4syntax_option_type@regex_constants@1@@Z
3C9B0 64 ??0?$basic_string@_WU?$char_traits@_W@std@@V?$allocator@_W@2@@std@@QAE@ABV01@@Z
3CA60 64 ??0_Creator@_Dir_enum_impl@filesystem@std@@QAE@ABVpath@23@W4directory_options@23@@Z
3CB00 64 ??0_Dir_enum_impl@filesystem@std@@QAE@$$QAU_Creator@012@W4directory_options@12@@Z
3CC00 64 ??0filesystem_error@filesystem@std@@QAE@ABV012@@Z
3CCB0 64 ??0filesystem_error@filesystem@std@@QAE@ABV?$basic_string@DU?$char_traits@D@std@@V?$allocator@D@2@@2@ABVpath@12@Verror_code@2@@Z
3CDE0 64 ??0filesystem_error@filesystem@std@@QAE@ABV?$basic_string@DU?$char_traits@D@std@@V?$allocator@D@2@@2@Verror_code@2@@Z
3CEB0 64 ??0system_error@std@@QAE@Verror_code@1@@Z
3CF80 64 ??1?$_Bt_state_t@V?$_String_const_iterator@V?$_String_val@U?$_Simple_types@D@std@@@std@@@std@@@std@@QAE@XZ
3CFE0 64 ??1?$_Matcher@V?$_String_const_iterator@V?$_String_val@U?$_Simple_types@D@std@@@std@@@std@@DV?$regex_traits@D@2@V12@@std@@QAE@XZ
3D050 64 ??1?$_Parser@PBDDV?$regex_traits@D@std@@@std@@QAE@XZ
3D0B0 64 ??1?$_Tgt_state_t@V?$_String_const_iterator@V?$_String_val@U?$_Simple_types@D@std@@@std@@@std@@@std@@QAE@XZ
3D150 64 ??1?$_Tidy_guard@V?$_Builder@PBDDV?$regex_traits@D@std@@@std@@@std@@QAE@XZ
3D180 64 ??1?$basic_regex@DV?$regex_traits@D@std@@@std@@QAE@XZ
3D1B0 64 ??1?$match_results@V?$_String_const_iterator@V?$_String_val@U?$_Simple_types@D@std@@@std@@@std@@V?$allocator@V?$sub_match@V?$_String_const_iterator@V?$_String_val@U?$_Simple_types@D@std@@@std@@@std@@@std@@@2@@std@@QAE@XZ
3D1C0 64 ??1?$regex_traits@D@std@@QAE@XZ
3D1E0 64 ??1?$shared_ptr@U_Dir_enum_impl@filesystem@std@@@std@@QAE@XZ
3D210 64 ??1?$vector@U_Loop_vals_t@std@@V?$allocator@U_Loop_vals_t@std@@@2@@std@@QAE@XZ
3D270 64 ??1?$vector@V?$sub_match@V?$_String_const_iterator@V?$_String_val@U?$_Simple_types@D@std@@@std@@@std@@@std@@V?$allocator@V?$sub_match@V?$_String_const_iterator@V?$_String_val@U?$_Simple_types@D@std@@@std@@@std@@@std@@@2@@std@@QAE@XZ
3D2E0 64 ??1?$vector@_WV?$allocator@_W@std@@@std@@QAE@XZ
3D340 64 ??1_Creator@_Dir_enum_impl@filesystem@std@@QAE@XZ
3D3A0 64 ??1_Find_file_handle@filesystem@std@@QAE@XZ
3D3B0 64 ??1_System_error_message@std@@QAE@XZ
3D3C0 64 ??1directory_entry@filesystem@std@@QAE@XZ
3D420 64 ??1filesystem_error@filesystem@std@@UAE@XZ
3D520 64 ??4?$_Tgt_state_t@V?$_String_const_iterator@V?$_String_val@U?$_Simple_types@D@std@@@std@@@std@@@std@@QAEAAV01@ABV01@@Z
3D560 64 ??4?$vector@IV?$allocator@I@std@@@std@@QAEAAV01@ABV01@@Z
3D6A0 64 ??4?$vector@U_Grp_t@?$_Tgt_state_t@V?$_String_const_iterator@V?$_String_val@U?$_Simple_types@D@std@@@std@@@std@@@std@@V?$allocator@U_Grp_t@?$_Tgt_state_t@V?$_String_const_iterator@V?$_String_val@U?$_Simple_types@D@std@@@std@@@std@@@std@@@3@@std@@QAEAAV01@ABV01@@Z
3D7E0 64 ??Kfilesystem@std@@YA?AVpath@01@ABV201@0@Z
3D970 64 ??R_Is_slash_oper@filesystem@std@@QBE_N_W@Z
3D990 64 ??Y?$_Vb_iterator@U?$_Wrap_alloc@V?$allocator@I@std@@@std@@@std@@QAEAAV01@H@Z
3D9F0 64 ??_0path@filesystem@std@@QAEAAV012@ABV012@@Z
3DB90 64 ??_E?$_Node_class@DV?$regex_traits@D@std@@@std@@UAEPAXI@Z
3DC50 64 ??_E?$_Node_str@D@std@@UAEPAXI@Z
3DC80 64 ??_E?$_Ref_count_obj2@U_Dir_enum_impl@filesystem@std@@@std@@UAEPAXI@Z
3DCB0 64 ??_E?$collate@D@std@@MAEPAXI@Z
3DCF0 64 ??_E_Node_assert@std@@UAEPAXI@Z
3DD40 64 ??_E_Node_back@std@@UAEPAXI@Z
3DD70 64 ??_E_Node_base@std@@UAEPAXI@Z
3DDA0 64 ??_E_Node_if@std@@UAEPAXI@Z
3DE10 64 ??_E_Node_rep@std@@UAEPAXI@Z
3DE40 64 ??_E_Root_node@std@@UAEPAXI@Z
3DE70 64 ??_Efilesystem_error@filesystem@std@@UAEPAXI@Z
3DF90 64 ?_Add_char@?$_Builder@PBDDV?$regex_traits@D@std@@@std@@QAEXD@Z
3E0A0 64 ?_Add_char_to_array@?$_Builder@PBDDV?$regex_traits@D@std@@@std@@AAEXD@Z
3E140 64 ?_Add_char_to_class@?$_Builder@PBDDV?$regex_traits@D@std@@@std@@QAEXD@Z
3E1B0 64 ?_Add_class@?$_Builder@PBDDV?$regex_traits@D@std@@@std@@QAEXXZ
3E240 64 ?_Add_equiv@?$_Builder@PBDDV?$regex_traits@D@std@@@std@@QAEXPBD0H@Z
3E420 64 ?_Add_named_class@?$_Builder@PBDDV?$regex_traits@D@std@@@std@@QAEXF_N@Z
3E4D0 64 ?_Add_range@?$_Builder@PBDDV?$regex_traits@D@std@@@std@@QAEXDD@Z
3E650 64 ?_Add_rep@?$_Builder@PBDDV?$regex_traits@D@std@@@std@@QAEXHH_N@Z
3E960 64 ?_Advance_and_reset_if_no_more_files@_Dir_enum_impl@filesystem@std@@SA?AW4__std_win_error@@AAV?$shared_ptr@U_Dir_enum_impl@filesystem@std@@@3@@Z
3EA20 64 ?_Alternative@?$_Parser@PBDDV?$regex_traits@D@std@@@std@@AAE_NXZ
3ECE0 64 ?_AtomEscape@?$_Parser@PBDDV?$regex_traits@D@std@@@std@@AAEXXZ
3EE20 64 ?_Beg_expr@?$_Builder@PBDDV?$regex_traits@D@std@@@std@@QBE_NXZ
3EE60 64 ?_Begin_capture_group@?$_Builder@PBDDV?$regex_traits@D@std@@@std@@QAEPAV_Node_base@2@I@Z
3EEE0 64 ?_Buy_nonzero@?$vector@DV?$allocator@D@std@@@std@@AAEXI@Z
3EF70 64 ?_Buy_raw@?$vector@IV?$allocator@I@std@@@std@@AAEXI@Z
3F000 64 ?_Buy_raw@?$vector@U_Grp_t@?$_Tgt_state_t@V?$_String_const_iterator@V?$_String_val@U?$_Simple_types@D@std@@@std@@@std@@@std@@V?$allocator@U_Grp_t@?$_Tgt_state_t@V?$_String_const_iterator@V?$_String_val@U?$_Simple_types@D@std@@@std@@@std@@@std@@@3@@std@@AAEXI@Z
3F090 64 ?_Calculate_loop_simplicity@std@@YAXPAV_Node_base@1@0PAV_Node_rep@1@@Z
3F148 64 $LN48
3F15C 64 $LN47
3F170 64 ?_Change_array@?$vector@V?$basic_string_view@_WU?$char_traits@_W@std@@@std@@V?$allocator@V?$basic_string_view@_WU?$char_traits@_W@std@@@std@@@2@@std@@AAEXQAV?$basic_string_view@_WU?$char_traits@_W@std@@@2@II@Z
3F1D0 64 ?_Char_to_elts@?$_Builder@PBDDV?$regex_traits@D@std@@@std@@AAEXPBD0HPAPAU?$_Sequence@D@2@@Z
3F290 64 ?_CharacterClass@?$_Parser@PBDDV?$regex_traits@D@std@@@std@@AAEXXZ
3F3C0 64 ?_CharacterClassEscape@?$_Parser@PBDDV?$regex_traits@D@std@@@std@@AAE_N_N@Z
3F440 64 ?_CharacterEscape@?$_Parser@PBDDV?$regex_traits@D@std@@@std@@AAE_NXZ
3F5D8 64 $LN96
3F5E0 64 $LN95
3F614 64 $LN98
3F624 64 $LN97
3F680 64 ?_ClassAtom@?$_Parser@PBDDV?$regex_traits@D@std@@@std@@AAE?AW4_Prs_ret@2@XZ
3F820 64 ?_DecimalDigits@?$_Parser@PBDDV?$regex_traits@D@std@@@std@@AAE_NW4error_type@regex_constants@2@@Z
3F840 64 ?_Delete_this@?$_Ref_count_obj2@U_Dir_enum_impl@filesystem@std@@@std@@EAEXXZ
3F850 64 ?_Destroy@?$_Ref_count_obj2@U_Dir_enum_impl@filesystem@std@@@std@@EAEXXZ
3F870 64 ?_Disjunction@?$_Parser@PBDDV?$regex_traits@D@std@@@std@@AAEXXZ
3FA80 64 ?_Do_assert_group@?$_Parser@PBDDV?$regex_traits@D@std@@@std@@AAEX_N@Z
3FB90 64 ?_Do_digits@?$_Parser@PBDDV?$regex_traits@D@std@@@std@@AAEHHHW4error_type@regex_constants@2@@Z
3FCA0 64 ?_Do_ex_class@?$_Parser@PBDDV?$regex_traits@D@std@@@std@@AAEXW4_Meta_type@2@@Z
3FE00 64 ?_Do_ffn@?$_Parser@PBDDV?$regex_traits@D@std@@@std@@AAE_ND@Z
3FE60 64 ?_Do_ffnx@?$_Parser@PBDDV?$regex_traits@D@std@@@std@@AAE_ND@Z
3FE90 64 ?_Do_if@?$_Matcher@V?$_String_const_iterator@V?$_String_val@U?$_Simple_types@D@std@@@std@@@std@@DV?$regex_traits@D@2@V12@@std@@AAE_NPAV_Node_if@2@@Z
40010 64 ?_Do_rep0@?$_Matcher@V?$_String_const_iterator@V?$_String_val@U?$_Simple_types@D@std@@@std@@@std@@DV?$regex_traits@D@2@V12@@std@@AAE_NPAV_Node_rep@2@_N@Z
40220 64 ?_Do_rep@?$_Matcher@V?$_String_const_iterator@V?$_String_val@U?$_Simple_types@D@std@@@std@@@std@@DV?$regex_traits@D@2@V12@@std@@AAE_NPAV_Node_rep@2@_NH@Z
403B0 64 ?_End_group@?$_Builder@PBDDV?$regex_traits@D@std@@@std@@QAEXPAV_Node_base@2@@Z
40440 64 ?_Error@?$_Parser@PBDDV?$regex_traits@D@std@@@std@@AAEXW4error_type@regex_constants@2@@Z
40450 64 ?_Find_filename@filesystem@std@@YAPB_WQB_WPB_W@Z
404A0 64 ?_Find_root_name_end@filesystem@std@@YAPB_WQB_W0@Z
405B0 64 ?_Getcat@?$collate@D@std@@SAIPAPBVfacet@locale@2@PBV42@@Z
40800 64 ?_Insert_x@?$vector@_NV?$allocator@_N@std@@@std@@QAEIV?$_Vb_const_iterator@U?$_Wrap_alloc@V?$allocator@I@std@@@std@@@2@I@Z
409F0 64 ?_Is_esc@?$_Parser@PBDDV?$regex_traits@D@std@@@std@@ABE_NXZ
40A30 64 ?_Make_ec@std@@YA?AVerror_code@1@W4__std_win_error@@@Z
40A50 64 ?_Match_pat@?$_Matcher@V?$_String_const_iterator@V?$_String_val@U?$_Simple_types@D@std@@@std@@@std@@DV?$regex_traits@D@2@V12@@std@@AAE_NPAV_Node_base@2@@Z
41010 64 $LN637
41070 64 ?_New_node@?$_Builder@PBDDV?$regex_traits@D@std@@@std@@AAEPAV_Node_base@2@W4_Node_type@2@@Z
410E0 64 ?_Next@?$_Parser@PBDDV?$regex_traits@D@std@@@std@@AAEXXZ
41140 64 ?_Open_dir@_Dir_enum_impl@filesystem@std@@SA?AW4__std_win_error@@AAVpath@23@W4directory_options@23@AAU_Find_file_handle@23@AAU__std_fs_find_data@@@Z
41290 64 ?_Pretty_message@filesystem_error@filesystem@std@@CA?AV?$basic_string@DU?$char_traits@D@std@@V?$allocator@D@2@@3@V?$basic_string_view@DU?$char_traits@D@std@@@3@ABVpath@23@1@Z
41560 64 ?_Range_compare@filesystem@std@@YAHQB_W000@Z
415D0 64 ?_Refresh@_Dir_enum_impl@filesystem@std@@QAEXABU__std_fs_find_data@@@Z
41740 64 ?_Refresh@file_status@filesystem@std@@QAEXW4__std_win_error@@ABU__std_fs_stats@@@Z
417E0 64 ?_Resize@?$match_results@V?$_String_const_iterator@V?$_String_val@U?$_Simple_types@D@std@@@std@@@std@@V?$allocator@V?$sub_match@V?$_String_const_iterator@V?$_String_val@U?$_Simple_types@D@std@@@std@@@std@@@std@@@2@@std@@QAEXI@Z
41870 64 ?_Skip@?$_Matcher@V?$_String_const_iterator@V?$_String_val@U?$_Simple_types@D@std@@@std@@@std@@DV?$regex_traits@D@2@V12@@std@@QAE?AV?$_String_const_iterator@V?$_String_val@U?$_Simple_types@D@std@@@std@@@2@V32@0PAV_Node_base@2@@Z
41AA0 64 $LN201
41AC0 64 $LN200
41AE0 64 ?_Skip_dots@_Dir_enum_impl@filesystem@std@@SA?AW4__std_win_error@@W4__std_fs_dir_handle@@AAU__std_fs_find_data@@@Z
41B20 64 ?_Throw_fs_error@filesystem@std@@YAXPBDW4__std_win_error@@@Z
41BA0 64 ?_Throw_fs_error@filesystem@std@@YAXPBDW4__std_win_error@@ABVpath@12@@Z
41C30 64 ?_Throw_system_error@std@@YAXW4errc@1@@Z
41C70 64 ?_Throw_system_error_from_std_win_error@std@@YAXW4__std_win_error@@@Z
41CB0 64 ?_Tidy@?$basic_regex@DV?$regex_traits@D@std@@@std@@AAEXXZ
41D00 64 ?_Trans@?$_Parser@PBDDV?$regex_traits@D@std@@@std@@AAEXXZ
41E04 64 $LN32
41E2C 64 $LN31
41EA0 64 ?_Trim@?$vector@_NV?$allocator@_N@std@@@std@@QAEXI@Z
41EF0 64 ?_Wrapped_disjunction@?$_Parser@PBDDV?$regex_traits@D@std@@@std@@AAE_NXZ
42010 64 ?_Xlen@?$vector@_NV?$allocator@_N@std@@@std@@SAXXZ
42020 64 ?append@?$basic_string@_WU?$char_traits@_W@std@@V?$allocator@_W@2@@std@@QAEAAV12@QB_WI@Z
421A0 64 ?compare@?$_WChar_traits@_W@std@@SAHQB_W0I@Z
421E0 64 ?compare@path@filesystem@std@@QBEHV?$basic_string_view@_WU?$char_traits@_W@std@@@3@@Z
42360 64 ?default_error_condition@_System_error_category@std@@UBE?AVerror_condition@2@H@Z
423D0 64 ?do_compare@?$collate@D@std@@MBEHPBD000@Z
42410 64 ?do_hash@?$collate@D@std@@MBEJPBD0@Z
42440 64 ?do_transform@?$collate@D@std@@MBE?AV?$basic_string@DU?$char_traits@D@std@@V?$allocator@D@2@@2@PBD0@Z
42540 64 ?erase@?$basic_string@_WU?$char_traits@_W@std@@V?$allocator@_W@2@@std@@QAEAAV12@I@Z
42570 64 ?expandEnvByRegexp@Environment@colorer@@CA?AV?$basic_string@DU?$char_traits@D@std@@V?$allocator@D@2@@std@@ABV34@ABV?$basic_regex@DV?$regex_traits@D@std@@@4@@Z
42B00 64 ?expandEnvironment@Environment@colorer@@SA?AVUnicodeString@icu_72@@ABV34@@Z
42E00 64 ?expandSpecialEnvironment@Environment@colorer@@SA?AVUnicodeString@icu_72@@ABV34@@Z
43040 64 ?generic_category@std@@YAABVerror_category@1@XZ
43050 64 ?getAbsolutePath@Environment@colorer@@SA?AVUnicodeString@icu_72@@ABV34@0@Z
43130 64 ?getClearFilePath@Environment@colorer@@SA?AVpath@filesystem@std@@PBVUnicodeString@icu_72@@0@Z
435F0 64 ?getFileSize@Environment@colorer@@SA_KABVUnicodeString@icu_72@@@Z
436C0 64 ?getFilesFromPath@Environment@colorer@@SA?AV?$vector@VUnicodeString@icu_72@@V?$allocator@VUnicodeString@icu_72@@@std@@@std@@PBVUnicodeString@icu_72@@0ABV56@@Z
43B20 64 ?getOSEnv@Environment@colorer@@SA?AV?$unique_ptr@VUnicodeString@icu_72@@U?$default_delete@VUnicodeString@icu_72@@@std@@@std@@ABVUnicodeString@icu_72@@@Z
43F30 64 ?isRegularFile@Environment@colorer@@SA_NABVUnicodeString@icu_72@@@Z
44140 64 ?isRegularFile@Environment@colorer@@SA_NPBVUnicodeString@icu_72@@0AAV34@@Z
44350 64 ?lexically_normal@path@filesystem@std@@QBE?AV123@XZ
44A00 64 ?make_error_code@std@@YA?AVerror_code@1@W4errc@1@@Z
44A20 64 ?message@_Generic_error_category@std@@UBE?AV?$basic_string@DU?$char_traits@D@std@@V?$allocator@D@2@@2@H@Z
44A70 64 ?message@_System_error_category@std@@UBE?AV?$basic_string@DU?$char_traits@D@std@@V?$allocator@D@2@@2@H@Z
44B30 64 ?name@_Generic_error_category@std@@UBEPBDXZ
44B40 64 ?name@_System_error_category@std@@UBEPBDXZ
44B50 64 ?normalizeFsPath@Environment@colorer@@SA?AVpath@filesystem@std@@PBVUnicodeString@icu_72@@@Z
44EB0 64 ?normalizePath@Environment@colorer@@SA?AV?$unique_ptr@VUnicodeString@icu_72@@U?$default_delete@VUnicodeString@icu_72@@@std@@@std@@PBVUnicodeString@icu_72@@@Z
44F90 64 ?push_back@?$basic_string@_WU?$char_traits@_W@std@@V?$allocator@_W@2@@std@@QAEX_W@Z
450C0 64 ?resize@?$vector@_NV?$allocator@_N@std@@@std@@QAEXI_N@Z
45300 64 ?status@filesystem@std@@YA?AVfile_status@12@ABVpath@12@@Z
453A0 64 ?to_filepath@Environment@colorer@@SA?AVpath@filesystem@std@@PBVUnicodeString@icu_72@@@Z
45450 64 ?translate@?$_Regex_traits@D@std@@QBEDD@Z
454E0 64 ?what@filesystem_error@filesystem@std@@UBEPBDXZ
454F0 68 ??0FileTypeChooser@@QAE@W4ChooserType@0@NPAVCRegExp@@@Z
45520 68 ?calcPriority@FileTypeChooser@@QBENPBVUnicodeString@icu_72@@@Z
45590 68 ?isFileContent@FileTypeChooser@@QBE_NXZ
455A0 68 ?isFileName@FileTypeChooser@@QBE_NXZ
455B0 87 ??$_Try_emplace@ABVUnicodeString@icu_72@@V?$unique_ptr@VStyledRegion@@U?$default_delete@VStyledRegion@@@std@@@std@@@?$_Hash@V?$_Umap_traits@VUnicodeString@icu_72@@V?$unique_ptr@VRegionDefine@@U?$default_delete@VRegionDefine@@@std@@@std@@V?$_Uhash_compare@VUnicodeString@icu_72@@U?$hash@VUnicodeString@icu_72@@@std@@U?$equal_to@VUnicodeString@icu_72@@@4@@4@V?$allocator@U?$pair@$$CBVUnicodeString@icu_72@@V?$unique_ptr@VRegionDefine@@U?$default_delete@VRegionDefine@@@std@@@std@@@std@@@4@$0A@@std@@@std@@IAE?AU?$pair@PAU?$_List_node@U?$pair@$$CBVUnicodeString@icu_72@@V?$unique_ptr@VRegionDefine@@U?$default_delete@VRegionDefine@@@std@@@std@@@std@@PAX@std@@_N@1@ABVUnicodeString@icu_72@@$$QAV?$unique_ptr@VStyledRegion@@U?$default_delete@VStyledRegion@@@std@@@1@@Z
45790 87 ??1?$_List_node_emplace_op2@V?$allocator@U?$_List_node@U?$pair@$$CBVUnicodeString@icu_72@@V?$unique_ptr@VRegionDefine@@U?$default_delete@VRegionDefine@@@std@@@std@@@std@@PAX@std@@@std@@@std@@QAE@XZ
457D0 87 ??1?$unique_ptr@VStyledRegion@@U?$default_delete@VStyledRegion@@@std@@@std@@QAE@XZ
457E0 87 ??1_Clear_guard@?$_Hash@V?$_Umap_traits@VUnicodeString@icu_72@@V?$unique_ptr@VRegionDefine@@U?$default_delete@VRegionDefine@@@std@@@std@@V?$_Uhash_compare@VUnicodeString@icu_72@@U?$hash@VUnicodeString@icu_72@@@std@@U?$equal_to@VUnicodeString@icu_72@@@4@@4@V?$allocator@U?$pair@$$CBVUnicodeString@icu_72@@V?$unique_ptr@VRegionDefine@@U?$default_delete@VRegionDefine@@@std@@@std@@@std@@@4@$0A@@std@@@std@@QAE@XZ
45860 87 ?_Forced_rehash@?$_Hash@V?$_Umap_traits@VUnicodeString@icu_72@@V?$unique_ptr@VRegionDefine@@U?$default_delete@VRegionDefine@@@std@@@std@@V?$_Uhash_compare@VUnicodeString@icu_72@@U?$hash@VUnicodeString@icu_72@@@std@@U?$equal_to@VUnicodeString@icu_72@@@4@@4@V?$allocator@U?$pair@$$CBVUnicodeString@icu_72@@V?$unique_ptr@VRegionDefine@@U?$default_delete@VRegionDefine@@@std@@@std@@@std@@@4@$0A@@std@@@std@@IAEXI@Z
45BF0 87 ?loadRegionMappings@StyledHRDMapper@@UAEXAAVXmlInputSource@@@Z
46000 87 ?saveRegionMappings@StyledHRDMapper@@UBEXPAVWriter@@@Z
46300 87 ?setRegionDefine@StyledHRDMapper@@UAEXABVUnicodeString@icu_72@@PBVRegionDefine@@@Z
463F0 87 _snprintf
46430 73 ??0KeywordInfo@@QAE@XZ
46450 73 ??0KeywordList@@QAE@I@Z
46550 73 ??1KeywordList@@QAE@XZ
465E0 73 ?kwCompare@@YAHPBX0@Z
46600 73 ?kwCompareI@@YAHPBX0@Z
46620 73 ?sortList@KeywordList@@QAEXXZ
46660 73 ?substrIndex@KeywordList@@QAEXXZ
468B0 85 ??1SchemeNodeInherit@@UAE@XZ
46960 94 ??0Impl@TextParser@@QAE@XZ
46A70 94 ??0ParseCache@@QAE@XZ
46AE0 94 ??1Impl@TextParser@@QAE@XZ
46B00 94 ?breakParse@Impl@TextParser@@QAEXXZ
46B10 94 ?colorize@Impl@TextParser@@AAE_NPAVCRegExp@@_N@Z
46DB0 94 ?enterScheme@Impl@TextParser@@AAEXHPBUSMatches@@PBVSchemeNodeBlock@@@Z
46ED0 94 ?fillInvisibleSchemes@Impl@TextParser@@AAEXPAVParseCache@@@Z
46F10 94 ?initCache@Impl@TextParser@@QAEXXZ
46F80 94 ?leaveScheme@Impl@TextParser@@AAEXHPBUSMatches@@PBVSchemeNodeBlock@@@Z
470A0 94 ?parse@Impl@TextParser@@QAEHHHW4TextParseMode@2@@Z
47300 94 ?searchBL@Impl@TextParser@@AAEHPAVSchemeNodeBlock@@HHH@Z
47680 94 ?searchKW@Impl@TextParser@@AAEHPBVSchemeNodeKeywords@@HHH@Z
47B40 94 ?searchMatch@Impl@TextParser@@AAEHPBVSchemeImpl@@HHH@Z
47DB4 94 $LN61
47DD0 94 ?setFileType@Impl@TextParser@@QAEXPAVFileType@@@Z
47E00 94 ?setLineSource@Impl@TextParser@@QAEXPAVLineSource@@@Z
47E10 94 ?setMaxBlockSize@Impl@TextParser@@QAEXH@Z
47E20 94 ?setRegionHandler@Impl@TextParser@@QAEXPAVRegionHandler@@@Z
47E30 66 ??0FileInputSource@@QAE@PBVUnicodeString@icu_72@@PAV0@@Z
482A0 66 ??_EFileInputSource@@UAEPAXI@Z
482E0 66 ?closeStream@FileInputSource@@UAEXXZ
48370 66 ?createRelative@FileInputSource@@MAEPAVInputSource@colorer@@PBVUnicodeString@icu_72@@@Z
483E0 66 ?length@FileInputSource@@UBEHXZ
48460 66 ?openStream@FileInputSource@@UAEPBEXZ
486C0 80 ?mem_error_file_func@@YAHPAX0@Z
486D0 80 ?mem_open_file_func@@YAPAXPAXPBDH@Z
486F0 80 ?mem_read_file_func@@YAKPAX00K@Z
48730 80 ?mem_seek_file_func@@YAJPAX0KH@Z
48790 80 ?mem_tell_file_func@@YAJPAX0@Z
487A0 80 ?unzip@@YA?AV?$unique_ptr@V?$vector@EV?$allocator@E@std@@@std@@U?$default_delete@V?$vector@EV?$allocator@E@std@@@std@@@2@@std@@PBEHABVUnicodeString@icu_72@@@Z
48CF0 93 ??1ParseCache@@QAE@XZ
48DD0 93 ??1VTList@@QAE@XZ
48E20 93 ?clear@VTList@@QAEXXZ
48EB0 93 ?deltree@VTList@@QAEXXZ
48F20 93 ?pop@VTList@@QAE_NXZ
48FB0 93 ?popvirt@VTList@@QAEXXZ
48FD0 93 ?push@VTList@@QAE_NPAVSchemeNodeInherit@@@Z
49060 93 ?pushvirt@VTList@@QAEPAVSchemeImpl@@PAV2@@Z
490E0 93 ?restore@VTList@@QAE_NPAPAV?$vector@PAVVirtualEntry@@V?$allocator@PAVVirtualEntry@@@std@@@std@@@Z
49170 93 ?searchLine@ParseCache@@QAEPAV1@HPAPAV1@@Z
491F0 93 ?store@VTList@@QAEPAPAV?$vector@PAVVirtualEntry@@V?$allocator@PAVVirtualEntry@@@std@@@std@@XZ
49250 505 _xmlAddChild
493F0 505 _xmlAddChildList
494E0 505 _xmlAddNextSibling
49600 505 _xmlAddPropSibling
49720 505 _xmlAddSibling
49820 505 _xmlBufGetNodeContent
49984 505 $LN115
499A0 505 $LN114
499C0 505 _xmlBufferAdd
49A80 505 _xmlBufferCreate
49B10 490 _xmlBufFree
49B50 505 _xmlBufferResize
49CF4 505 $LN56
49D10 505 _xmlBufferSetAllocationScheme
49D40 505 _xmlBuildQName
49DF0 505 _xmlCopyDoc
49FB0 505 _xmlCopyDtd
4A194 505 $LN60
4A1B0 505 _xmlCopyNamespaceList
4A2E0 505 _xmlCopyPropInternal
4A890 505 _xmlCreateIntSubset
4AA60 505 _xmlDocCopyNode
4AA80 505 _xmlDocGetRootElement
4AAA0 505 _xmlFreeDoc
4AC20 505 _xmlFreeDtd
4AD60 505 _xmlFreeNode
4AEF0 505 _xmlFreeNodeList
4B0B0 505 _xmlFreeNsList
4B100 505 _xmlFreeProp
4B1A0 505 _xmlFreePropList
4B250 505 _xmlGetIntSubset
4B280 505 _xmlGetLastChild
4B2A0 505 _xmlGetLineNo
4B2B0 505 _xmlGetLineNoInternal
4B390 505 _xmlGetNsProp
4B420 505 _xmlGetProp
4B540 505 _xmlGetPropNodeInternal
4B880 505 _xmlGetPropNodeValueInternal
4B8F0 505 _xmlHasNsProp
4B910 505 _xmlIsBlankNode
4B960 505 _xmlNewCDataBlock
4BA30 505 _xmlNewCharRef
4BB30 505 _xmlNewDoc
4BBF0 505 _xmlNewDocComment
4BCC0 505 _xmlNewDocNode
4BDB0 505 _xmlNewDocNodeEatName
4BE50 505 _xmlNewDocPI
4BF10 505 _xmlNewDocProp
4BFF0 505 _xmlNewDocText
4C0C0 505 _xmlNewDtd
4C180 505 _xmlNewNodeEatName
4C240 505 _xmlNewNs
4C380 505 _xmlNewNsProp
4C4D0 505 _xmlNewNsPropEatName
4C650 505 _xmlNewReconciledNs
4C9C0 505 _xmlNewReference
4CAE0 505 _xmlNodeAddContentLen
4CCBC 505 $LN61
4CCC8 505 $LN60
4CCE0 505 _xmlNodeGetBase
4CFB0 505 _xmlNodeGetContent
4D098 505 $LN38
4D0B8 505 $LN37
4D0D0 505 _xmlNodeIsText
4D0F0 505 _xmlNodeListGetString
4D210 505 _xmlNodeSetContent
4D308 505 $LN115
4D314 505 $LN114
4D320 505 _xmlSearchNs
4D4B0 505 _xmlSearchNsByHref
4D740 505 _xmlSetNs
4D760 505 _xmlSetTreeDoc
4D900 505 _xmlSplitQName2
4D9A0 505 _xmlSplitQName3
4D9E0 505 _xmlStaticCopyNode
4E0DC 505 $LN248
4E0F0 505 $LN247
4E110 505 _xmlStaticCopyNodeList
4E1E0 505 _xmlStringGetNodeList
4E620 505 _xmlStringLenGetNodeList
4EA80 505 _xmlTextConcat
4EB10 505 _xmlTreeEnsureXMLDecl
4EB90 505 _xmlTreeErrMemory
4EBB0 505 _xmlUnlinkNode
4ED10 505 _xmlValidateNCName
4F020 497 ___xmlRaiseError
4F5C0 497 ___xmlSimpleError
4F650 497 _fprintf
4F680 497 _xmlCopyError
4F7A0 497 _xmlGenericErrorDefaultFunc
4F7F0 497 _xmlParserError
4F9F0 497 _xmlParserPrintFileContextInternal
4FBC0 497 _xmlParserPrintFileInfo
4FC20 497 _xmlParserValidityError
4FD80 497 _xmlParserValidityWarning
4FEC0 497 _xmlParserWarning
500C0 497 _xmlReportError
50428 497 $LN72
504A0 497 $LN73
504B0 497 _xmlResetError
50530 497 _xmlSetGenericErrorFunc
50560 508 _xmlDefaultExternalEntityLoader
50700 508 ___xmlIOErr
50B40 508 ___xmlLoaderErr
50BD0 508 ___xmlParserInputBufferCreateFilename
50C80 508 _xmlAllocParserInputBuffer
50D40 508 _xmlCheckFilename
50E50 508 _xmlCheckHTTPInput
50E60 508 _xmlFileClose
50EF0 508 _xmlFileOpen
50F30 508 _xmlFileOpenW
51050 508 _xmlFileOpen_real
51120 508 _xmlFileRead
51160 508 _xmlFileWrite
511C0 508 _xmlFreeParserInputBuffer
51230 508 _xmlLoadExternalEntity
512E0 508 _xmlParserGetDirectory
513F0 508 _xmlParserInputBufferCreateFilename
51410 508 _xmlParserInputBufferCreateMem
514D0 508 _xmlParserInputBufferGrow
51610 508 _xmlRegisterDefaultInputCallbacks
51670 508 _xmlRegisterDefaultOutputCallbacks
516D0 508 _xmlResolveResourceFromCatalog
51840 508 _xmlSetExternalEntityLoader
51850 508 _xmlWrapOpenUtf8
51900 502 _xmlCopyChar
519C0 502 _xmlCopyCharMultiByte
51A90 502 _xmlCurrentChar
51EE0 502 _xmlDetectEBCDIC
520A0 502 _xmlErrInternal
52120 502 _xmlErrMemory
521C0 502 _xmlFreeInputStream
52240 502 _xmlFreeParserCtxt
52520 502 _xmlHaltParser
52640 502 _xmlInitSAXParserCtxt
52CA0 502 _xmlNewEntityInputStream
52E4C 502 $LN27
52E70 502 _xmlNewIOInputStream
52EF0 502 _xmlNewInputFromFile
53000 502 _xmlNewInputStream
53160 502 _xmlNewParserCtxt
531D0 502 _xmlNewSAXParserCtxt
53250 502 _xmlNextChar
53640 502 _xmlParserAddNodeInfo
537D0 502 _xmlParserFindNodeInfo
53810 502 _xmlParserFindNodeInfoIndex
53880 502 _xmlParserGrow
539A0 502 _xmlParserShrink
53A30 502 _xmlStringCurrentChar
53D00 502 _xmlSwitchEncoding
53ED8 502 $LN37
53F00 502 _xmlSwitchInputEncoding
541A0 502 _xmlSwitchToEncoding
541C0 501 _areBlanks
542D0 501 _inputPop
54310 501 _inputPush
54380 501 _nameNsPush
54490 501 _namePop
544E0 501 _nodePop
54520 501 _nodePush
54610 501 _nsPop
54690 501 _nsPush
547B0 501 _spacePop
54800 501 _spacePush
54890 501 _xmlAddDefAttrs
54AB0 501 _xmlAttrNormalizeSpace
54B10 501 _xmlCheckLanguageID
54D30 501 _xmlCleanSpecialAttr
54D80 501 _xmlCleanSpecialAttrCallback
54DB0 501 _xmlCreateEntityParserCtxtInternal
54F80 501 _xmlCreateMemoryParserCtxt
55010 501 _xmlCreateURLParserCtxt
550F0 501 _xmlCtxtGrowAttrs
551C0 501 _xmlCtxtUseOptionsInternal
554F0 501 _xmlDetectSAX2
555A0 501 _xmlFatalErr
55858 501 $LN70
5593C 501 $LN69
559B0 501 _xmlFatalErrMsg
55A30 501 _xmlFatalErrMsgInt
55AA0 501 _xmlFatalErrMsgStr
55B10 501 _xmlInitParser
55B60 501 _xmlIsNameChar
55DE0 501 _xmlIsNameStartChar
55FC0 501 _xmlLoadEntityContent
563A0 501 _xmlParseAttValueComplex
56C40 501 _xmlParseAttValueInternal
57110 501 _xmlParseAttribute
573C0 501 _xmlParseAttribute2
577B0 501 _xmlParseAttributeListDecl
57C70 501 _xmlParseAttributeType
57FD0 501 _xmlParseBalancedChunkMemoryInternal
58590 501 _xmlParseCDSect
58AC0 501 _xmlParseCatalogPI
58C50 501 _xmlParseCharDataComplex
59040 501 _xmlParseCharDataInternal
593C0 501 _xmlParseCharRef
597E0 501 _xmlParseComment
59D10 501 _xmlParseCommentComplex
5A260 501 _xmlParseConditionalSections
5A940 501 _xmlParseContent
5A9D0 501 _xmlParseContentInternal
5AB50 501 _xmlParseDefaultDecl
5AD30 501 _xmlParseDocTypeDecl
5AEC0 501 _xmlParseDocument
5B550 501 _xmlParseElementChildrenContentDeclPriv
5BC50 501 _xmlParseElementDecl
5C010 501 _xmlParseElementEnd
5C100 501 _xmlParseElementMixedContentDecl
5C4C0 501 _xmlParseElementStart
5C850 501 _xmlParseEncName
5CA60 501 _xmlParseEncodingDecl
5CE10 501 _xmlParseEndTag1
5D090 501 _xmlParseEndTag2
5D3D0 501 _xmlParseEntityDecl
5DE20 501 _xmlParseEntityRef
5E0F0 501 _xmlParseEntityValue
5E580 501 _xmlParseEnumerationType
5E7F0 501 _xmlParseExternalEntityPrivate
5EF10 501 _xmlParseExternalID
5F130 501 _xmlParseExternalSubset
5F3F0 501 _xmlParseInternalSubset
5F610 501 _xmlParseMarkupDecl
5F6E0 501 $LN29
5F6F4 501 $LN28
5F720 501 _xmlParseMisc
5F7A0 501 _xmlParseNCName
5F9D0 501 _xmlParseName
5FB30 501 _xmlParseNameAndCompare
5FBD0 501 _xmlParseNameComplex
60270 501 _xmlParseNmtoken
605A0 501 _xmlParseNotationDecl
60870 501 _xmlParseNotationType
60AD0 501 _xmlParsePEReference
60EB0 501 _xmlParsePI
61440 501 _xmlParsePITarget
61660 501 _xmlParsePubidLiteral
61920 501 _xmlParseQName
61BB0 501 _xmlParseReference
623B0 501 _xmlParseSDDecl
62770 501 _xmlParseStartTag
62C00 501 _xmlParseStartTag2
63C70 501 _xmlParseStringCharRef
63F70 501 _xmlParseStringEntityRef
64220 501 _xmlParseStringName
64530 501 _xmlParseStringPEReference
64730 501 _xmlParseSystemLiteral
64AC0 501 _xmlParseTextDecl
64E70 501 _xmlParseVersionInfo
650F0 501 _xmlParseVersionNum
65200 501 _xmlParseXMLDecl
65650 501 _xmlParserEntityCheck
65770 501 _xmlPopInput
65850 501 _xmlPushInput
65A30 501 _xmlReadFile
65B10 501 _xmlSaturatedAdd
65B40 501 _xmlSkipBlankChars
65CF0 501 _xmlSplitQName
66080 501 _xmlStopParser
660A0 501 _xmlStringDecodeEntities
660E0 501 _xmlStringDecodeEntitiesInt
66840 501 _xmlStringLenDecodeEntities
66880 489 _xmlErrValid
66930 501 _xmlWarningMsg
669E0 498 _xmlPosixStrdup
669F0 498 ___xmlBufferAllocScheme
66A10 498 ___xmlDefaultBufferSize
66A30 498 ___xmlDefaultSAXHandler
66A50 498 ___xmlDefaultSAXLocator
66A70 498 ___xmlDeregisterNodeDefaultValue
66A90 498 ___xmlDoValidityCheckingDefaultValue
66AB0 498 ___xmlGenericError
66AD0 498 ___xmlGenericErrorContext
66AF0 498 ___xmlGetWarningsDefaultValue
66B10 498 ___xmlKeepBlanksDefaultValue
66B30 498 ___xmlLastError
66B50 498 ___xmlLineNumbersDefaultValue
66B70 498 ___xmlLoadExtDtdDefaultValue
66B90 498 ___xmlParserDebugEntities
66BB0 498 ___xmlParserInputBufferCreateFilenameValue
66BD0 498 ___xmlPedanticParserDefaultValue
66BF0 498 ___xmlRegisterNodeDefaultValue
66C10 498 ___xmlStructuredError
66C30 498 ___xmlStructuredErrorContext
66C50 498 ___xmlSubstituteEntitiesDefaultValue
66C70 498 _xmlInitGlobalsInternal
66C80 498 _xmlInitializeGlobalState
66E00 514 _xmlCharStrdup
66E70 514 _xmlGetUTF8Char
66FA0 514 _xmlStrEqual
66FE0 514 _xmlStrQEqual
67070 514 _xmlStrcasecmp
670C0 514 _xmlStrcat
671A0 514 _xmlStrchr
671D0 514 _xmlStrcmp
67220 514 _xmlStrdup
67280 514 _xmlStrlen
672C0 514 _xmlStrncasecmp
67330 514 _xmlStrncat
67400 514 _xmlStrncatNew
67550 514 _xmlStrncmp
675B0 514 _xmlStrndup
675F0 514 _xmlStrstr
67690 494 ___xmlInitializeDict
676C0 494 ___xmlRandom
676F0 494 _xmlDictAddString
677B0 494 _xmlDictComputeBigKey
67800 494 _xmlDictComputeBigQKey
67880 494 _xmlDictComputeFastKey
678F8 494 $LN19
67920 494 _xmlDictComputeFastQKey
67A20 494 $LN37
67A48 494 $LN36
67A70 494 _xmlDictCreate
67B10 494 _xmlDictFree
67BE0 494 _xmlDictGrow
67EF0 494 _xmlDictLookup
681B0 494 _xmlDictOwns
68200 494 _xmlDictQLookup
685E0 494 _xmlDictReference
68610 494 _xmlDictSetLimit
68630 499 _xmlHashAddEntry
68650 499 _xmlHashAddEntry2
68670 499 _xmlHashAddEntry3
68900 499 _xmlHashComputeKey
689C0 499 _xmlHashComputeQKey
68B50 499 _xmlHashCopy
68C00 499 _xmlHashCreate
68C80 499 _xmlHashCreateDict
68CB0 499 _xmlHashDefaultDeallocator
68CC0 499 _xmlHashFree
68DF0 499 _xmlHashGrow
69030 499 _xmlHashLookup
69050 499 _xmlHashLookup2
69070 499 _xmlHashLookup3
69130 499 _xmlHashQLookup2
69160 499 _xmlHashQLookup3
69200 499 _xmlHashRemoveEntry
69220 499 _xmlHashRemoveEntry2
69240 499 _xmlHashRemoveEntry3
69380 499 _xmlHashScan
69420 499 _xmlHashScan3
69500 499 _xmlHashScanFull
695C0 499 _xmlHashSize
695D0 499 _xmlHashUpdateEntry2
695F0 499 _xmlHashUpdateEntry3
698B0 507 _nodeVPush
699A0 507 _xmlAddAttributeDecl
69DC0 507 $LN106
69DC4 507 $LN105
69DD0 507 _xmlAddElementDecl
6A244 507 $LN95
6A260 507 _xmlAddID
6A470 507 _xmlAddNotationDecl
6A5F0 507 _xmlAddRef
6A820 507 _xmlCopyAttribute
6A8E0 507 _xmlCopyAttributeTable
6A900 507 _xmlCopyDocElementContent
6AAF0 507 _xmlCopyElement
6ABA0 507 _xmlCopyElementTable
6ABC0 507 _xmlCopyEnumeration
6AC50 507 _xmlCopyNotation
6ACE0 507 _xmlCopyNotationTable
6AD00 507 _xmlCreateEnumeration
6AD60 507 _xmlErrValidNode
6ADC0 507 _xmlErrValidNodeNr
6AE20 507 _xmlErrValidWarning
6AE80 507 _xmlFreeAttribute
6AFB0 507 _xmlFreeAttributeTable
6AFD0 507 _xmlFreeAttributeTableEntry
6AFE0 507 _xmlFreeDocElementContent
6B108 507 $LN67
6B120 507 _xmlFreeElement
6B180 507 _xmlFreeElementTable
6B1A0 507 _xmlFreeEnumeration
6B1E0 507 _xmlFreeIDTable
6B200 507 _xmlFreeIDTableEntry
6B270 507 _xmlFreeNotation
6B2C0 507 _xmlFreeNotationTable
6B2E0 507 _xmlFreeRef
6B330 507 _xmlFreeRefTable
6B350 507 _xmlFreeRefTableEntry
6B360 507 _xmlGetDtdAttrDesc
6B3E0 507 _xmlGetDtdElementDesc
6B460 507 _xmlGetDtdElementDesc2
6B650 507 _xmlGetDtdQAttrDesc
6B680 507 _xmlGetDtdQElementDesc
6B6A0 507 _xmlIsDocNameChar
6B930 507 _xmlIsDocNameStartChar
6BAE0 507 _xmlIsID
6BD10 507 _xmlIsMixedElement
6BE14 507 $LN32
6BE30 507 _xmlIsRef
6BEC0 507 _xmlNewDocElementContent
6C05C 507 $LN45
6C070 507 _xmlRemoveID
6C0F0 507 _xmlScanIDAttributeDecl
6C1A0 507 _xmlSnprintfElementContent
6C548 507 $LN46
6C560 507 _xmlSnprintfElements
6C7B0 507 $LN54
6C7C4 507 $LN53
6C7E0 507 _xmlValidBuildAContentModel
6CC14 507 $LN85
6CC24 507 $LN86
6CC40 507 _xmlValidBuildContentModel
6CDA0 507 _xmlValidCtxtNormalizeAttributeValue
6CF50 507 _xmlValidGetElemDecl
6D060 507 _xmlValidNormalizeAttributeValue
6D160 507 _xmlValidNormalizeString
6D1C0 507 _xmlValidateAttributeCallback
6D400 507 _xmlValidateAttributeDecl
6D6A0 507 _xmlValidateAttributeIdCallback
6D6C0 507 _xmlValidateAttributeValue2
6D970 507 _xmlValidateAttributeValueInternal
6D9D0 507 $LN15
6DA00 507 _xmlValidateCheckRefCallback
6DA30 507 _xmlValidateDocumentFinal
6DAC0 507 _xmlValidateDtdFinal
6DB70 507 _xmlValidateElement
6DC70 507 _xmlValidateElementContent
6DF70 507 $LN63
6DF90 507 _xmlValidateElementDecl
6E3B0 507 _xmlValidateNameValueInternal
6E440 507 _xmlValidateNamesValueInternal
6E540 507 _xmlValidateNmtokenValueInternal
6E840 507 _xmlValidateNmtokensValueInternal
6E970 507 _xmlValidateNotationCallback
6EA00 507 _xmlValidateOneAttribute
6EE90 507 _xmlValidateOneElement
6F8AC 507 $LN282
6F8D0 507 $LN281
6F8E4 507 $LN283
6F8F8 507 $LN284
6F910 507 _xmlValidateOneNamespace
6FE70 507 _xmlValidateRef
70150 507 _xmlValidateRoot
70350 507 _xmlWalkValidateList
70370 496 _xmlAddDocEntity
70410 496 _xmlAddDtdEntity
704B0 496 _xmlAddEntity
706B8 496 $LN37
706D0 496 _xmlCopyEntitiesTable
706F0 496 _xmlCopyEntity
707B0 496 _xmlCreateEntity
708A0 496 _xmlEncodeAttributeEntities
708C0 496 _xmlEncodeEntitiesInternal
70E40 496 _xmlEncodeEntitiesReentrant
70E60 496 _xmlFreeEntitiesTable
70E80 496 _xmlFreeEntity
70F40 496 _xmlFreeEntityWrapper
70F50 496 _xmlGetDocEntity
70FB0 496 _xmlGetParameterEntity
71000 496 _xmlGetPredefinedEntity
710AC 496 $LN18
710C0 496 $LN17
710E0 506 _xmlBuildURI
71530 506 _xmlCanonicPath
71750 506 _xmlCleanURI
71840 506 _xmlCreateURI
71890 506 _xmlFreeURI
71950 506 _xmlNormalizeURIPath
71AE0 506 _xmlParse3986Authority
71B90 506 _xmlParse3986DecOctet
71C20 506 _xmlParse3986Fragment
71D80 506 _xmlParse3986HierPart
71FE0 506 _xmlParse3986Host
721F0 506 _xmlParse3986PathAbEmpty
72290 506 _xmlParse3986PathAbsolute
72350 506 _xmlParse3986Query
724D0 506 _xmlParse3986RelativeRef
72720 506 _xmlParse3986Segment
728D0 506 _xmlParse3986URIReference
72A20 506 _xmlParse3986Userinfo
72B60 506 _xmlParseURI
72BA0 506 _xmlPathToURI
72CB0 506 _xmlSaveUri
737C0 506 _xmlSaveUriRealloc
73850 506 _xmlURIEscapeStr
73A10 506 _xmlURIUnescapeString
73B90 492 _xmlCharInRange
73C30 490 _xmlBufAdd
73F58 490 $LN117
73F70 490 _xmlBufAddLen
73FF0 490 _xmlBufAvail
74040 490 _xmlBufCat
74090 490 _xmlBufContent
740B0 490 _xmlBufCreate
74170 490 _xmlBufCreateSize
74250 490 _xmlBufDetach
74290 490 _xmlBufEnd
742D0 490 _xmlBufGrow
74310 490 _xmlBufGrowInternal
74460 490 _xmlBufIsEmpty
744B0 490 _xmlBufResetInput
74510 490 _xmlBufSetAllocationScheme
74560 490 _xmlBufSetInputBaseCur
745E0 490 _xmlBufShrink
746C0 490 _xmlBufUse
74700 495 _UTF8Toisolat1
74850 495 _isolat1ToUTF8
74940 495 _asciiToUTF8
749C0 495 _UTF8Toascii
74B10 495 _UTF8ToUTF8
74B70 495 _UTF16LEToUTF8
74D60 495 _UTF8ToUTF16LE
74F30 495 _UTF8ToUTF16
74F90 495 _UTF16BEToUTF8
75180 495 _UTF8ToUTF16BE
75360 495 _ISO8859_2ToUTF8
75380 495 _UTF8ToISO8859_2
753A0 495 _ISO8859_3ToUTF8
753C0 495 _UTF8ToISO8859_3
753E0 495 _ISO8859_4ToUTF8
75400 495 _UTF8ToISO8859_4
75420 495 _ISO8859_5ToUTF8
75440 495 _UTF8ToISO8859_5
75460 495 _ISO8859_6ToUTF8
75480 495 _UTF8ToISO8859_6
754A0 495 _ISO8859_7ToUTF8
754C0 495 _UTF8ToISO8859_7
754E0 495 _ISO8859_8ToUTF8
75500 495 _UTF8ToISO8859_8
75520 495 _ISO8859_9ToUTF8
75540 495 _UTF8ToISO8859_9
75560 495 _ISO8859_10ToUTF8
75580 495 _UTF8ToISO8859_10
755A0 495 _ISO8859_11ToUTF8
755C0 495 _UTF8ToISO8859_11
755E0 495 _ISO8859_13ToUTF8
75600 495 _UTF8ToISO8859_13
75620 495 _ISO8859_14ToUTF8
75640 495 _UTF8ToISO8859_14
75660 495 _ISO8859_15ToUTF8
75680 495 _UTF8ToISO8859_15
756A0 495 _ISO8859_16ToUTF8
756C0 495 _UTF8ToISO8859_16
756E0 495 _ISO8859xToUTF8
75860 495 _UTF8ToISO8859x
759E0 495 _xmlCharEncCloseFunc
75A30 495 _xmlCharEncInput
75BC0 495 _xmlDetectCharEncoding
75D00 495 _xmlEncInputChunk
75D50 495 _xmlEncodingErr
75D90 495 _xmlFindCharEncodingHandler
75FC0 495 $LN83
76020 495 _xmlGetCharEncodingHandler
76170 495 $LN56
761D0 495 _xmlGetCharEncodingName
7624C 495 $LN29
762B0 495 _xmlGetEncodingAlias
763A0 495 _xmlInitEncodingInternal
763B0 495 _xmlParseCharEncoding
76BE0 491 _xmlCatalogAddLocal
76CF0 491 _xmlCatalogErr
76D30 491 _xmlCatalogFreeLocal
76D50 491 _xmlCatalogGetDefaults
76D60 491 _xmlCatalogListXMLResolve
76F70 491 _xmlCatalogListXMLResolveURI
77080 491 _xmlCatalogLocalResolve
77120 491 _xmlCatalogLocalResolveURI
77190 491 _xmlCatalogNormalizePublic
77240 491 _xmlCatalogResolve
77310 491 _xmlCatalogResolveURI
773C0 491 _xmlCatalogSGMLResolve
77470 491 _xmlCatalogUnWrapURN
77610 491 _xmlCatalogXMLResolve
77B04 491 $LN277
77B20 491 _xmlCatalogXMLResolveURI
77E04 491 $LN137
77E18 491 $LN136
77E30 491 _xmlCreateNewCatalog
77F00 491 _xmlFetchXMLCatalogFile
78080 491 _xmlFreeCatalogEntryList
78160 491 _xmlInitializeCatalog
78400 491 _xmlNewCatalogEntry
78500 491 _xmlParseXMLCatalogFile
787E0 491 _xmlParseXMLCatalogNodeList
78B10 491 _xmlParseXMLCatalogOneNode
78CD0 489 _xmlCheckDefaultedAttributes
790C0 489 _xmlFatalErrMsg
79140 489 _xmlNsWarnMsg
791A0 489 _xmlSAX2AttributeDecl
79360 489 _xmlSAX2AttributeInternal
79CC0 489 _xmlSAX2AttributeNs
7A150 489 _xmlSAX2CDataBlock
7A170 489 _xmlSAX2Characters
7A190 489 _xmlSAX2Comment
7A230 489 _xmlSAX2ElementDecl
7A320 489 _xmlSAX2EndDocument
7A3D0 489 _xmlSAX2EndElement
7A420 489 _xmlSAX2EntityDecl
7A600 489 _xmlSAX2ErrMemory
7A6B0 489 _xmlSAX2ExternalSubset
7A920 489 _xmlSAX2GetColumnNumber
7A940 489 _xmlSAX2GetEntity
7AA10 489 _xmlSAX2GetLineNumber
7AA30 489 _xmlSAX2GetParameterEntity
7AA50 489 _xmlSAX2GetSystemId
7AA70 489 _xmlSAX2HasExternalSubset
7AA90 489 _xmlSAX2HasInternalSubset
7AAB0 489 _xmlSAX2InternalSubset
7AB30 489 _xmlSAX2IsStandalone
7AB50 489 _xmlSAX2NotationDecl
7AC70 489 _xmlSAX2ProcessingInstruction
7AD20 489 _xmlSAX2Reference
7AD70 489 _xmlSAX2ResolveEntity
7ADD0 489 _xmlSAX2StartDocument
7AED0 489 _xmlSAX2StartElement
7B200 489 _xmlSAX2StartElementNs
7B660 489 _xmlSAX2Text
7B900 489 _xmlSAX2TextNode
7BAE0 489 _xmlSAX2UnparsedEntityDecl
7BC70 489 _xmlSAXVersion
7BD80 487 _UTF8ToHtml
7BFA0 487 _htmlNewDocNoDtD
7C0B0 513 ___local_stdio_scanf_options
7C0C0 513 _sscanf
7C0F0 509 _xmlInitMemoryInternal
7C150 504 ___xmlGlobalInitMutexLock
7C1C0 504 ___xmlGlobalInitMutexUnlock
7C1E0 504 _xmlGetGlobalState
7C2D0 504 _xmlGetThreadId
7C2E0 504 _xmlGlobalStateCleanupHelper
7C320 504 _xmlInitMutex
7C330 504 _xmlInitThreadsInternal
7C350 504 _xmlIsMainThread
7C370 504 _xmlMutexLock
7C380 504 _xmlMutexUnlock
7C390 504 _xmlNewRMutex
7C3B0 516 _xmlInitXPathInternal
7C3F0 510 _printf
7C420 510 _xmlAutomataCompile
7C450 510 _xmlAutomataGetInitState
7C460 510 _xmlAutomataNewEpsilon
7C4D0 510 _xmlAutomataNewState
7C4F0 510 _xmlAutomataNewTransition
7C570 510 _xmlAutomataSetFinalState
7C590 510 _xmlFACompareAtomTypes
7C744 510 $LN106
7C77C 510 $LN105
7C800 510 _xmlFACompareAtoms
7C980 510 _xmlFACompareRanges
7CC34 510 $LN93
7CC54 510 $LN92
7CC80 510 _xmlFAComputesDeterminism
7CFC8 510 $LN95
7CFE0 510 _xmlFAEliminateEpsilonTransitions
7D480 510 _xmlFAFinishRecurseDeterminism
7D4E0 510 _xmlFAGenerateTransitions
7DAF8 510 $LN143
7DB10 510 $LN144
7DB30 510 _xmlFARecurseDeterminism
7DBF0 510 _xmlFAReduceEpsilonTransitions
7DD10 510 _xmlFARegExecRollBack
7DD90 510 _xmlFARegExecSave
7DF60 510 _xmlFARegExecSaveInputString
7E060 510 _xmlFreeAutomata
7E080 510 _xmlNewAutomata
7E0E0 510 _xmlRegAtomPush
7E1B0 510 _xmlRegCalloc2
7E210 510 _xmlRegCheckCharacter
7E384 510 $LN90
7E39C 510 $LN89
7E430 510 _xmlRegCheckCharacterRange
7E974 510 $LN120
7EA3C 510 $LN119
7EAD0 510 _xmlRegCompactPushString
7EC20 510 _xmlRegCopyAtom
7EE00 510 _xmlRegEpxFromParse
7F6E0 510 _xmlRegExecPushString
7F700 510 _xmlRegExecPushStringInternal
7FD60 510 _xmlRegFreeAtom
7FE20 510 _xmlRegFreeExecCtxt
7FEE0 510 _xmlRegFreeParserCtxt
7FFC0 510 _xmlRegFreeRegexp
80100 510 _xmlRegGetCounter
801F0 510 _xmlRegNewAtom
802C0 510 _xmlRegNewExecCtxt
80410 510 _xmlRegNewRange
80490 510 _xmlRegStateAddTrans
807B0 510 _xmlRegStatePush
808D0 510 _xmlRegStrEqualWildcard
80950 510 _xmlRegexpErrMemory
809A0 510 _xmlRegexpIsDeterminist
80BA0 500 _xmlLinkCompare
80BC0 500 _xmlLinkGetData
80BD0 500 _xmlListAppend
80C60 500 _xmlListClear
80CB0 500 _xmlListCreate
80D60 500 _xmlListDelete
80D90 500 _xmlListWalk
80DD0 488 _htmlIsBooleanAttr
80E10 515 _xmlUCSIsEnclosedCJKLettersandMonths
80E30 515 _xmlUCSIsEthiopic
80E50 515 _xmlUCSIsGeneralPunctuation
80E70 515 _xmlUCSIsGeometricShapes
80E90 515 _xmlUCSIsGeorgian
80EB0 515 _xmlUCSIsGothic
80ED0 515 _xmlUCSIsGreek
80EF0 515 _xmlUCSIsGreekExtended
80F10 515 _xmlUCSIsGujarati
80F30 515 _xmlUCSIsGurmukhi
80F50 515 _xmlUCSIsHalfwidthandFullwidthForms
80F70 515 _xmlUCSIsHangulCompatibilityJamo
80F90 515 _xmlUCSIsHangulJamo
80FB0 515 _xmlUCSIsHangulSyllables
80FD0 515 _xmlUCSIsHanunoo
80FF0 515 _xmlUCSIsHebrew
81010 515 _xmlUCSIsHighPrivateUseSurrogates
81030 515 _xmlUCSIsHighSurrogates
81050 515 _xmlUCSIsHiragana
81070 515 _xmlUCSIsIPAExtensions
81090 515 _xmlUCSIsIdeographicDescriptionCharacters
810B0 515 _xmlUCSIsKanbun
810D0 515 _xmlUCSIsKangxiRadicals
810F0 515 _xmlUCSIsKannada
81110 515 _xmlUCSIsKatakana
81130 515 _xmlUCSIsKatakanaPhoneticExtensions
81150 515 _xmlUCSIsKhmer
81170 515 _xmlUCSIsKhmerSymbols
81190 515 _xmlUCSIsLao
811B0 515 _xmlUCSIsLatin1Supplement
811D0 515 _xmlUCSIsLatinExtendedA
811F0 515 _xmlUCSIsLatinExtendedB
81210 515 _xmlUCSIsLatinExtendedAdditional
81230 515 _xmlUCSIsLetterlikeSymbols
81250 515 _xmlUCSIsLimbu
81270 515 _xmlUCSIsLinearBIdeograms
81290 515 _xmlUCSIsLinearBSyllabary
812B0 515 _xmlUCSIsLowSurrogates
812D0 515 _xmlUCSIsMalayalam
812F0 515 _xmlUCSIsMathematicalAlphanumericSymbols
81310 515 _xmlUCSIsMathematicalOperators
81330 515 _xmlUCSIsMiscellaneousMathematicalSymbolsA
81350 515 _xmlUCSIsMiscellaneousMathematicalSymbolsB
81370 515 _xmlUCSIsMiscellaneousSymbols
81390 515 _xmlUCSIsMiscellaneousSymbolsandArrows
813B0 515 _xmlUCSIsMiscellaneousTechnical
813D0 515 _xmlUCSIsMongolian
813F0 515 _xmlUCSIsMusicalSymbols
81410 515 _xmlUCSIsMyanmar
81430 515 _xmlUCSIsNumberForms
81450 515 _xmlUCSIsOgham
81470 515 _xmlUCSIsOldItalic
81490 515 _xmlUCSIsOpticalCharacterRecognition
814B0 515 _xmlUCSIsOriya
814D0 515 _xmlUCSIsOsmanya
814F0 515 _xmlUCSIsPhoneticExtensions
81510 515 _xmlUCSIsPrivateUse
81550 515 _xmlUCSIsPrivateUseArea
81570 515 _xmlUCSIsRunic
81590 515 _xmlUCSIsShavian
815B0 515 _xmlUCSIsSinhala
815D0 515 _xmlUCSIsSmallFormVariants
815F0 515 _xmlUCSIsSpacingModifierLetters
81610 515 _xmlUCSIsSpecials
81630 515 _xmlUCSIsSuperscriptsandSubscripts
81650 515 _xmlUCSIsSupplementalArrowsA
81670 515 _xmlUCSIsSupplementalArrowsB
81690 515 _xmlUCSIsSupplementalMathematicalOperators
816B0 515 _xmlUCSIsSupplementaryPrivateUseAreaA
816D0 515 _xmlUCSIsSupplementaryPrivateUseAreaB
816F0 515 _xmlUCSIsSyriac
81710 515 _xmlUCSIsTagalog
81730 515 _xmlUCSIsTagbanwa
81750 515 _xmlUCSIsTags
81770 515 _xmlUCSIsTaiLe
81790 515 _xmlUCSIsTaiXuanJingSymbols
817B0 515 _xmlUCSIsTamil
817D0 515 _xmlUCSIsTelugu
817F0 515 _xmlUCSIsThaana
81810 515 _xmlUCSIsThai
81830 515 _xmlUCSIsTibetan
81850 515 _xmlUCSIsUgaritic
81870 515 _xmlUCSIsUnifiedCanadianAboriginalSyllabics
81890 515 _xmlUCSIsVariationSelectors
818B0 515 _xmlUCSIsVariationSelectorsSupplement
818D0 515 _xmlUCSIsYiRadicals
818F0 515 _xmlUCSIsYiSyllables
81910 515 _xmlUCSIsYijingHexagramSymbols
81930 515 _xmlUCSIsCatC
81950 515 _xmlUCSIsCatCc
81970 515 _xmlUCSIsCatCf
81990 515 _xmlUCSIsCatCo
819D0 515 _xmlUCSIsCatCs
81A10 515 _xmlUCSIsCatL
81A30 515 _xmlUCSIsCatLl
81A50 515 _xmlUCSIsCatLm
81A70 515 _xmlUCSIsCatLo
81A90 515 _xmlUCSIsCatLt
81AB0 515 _xmlUCSIsCatLu
81AD0 515 _xmlUCSIsCatM
81AF0 515 _xmlUCSIsCatMc
81B10 515 _xmlUCSIsCatMe
81B50 515 _xmlUCSIsCatMn
81B70 515 _xmlUCSIsCatN
81B90 515 _xmlUCSIsCatNd
81BB0 515 _xmlUCSIsCatNl
81C10 515 _xmlUCSIsCatNo
81C30 515 _xmlUCSIsCatP
81C50 515 _xmlUCSIsCatPc
81CB0 515 _xmlUCSIsCatPd
81CD0 515 _xmlUCSIsCatPe
81CF0 515 _xmlUCSIsCatPf
81D20 515 _xmlUCSIsCatPi
81D60 515 _xmlUCSIsCatPo
81D80 515 _xmlUCSIsCatPs
81DA0 515 _xmlUCSIsCatS
81DC0 515 _xmlUCSIsCatSc
81DE0 515 _xmlUCSIsCatSk
81E00 515 _xmlUCSIsCatSm
81E20 515 _xmlUCSIsCatSo
81E40 515 _xmlUCSIsCatZ
81E60 515 _xmlUCSIsCatZl
81E70 515 _xmlUCSIsCatZp
81E80 515 _xmlUCSIsCatZs
81ED0 515 _xmlUCSIsAegeanNumbers
81EF0 515 _xmlUCSIsAlphabeticPresentationForms
81F10 515 _xmlUCSIsArabic
81F30 515 _xmlUCSIsArabicPresentationFormsA
81F50 515 _xmlUCSIsArabicPresentationFormsB
81F70 515 _xmlUCSIsArmenian
81F90 515 _xmlUCSIsArrows
81FB0 515 _xmlUCSIsBasicLatin
81FC0 515 _xmlUCSIsBengali
81FE0 515 _xmlUCSIsBlockElements
82000 515 _xmlUCSIsBopomofo
82020 515 _xmlUCSIsBopomofoExtended
82040 515 _xmlUCSIsBoxDrawing
82060 515 _xmlUCSIsBraillePatterns
82080 515 _xmlUCSIsBuhid
820A0 515 _xmlUCSIsByzantineMusicalSymbols
820C0 515 _xmlUCSIsCJKCompatibility
820E0 515 _xmlUCSIsCJKCompatibilityForms
82100 515 _xmlUCSIsCJKCompatibilityIdeographs
82120 515 _xmlUCSIsCJKCompatibilityIdeographsSupplement
82140 515 _xmlUCSIsCJKRadicalsSupplement
82160 515 _xmlUCSIsCJKSymbolsandPunctuation
82180 515 _xmlUCSIsCJKUnifiedIdeographs
821A0 515 _xmlUCSIsCJKUnifiedIdeographsExtensionA
821C0 515 _xmlUCSIsCJKUnifiedIdeographsExtensionB
821E0 515 _xmlUCSIsCherokee
82200 515 _xmlUCSIsCombiningDiacriticalMarks
82220 515 _xmlUCSIsCombiningDiacriticalMarksforSymbols
82240 515 _xmlUCSIsCombiningHalfMarks
82260 515 _xmlUCSIsControlPictures
82280 515 _xmlUCSIsCurrencySymbols
822A0 515 _xmlUCSIsCypriotSyllabary
822C0 515 _xmlUCSIsCyrillic
822E0 515 _xmlUCSIsCyrillicSupplement
82300 515 _xmlUCSIsDeseret
82320 515 _xmlUCSIsDevanagari
82340 515 _xmlUCSIsDingbats
82360 515 _xmlUCSIsEnclosedAlphanumerics
82380 515 _xmlUCSIsBlock
823B0 515 _xmlUnicodeLookup
82440 180 ??1UObject@icu_72@@UAE@XZ
82450 180 ??2UMemory@icu_72@@SAPAXI@Z
82460 180 ??3UMemory@icu_72@@SAXPAX@Z
82480 180 _uprv_deleteUObject_72
82490 175 ??0UnicodeString@icu_72@@QAE@$$QAV01@@Z
82510 175 ??0UnicodeString@icu_72@@QAE@ABV01@@Z
82540 175 ??0UnicodeString@icu_72@@QAE@ABV01@H@Z
825A0 175 ??0UnicodeString@icu_72@@QAE@ABV01@HH@Z
82650 175 ??0UnicodeString@icu_72@@QAE@CVConstChar16Ptr@1@H@Z
82720 175 ??0UnicodeString@icu_72@@QAE@H@Z
82790 175 ??0UnicodeString@icu_72@@QAE@PBDHW4EInvariant@01@@Z
82870 175 ??0UnicodeString@icu_72@@QAE@PB_S@Z
828D0 175 ??0UnicodeString@icu_72@@QAE@PB_SH@Z
82930 175 ??1Replaceable@icu_72@@UAE@XZ
82940 175 ??1UnicodeString@icu_72@@UAE@XZ
82980 175 ??4UnicodeString@icu_72@@QAEAAV01@$$QAV01@@Z
82A20 175 ??4UnicodeString@icu_72@@QAEAAV01@ABV01@@Z
82A30 175 ??Hicu_72@@YA?AVUnicodeString@0@ABV10@0@Z
82B40 175 ?allocate@UnicodeString@icu_72@@AAECH@Z
82BC0 175 ?append@UnicodeString@icu_72@@QAEAAV12@H@Z
82C30 175 ?char32At@UnicodeString@icu_72@@QBEHH@Z
82CE0 175 ?clone@UnicodeString@icu_72@@UBEPAV12@XZ
82D40 175 ?cloneArrayIfNeeded@UnicodeString@icu_72@@AAECHHCPAPAHC@Z
82F30 175 ?copy@UnicodeString@icu_72@@UAEXHHH@Z
82F90 175 ?copyFrom@UnicodeString@icu_72@@AAEAAV12@ABV12@C@Z
830FC 175 $LN62
83120 175 ?doAppend@UnicodeString@icu_72@@AAEAAV12@ABV12@HH@Z
831A0 175 ?doAppend@UnicodeString@icu_72@@AAEAAV12@PB_SHH@Z
83380 175 ?doCompare@UnicodeString@icu_72@@ABECHHPB_SHH@Z
83460 175 ?doEquals@UnicodeString@icu_72@@ABECABV12@H@Z
834E0 175 ?doExtract@UnicodeString@icu_72@@ABEXHHPA_SH@Z
83560 175 ?doHashCode@UnicodeString@icu_72@@ABEHXZ
835A0 175 ?doIndexOf@UnicodeString@icu_72@@ABEHHHH@Z
83610 175 ?doIndexOf@UnicodeString@icu_72@@ABEH_SHH@Z
83680 175 ?doLastIndexOf@UnicodeString@icu_72@@ABEHHHH@Z
836F0 175 ?doReplace@UnicodeString@icu_72@@AAEAAV12@HHABV12@HH@Z
83760 175 ?doReplace@UnicodeString@icu_72@@AAEAAV12@HHPB_SHH@Z
83A60 175 ?extract@UnicodeString@icu_72@@QBEHHHPADHW4EInvariant@12@@Z
83B00 175 ?extractBetween@UnicodeString@icu_72@@QBEXHHPA_SH@Z
83C10 175 ?extractBetween@UnicodeString@icu_72@@UBEXHHAAV12@@Z
83D00 175 ?findAndReplace@UnicodeString@icu_72@@QAEAAV12@HHABV12@HH0HH@Z
83F00 175 ?fromUTF8@UnicodeString@icu_72@@SA?AV12@VStringPiece@2@@Z
84000 175 ?getBuffer@UnicodeString@icu_72@@QAEPA_SH@Z
84050 175 ?getDynamicClassID@UnicodeString@icu_72@@UBEPAXXZ
84060 175 ?getTerminatedBuffer@UnicodeString@icu_72@@QAEPB_SXZ
84110 175 ?handleReplaceBetween@UnicodeString@icu_72@@UAEXHHABV12@@Z
84180 175 ?hasMetaData@UnicodeString@icu_72@@UBECXZ
84190 175 ?indexOf@UnicodeString@icu_72@@QBEHPB_SHHHH@Z
84210 175 ?isBufferWritable@UnicodeString@icu_72@@ABECXZ
84230 175 ?refCount@UnicodeString@icu_72@@ABEHXZ
84240 175 ?releaseArray@UnicodeString@icu_72@@AAEXXZ
84270 175 ?releaseBuffer@UnicodeString@icu_72@@QAEXH@Z
84300 175 ?setArray@UnicodeString@icu_72@@AAEXPA_SHH@Z
84340 175 ?setLength@UnicodeString@icu_72@@AAEXH@Z
84380 175 ?setTo@UnicodeString@icu_72@@QAEAAV12@ABV12@H@Z
84460 175 ?setTo@UnicodeString@icu_72@@QAEAAV12@CVConstChar16Ptr@2@H@Z
84520 175 ?setToBogus@UnicodeString@icu_72@@QAEXXZ
84570 175 ?setToUTF8@UnicodeString@icu_72@@AAEAAV12@VStringPiece@2@@Z
84660 175 ?swap@UnicodeString@icu_72@@QAEXAAV12@@Z
847B0 175 ?toUTF8@UnicodeString@icu_72@@QBEXAAVByteSink@2@@Z
84920 175 ?unBogus@UnicodeString@icu_72@@AAEXXZ
84930 175 ?unescapeAt@UnicodeString@icu_72@@QBEHAAH@Z
84960 175 ?us_arrayCopy@@YAXPB_SHPA_SHH@Z
84990 175 _UnicodeString_charAt
849E0 175 _uhash_compareUnicodeString_72
84AC0 178 ??0UnicodeString@icu_72@@QAE@PBD@Z
84B40 178 ??0UnicodeString@icu_72@@QAE@PBDH0@Z
84D00 178 ?doCodepageCreate@UnicodeString@icu_72@@AAEXPBDH0@Z
84E90 178 ?doCodepageCreate@UnicodeString@icu_72@@AAEXPBDHPAUUConverter@@AAW4UErrorCode@@@Z
84FC0 105 ??0CheckedArrayByteSink@icu_72@@QAE@PADH@Z
84FF0 105 ??1ByteSink@icu_72@@UAE@XZ
85000 105 ??_ECheckedArrayByteSink@icu_72@@UAEPAXI@Z
85040 105 ?Append@CheckedArrayByteSink@icu_72@@UAEXPBDH@Z
850B0 105 ?GetAppendBuffer@ByteSink@icu_72@@UAEPADHHPADHPAH@Z
850E0 105 ?GetAppendBuffer@CheckedArrayByteSink@icu_72@@UAEPADHHPADHPAH@Z
85130 105 ?Reset@CheckedArrayByteSink@icu_72@@UAEAAV12@XZ
85150 177 ?toUpper@UnicodeString@icu_72@@QAEAAV12@XZ
85170 176 ?caseMap@UnicodeString@icu_72@@AAEAAV12@HIPAVBreakIterator@2@P6AHHI0PA_SHPB_SHPAVEdits@2@AAW4UErrorCode@@@Z@Z
85510 176 ?doCaseCompare@UnicodeString@icu_72@@ABECHHPB_SHHI@Z
85600 129 ?_enumPropertyStartsRange@@YACPBXHHI@Z
85620 130 ?getDotType@@YAHH@Z
856C0 130 ?isFollowedByCasedLetter@@YACP6AHPAXC@Z0C@Z
857A0 130 ?toUpperOrTitle@@YAHHP6AHPAXC@Z0PAPB_SHC@Z
85B30 130 _u_tolower_72
85B40 130 _u_totitle_72
85B50 130 _u_toupper_72
85B60 130 _ucase_addPropertyStarts_72
85B90 130 _ucase_getCaseLocale_72
85E80 130 _ucase_getTrie_72
85E90 130 _ucase_getTypeOrIgnorable_72
85F40 130 _ucase_getType_72
85FF0 130 _ucase_hasBinaryProperty_72
861C0 130 $LN41
861EC 130 $LN40
86210 130 _ucase_toFullFolding_72
86440 130 _ucase_toFullLower_72
869F4 130 $LN149
86A10 130 $LN148
86B00 130 _ucase_toFullUpper_72
86B20 130 _ucase_tolower_72
86C40 130 _ucase_totitle_72
86D90 130 _ucase_toupper_72
86ED0 172 ??0UnicodeSet@icu_72@@AAE@ABV01@C@Z
870E0 172 ??0UnicodeSet@icu_72@@QAE@ABV01@@Z
871A0 172 ??0UnicodeSet@icu_72@@QAE@HH@Z
87260 172 ??0UnicodeSet@icu_72@@QAE@XZ
872E0 172 ??1?$MaybeStackArray@D$0CI@@icu_72@@QAE@XZ
872F0 172 ??1UnicodeSet@icu_72@@UAE@XZ
87380 172 ??4UnicodeSet@icu_72@@QAEAAV01@ABV01@@Z
87390 172 ??8UnicodeSet@icu_72@@UBE_NABV01@@Z
8741C 172 ??_EUnicodeFilter@icu_72@@W3AEPAXI@Z
87424 172 ??_EUnicodeSet@icu_72@@W3AEPAXI@Z
87430 172 ??_EUnicodeFilter@icu_72@@UAEPAXI@Z
87470 172 ??_EUnicodeFunctor@icu_72@@UAEPAXI@Z
874B0 172 ??_EUnicodeMatcher@icu_72@@UAEPAXI@Z
874D0 172 ?_add@UnicodeSet@icu_72@@AAEXABVUnicodeString@2@@Z
875F0 172 ?_appendToPat@UnicodeSet@icu_72@@CAXAAVUnicodeString@2@ABV32@C@Z
87650 172 ?_appendToPat@UnicodeSet@icu_72@@CAXAAVUnicodeString@2@HC@Z
876CC 172 $LN25
876D4 172 $LN24
87730 172 ?_generatePattern@UnicodeSet@icu_72@@ABEAAVUnicodeString@2@AAV32@C@Z
87A20 172 ?_toPattern@UnicodeSet@icu_72@@ABEAAVUnicodeString@2@AAV32@C@Z
87B10 172 ?add@UnicodeSet@icu_72@@AAEXPBHHC@Z
87D28 172 $LN74
87D40 172 ?add@UnicodeSet@icu_72@@QAEAAV12@ABVUnicodeString@2@@Z
87DA0 172 ?add@UnicodeSet@icu_72@@QAEAAV12@H@Z
87EF0 172 ?add@UnicodeSet@icu_72@@UAEAAV12@HH@Z
88040 172 ?addAll@UnicodeSet@icu_72@@QAEAAV12@ABVUnicodeString@2@@Z
880A0 172 ?addAll@UnicodeSet@icu_72@@UAEAAV12@ABV12@@Z
88110 172 ?addMatchSetTo@UnicodeSet@icu_72@@UBEXAAV12@@Z
88180 172 ?allocateStrings@UnicodeSet@icu_72@@AAECAAW4UErrorCode@@@Z
88230 172 ?clear@UnicodeSet@icu_72@@UAEAAV12@XZ
88290 172 ?clone@UnicodeSet@icu_72@@UBEPAV12@XZ
88370 172 ?cloneAsThawed@UnicodeSet@icu_72@@QBEPAV12@XZ
883E0 172 ?cloneUnicodeString@icu_72@@YAXPATUElement@@0@Z
88460 172 ?compact@UnicodeSet@icu_72@@UAEAAV12@XZ
88520 172 ?compareUnicodeString@icu_72@@YAHTUElement@@0@Z
885D0 172 ?complement@UnicodeSet@icu_72@@UAEAAV12@HH@Z
88660 172 ?complement@UnicodeSet@icu_72@@UAEAAV12@XZ
886F0 172 ?complementAll@UnicodeSet@icu_72@@UAEAAV12@ABV12@@Z
88770 172 ?contains@UnicodeSet@icu_72@@UBECH@Z
887B0 172 ?contains@UnicodeSet@icu_72@@UBECHH@Z
887E0 172 ?containsAll@UnicodeSet@icu_72@@UBECABV12@@Z
88860 172 ?copyFrom@UnicodeSet@icu_72@@AAEAAV12@ABV12@C@Z
88A00 172 ?ensureBufferCapacity@UnicodeSet@icu_72@@AAE_NH@Z
88A90 172 ?ensureCapacity@UnicodeSet@icu_72@@AAE_NH@Z
88B30 172 ?exclusiveOr@UnicodeSet@icu_72@@AAEXPBHHC@Z
88C30 172 ?findCodePoint@UnicodeSet@icu_72@@ABEHH@Z
88C80 172 ?freeze@UnicodeSet@icu_72@@QAEPAV12@XZ
88E80 172 ?getDynamicClassID@UnicodeSet@icu_72@@UBEPAXXZ
88E90 172 ?getRangeCount@UnicodeSet@icu_72@@UBEHXZ
88EA0 172 ?getRangeEnd@UnicodeSet@icu_72@@UBEHH@Z
88EB0 172 ?getRangeStart@UnicodeSet@icu_72@@UBEHH@Z
88EC0 172 ?getSingleCP@UnicodeSet@icu_72@@CAHABVUnicodeString@2@@Z
88F40 172 ?hasStrings@UnicodeSet@icu_72@@QBECXZ
88F60 172 ?hashCode@UnicodeSet@icu_72@@UBEHXZ
88F90 172 ?isEmpty@UnicodeSet@icu_72@@UBECXZ
88FB0 172 ?matchRest@UnicodeSet@icu_72@@CAHABVReplaceable@2@HHABVUnicodeString@2@@Z
890E0 172 ?matches@UnicodeSet@icu_72@@UAE?AW4UMatchDegree@2@ABVReplaceable@2@AAHHC@Z
892D0 172 ?matchesIndexValue@UnicodeSet@icu_72@@EBECE@Z
89380 172 ?releasePattern@UnicodeSet@icu_72@@AAEXXZ
893B0 172 ?remove@UnicodeSet@icu_72@@QAEAAV12@ABVUnicodeString@2@@Z
89410 172 ?remove@UnicodeSet@icu_72@@UAEAAV12@HH@Z
89470 172 ?removeAll@UnicodeSet@icu_72@@QAEAAV12@ABVUnicodeString@2@@Z
89620 172 ?removeAll@UnicodeSet@icu_72@@UAEAAV12@ABV12@@Z
89680 172 ?removeAllStrings@UnicodeSet@icu_72@@UAEAAV12@XZ
896D0 172 ?resize@?$MaybeStackArray@D$0CI@@icu_72@@QAEPADHH@Z
89740 172 ?retain@UnicodeSet@icu_72@@AAEXPBHHC@Z
89968 172 $LN55
89980 172 ?retain@UnicodeSet@icu_72@@UAEAAV12@HH@Z
899F0 172 ?retainAll@UnicodeSet@icu_72@@UAEAAV12@ABV12@@Z
89A50 172 ?set@UnicodeSet@icu_72@@QAEAAV12@HH@Z
89B40 172 ?setPattern@UnicodeSet@icu_72@@AAEXPB_SH@Z
89BB0 172 ?setToBogus@UnicodeSet@icu_72@@QAEXXZ
89C10 172 ?size@UnicodeSet@icu_72@@UBEHXZ
89CB0 172 ?span@UnicodeSet@icu_72@@QBEHPB_SHW4USetSpanCondition@@@Z
89E80 172 ?spanBack@UnicodeSet@icu_72@@QBEHPB_SHW4USetSpanCondition@@@Z
8A050 172 ?spanBackUTF8@UnicodeSet@icu_72@@QBEHPBDHW4USetSpanCondition@@@Z
8A210 172 ?spanUTF8@UnicodeSet@icu_72@@QBEHPBDHW4USetSpanCondition@@@Z
8A4A0 172 ?toPattern@UnicodeSet@icu_72@@UBEAAVUnicodeString@2@AAV32@C@Z
8A5D0 172 ?truncate@UnicodeString@icu_72@@QAECH@Z
8A640 173 ??0UnicodeSet@icu_72@@QAE@ABVUnicodeString@1@AAW4UErrorCode@@@Z
8A800 173 ??_EParsePosition@icu_72@@UAEPAXI@Z
8A840 173 ?applyPattern@UnicodeSet@icu_72@@AAEXAAVRuleCharacterIterator@2@PBVSymbolTable@2@AAVUnicodeString@2@IP812@AEAAV12@H@ZHAAW4UErrorCode@@@Z
8B61C 173 $LN672
8B638 173 $LN671
8B690 173 ?applyPropertyAlias@UnicodeSet@icu_72@@QAEAAV12@ABVUnicodeString@2@0AAW4UErrorCode@@@Z
8C040 173 ?indexOf@UnicodeString@icu_72@@QBEH_SH@Z
8C0C0 173 ?isNameOpen@?A0xe0d936d2@icu_72@@YACABVUnicodeString@2@H@Z
8C140 173 ?isPOSIXOpen@?A0xe0d936d2@icu_72@@YACABVUnicodeString@2@H@Z
8C1C0 173 ?isPerlOpen@?A0xe0d936d2@icu_72@@YACABVUnicodeString@2@H@Z
8C240 173 ?mungeCharName@?A0xe0d936d2@icu_72@@YACPADPBDH@Z
8C2A0 173 ?umtx_initOnce@icu_72@@YAXAAUUInitOnce@1@P6AXAAW4UErrorCode@@@Z1@Z
8C2F0 131 _u_charAge_72
8C320 131 _u_charType_72
8C3D0 131 _u_getMainProperties_72
8C480 131 _u_getNumericValue_72
8C740 131 $LN51
8C750 131 _u_getUnicodeProperties_72
8C820 131 _u_isWhitespace_72
8C8F0 131 _u_isalnumPOSIX_72
8C9A0 131 _u_isalpha_72
8CA60 131 _u_isblank_72
8CB20 131 _u_isdigit_72
8CBD0 131 _u_isgraphPOSIX_72
8CC70 131 _u_isgraph_72
8CD10 131 _u_islower_72
8CDC0 131 _u_isprintPOSIX_72
8CEF0 131 _u_isspace_72
8CFB0 131 _u_isupper_72
8D060 131 _u_isxdigit_72
8D140 131 _uchar_addPropertyStarts_72
8D330 131 _upropsvec_addPropertyStarts_72
8D360 131 _uprv_getMaxValues_72
8D380 131 _uscript_getScript_72
8D3F0 131 _uscript_hasScript_72
8D470 195 _u_errorName_72
8D510 136 ?_fromUnicodeWithCallback@@YAXPAUUConverterFromUnicodeArgs@@PAW4UErrorCode@@@Z
8D920 136 ?_toUnicodeWithCallback@@YAXPAUUConverterToUnicodeArgs@@PAW4UErrorCode@@@Z
8DD20 136 ?ucnv_outputOverflowFromUnicode@@YACPAUUConverter@@PAPADPBDPAPAHPAW4UErrorCode@@@Z
8DE00 136 ?ucnv_outputOverflowToUnicode@@YACPAUUConverter@@PAPA_SPB_SPAPAHPAW4UErrorCode@@@Z
8DEB0 136 _ucnv_close_72
8DFB0 136 _ucnv_detectUnicodeSignature_72
8E280 136 _ucnv_fromUnicode_72
8E3E0 136 _ucnv_getName_72
8E420 136 _ucnv_open_72
8E440 136 _ucnv_reset_72
8E540 136 _ucnv_safeClone_72
8E7E0 136 _ucnv_toUnicode_72
8E930 190 ?_appendUTF8@@YAPAEPAEH@Z
8E9C0 190 _u_strFromUTF8WithSub_72
8F0B0 190 _u_strToUTF8WithSub_72
8F760 190 _u_strToUTF8_72
8F790 179 ?trim@UnicodeString@icu_72@@QAEAAV12@XZ
8F8F0 109 _uprv_calloc_72
8F940 109 _uprv_free_72
8F970 109 _uprv_malloc_72
8F9A0 109 _uprv_realloc_72
8FA30 161 _u_UCharsToChars_72
8FA80 161 _u_charsToUChars_72
8FAB0 161 _uprv_compareInvAscii_72
8FBB0 161 _uprv_isInvariantUString_72
8FC00 189 ?_digit8@@YAH_S@Z
8FC20 189 ?isMatchAtCPBoundary@@YACPB_S000@Z
8FC80 189 _u_memchr32_72
8FCF0 189 _u_memchr_72
8FD40 189 _u_memcmp_72
8FD80 189 _u_memcpy_72
8FDA0 189 _u_memrchr32_72
8FE10 189 _u_memrchr_72
8FE60 189 _u_strCompare_72
8FEA0 189 _u_strFindFirst_72
90170 189 _u_strFindLast_72
902C0 189 _u_strchr_72
90310 189 _u_strlen_72
90320 189 _u_strrchr_72
90370 189 _u_terminateChars_72
903D0 189 _u_terminateUChars_72
90420 189 _u_unescapeAt_72
90720 189 _uprv_strCompare_72
90900 189 _ustr_hashCharsN_72
90940 189 _ustr_hashICharsN_72
90990 189 _ustr_hashUCharsN_72
909E0 124 ?TimeZoneDataDirInitFn@@YAXAAW4UErrorCode@@@Z
90AC0 124 ?putil_cleanup@@YACXZ
90B60 124 _sprintf
90B90 124 _u_getDataDirectory_72
90C80 124 _u_getTimeZoneFilesDirectory_72
90CF0 124 _u_versionFromString_72
90D70 124 _uprv_add32_overflow_72
90DA0 124 _uprv_getDefaultCodepage
90E10 124 _uprv_getDefaultLocaleID_72
90F10 124 _uprv_pathIsAbsolute_72
90F40 138 ??1Mutex@icu_72@@QAE@XZ
90F50 138 ?createConverterFromFile@@YAPAUUConverterSharedData@@PAUUConverterLoadArgs@@PAW4UErrorCode@@@Z
91080 138 ?getAlgorithmicTypeFromName@@YAPBUUConverterSharedData@@PBD@Z
91130 138 ?internalSetName@@YAXPBDPAW4UErrorCode@@@Z
91240 138 ?isCnvAcceptable@@YACPAXPBD1PBUUDataInfo@@@Z
91280 138 ?parseConverterOptions@@YAXPBDPAUUConverterNamePieces@@PAUUConverterLoadArgs@@PAW4UErrorCode@@@Z
913F0 138 ?ucnv_cleanup@@YACXZ
91550 138 ?ucnv_deleteSharedConverterData@@YACPAUUConverterSharedData@@@Z
91590 138 _ucnv_canCreateConverter_72
91680 138 _ucnv_createConverterFromSharedData_72
91810 138 _ucnv_createConverter_72
918E0 138 _ucnv_enableCleanup_72
918F0 138 _ucnv_getDefaultName_72
919A0 138 _ucnv_incrementRefCount_72
919D0 138 _ucnv_loadSharedData_72
91D90 138 _ucnv_load_72
91E90 138 _ucnv_unloadSharedDataIfReady_72
91EE0 138 _ucnv_unload_72
91F10 185 _u_flushDefaultConverter_72
91F60 185 _u_getDefaultConverter_72
91FC0 185 _u_releaseDefaultConverter_72
92020 116 ?<lambda_invoker_cdecl>@<lambda_1dff62079b62fbd8907058084fb7265a>@@CA@PAX@Z
92050 116 ?<lambda_invoker_cdecl>@<lambda_3982898c058a44bb907f268ed363aa4b>@@CAHTUElement@@0@Z
92080 116 ??0CharString@icu_72@@QAE@PBDHAAW4UErrorCode@@@Z
920F0 116 ??0CharString@icu_72@@QAE@VStringPiece@1@AAW4UErrorCode@@@Z
92160 116 ??0KeywordEnumeration@icu_72@@QAE@PBDHHAAW4UErrorCode@@@Z
92220 116 ??0Locale@icu_72@@QAE@$$QAV01@@Z
92250 116 ??0Locale@icu_72@@QAE@ABV01@@Z
92280 116 ??0Locale@icu_72@@QAE@PBD000@Z
92510 116 ??0Locale@icu_72@@QAE@XZ
92580 116 ??1?$LocalMemory@H@icu_72@@QAE@XZ
92590 116 ??1?$LocalPointer@VCharString@icu_72@@@icu_72@@QAE@XZ
925C0 116 ??1AliasReplacer@?A0x18b31117@icu_72@@QAE@XZ
925D0 116 ??1LocalUResourceBundlePointer@icu_72@@QAE@XZ
925E0 116 ??1Locale@icu_72@@UAE@XZ
92630 116 ??1UniqueCharStrings@icu_72@@QAE@XZ
92660 116 ??4Locale@icu_72@@QAEAAV01@$$QAV01@@Z
92760 116 ??4Locale@icu_72@@QAEAAV01@ABV01@@Z
92840 116 ??_ELocale@icu_72@@UAEPAXI@Z
92930 116 ??_EKeywordEnumeration@icu_72@@UAEPAXI@Z
92990 116 ?build@AliasDataBuilder@?A0x18b31117@icu_72@@QAEPAVAliasData@23@AAW4UErrorCode@@@Z
93830 116 ?canonicalizeLocale@?A0x18b31117@icu_72@@YA_NABVLocale@2@AAVCharString@2@AAW4UErrorCode@@@Z
938B0 116 ?cleanup@AliasData@?A0x18b31117@icu_72@@SACXZ
93920 116 ?cleanupKnownCanonicalized@?A0x18b31117@icu_72@@YACXZ
93940 116 ?clone@KeywordEnumeration@icu_72@@UBEPAVStringEnumeration@2@XZ
939D0 116 ?clone@Locale@icu_72@@QBEPAV12@XZ
93A20 116 ?count@KeywordEnumeration@icu_72@@UBEHAAW4UErrorCode@@@Z
93A50 116 ?createKeywords@Locale@icu_72@@QBEPAVStringEnumeration@2@AAW4UErrorCode@@@Z
93B80 116 ?forLanguageTag@Locale@icu_72@@SA?AV12@VStringPiece@2@AAW4UErrorCode@@@Z
93CA0 116 ?getDynamicClassID@KeywordEnumeration@icu_72@@UBEPAXXZ
93CB0 116 ?getDynamicClassID@Locale@icu_72@@UBEPAXXZ
93CC0 116 ?getKeywordValue@Locale@icu_72@@QBEXVStringPiece@2@AAVByteSink@2@AAW4UErrorCode@@@Z
93D80 116 ?init@Locale@icu_72@@AAEAAV12@PBDC@Z
94190 116 ?initBaseName@Locale@icu_72@@AAEXAAW4UErrorCode@@@Z
94220 116 ?isKnownCanonicalizedLocale@?A0x18b31117@icu_72@@YA_NPBDAAW4UErrorCode@@@Z
94300 116 ?loadKnownCanonicalized@?A0x18b31117@icu_72@@YAXAAW4UErrorCode@@@Z
94370 116 ?locale_set_default_internal@icu_72@@YAPAVLocale@1@PBDAAW4UErrorCode@@@Z
94540 116 ?next@KeywordEnumeration@icu_72@@UAEPBDPAHAAW4UErrorCode@@@Z
945A0 116 ?outputToString@AliasReplacer@?A0x18b31117@icu_72@@AAEAAVCharString@3@AAV43@W4UErrorCode@@@Z
94870 116 ?parseLanguageReplacement@AliasReplacer@?A0x18b31117@icu_72@@AAEXPBDAAPBD1111AAVUVector@3@AAW4UErrorCode@@@Z
94A40 116 ?replace@AliasReplacer@?A0x18b31117@icu_72@@QAE_NABVLocale@3@AAVCharString@3@AAW4UErrorCode@@@Z
95390 116 ?replaceLanguage@AliasReplacer@?A0x18b31117@icu_72@@AAE_N_N00AAVUVector@3@AAW4UErrorCode@@@Z
957E0 116 ?replaceSubdivision@AliasReplacer@?A0x18b31117@icu_72@@AAE_NVStringPiece@3@AAVCharString@3@AAW4UErrorCode@@@Z
95870 116 ?replaceTerritory@AliasReplacer@?A0x18b31117@icu_72@@AAE_NAAVUVector@3@AAW4UErrorCode@@@Z
95B60 116 ?replaceTransformedExtensions@AliasReplacer@?A0x18b31117@icu_72@@AAE_NAAVCharString@3@0AAW4UErrorCode@@@Z
95EC0 116 ?replaceVariant@AliasReplacer@?A0x18b31117@icu_72@@AAE_NAAW4UErrorCode@@@Z
95FD0 116 ?reset@KeywordEnumeration@icu_72@@UAEXAAW4UErrorCode@@@Z
95FE0 116 ?setKeywordValue@Locale@icu_72@@QAEXPBD0AAW4UErrorCode@@@Z
960D0 116 ?setToBogus@Locale@icu_72@@QAEXXZ
96130 116 ?snext@KeywordEnumeration@icu_72@@UAEPBVUnicodeString@2@AAW4UErrorCode@@@Z
96170 116 ?ures_getUnicodeStringByKey@icu_72@@YA?AVUnicodeString@1@PBUUResourceBundle@@PBDPAW4UErrorCode@@@Z
96220 116 _locale_cleanup
96280 116 _locale_get_default_72
962D0 187 _ustrcase_getCaseLocale_72
96300 186 ?_cmpFold@@YAHPB_SH0HIPAH1PAW4UErrorCode@@@Z
96940 186 ?appendResult@?A0x0fbc595c@icu_72@@YAHPA_SHHHPB_SHIPAVEdits@2@@Z
96AF0 186 ?toLower@?A0x0fbc595c@icu_72@@YAHHIPA_SHPB_SPAUUCaseContext@@HHPAVEdits@2@AAW4UErrorCode@@@Z
96E40 186 ?toUpper@?A0x0fbc595c@icu_72@@YAHHIPA_SHPB_SPAUUCaseContext@@HPAVEdits@2@AAW4UErrorCode@@@Z
97170 186 ?toUpper@GreekUpper@icu_72@@YAHIPA_SHPB_SHPAVEdits@2@AAW4UErrorCode@@@Z
97780 186 $LN188
97798 186 $LN187
977E0 186 ?utf16_caseContextIterator@?A0x0fbc595c@icu_72@@YAHPAXC@Z
978C0 186 _u_strFoldCase_72
97A50 186 _u_strcmpFold_72
97A80 186 _ustrcase_internalToUpper_72
97B40 112 ??0Iterator@Edits@icu_72@@AAE@PBGHCC@Z
97BA0 112 ??1Edits@icu_72@@QAE@XZ
97BC0 112 ?addReplace@Edits@icu_72@@QAEXHH@Z
97DF0 112 ?addUnchanged@Edits@icu_72@@QAEXH@Z
97EB0 112 ?append@Edits@icu_72@@AAEXH@Z
97EE0 112 ?copyErrorTo@Edits@icu_72@@QBECAAW4UErrorCode@@@Z
97F00 112 ?growArray@Edits@icu_72@@AAECXZ
97FB0 112 ?lastUnit@Edits@icu_72@@ABEHXZ
97FD0 112 ?next@Iterator@Edits@icu_72@@AAECCAAW4UErrorCode@@@Z
98290 112 ?readLength@Iterator@Edits@icu_72@@AAEHH@Z
982F0 112 ?reset@Edits@icu_72@@QAEXXZ
98310 194 ?enumEitherTrie@@YAXPBUUTrie2@@HHP6AIPBXI@ZP6AC1HHI@Z1@Z
986D0 194 _utrie2_enum_72
986F0 171 ??1UnicodeFunctor@icu_72@@UAE@XZ
98700 170 ??1UnicodeFilter@icu_72@@UAE@XZ
98720 170 ??1UnicodeMatcher@icu_72@@UAE@XZ
98730 170 ?matches@UnicodeFilter@icu_72@@UAE?AW4UMatchDegree@2@ABVReplaceable@2@AAHHC@Z
987F0 170 ?toMatcher@UnicodeFilter@icu_72@@UBEPAVUnicodeMatcher@2@XZ
98800 191 ?errorValue@@YAHHC@Z
98830 191 _utf8_back1SafeBody_72
98950 191 _utf8_nextCharSafeBody_72
98BB0 191 _utf8_prevCharSafeBody_72
98E30 122 ?isWhiteSpace@PatternProps@icu_72@@SACH@Z
98E70 122 ?skipWhiteSpace@PatternProps@icu_72@@SAPB_SPB_SH@Z
98ED0 192 ?escape@ICU_Utility@icu_72@@SAAAVUnicodeString@2@AAV32@H@Z
99050 192 ?isUnprintable@ICU_Utility@icu_72@@SACH@Z
99060 192 ?shouldAlwaysBeEscaped@ICU_Utility@icu_72@@SACH@Z
990C0 192 ?skipWhitespace@ICU_Utility@icu_72@@SAHABVUnicodeString@2@AAHC@Z
99120 196 ??0UVector@icu_72@@QAE@AAW4UErrorCode@@@Z
991B0 196 ??0UVector@icu_72@@QAE@P6AXPAX@ZP6ACTUElement@@2@ZAAW4UErrorCode@@@Z
99240 196 ??0UVector@icu_72@@QAE@P6AXPAX@ZP6ACTUElement@@2@ZHAAW4UErrorCode@@@Z
992D0 196 ??1UVector@icu_72@@UAE@XZ
99370 196 ??8UVector@icu_72@@QBE_NABV01@@Z
993C0 196 ??_EUVector@icu_72@@UAEPAXI@Z
99400 196 ?addElement@UVector@icu_72@@QAEXPAXAAW4UErrorCode@@@Z
99430 196 ?adoptElement@UVector@icu_72@@QAEXPAXAAW4UErrorCode@@@Z
99470 196 ?assign@UVector@icu_72@@QAEXABV12@P6AXPATUElement@@1@ZAAW4UErrorCode@@@Z
99540 196 ?containsAll@UVector@icu_72@@QBECABV12@@Z
995C0 196 ?elementAt@UVector@icu_72@@QBEPAXH@Z
995E0 196 ?ensureCapacity@UVector@icu_72@@QAECHAAW4UErrorCode@@@Z
99660 196 ?getDynamicClassID@UVector@icu_72@@UBEPAXXZ
99670 196 ?indexOf@UVector@icu_72@@ABEHTUElement@@HC@Z
99700 196 ?indexOf@UVector@icu_72@@QBEHPAXH@Z
99720 196 ?insertElementAt@UVector@icu_72@@QAEXPAXHAAW4UErrorCode@@@Z
99790 196 ?removeAll@UVector@icu_72@@QAECABV12@@Z
997F0 196 ?removeAllElements@UVector@icu_72@@QAEXXZ
99840 196 ?removeElement@UVector@icu_72@@QAECPAX@Z
99870 196 ?removeElementAt@UVector@icu_72@@QAEXH@Z
998E0 196 ?retainAll@UVector@icu_72@@QAECABV12@@Z
99930 196 ?setElementAt@UVector@icu_72@@QAEXPAXH@Z
99990 196 ?sort@UVector@icu_72@@QAEXP6AHTUElement@@0@ZAAW4UErrorCode@@@Z
999C0 196 ?sortComparator@icu_72@@YAHPBX00@Z
999E0 196 ?sortedInsert@UVector@icu_72@@AAEXTUElement@@P6AH00@ZAAW4UErrorCode@@@Z
99AA0 196 ?sortedInsert@UVector@icu_72@@QAEXPAXP6AHTUElement@@1@ZAAW4UErrorCode@@@Z
99AB0 103 ??0BMPSet@icu_72@@QAE@ABV01@PBHH@Z
99B70 103 ??0BMPSet@icu_72@@QAE@PBHH@Z
99D80 103 ??_EBMPSet@icu_72@@UAEPAXI@Z
99DC0 103 ?contains@BMPSet@icu_72@@UBECH@Z
99E80 103 ?findCodePoint@BMPSet@icu_72@@ABEHHHH@Z
99ED0 103 ?initBits@BMPSet@icu_72@@AAEXXZ
9A0B0 103 ?set32x64Bits@icu_72@@YAXQAIHH@Z
9A200 103 ?span@BMPSet@icu_72@@QBEPB_SPB_S0W4USetSpanCondition@@@Z
9A430 103 ?spanBack@BMPSet@icu_72@@QBEPB_SPB_S0W4USetSpanCondition@@@Z
9A660 103 ?spanBackUTF8@BMPSet@icu_72@@QBEHPBEHW4USetSpanCondition@@@Z
9A7C0 103 ?spanUTF8@BMPSet@icu_72@@QBEPBEPBEHW4USetSpanCondition@@@Z
9AA60 174 ??0UnicodeSetStringSpan@icu_72@@QAE@ABV01@ABVUVector@1@@Z
9ABA0 174 ??0UnicodeSetStringSpan@icu_72@@QAE@ABVUnicodeSet@1@ABVUVector@1@I@Z
9B1D0 174 ??1OffsetList@icu_72@@QAE@XZ
9B1F0 174 ??1UnicodeSetStringSpan@icu_72@@QAE@XZ
9B240 174 ?setMaxLength@OffsetList@icu_72@@QAEXH@Z
9B290 174 ?span@UnicodeSetStringSpan@icu_72@@QBEHPB_SHW4USetSpanCondition@@@Z
9B870 174 ?spanBack@UnicodeSetStringSpan@icu_72@@QBEHPB_SHW4USetSpanCondition@@@Z
9BE70 174 ?spanBackUTF8@UnicodeSetStringSpan@icu_72@@QBEHPBEHW4USetSpanCondition@@@Z
9C510 174 ?spanNot@UnicodeSetStringSpan@icu_72@@ABEHPB_SH@Z
9C700 174 ?spanNotBack@UnicodeSetStringSpan@icu_72@@ABEHPB_SH@Z
9C8E0 174 ?spanNotUTF8@UnicodeSetStringSpan@icu_72@@ABEHPBEH@Z
9CB60 174 ?spanOne@icu_72@@YAHABVUnicodeSet@1@PB_SH@Z
9CBD0 174 ?spanOneBack@icu_72@@YAHABVUnicodeSet@1@PB_SH@Z
9CC50 174 ?spanOneBackUTF8@icu_72@@YAHABVUnicodeSet@1@PBEH@Z
9CCC0 174 ?spanOneUTF8@icu_72@@YAHABVUnicodeSet@1@PBEH@Z
9CDE0 174 ?spanUTF8@UnicodeSetStringSpan@icu_72@@QBEHPBEHW4USetSpanCondition@@@Z
9D2A0 107 ?_set_add@?A0xe0f08f5f@@YAXPAUUSet@@H@Z
9D2B0 107 ?_set_addRange@?A0xe0f08f5f@@YAXPAUUSet@@HH@Z
9D2D0 107 ?_set_addString@?A0xe0f08f5f@@YAXPAUUSet@@PB_SH@Z
9D350 107 ?characterproperties_cleanup@?A0xe0f08f5f@@YACXZ
9D3E0 107 ?getInclusionsForProperty@CharacterProperties@icu_72@@SAPBVUnicodeSet@2@W4UProperty@@AAW4UErrorCode@@@Z
9D680 107 ?getInclusionsForSource@?A0xe0f08f5f@@YAPBVUnicodeSet@icu_72@@W4UPropertySource@@AAW4UErrorCode@@@Z
9D700 107 ?initInclusion@?A0xe0f08f5f@@YAXW4UPropertySource@@AAW4UErrorCode@@@Z
9D92C 107 $LN117
9D970 107 _u_getBinaryPropertySet_72
9DE10 181 ?defaultContains@@YACABUBinaryProperty@@HW4UProperty@@@Z
9DE30 181 ?caseBinaryPropertyContains@@YACABUBinaryProperty@@HW4UProperty@@@Z
9DE50 181 ?isBidiControl@@YACABUBinaryProperty@@HW4UProperty@@@Z
9DE60 181 ?isMirrored@@YACABUBinaryProperty@@HW4UProperty@@@Z
9DE70 181 ?isJoinControl@@YACABUBinaryProperty@@HW4UProperty@@@Z
9DE80 181 ?hasFullCompositionExclusion@@YACABUBinaryProperty@@HW4UProperty@@@Z
9DED0 181 ?isNormInert@@YACABUBinaryProperty@@HW4UProperty@@@Z
9DF10 181 ?changesWhenCasefolded@@YACABUBinaryProperty@@HW4UProperty@@@Z
9E110 181 ?changesWhenNFKC_Casefolded@@YACABUBinaryProperty@@HW4UProperty@@@Z
9E2B0 181 ?isCanonSegmentStarter@@YACABUBinaryProperty@@HW4UProperty@@@Z
9E300 181 ?isPOSIX_alnum@@YACABUBinaryProperty@@HW4UProperty@@@Z
9E310 181 ?isPOSIX_blank@@YACABUBinaryProperty@@HW4UProperty@@@Z
9E320 181 ?isPOSIX_graph@@YACABUBinaryProperty@@HW4UProperty@@@Z
9E330 181 ?isPOSIX_print@@YACABUBinaryProperty@@HW4UProperty@@@Z
9E340 181 ?isPOSIX_xdigit@@YACABUBinaryProperty@@HW4UProperty@@@Z
9E350 181 ?isRegionalIndicator@@YACABUBinaryProperty@@HW4UProperty@@@Z
9E360 181 ?hasEmojiProperty@@YACABUBinaryProperty@@HW4UProperty@@@Z
9E380 181 ?defaultGetValue@@YAHABUIntProperty@@HW4UProperty@@@Z
9E3A0 181 ?defaultGetMaxValue@@YAHABUIntProperty@@W4UProperty@@@Z
9E3C0 181 ?getBiDiClass@@YAHABUIntProperty@@HW4UProperty@@@Z
9E3D0 181 ?getBiDiPairedBracketType@@YAHABUIntProperty@@HW4UProperty@@@Z
9E3E0 181 ?biDiGetMaxValue@@YAHABUIntProperty@@W4UProperty@@@Z
9E3F0 181 ?getCombiningClass@@YAHABUIntProperty@@HW4UProperty@@@Z
9E400 181 ?getGeneralCategory@@YAHABUIntProperty@@HW4UProperty@@@Z
9E410 181 ?getJoiningGroup@@YAHABUIntProperty@@HW4UProperty@@@Z
9E420 181 ?getJoiningType@@YAHABUIntProperty@@HW4UProperty@@@Z
9E430 181 ?getNumericType@@YAHABUIntProperty@@HW4UProperty@@@Z
9E460 181 ?getScript@@YAHABUIntProperty@@HW4UProperty@@@Z
9E480 181 ?scriptGetMaxValue@@YAHABUIntProperty@@W4UProperty@@@Z
9E4B0 181 ?getHangulSyllableType@@YAHABUIntProperty@@HW4UProperty@@@Z
9E4E0 181 ?getNormQuickCheck@@YAHABUIntProperty@@HW4UProperty@@@Z
9E500 181 ?getLeadCombiningClass@@YAHABUIntProperty@@HW4UProperty@@@Z
9E520 181 ?getTrailCombiningClass@@YAHABUIntProperty@@HW4UProperty@@@Z
9E530 181 ?getInPC@@YAHABUIntProperty@@HW4UProperty@@@Z
9E570 181 ?getInSC@@YAHABUIntProperty@@HW4UProperty@@@Z
9E5B0 181 ?getVo@@YAHABUIntProperty@@HW4UProperty@@@Z
9E5F0 181 ?layoutGetMaxValue@@YAHABUIntProperty@@W4UProperty@@@Z
9E640 181 ??1ReorderingBuffer@icu_72@@QAE@XZ
9E690 181 ?getNorm16@Normalizer2Impl@icu_72@@QBEGH@Z
9E730 181 ?ulayout_ensureData@?A0x1370f7c3@@YACAAW4UErrorCode@@@Z
9E890 181 ?ulayout_isAcceptable@?A0x1370f7c3@@YACPAXPBD1PBUUDataInfo@@@Z
9E8D0 181 ?uprops_cleanup@?A0x1370f7c3@@YACXZ
9E960 181 _u_getIntPropertyValue_72
9E9E0 181 _u_hasBinaryProperty_72
9EA10 181 _uprops_addPropertyStarts_72
9EAB0 181 _uprops_getSource_72
9EB70 181 $LN51
9EB80 181 $LN50
9EB90 169 ?compareName@icu_72@@YACPAUUCharNames@1@PBEGW4UCharNameChoice@@PBD@Z
9ED00 169 ?enumExtNames@icu_72@@YACHHP6ACPAXHW4UCharNameChoice@@PBDH@Z0@Z
9EF00 169 ?enumGroupNames@icu_72@@YACPAUUCharNames@1@PBGHHP6ACPAXHW4UCharNameChoice@@PBDH@Z23@Z
9F0A0 169 ?enumNames@icu_72@@YACPAUUCharNames@1@HHP6ACPAXHW4UCharNameChoice@@PBDH@Z12@Z
9F320 169 ?expandGroupLengths@icu_72@@YAPBEPBEQAG1@Z
9F3C0 169 ?expandName@icu_72@@YAGPAUUCharNames@1@PBEGW4UCharNameChoice@@PADG@Z
9F570 169 ?findAlgName@icu_72@@YAHPAUAlgorithmicRange@1@W4UCharNameChoice@@PBD@Z
9F7E0 169 ?getCharCat@icu_72@@YAEH@Z
9F830 169 ?getExtName@icu_72@@YAGIPADG@Z
9F970 169 ?getGroup@icu_72@@YAPBGPAUUCharNames@1@I@Z
9F9F0 169 ?isAcceptable@icu_72@@YACPAXPBD1PBUUDataInfo@@@Z
9FA30 169 ?unames_cleanup@icu_72@@YACXZ
9FA80 169 ?writeFactorSuffix@icu_72@@YAGPBGGPBDIQAGQAPBD3PADG@Z
9FBC0 169 _u_charFromName_72
9FF20 123 ?findProperty@PropNameData@icu_72@@CAHH@Z
9FF60 123 ?getPropertyOrValueEnum@PropNameData@icu_72@@CAHHPBD@Z
A0040 123 _u_getPropertyEnum_72
A0050 123 _u_getPropertyValueEnum_72
A0090 123 _uprv_compareASCIIPropertyNames_72
A0150 121 ??1ParsePosition@icu_72@@UAE@XZ
A0160 121 ?getDynamicClassID@ParsePosition@icu_72@@UBEPAXXZ
A0170 126 ??0RuleCharacterIterator@icu_72@@QAE@ABVUnicodeString@1@PBVSymbolTable@1@AAVParsePosition@1@@Z
A01A0 126 ?_advance@RuleCharacterIterator@icu_72@@AAEXH@Z
A0210 126 ?atEnd@RuleCharacterIterator@icu_72@@QBECXZ
A0240 126 ?getPos@RuleCharacterIterator@icu_72@@QBEXAAUPos@12@@Z
A0260 126 ?jumpahead@RuleCharacterIterator@icu_72@@QAEXH@Z
A0270 126 ?lookahead@RuleCharacterIterator@icu_72@@QBEAAVUnicodeString@2@AAV32@H@Z
A02C0 126 ?next@RuleCharacterIterator@icu_72@@QAEHHAACAAW4UErrorCode@@@Z
A0590 126 ?setPos@RuleCharacterIterator@icu_72@@QAEXABUPos@12@@Z
A05B0 126 ?skipIgnored@RuleCharacterIterator@icu_72@@QAEXH@Z
A0630 134 _ucln_common_registerCleanup_72
A0670 108 ?append@CharString@icu_72@@QAEAAV12@DAAW4UErrorCode@@@Z
A0770 108 ?append@CharString@icu_72@@QAEAAV12@PBDHAAW4UErrorCode@@@Z
A09B0 108 ?appendInvariantChars@CharString@icu_72@@QAEAAV12@ABVUnicodeString@2@AAW4UErrorCode@@@Z
A0A20 108 ?appendInvariantChars@CharString@icu_72@@QAEAAV12@PB_SHAAW4UErrorCode@@@Z
A0B70 108 ?ensureCapacity@CharString@icu_72@@AAECHHAAW4UErrorCode@@@Z
A0BE0 108 ?ensureEndsWithFileSeparator@CharString@icu_72@@QAEAAV12@AAW4UErrorCode@@@Z
A0C20 108 ?extract@CharString@icu_72@@QBEHPADHAAW4UErrorCode@@@Z
A0C90 108 ?getAppendBuffer@CharString@icu_72@@QAEPADHHAAHAAW4UErrorCode@@@Z
A0CF0 108 ?getDirSepChar@CharString@icu_72@@ABEDXZ
A0D30 108 ?truncate@CharString@icu_72@@QAEAAV12@H@Z
A0D50 168 ??$call_once@A6AXXZ$$V@std@@YAXAAUonce_flag@0@A6AXXZ@Z
A0DD0 168 ??1_Init_once_completer@std@@QAE@XZ
A0DF0 168 ??R<lambda_ec5269d75ff2491e066f481859808cf3>@@QBE@XZ
A0E70 168 ?umtx_initImplPostInit@icu_72@@YAXAAUUInitOnce@1@@Z
A0ED0 168 ?umtx_initImplPreInit@icu_72@@YACAAUUInitOnce@1@@Z
A0F70 168 _umtx_cleanup
A0FC0 168 _umtx_init
A1030 168 _umtx_lock_72
A1110 168 _umtx_unlock_72
A1130 142 _UCNV_FROM_U_CALLBACK_SUBSTITUTE_72
A1260 142 _UCNV_TO_U_CALLBACK_SUBSTITUTE_72
A12A0 144 _ucnv_io_countStandardAliases
A12C0 144 _ucnv_io_nextStandardAliases
A1330 144 _ucnv_io_resetStandardAliases
A1340 144 _ucnv_io_closeUEnumeration
A1360 144 _ucnv_io_countAllConverters
A1370 144 _ucnv_io_nextAllConverters
A13E0 144 _ucnv_io_resetAllConverters
A13F0 144 ?findConverter@@YAIPBDPACPAW4UErrorCode@@@Z
A1590 144 ?haveAliasData@@YACPAW4UErrorCode@@@Z
A1750 144 ?isAcceptable@@YACPAXPBD1PBUUDataInfo@@@Z
A1790 144 ?ucnv_io_cleanup@@YACXZ
A17D0 144 _ucnv_compareNames_72
A18C0 144 _ucnv_io_countKnownConverters_72
A18E0 144 _ucnv_io_getConverterName_72
A1960 144 _ucnv_io_stripASCIIForCompare_72
A19F0 110 _T_CString_integerToString_72
A1A80 110 _T_CString_toLowerCase_72
A1AC0 110 _T_CString_toUpperCase_72
A1B00 110 _uprv_asciitolower_72
A1B20 110 _uprv_isASCIILetter_72
A1B40 110 _uprv_strdup_72
A1B80 110 _uprv_stricmp_72
A1C10 110 _uprv_strnicmp_72
A1C90 110 _uprv_toupper_72
A1CB0 154 ?ucnv_MBCSLoad@@YAXPAUUConverterSharedData@@PAUUConverterLoadArgs@@PBEPAW4UErrorCode@@@Z
A2258 154 $LN111
A2260 154 $LN110
A2270 154 ?ucnv_MBCSUnload@@YAXPAUUConverterSharedData@@@Z
A22C0 154 ?ucnv_MBCSOpen@@YAXPAUUConverter@@PAUUConverterLoadArgs@@PAW4UErrorCode@@@Z
A2480 154 ?ucnv_MBCSGetNextUChar@@YAHPAUUConverterToUnicodeArgs@@PAW4UErrorCode@@@Z
A28F0 154 ?ucnv_MBCSGetStarters@@YAXPBUUConverter@@QACPAW4UErrorCode@@@Z
A2930 154 _ucnv_MBCSGetName
A2960 154 ?ucnv_MBCSWriteSub@@YAXPAUUConverterFromUnicodeArgs@@HPAW4UErrorCode@@@Z
A2A30 154 ?ucnv_SBCSFromUTF8@@YAXPAUUConverterFromUnicodeArgs@@PAUUConverterToUnicodeArgs@@PAW4UErrorCode@@@Z
A2F80 154 ?ucnv_MBCSGetUnicodeSet@@YAXPBUUConverter@@PBUUSetAdder@@W4UConverterUnicodeSet@@PAW4UErrorCode@@@Z
A2FE0 154 ?ucnv_DBCSFromUTF8@@YAXPAUUConverterFromUnicodeArgs@@PAUUConverterToUnicodeArgs@@PAW4UErrorCode@@@Z
A3630 154 _ucnv_MBCSFromUnicodeWithOffsets_72
A4320 154 $LN259
A4340 154 $LN258
A441C 154 $LN261
A443C 154 $LN260
A4518 154 $LN262
A4528 154 $LN263
A4540 154 _ucnv_MBCSToUnicodeWithOffsets_72
A4DB0 154 ?_EBCDICSwapLFNL@@YACPAUUConverterSharedData@@PAW4UErrorCode@@@Z
A4FE0 154 ?_extFromU@@YAHPAUUConverter@@PBUUConverterSharedData@@HPAPB_SPB_SPAPAEPBEPAPAHHCPAW4UErrorCode@@@Z
A5110 154 ?_extToU@@YACPAUUConverter@@PBUUConverterSharedData@@CPAPBEPBEPAPA_SPB_SPAPAHHCPAW4UErrorCode@@@Z
A51E0 154 ?enumToU@@YACPAUUConverterMBCSTable@@QACHIIP6ACPBXIQAH@Z2PAW4UErrorCode@@@Z
A5410 154 ?getStateProp@@YACPAY0BAA@$$CBHQACH@Z
A5570 154 ?hasValidTrailBytes@@YACPAY0BAA@$$CBHE@Z
A5600 154 ?reconstituteData@@YAXPAUUConverterMBCSTable@@IIIPAW4UErrorCode@@@Z
A57C0 154 ?ucnv_MBCSDoubleFromUnicodeWithOffsets@@YAXPAUUConverterFromUnicodeArgs@@PAW4UErrorCode@@@Z
A5B40 154 ?ucnv_MBCSGetFallback@@YAHPAUUConverterMBCSTable@@I@Z
A5B90 154 ?ucnv_MBCSSingleFromBMPWithOffsets@@YAXPAUUConverterFromUnicodeArgs@@PAW4UErrorCode@@@Z
A5EC0 154 ?ucnv_MBCSSingleFromUnicodeWithOffsets@@YAXPAUUConverterFromUnicodeArgs@@PAW4UErrorCode@@@Z
A60E0 154 ?ucnv_MBCSSingleToBMPWithOffsets@@YAXPAUUConverterToUnicodeArgs@@PAW4UErrorCode@@@Z
A6410 154 ?ucnv_MBCSSingleToUnicodeWithOffsets@@YAXPAUUConverterToUnicodeArgs@@PAW4UErrorCode@@@Z
A6620 154 ?writeStage3Roundtrip@@YACPBXIQAH@Z
A6730 154 _ucnv_MBCSFromUChar32_72
A6870 154 _ucnv_MBCSGetFilteredUnicodeSetForUnicode_72
A6C48 154 $LN175
A6C60 154 _ucnv_MBCSGetUnicodeSetForUnicode_72
A6C90 154 _ucnv_MBCSIsLeadByte_72
A6CB0 154 _ucnv_MBCSSimpleGetNextUChar_72
A6E40 111 _uprv_wcslen
A6E60 127 ??0StringPiece@icu_72@@QAE@PBD@Z
A6E90 162 _uloc_kw_closeKeywords
A6EC0 162 _uloc_kw_countKeywords
A6EF0 162 _uloc_kw_nextKeyword
A6F30 162 _uloc_kw_resetKeywords
A6F40 162 ??1PreflightingLocaleIDBuffer@@QAE@XZ
A6F50 162 ??8CharString@icu_72@@QBE_NVStringPiece@1@@Z
A6FC0 162 ?_canonicalize@@YAXPBDAAVByteSink@icu_72@@IPAW4UErrorCode@@@Z
A7640 162 ?_findIndex@@YAFPBQBDPBD@Z
A76B0 162 ?_getVariant@@YAXPBDDAAVByteSink@icu_72@@C@Z
A77B0 162 ?compareKeywordStructs@@YAHPBX00@Z
A77E0 162 ?getShortestSubtagLength@@YAHPBD@Z
A7840 162 ?locale_canonKeywordName@@YAHPADPBDPAW4UErrorCode@@@Z
A78C0 162 ?ulocimp_getCountry_72@@YA?AVCharString@icu_72@@PBDPAPBDAAW4UErrorCode@@@Z
A79F0 162 ?ulocimp_getLanguage_72@@YA?AVCharString@icu_72@@PBDPAPBDAAW4UErrorCode@@@Z
A7B80 162 ?ulocimp_getScript_72@@YA?AVCharString@icu_72@@PBDPAPBDAAW4UErrorCode@@@Z
A7C80 162 _locale_getKeywordsStart_72
A7C90 162 _uloc_canonicalize_72
A7D20 162 _uloc_getBaseName_72
A7DB0 162 _uloc_getCountry_72
A7F00 162 _uloc_getDefault_72
A7F10 162 _uloc_getLanguage_72
A7FA0 162 _uloc_getName_72
A8030 162 _uloc_getScript_72
A8130 162 _uloc_getVariant_72
A8360 162 _uloc_openKeywords_72
A8620 162 _uloc_setKeywordValue_72
A8BB0 162 _uloc_toLegacyKey_72
A8C00 162 _uloc_toLegacyType_72
A8C80 162 _uloc_toUnicodeLocaleKey_72
A8CB0 162 _uloc_toUnicodeLocaleType_72
A8CF0 162 _ulocimp_canonicalize_72
A8D10 162 _ulocimp_getKeywordValue_72
A8FA0 162 _ulocimp_getKeywords_72
A92B0 162 _ulocimp_getName_72
A92D0 153 __Latin1ToUnicodeWithOffsets
A93F0 153 __Latin1GetNextUChar
A9420 153 __Latin1FromUnicodeWithOffsets
A96C0 153 _ucnv_Latin1FromUTF8
A9850 153 __Latin1GetUnicodeSet
A9870 153 __ASCIIToUnicodeWithOffsets
A9A30 153 __ASCIIGetNextUChar
A9A80 153 _ucnv_ASCIIFromUTF8
A9C30 153 __ASCIIGetUnicodeSet
A9C50 149 _ucnv_fromUnicode_UTF8_72
A9E40 149 _ucnv_fromUnicode_UTF8_OFFSETS_LOGIC_72
AA0B0 149 _ucnv_toUnicode_UTF8
AA2D0 149 _ucnv_toUnicode_UTF8_OFFSETS_LOGIC
AA580 149 _ucnv_getNextUChar_UTF8
AA820 149 _ucnv_UTF8FromUTF8
AAD60 146 __UTF16ToUnicodeWithOffsets
AAFA0 146 $LN128
AAFB4 146 $LN127
AAFC0 146 __UTF16BEFromUnicodeWithOffsets
AB410 146 __UTF16BEToUnicodeWithOffsets
AB8E0 146 __UTF16BEGetNextUChar
ABA00 146 __UTF16BEReset
ABA40 146 __UTF16BEOpen
ABA80 146 __UTF16BEGetName
ABAA0 146 __UTF16LEFromUnicodeWithOffsets
ABED0 146 __UTF16LEToUnicodeWithOffsets
AC3A0 146 __UTF16LEGetNextUChar
AC4C0 146 __UTF16LEGetName
AC4E0 146 __UTF16Reset
AC500 146 __UTF16Open
AC550 146 __UTF16GetName
AC580 146 __UTF16GetNextUChar
AC740 147 _T_UConverter_toUnicode_UTF32_BE
AC8B0 147 _T_UConverter_toUnicode_UTF32_BE_OFFSET_LOGIC
ACA80 147 _T_UConverter_fromUnicode_UTF32_BE
ACCA0 147 _T_UConverter_fromUnicode_UTF32_BE_OFFSET_LOGIC
ACF40 147 _T_UConverter_getNextUChar_UTF32_BE
AD010 147 _T_UConverter_toUnicode_UTF32_LE
AD1A0 147 _T_UConverter_toUnicode_UTF32_LE_OFFSET_LOGIC
AD3B0 147 _T_UConverter_fromUnicode_UTF32_LE
AD5C0 147 _T_UConverter_fromUnicode_UTF32_LE_OFFSET_LOGIC
AD850 147 _T_UConverter_getNextUChar_UTF32_LE
AD920 147 __UTF32Open
AD940 147 __UTF32ToUnicodeWithOffsets
ADBEC 147 $LN61
ADC00 147 $LN60
ADC10 147 __UTF32GetNextUChar
ADD20 137 ?UConverter_fromUnicode_ISO_2022_JP_OFFSETS_LOGIC@@YAXPAUUConverterFromUnicodeArgs@@PAW4UErrorCode@@@Z
AE7F4 137 $LN200
AE820 137 ?UConverter_toUnicode_ISO_2022_JP_OFFSETS_LOGIC@@YAXPAUUConverterToUnicodeArgs@@PAW4UErrorCode@@@Z
AED0C 137 $LN100
AED20 137 $LN99
AED34 137 $LN101
AED60 137 ?UConverter_fromUnicode_ISO_2022_KR_OFFSETS_LOGIC@@YAXPAUUConverterFromUnicodeArgs@@PAW4UErrorCode@@@Z
AF200 137 ?UConverter_toUnicode_ISO_2022_KR_OFFSETS_LOGIC@@YAXPAUUConverterToUnicodeArgs@@PAW4UErrorCode@@@Z
AF4B0 137 ?UConverter_fromUnicode_ISO_2022_CN_OFFSETS_LOGIC@@YAXPAUUConverterFromUnicodeArgs@@PAW4UErrorCode@@@Z
AFC50 137 ?UConverter_toUnicode_ISO_2022_CN_OFFSETS_LOGIC@@YAXPAUUConverterToUnicodeArgs@@PAW4UErrorCode@@@Z
B001C 137 $LN62
B0030 137 $LN61
B0050 137 ?_ISO_2022_GetUnicodeSet@@YAXPBUUConverter@@PBUUSetAdder@@W4UConverterUnicodeSet@@PAW4UErrorCode@@@Z
B01B8 137 $LN35
B01C8 137 $LN34
B01E0 137 ?_ISO2022Open@@YAXPAUUConverter@@PAUUConverterLoadArgs@@PAW4UErrorCode@@@Z
B0710 137 ?_ISO2022Close@@YAXPAUUConverter@@@Z
B0760 137 ?_ISO2022Reset@@YAXPAUUConverter@@W4UConverterResetChoice@@@Z
B07F0 137 __ISO2022getName
B0810 137 ?_ISO_2022_WriteSub@@YAXPAUUConverterFromUnicodeArgs@@HPAW4UErrorCode@@@Z
B09C0 137 __ISO_2022_SafeClone
B0A60 137 ?UConverter_toUnicode_ISO_2022_KR_OFFSETS_LOGIC_IBM@@YAXPAUUConverterToUnicodeArgs@@PAW4UErrorCode@@@Z
B0C30 137 ?changeState_2022@@YAXPAUUConverter@@PAPBDPBDW4Variant2022@@PAW4UErrorCode@@@Z
B0F08 137 $LN99
B0F24 137 $LN98
B0F48 137 $LN101
B0F58 137 $LN100
B0F70 137 ?fromUWriteUInt8@@YAXPAUUConverter@@PBDHPAPAE1PAPAHHPAW4UErrorCode@@@Z
B0FB0 137 ?setInitialStateFromUnicodeKR@@YAXPAUUConverter@@PAUUConverterDataISO2022@@@Z
B0FF0 137 ?setInitialStateToUnicodeKR@@YAXPAUUConverter@@PAUUConverterDataISO2022@@@Z
B1010 137 ?toUnicodeCallback@@YAXPAUUConverter@@IIPAW4UErrorCode@@@Z
B1050 145 __LMBCSClose
B10A0 145 __LMBCSSafeClone
B1120 145 __LMBCSFromUnicode
B1660 145 __LMBCSToUnicodeWithOffsets
B1850 145 __LMBCSOpen1
B1870 145 __LMBCSOpen2
B1890 145 __LMBCSOpen3
B18B0 145 __LMBCSOpen4
B18D0 145 __LMBCSOpen5
B18F0 145 __LMBCSOpen6
B1910 145 __LMBCSOpen8
B1930 145 __LMBCSOpen11
B1950 145 __LMBCSOpen16
B1970 145 __LMBCSOpen17
B1990 145 __LMBCSOpen18
B19B0 145 __LMBCSOpen19
B19D0 145 ?_LMBCSOpenWorker@@YAXPAUUConverter@@PAUUConverterLoadArgs@@PAW4UErrorCode@@E@Z
B1BA0 145 _LMBCSConversionWorker
B1C74 145 $LN16
B1C90 145 __LMBCSGetNextUCharWorker
B1EE0 151 __HZOpen
B1F70 151 __HZClose
B1FA0 151 __HZReset
B2010 151 _UConverter_toUnicode_HZ_OFFSETS_LOGIC
B22DC 151 $LN60
B22EC 151 $LN59
B2370 151 _UConverter_fromUnicode_HZ_OFFSETS_LOGIC
B2750 151 __HZ_WriteSub
B27A0 151 __HZ_SafeClone
B2810 151 __HZ_GetUnicodeSet
B2850 152 __ISCIIOpen
B2960 152 __ISCIIClose
B2990 152 __ISCIIgetName
B29B0 152 __ISCIIReset
B2A20 152 _UConverter_fromUnicode_ISCII_OFFSETS_LOGIC
B3130 152 _UConverter_toUnicode_ISCII_OFFSETS_LOGIC
B3F98 152 $LN302
B3FB4 152 $LN301
B40A0 152 __ISCII_SafeClone
B40F0 152 __ISCIIGetUnicodeSet
B4190 155 __SCSUReset
B4230 155 __SCSUOpen
B4340 155 __SCSUToUnicodeWithOffsets
B49BC 155 $LN137
B49E0 155 __SCSUToUnicode
B4ED0 155 $LN128
B4EF0 155 __SCSUFromUnicodeWithOffsets
B58B8 155 $LN256
B58C8 155 $LN257
B58D8 155 $LN258
B58F0 155 __SCSUFromUnicode
B6180 155 $LN238
B6190 155 $LN239
B61A0 155 __SCSUGetName
B61C0 155 __SCSUSafeClone
B6230 155 ?getDynamicOffset@@YAHIPAI@Z
B62E0 155 ?useDynamicWindow@@YAXPAUSCSUData@@C@Z
B6340 148 __UTF7Reset
B6370 148 __UTF7Open
B63B0 148 __UTF7ToUnicodeWithOffsets
B67CC 148 $LN75
B67F0 148 __UTF7FromUnicodeWithOffsets
B6D30 148 __UTF7GetName
B6D50 148 __IMAPToUnicodeWithOffsets
B7164 148 $LN83
B7190 148 __IMAPFromUnicodeWithOffsets
B77D0 150 ?_Bocu1FromUnicodeWithOffsets@@YAXPAUUConverterFromUnicodeArgs@@PAW4UErrorCode@@@Z
B7C10 150 ?_Bocu1FromUnicode@@YAXPAUUConverterFromUnicodeArgs@@PAW4UErrorCode@@@Z
B7F90 150 ?_Bocu1ToUnicodeWithOffsets@@YAXPAUUConverterToUnicodeArgs@@PAW4UErrorCode@@@Z
B8450 150 ?_Bocu1ToUnicode@@YAXPAUUConverterToUnicodeArgs@@PAW4UErrorCode@@@Z
B8840 150 ?packDiff@@YAHH@Z
B8B30 141 __CompoundTextOpen
B8E20 141 __CompoundTextClose
B8E60 141 __CompoundTextgetName
B8E70 141 _UConverter_fromUnicode_CompoundText_OFFSETS
B9130 141 _UConverter_toUnicode_CompoundText_OFFSETS
B9420 141 __CompoundText_GetUnicodeSet
B9490 141 _getState
B9AD0 157 ??0UDataPathIterator@icu_72@@QAE@PBD000CPAW4UErrorCode@@@Z
B9C50 157 ??1UDataPathIterator@icu_72@@QAE@XZ
B9C90 157 ?DataCacheElement_deleter@@YAXPAX@Z
B9CB0 157 ?doLoadFromCommonData@@YAPAUUDataMemory@@CPBD000000P6ACPAX00PBUUDataInfo@@@Z1PAW4UErrorCode@@4@Z
BA700 157 ?doLoadFromIndividualFiles@@YAPAUUDataMemory@@PBD00000P6ACPAX00PBUUDataInfo@@@Z1PAW4UErrorCode@@4@Z
BA8C0 157 ?doOpenChoice@@YAPAUUDataMemory@@PBD00P6ACPAX00PBUUDataInfo@@@Z1PAW4UErrorCode@@@Z
BB000 157 ?next@UDataPathIterator@icu_72@@QAEPBDPAW4UErrorCode@@@Z
BB210 157 ?openCommonData@@YAPAUUDataMemory@@PBDHPAW4UErrorCode@@@Z
BB9B0 157 ?setCommonICUData@@YACPAUUDataMemory@@CPAW4UErrorCode@@@Z
BBA60 157 ?udata_cleanup@@YACXZ
BBAC0 157 _udata_getInfo_72
BBB30 157 _udata_openChoice_72
BBB70 158 _UDataMemory_createNewInstance_72
BBBC0 158 _UDataMemory_init_72
BBC00 158 _UDataMemory_isLoaded_72
BBC10 158 _UDataMemory_normalizeDataPointer_72
BBC30 158 _UDataMemory_setData_72
BBC50 158 _UDatamemory_assign_72
BBC80 158 _udata_close_72
BBCE0 158 _udata_getMemory_72
BBD10 159 ?_getBuffer@@YAPAXPAUUEnumeration@@H@Z
BBD60 159 _uenum_close_72
BBDA0 159 _uenum_count_72
BBDD0 159 _uenum_nextDefault_72
BBE40 159 _uenum_next_72
BBE90 159 _uenum_unextDefault_72
BBF20 160 ?_uhash_allocate@@YAXPAUUHashtable@@HPAW4UErrorCode@@@Z
BBFC0 160 ?_uhash_create@@YAPAUUHashtable@@P6AHTUElement@@@ZP6AC00@Z2HPAW4UErrorCode@@@Z
BC0E0 160 ?_uhash_find@@YAPAUUHashElement@@PBUUHashtable@@TUElement@@H@Z
BC1E0 160 ?_uhash_internalRemoveElement@@YA?ATUElement@@PAUUHashtable@@PAUUHashElement@@@Z
BC240 160 ?_uhash_put@@YA?ATUElement@@PAUUHashtable@@T1@1CPAW4UErrorCode@@@Z
BC320 160 ?_uhash_rehash@@YAXPAUUHashtable@@PAW4UErrorCode@@@Z
BC3C0 160 ?_uhash_remove@@YA?ATUElement@@PAUUHashtable@@T1@@Z
BC420 160 ?_uhash_setElement@@YA?ATUElement@@PAUUHashtable@@PAUUHashElement@@HT1@2C@Z
BC480 160 _uhash_close_72
BC520 160 _uhash_compareChars_72
BC560 160 _uhash_compareIChars_72
BC5C0 160 _uhash_compareLong_72
BC5D0 160 _uhash_compareUChars_72
BC620 160 _uhash_count_72
BC630 160 _uhash_get_72
BC660 160 _uhash_hashChars_72
BC690 160 _uhash_hashIChars_72
BC6C0 160 _uhash_hashUChars_72
BC6E0 160 _uhash_init_72
BC740 160 _uhash_nextElement_72
BC790 160 _uhash_openSize_72
BC800 160 _uhash_open_72
BC820 160 _uhash_put_72
BC840 160 _uhash_puti_72
BC860 160 _uhash_removeElement_72
BC880 160 _uhash_setValueDeleter_72
BC890 188 _ustrenum_close
BC8B0 188 _ustrenum_count
BC8D0 188 _ustrenum_unext
BC8F0 188 _ustrenum_next
BC910 188 _ustrenum_reset
BC930 156 _ucptrie_close_72
BC940 188 _ucharstrenum_count
BC950 188 _ucharstrenum_unext
BC990 188 _ucharstrenum_next
BC9D0 188 _ucharstrenum_reset
BC9E0 188 ??0StringEnumeration@icu_72@@IAE@XZ
BCA10 188 ??1StringEnumeration@icu_72@@UAE@XZ
BCA40 188 ??8StringEnumeration@icu_72@@UBE_NABV01@@Z
BCA70 188 ??8type_info@@QBE_NABV0@@Z
BCA90 188 ??9StringEnumeration@icu_72@@UBE_NABV01@@Z
BCAB0 188 ??_EStringEnumeration@icu_72@@UAEPAXI@Z
BCB10 188 ?next@StringEnumeration@icu_72@@UAEPBDPAHAAW4UErrorCode@@@Z
BCBF0 188 ?setChars@StringEnumeration@icu_72@@IAEPAVUnicodeString@2@PBDHAAW4UErrorCode@@@Z
BCC70 188 ?snext@StringEnumeration@icu_72@@UAEPBVUnicodeString@2@AAW4UErrorCode@@@Z
BCD00 188 ?unext@StringEnumeration@icu_72@@UAEPB_SPAHAAW4UErrorCode@@@Z
BCD60 115 ??0LocaleBuilder@icu_72@@QAE@XZ
BCDC0 115 ??1LocaleBuilder@icu_72@@UAE@XZ
BCE00 115 ??_ELocaleBuilder@icu_72@@UAEPAXI@Z
BCE70 115 ?_copyExtensions@icu_72@@YAXABVLocale@1@PAVStringEnumeration@1@AAV21@_NAAW4UErrorCode@@@Z
BD130 115 ?_isExtensionSubtags@icu_72@@YA_NDPBDH@Z
BD190 115 ?build@LocaleBuilder@icu_72@@QAE?AVLocale@2@AAW4UErrorCode@@@Z
BD3F0 115 ?makeBogusLocale@icu_72@@YA?AVLocale@1@XZ
BD460 115 ?setLanguage@LocaleBuilder@icu_72@@QAEAAV12@VStringPiece@2@@Z
BD4D0 115 ?setLanguageTag@LocaleBuilder@icu_72@@QAEAAV12@VStringPiece@2@@Z
BD560 115 ?setLocale@LocaleBuilder@icu_72@@QAEAAV12@ABVLocale@2@@Z
BD800 115 ?setScript@LocaleBuilder@icu_72@@QAEAAV12@VStringPiece@2@@Z
BD870 115 ?transform@icu_72@@YAXPADH@Z
BD8A0 182 ?ures_loc_closeLocales@@YAXPAUUEnumeration@@@Z
BD8D0 182 ?ures_loc_countLocales@@YAHPAUUEnumeration@@PAW4UErrorCode@@@Z
BD8E0 182 _ures_loc_nextLocale
BD930 182 _ures_loc_resetLocales
BD950 182 ?chopLocale@@YACPAD@Z
BD970 182 ?compareEntries@@YACTUElement@@0@Z
BD9B0 182 ?entryIncrease@@YAXPAUUResourceDataEntry@@@Z
BD9F0 182 ?entryOpenDirect@@YAPAUUResourceDataEntry@@PBD0PAW4UErrorCode@@@Z
BDC50 182 ?findFirstExisting@@YAPAUUResourceDataEntry@@PBDPAD0W4UResOpenType@@PAC33PAW4UErrorCode@@@Z
BDE20 182 ?free_entry@@YAXPAUUResourceDataEntry@@@Z
BDE90 182 ?getAliasTargetAsResourceBundle@?A0x367c603f@@YAPAUUResourceBundle@@ABUResourceData@@IPBDHPAUUResourceDataEntry@@1HPAU2@PAW4UErrorCode@@@Z
BE3F0 182 ?getDefaultScript@@YA?AVCharString@icu_72@@ABV12@0@Z
BE5C0 182 ?getFallbackData@@YAPAUUResourceDataEntry@@PBUUResourceBundle@@PAPBDPAIPAW4UErrorCode@@@Z
BE700 182 ?getParentLocaleID@@YA_NPADPBDW4UResOpenType@@@Z
BEC90 182 ?hashEntry@@YAHTUElement@@@Z
BECC0 182 ?initCache@@YAXPAW4UErrorCode@@@Z
BED30 182 ?init_entry@@YAPAUUResourceDataEntry@@PBD0PAW4UErrorCode@@@Z
BF000 182 ?init_resb_result@?A0x367c603f@@YAPAUUResourceBundle@@PAUUResourceDataEntry@@IPBDH01HPAU2@PAW4UErrorCode@@@Z
BF280 182 ?init_resb_result@?A0x367c603f@@YAPAUUResourceBundle@@PAUUResourceDataEntry@@IPBDHPBU2@PAU2@PAW4UErrorCode@@@Z
BF2B0 182 ?insertRootBundle@@YACAAPAUUResourceDataEntry@@PAW4UErrorCode@@@Z
BF300 182 ?loadParentsExceptRoot@@YACAAPAUUResourceDataEntry@@QADHC1PAW4UErrorCode@@@Z
BF4C0 182 ?mayHaveParent@@YACPAD@Z
BF4F0 182 ?performFallbackLookup@@YAPBDPBD00PBHH@Z
BF580 182 ?ures_appendResPath@@YAXPAUUResourceBundle@@PBDHPAW4UErrorCode@@@Z
BF620 182 ?ures_cleanup@@YACXZ
BF740 182 ?ures_closeBundle@@YAXPAUUResourceBundle@@C@Z
BF7E0 182 ?ures_isStackObject@@YACPBUUResourceBundle@@@Z
BF800 182 ?ures_openWithType@@YAPAUUResourceBundle@@PAU1@PBD1W4UResOpenType@@PAW4UErrorCode@@@Z
BFF00 182 _ures_close_72
BFF10 182 _ures_getByKey_72
C0000 182 _ures_getKey_72
C0010 182 _ures_getNextResource_72
C01B0 182 $LN53
C01C0 182 $LN52
C01D0 182 _ures_getSize_72
C01E0 182 _ures_getStringByKey_72
C0480 182 _ures_getString_72
C04D0 182 _ures_hasNext_72
C04F0 182 _ures_openDirect_72
C0510 182 _ures_resetIterator_72
C0520 104 ??0CharStringByteSink@icu_72@@QAE@PAVCharString@1@@Z
C0540 104 ??1CharStringByteSink@icu_72@@UAE@XZ
C0550 104 ??_ECharStringByteSink@icu_72@@UAEPAXI@Z
C0590 104 ?Append@CharStringByteSink@icu_72@@UAEXPBDH@Z
C05C0 104 ?GetAppendBuffer@CharStringByteSink@icu_72@@UAEPADHHPADHPAH@Z
C0620 104 ?appendChange@ByteSinkUtil@icu_72@@SACPBE0PB_SHAAVByteSink@2@PAVEdits@2@AAW4UErrorCode@@@Z
C0810 104 ?appendCodePoint@ByteSinkUtil@icu_72@@SAXHHAAVByteSink@2@PAVEdits@2@@Z
C08C0 104 ?appendUnchanged@ByteSinkUtil@icu_72@@SACPBE0AAVByteSink@2@IPAVEdits@2@AAW4UErrorCode@@@Z
C0910 166 _uprv_max_72
C0920 166 _uprv_min_72
C0930 164 ??$create@$$V@?$MemoryPool@UExtensionListEntry@@$07@icu_72@@QAEPAUExtensionListEntry@@XZ
C0A00 164 ??$create@$$V@?$MemoryPool@VCharString@icu_72@@$07@icu_72@@QAEPAVCharString@1@XZ
C0A90 164 ??1?$MemoryPool@UAttributeListEntry@@$07@icu_72@@QAE@XZ
C0AD0 164 ??1?$MemoryPool@VCharString@icu_72@@$07@icu_72@@QAE@XZ
C0B30 164 ??1LocalUEnumerationPointer@icu_72@@QAE@XZ
C0B40 164 ?_addExtensionToList@@YACPAPAUExtensionListEntry@@PAU1@C@Z
C0D20 164 ?_addVariantToList@@YACPAPAUVariantListEntry@@PAU1@@Z
C0DA0 164 ?_appendKeywords@@YAXPAUULanguageTag@@AAVByteSink@icu_72@@PAW4UErrorCode@@@Z
C11E0 164 ?_appendKeywordsToLanguageTag@@YAXPBDAAVByteSink@icu_72@@CCPAW4UErrorCode@@@Z
C20E0 164 ?_appendLDMLExtensionAsKeywords@@YAXPBDPAPAUExtensionListEntry@@AAV?$MemoryPool@UExtensionListEntry@@$07@icu_72@@AAV?$MemoryPool@VCharString@icu_72@@$07@3@PACPAW4UErrorCode@@@Z
C2AA0 164 ?_isAlphaNumericString@@YACPBDH@Z
C2AE0 164 ?_isAlphaString@@YACPBDH@Z
C2B20 164 ?_isExtensionSingleton@@YACPBDH@Z
C2B70 164 ?_isExtensionSubtag@@YACPBDH@Z
C2BB0 164 ?_isExtlangSubtag@@YACPBDH@Z
C2C00 164 ?_isPrivateuseValueSubtag@@YACPBDH@Z
C2C40 164 ?_isSepListOf@@YACP6ACPBDH@Z0H@Z
C2CB0 164 ?_isStatefulSepListOf@@YACP6ACAAHPBDH@Z1H@Z
C2D30 164 ?_isTKey@@YACPBDH@Z
C2D70 164 __isUnicodeLocaleTypeSubtag_72
C2DB0 164 ?_isTransformedExtensionSubtag@@YACAAHPBDH@Z
C2EB0 164 $LN26
C2ED0 164 ?_isUnicodeExtensionSubtag@@YACAAHPBDH@Z
C2F80 164 ?_isVariantSubtag@@YACPBDH@Z
C3010 164 ?_sortVariants@@YAXPAUVariantListEntry@@@Z
C3080 164 ?resize@?$MaybeStackArray@PAVCharString@icu_72@@$07@icu_72@@QAEPAPAVCharString@2@HH@Z
C3100 164 ?ultag_close@@YAXPAUULanguageTag@@@Z
C3160 164 ?ultag_parse@@YAPAUULanguageTag@@PBDHPAHPAW4UErrorCode@@@Z
C38A0 164 _uloc_forLanguageTag_72
C3930 164 _ulocimp_forLanguageTag_72
C3BE0 164 _ulocimp_toLanguageTag_72
C4840 164 _ultag_getTKeyStart_72
C48E0 164 _ultag_isExtensionSubtags_72
C4900 164 _ultag_isLanguageSubtag_72
C4940 164 _ultag_isPrivateuseValueSubtags_72
C4960 164 _ultag_isRegionSubtag_72
C49C0 164 _ultag_isScriptSubtag_72
C4A10 164 _ultag_isTransformedExtensionSubtags_72
C4A30 164 _ultag_isUnicodeExtensionSubtags_72
C4A50 164 _ultag_isUnicodeLocaleAttributes_72
C4A70 164 _ultag_isUnicodeLocaleKey_72
C4AC0 164 _ultag_isVariantSubtags_72
C4AE0 117 ?_uloc_addLikelySubtags@@YACPBDAAVByteSink@icu_72@@PAW4UErrorCode@@@Z
C5830 117 ?_ulocimp_addLikelySubtags@@YACPBDAAVByteSink@icu_72@@PAW4UErrorCode@@@Z
C5940 117 ?findLikelySubtags@@YAPBDPBDPADHPAW4UErrorCode@@@Z
C5B10 117 ?parseTagString@@YAHPBDPADPAH1212PAW4UErrorCode@@@Z
C5D60 117 _ulocimp_addLikelySubtags_72
C5D70 163 ??$create@AAPBDAAW4UErrorCode@@@?$MemoryPool@VCharString@icu_72@@$07@icu_72@@QAEPAVCharString@1@AAPBDAAW4UErrorCode@@@Z
C5E50 163 ?init@@YACXZ
C5EC0 163 ?initFromResourceBundle@@YAXAAW4UErrorCode@@@Z
C6C90 163 ?isSpecialTypeCodepoints@@YACPBD@Z
C6CE0 163 ?isSpecialTypeReorderCode@@YACPBD@Z
C6D30 163 ?isSpecialTypeRgKeyValue@@YACPBD@Z
C6D80 163 ?ures_getUnicodeString@icu_72@@YA?AVUnicodeString@1@PBUUResourceBundle@@PAW4UErrorCode@@@Z
C6E30 163 _uloc_key_type_cleanup
C6F70 163 _ulocimp_toBcpKey_72
C6FA0 163 _ulocimp_toBcpType_72
C7060 163 _ulocimp_toLegacyKey_72
C7090 163 _ulocimp_toLegacyType_72
C7150 128 ?doInsertionSort@@YAXPADHHP6AHPBX11@Z1PAX@Z
C7290 128 ?subQuickSort@@YAXPADHHHP6AHPBX11@Z1PAX3@Z
C7430 128 _uprv_sortArray_72
C7630 156 ?getRange@?A0x36ee6e8b@@YAHPBXHP6AI0I@Z0PAI@Z
C7A60 156 ?getValue@?A0x36ee6e8b@@YAITUCPTrieData@@W4UCPTrieValueWidth@@H@Z
C7AA0 156 _ucptrie_getRange_72
C7B70 156 _ucptrie_get_72
C7C00 156 _ucptrie_internalSmallIndex_72
C7C90 156 _ucptrie_internalSmallU8Index_72
C7CD0 156 _ucptrie_internalU8PrevIndex_72
C7D70 156 _ucptrie_openFromBinary_72
C7F70 167 ??$extend@G@MixedBlocks@?A0x12a9af39@icu_72@@QAEXPBGHHH@Z
C8000 167 ??$extend@I@MixedBlocks@?A0x12a9af39@icu_72@@QAEXPBIHHH@Z
C8080 167 ??$findBlock@GG@MixedBlocks@?A0x12a9af39@icu_72@@QBEHPBG0H@Z
C80E0 167 ??$findBlock@GI@MixedBlocks@?A0x12a9af39@icu_72@@QBEHPBGPBIH@Z
C81D0 167 ??$findEntry@GG@MixedBlocks@?A0x12a9af39@icu_72@@ABEHPBG0HI@Z
C8280 167 ??$findEntry@II@MixedBlocks@?A0x12a9af39@icu_72@@ABEHPBI0HI@Z
C8330 167 ??$getOverlap@GG@?A0x12a9af39@icu_72@@YAHPBGH0HH@Z
C8390 167 ??0MutableCodePointTrie@?A0x12a9af39@icu_72@@QAE@IIAAW4UErrorCode@@@Z
C8440 167 ?allocDataBlock@MutableCodePointTrie@?A0x12a9af39@icu_72@@AAEHH@Z
C84D0 167 ?build@MutableCodePointTrie@?A0x12a9af39@icu_72@@QAEPAUUCPTrie@@W4UCPTrieType@@W4UCPTrieValueWidth@@AAW4UErrorCode@@@Z
C8880 167 ?clear@MutableCodePointTrie@?A0x12a9af39@icu_72@@AAEXXZ
C88C0 167 ?compactData@MutableCodePointTrie@?A0x12a9af39@icu_72@@AAEHHPAIHHAAVMixedBlocks@23@AAW4UErrorCode@@@Z
C8E60 167 ?compactIndex@MutableCodePointTrie@?A0x12a9af39@icu_72@@AAEHHAAVMixedBlocks@23@AAW4UErrorCode@@@Z
C98A0 167 ?compactTrie@MutableCodePointTrie@?A0x12a9af39@icu_72@@AAEHHAAW4UErrorCode@@@Z
C9B80 167 ?compactWholeDataBlocks@MutableCodePointTrie@?A0x12a9af39@icu_72@@AAEHHAAVAllSameBlocks@23@@Z
C9E30 167 ?ensureHighStart@MutableCodePointTrie@?A0x12a9af39@icu_72@@AAE_NH@Z
C9ED0 167 ?getDataBlock@MutableCodePointTrie@?A0x12a9af39@icu_72@@AAEHH@Z
C9FB0 167 ?init@MixedBlocks@?A0x12a9af39@icu_72@@QAE_NHH@Z
CA080 167 ?maskValues@MutableCodePointTrie@?A0x12a9af39@icu_72@@AAEXI@Z
CA0E0 167 ?set@MutableCodePointTrie@?A0x12a9af39@icu_72@@QAEXHIAAW4UErrorCode@@@Z
CA150 167 _umutablecptrie_buildImmutable_72
CA170 167 _umutablecptrie_close_72
CA1A0 167 _umutablecptrie_get_72
CA1F0 167 _umutablecptrie_open_72
CA280 167 _umutablecptrie_set_72
CA2A0 113 ?addPropertyStarts@EmojiProps@icu_72@@QBEXPBUUSetAdder@@AAW4UErrorCode@@@Z
CA300 113 ?addStrings@EmojiProps@icu_72@@QBEXPBUUSetAdder@@W4UProperty@@AAW4UErrorCode@@@Z
CA420 113 ?emojiprops_cleanup@?A0xd62d32b9@icu_72@@YACXZ
CA460 113 ?getSingleton@EmojiProps@icu_72@@SAPBV12@AAW4UErrorCode@@@Z
CA4C0 113 ?hasBinaryProperty@EmojiProps@icu_72@@SACHW4UProperty@@@Z
CA5A0 113 ?initSingleton@?A0xd62d32b9@icu_72@@YAXAAW4UErrorCode@@@Z
CA730 113 ?isAcceptable@EmojiProps@icu_72@@CACPAXPBD1PBUUDataInfo@@@Z
CA770 120 ??1Normalizer2Impl@icu_72@@UAE@XZ
CA7B0 120 ??_ENormalizer2Impl@icu_72@@UAEPAXI@Z
CA820 120 ?addCanonIterPropertyStarts@Normalizer2Impl@icu_72@@QBEXPBUUSetAdder@@AAW4UErrorCode@@@Z
CA8A0 120 ?addPropertyStarts@Normalizer2Impl@icu_72@@QBEXPBUUSetAdder@@AAW4UErrorCode@@@Z
CAA30 120 ?addToStartSet@CanonIterData@icu_72@@QAEXHHAAW4UErrorCode@@@Z
CABB0 120 ?append@ReorderingBuffer@icu_72@@QAECHEAAW4UErrorCode@@@Z
CAC70 120 ?append@ReorderingBuffer@icu_72@@QAECPB_SHCEEAAW4UErrorCode@@@Z
CAE30 120 ?appendBMP@ReorderingBuffer@icu_72@@QAEC_SEAAW4UErrorCode@@@Z
CAEB0 120 ?appendZeroCC@ReorderingBuffer@icu_72@@QAECPB_S0AAW4UErrorCode@@@Z
CAF10 120 ?codePointFromValidUTF8@?A0xa0d5b9d9@icu_72@@YAHPBE0@Z
CAF94 120 $LN10
CAFB0 120 ?combine@Normalizer2Impl@icu_72@@CAHPBGH@Z
CB080 120 ?compose@Normalizer2Impl@icu_72@@QBECPB_S0CCAAVReorderingBuffer@2@AAW4UErrorCode@@@Z
CBC40 120 ?composeAndAppend@Normalizer2Impl@icu_72@@QBEXPB_S0CCAAVUnicodeString@2@AAVReorderingBuffer@2@AAW4UErrorCode@@@Z
CBDF0 120 ?composePair@Normalizer2Impl@icu_72@@QBEHHH@Z
CBED0 120 ?composeQuickCheck@Normalizer2Impl@icu_72@@QBEPB_SPB_S0CPAW4UNormalizationCheckResult@@@Z
CC280 120 ?composeUTF8@Normalizer2Impl@icu_72@@QBECICPBE0PAVByteSink@2@PAVEdits@2@AAW4UErrorCode@@@Z
CCE90 120 ?decompose@Hangul@icu_72@@SAHHQA_S@Z
CCF10 120 ?decompose@Normalizer2Impl@icu_72@@ABECHGAAVReorderingBuffer@2@AAW4UErrorCode@@@Z
CD080 120 ?decompose@Normalizer2Impl@icu_72@@QBEPB_SPB_S0PAVReorderingBuffer@2@AAW4UErrorCode@@@Z
CD360 120 ?decomposeAndAppend@Normalizer2Impl@icu_72@@QBEXPB_S0CAAVUnicodeString@2@AAVReorderingBuffer@2@AAW4UErrorCode@@@Z
CD530 120 ?decomposeShort@Normalizer2Impl@icu_72@@ABEPBEPBE0W4StopAt@12@CAAVReorderingBuffer@2@AAW4UErrorCode@@@Z
CDB30 120 ?decomposeShort@Normalizer2Impl@icu_72@@ABEPB_SPB_S0CCAAVReorderingBuffer@2@AAW4UErrorCode@@@Z
CDC90 120 ?decomposeUTF8@Normalizer2Impl@icu_72@@QBEPBEIPBE0PAVByteSink@2@PAVEdits@2@AAW4UErrorCode@@@Z
CE1A0 120 ?ensureCanonIterData@Normalizer2Impl@icu_72@@QBECAAW4UErrorCode@@@Z
CE320 120 ?equals@ReorderingBuffer@icu_72@@QBECPBE0@Z
CE440 120 ?findNextCompBoundary@Normalizer2Impl@icu_72@@ABEPB_SPB_S0C@Z
CE550 120 ?findNextFCDBoundary@Normalizer2Impl@icu_72@@ABEPB_SPB_S0@Z
CE670 120 ?findPreviousCompBoundary@Normalizer2Impl@icu_72@@ABEPB_SPB_S0C@Z
CE790 120 ?findPreviousFCDBoundary@Normalizer2Impl@icu_72@@ABEPB_SPB_S0@Z
CE8C0 120 ?getDecomposition@Normalizer2Impl@icu_72@@QBEPB_SHQA_SAAH@Z
CE9A0 120 ?getFCD16@Normalizer2Impl@icu_72@@QBEGH@Z
CE9F0 120 ?getFCD16FromNormData@Normalizer2Impl@icu_72@@QBEGH@Z
CEAD0 120 ?getRawDecomposition@Normalizer2Impl@icu_72@@QBEPB_SHQA_SAAH@Z
CEC90 120 ?getRawNorm16@Normalizer2Impl@icu_72@@QBEGH@Z
CED10 120 ?hasCompBoundaryAfter@Normalizer2Impl@icu_72@@QBECHC@Z
CED60 120 ?hasCompBoundaryBefore@Normalizer2Impl@icu_72@@ABECPBE0@Z
CEEE0 120 ?hasCompBoundaryBefore@Normalizer2Impl@icu_72@@ABECPB_S0@Z
CEFA0 120 ?hasDecompBoundaryAfter@Normalizer2Impl@icu_72@@QBECH@Z
CF000 120 ?hasDecompBoundaryBefore@Normalizer2Impl@icu_72@@QBECH@Z
CF090 120 ?init@Normalizer2Impl@icu_72@@QAEXPBHPBUUCPTrie@@PBGPBE@Z
CF130 120 ?init@ReorderingBuffer@icu_72@@QAECHAAW4UErrorCode@@@Z
CF1D0 120 ?insert@ReorderingBuffer@icu_72@@AAEXHE@Z
CF290 120 ?isCanonSegmentStarter@Normalizer2Impl@icu_72@@QBECH@Z
CF2B0 120 ?makeCanonIterDataFromNorm16@Normalizer2Impl@icu_72@@ABEXHHGAAUCanonIterData@2@AAW4UErrorCode@@@Z
CF4E0 120 ?makeFCD@Normalizer2Impl@icu_72@@QBEPB_SPB_S0PAVReorderingBuffer@2@AAW4UErrorCode@@@Z
CF900 120 ?makeFCDAndAppend@Normalizer2Impl@icu_72@@QBEXPB_S0CAAVUnicodeString@2@AAVReorderingBuffer@2@AAW4UErrorCode@@@Z
CFA90 120 ?norm16HasDecompBoundaryAfter@Normalizer2Impl@icu_72@@QBECG@Z
CFB20 120 ?previousCC@ReorderingBuffer@icu_72@@AAEEXZ
CFB90 120 ?recompose@Normalizer2Impl@icu_72@@ABEXAAVReorderingBuffer@2@HC@Z
CFF60 120 ?removeSuffix@ReorderingBuffer@icu_72@@QAEXH@Z
CFFC0 120 ?resize@ReorderingBuffer@icu_72@@AAECHAAW4UErrorCode@@@Z
D0060 120 _segmentStarterMapper
D0070 119 ??1Norm2AllModes@icu_72@@QAE@XZ
D00C0 119 ??_EComposeNormalizer2@icu_72@@UAEPAXI@Z
D0100 119 ??_EDecomposeNormalizer2@icu_72@@UAEPAXI@Z
D0140 119 ??_ENoopNormalizer2@icu_72@@EAEPAXI@Z
D0180 119 ?append@NoopNormalizer2@icu_72@@EBEAAVUnicodeString@2@AAV32@ABV32@AAW4UErrorCode@@@Z
D01E0 119 ?append@Normalizer2WithImpl@icu_72@@UBEAAVUnicodeString@2@AAV32@ABV32@AAW4UErrorCode@@@Z
D0200 119 ?composePair@Normalizer2@icu_72@@UBEHHH@Z
D0210 119 ?composePair@Normalizer2WithImpl@icu_72@@UBEHHH@Z
D0220 119 ?createInstance@Norm2AllModes@icu_72@@SAPAU12@PAVNormalizer2Impl@2@AAW4UErrorCode@@@Z
D0290 119 ?getCombiningClass@Normalizer2@icu_72@@UBEEH@Z
D02A0 119 ?getCombiningClass@Normalizer2WithImpl@icu_72@@UBEEH@Z
D02F0 119 ?getDecomposition@NoopNormalizer2@icu_72@@EBECHAAVUnicodeString@2@@Z
D0300 119 ?getDecomposition@Normalizer2WithImpl@icu_72@@UBECHAAVUnicodeString@2@@Z
D03C0 119 ?getFCDInstance@Normalizer2Factory@icu_72@@SAPBVNormalizer2@2@AAW4UErrorCode@@@Z
D03E0 119 ?getNFCImpl@Normalizer2Factory@icu_72@@SAPBVNormalizer2Impl@2@AAW4UErrorCode@@@Z
D0400 119 ?getNFCInstance@Norm2AllModes@icu_72@@SAPBU12@AAW4UErrorCode@@@Z
D0540 119 ?getNFCInstance@Normalizer2@icu_72@@SAPBV12@AAW4UErrorCode@@@Z
D0560 119 ?getNFDInstance@Normalizer2@icu_72@@SAPBV12@AAW4UErrorCode@@@Z
D0580 119 ?getNoopInstance@Normalizer2Factory@icu_72@@SAPBVNormalizer2@2@AAW4UErrorCode@@@Z
D0620 119 ?getQuickCheck@ComposeNormalizer2@icu_72@@EBE?AW4UNormalizationCheckResult@@H@Z
D0660 119 ?getQuickCheck@DecomposeNormalizer2@icu_72@@EBE?AW4UNormalizationCheckResult@@H@Z
D0690 119 ?getQuickCheck@Normalizer2WithImpl@icu_72@@UBE?AW4UNormalizationCheckResult@@H@Z
D06A0 119 ?getRawDecomposition@Normalizer2WithImpl@icu_72@@UBECHAAVUnicodeString@2@@Z
D0760 119 ?hasBoundaryAfter@ComposeNormalizer2@icu_72@@EBECH@Z
D07C0 119 ?hasBoundaryAfter@DecomposeNormalizer2@icu_72@@EBECH@Z
D07D0 119 ?hasBoundaryAfter@NoopNormalizer2@icu_72@@EBECH@Z
D07E0 119 ?hasBoundaryBefore@ComposeNormalizer2@icu_72@@EBECH@Z
D0820 119 ?hasBoundaryBefore@DecomposeNormalizer2@icu_72@@EBECH@Z
D0830 119 ?isInert@ComposeNormalizer2@icu_72@@EBECH@Z
D0880 119 ?isInert@DecomposeNormalizer2@icu_72@@EBECH@Z
D08C0 119 ?isInert@FCDNormalizer2@icu_72@@EBECH@Z
D0920 119 ?isNormalized@ComposeNormalizer2@icu_72@@EBECABVUnicodeString@2@AAW4UErrorCode@@@Z
D0A40 119 ?isNormalized@NoopNormalizer2@icu_72@@EBECABVUnicodeString@2@AAW4UErrorCode@@@Z
D0A50 119 ?isNormalized@Normalizer2WithImpl@icu_72@@UBECABVUnicodeString@2@AAW4UErrorCode@@@Z
D0AC0 119 ?isNormalizedUTF8@ComposeNormalizer2@icu_72@@EBECVStringPiece@2@AAW4UErrorCode@@@Z
D0B00 119 ?isNormalizedUTF8@DecomposeNormalizer2@icu_72@@EBECVStringPiece@2@AAW4UErrorCode@@@Z
D0B40 119 ?isNormalizedUTF8@NoopNormalizer2@icu_72@@EBECVStringPiece@2@AAW4UErrorCode@@@Z
D0B50 119 ?isNormalizedUTF8@Normalizer2@icu_72@@UBECVStringPiece@2@AAW4UErrorCode@@@Z
D0C00 119 ?normalize@ComposeNormalizer2@icu_72@@EBEXPB_S0AAVReorderingBuffer@2@AAW4UErrorCode@@@Z
D0C30 119 ?normalize@DecomposeNormalizer2@icu_72@@EBEXPB_S0AAVReorderingBuffer@2@AAW4UErrorCode@@@Z
D0C40 119 ?normalize@FCDNormalizer2@icu_72@@EBEXPB_S0AAVReorderingBuffer@2@AAW4UErrorCode@@@Z
D0C50 119 ?normalize@NoopNormalizer2@icu_72@@EBEAAVUnicodeString@2@ABV32@AAV32@AAW4UErrorCode@@@Z
D0C90 119 ?normalize@Normalizer2WithImpl@icu_72@@UBEAAVUnicodeString@2@ABV32@AAV32@AAW4UErrorCode@@@Z
D0DD0 119 ?normalizeAndAppend@ComposeNormalizer2@icu_72@@EBEXPB_S0CAAVUnicodeString@2@AAVReorderingBuffer@2@AAW4UErrorCode@@@Z
D0E00 119 ?normalizeAndAppend@DecomposeNormalizer2@icu_72@@EBEXPB_S0CAAVUnicodeString@2@AAVReorderingBuffer@2@AAW4UErrorCode@@@Z
D0E10 119 ?normalizeAndAppend@FCDNormalizer2@icu_72@@EBEXPB_S0CAAVUnicodeString@2@AAVReorderingBuffer@2@AAW4UErrorCode@@@Z
D0E20 119 ?normalizeSecondAndAppend@Normalizer2WithImpl@icu_72@@QBEAAVUnicodeString@2@AAV32@ABV32@CAAW4UErrorCode@@@Z
D0FC0 119 ?normalizeSecondAndAppend@Normalizer2WithImpl@icu_72@@UBEAAVUnicodeString@2@AAV32@ABV32@AAW4UErrorCode@@@Z
D0FE0 119 ?normalizeUTF8@ComposeNormalizer2@icu_72@@EBEXIVStringPiece@2@AAVByteSink@2@PAVEdits@2@AAW4UErrorCode@@@Z
D1040 119 ?normalizeUTF8@DecomposeNormalizer2@icu_72@@EBEXIVStringPiece@2@AAVByteSink@2@PAVEdits@2@AAW4UErrorCode@@@Z
D10A0 119 ?normalizeUTF8@NoopNormalizer2@icu_72@@EBEXIVStringPiece@2@AAVByteSink@2@PAVEdits@2@AAW4UErrorCode@@@Z
D1100 119 ?normalizeUTF8@Normalizer2@icu_72@@UBEXIVStringPiece@2@AAVByteSink@2@PAVEdits@2@AAW4UErrorCode@@@Z
D11E0 119 ?quickCheck@ComposeNormalizer2@icu_72@@EBE?AW4UNormalizationCheckResult@@ABVUnicodeString@2@AAW4UErrorCode@@@Z
D1260 119 ?quickCheck@NoopNormalizer2@icu_72@@EBE?AW4UNormalizationCheckResult@@ABVUnicodeString@2@AAW4UErrorCode@@@Z
D1270 119 ?quickCheck@Normalizer2WithImpl@icu_72@@UBE?AW4UNormalizationCheckResult@@ABVUnicodeString@2@AAW4UErrorCode@@@Z
D12E0 119 ?spanQuickCheckYes@ComposeNormalizer2@icu_72@@EBEPB_SPB_S0AAW4UErrorCode@@@Z
D1300 119 ?spanQuickCheckYes@DecomposeNormalizer2@icu_72@@EBEPB_SPB_S0AAW4UErrorCode@@@Z
D1320 119 ?spanQuickCheckYes@FCDNormalizer2@icu_72@@EBEPB_SPB_S0AAW4UErrorCode@@@Z
D1340 119 ?spanQuickCheckYes@NoopNormalizer2@icu_72@@EBEHABVUnicodeString@2@AAW4UErrorCode@@@Z
D1360 119 ?spanQuickCheckYes@Normalizer2WithImpl@icu_72@@UBEHABVUnicodeString@2@AAW4UErrorCode@@@Z
D13D0 119 _u_getCombiningClass_72
D1410 119 _unorm_getFCD16_72
D1480 119 _uprv_normalizer2_cleanup
D1520 114 ??_ELoadedNormalizer2Impl@icu_72@@UAEPAXI@Z
D1570 114 ?createInstance@Norm2AllModes@icu_72@@SAPAU12@PBD0AAW4UErrorCode@@@Z
D1670 114 ?getInstance@Normalizer2Factory@icu_72@@SAPBVNormalizer2@2@W4UNormalizationMode@@AAW4UErrorCode@@@Z
D16E0 114 $LN22
D1700 114 ?getNFKCImpl@Normalizer2Factory@icu_72@@SAPBVNormalizer2Impl@2@AAW4UErrorCode@@@Z
D1720 114 ?getNFKCInstance@Norm2AllModes@icu_72@@SAPBU12@AAW4UErrorCode@@@Z
D1790 114 ?getNFKC_CFImpl@Normalizer2Factory@icu_72@@SAPBVNormalizer2Impl@2@AAW4UErrorCode@@@Z
D17B0 114 ?getNFKC_CFInstance@Norm2AllModes@icu_72@@SAPBU12@AAW4UErrorCode@@@Z
D1820 114 ?initSingletons@icu_72@@YAXPBDAAW4UErrorCode@@@Z
D18D0 114 ?isAcceptable@LoadedNormalizer2Impl@icu_72@@CACPAXPBD1PBUUDataInfo@@@Z
D1910 114 _unorm_getQuickCheck_72
D1A60 114 $LN90
D1A80 114 _uprv_loaded_normalizer2_cleanup
D1B00 129 _u_charDirection_72
D1BB0 129 _ubidi_addPropertyStarts_72
D1C70 129 _ubidi_getJoiningGroup_72
D1CB0 129 _ubidi_getJoiningType_72
D1D60 129 _ubidi_getMaxValue_72
D1D98 129 $LN11
D1DAC 129 $LN10
D1DD0 129 _ubidi_getPairedBracketType_72
D1E80 129 _ubidi_isBidiControl_72
D1F30 129 _ubidi_isJoinControl_72
D1FE0 129 _ubidi_isMirrored_72
D2090 106 ?branchNext@BytesTrie@icu_72@@AAE?AW4UStringTrieResult@@PBEHH@Z
D2240 106 ?jumpByDelta@BytesTrie@icu_72@@CAPBEPBE@Z
D22D0 106 ?next@BytesTrie@icu_72@@QAE?AW4UStringTrieResult@@H@Z
D23B0 106 ?readValue@BytesTrie@icu_72@@CAHPBEH@Z
D2420 139 _ucnv_cbFromUWriteBytes_72
D2460 139 _ucnv_cbFromUWriteSub_72
D25E0 139 _ucnv_cbToUWriteSub_72
D2650 140 _ucnv_fromUWriteBytes_72
D26F0 140 _ucnv_getCompleteUnicodeSet_72
D2710 140 _ucnv_getNonSurrogateUnicodeSet_72
D2740 140 _ucnv_toUWriteCodePoint_72
D2820 140 _ucnv_toUWriteUChars_72
D28D0 143 ?extFromUUseMapping@@YACCIH@Z
D2910 143 ?ucnv_extGetUnicodeSetString@@YAXPBUUConverterSharedData@@PBHPBUUSetAdder@@W4UConverterUnicodeSet@@HHQA_SHHPAW4UErrorCode@@@Z
D2A60 143 ?ucnv_extMatchFromU@@YAHPBHHPB_SH1HPAICC@Z
D2CB0 143 ?ucnv_extMatchToU@@YAHPBHCPBDH1HPAICC@Z
D2ED0 143 ?ucnv_extWriteFromU@@YAXPAUUConverter@@PBHIPAPADPBDPAPAHHPAW4UErrorCode@@@Z
D2FD0 143 _ucnv_extContinueMatchFromU_72
D3120 143 _ucnv_extContinueMatchToU_72
D32D0 143 _ucnv_extGetUnicodeSet_72
D354C 143 $LN64
D3560 143 _ucnv_extInitialMatchFromU_72
D3660 143 _ucnv_extInitialMatchToU_72
D37B0 143 _ucnv_extSimpleMatchFromU_72
D3810 143 _ucnv_extSimpleMatchToU_72
D3870 165 _uprv_mapFile_72
D3920 165 _uprv_unmapFile_72
D3960 135 _offsetTOCEntryCount
D3980 135 _offsetTOCLookupFn
D3AF0 135 _pointerTOCLookupFn
D3C40 135 ?strcmpAfterPrefix@@YAHPBD0PAH@Z
D3C90 135 _udata_checkCommonData_72
D3D90 135 _udata_getHeaderSize_72
D3DB0 135 _udata_getInfoSize_72
D3DD0 183 ?_res_findTable32Item@@YAHPBUResourceData@@PBHHPBDPAPBD@Z
D3E60 183 ?_res_findTableItem@@YAHPBUResourceData@@PBGHPBDPAPBD@Z
D3EF0 183 ?isAcceptable@@YACPAXPBD1PBUUDataInfo@@@Z
D3F40 183 ?makeResourceFrom16@@YAIPBUResourceData@@H@Z
D3F60 183 ?res_init@@YAXPAUResourceData@@QAEPBXHPAW4UErrorCode@@@Z
D40C0 183 _res_countArrayItems_72
D4118 183 $LN22
D412C 183 $LN21
D4140 183 _res_findResource_72
D4310 183 _res_getAlias_72
D4360 183 _res_getArrayItem_72
D43E0 183 _res_getResource_72
D4410 183 _res_getStringNoTrace_72
D44E0 183 _res_getTableItemByIndex_72
D4630 183 _res_getTableItemByKey_72
D4740 183 _res_load_72
D47A0 183 _res_unload_72
D47C0 133 ??0Iterator@UCharsTrie@icu_72@@QAE@VConstChar16Ptr@2@HAAW4UErrorCode@@@Z
D4890 133 ??1Iterator@UCharsTrie@icu_72@@QAE@XZ
D48B0 133 ?branchNext@Iterator@UCharsTrie@icu_72@@AAEPB_SPB_SHAAW4UErrorCode@@@Z
D4B30 133 ?ensureCapacity@UVector32@icu_72@@QAECHAAW4UErrorCode@@@Z
D4B50 133 ?next@Iterator@UCharsTrie@icu_72@@QAECAAW4UErrorCode@@@Z
D4DE0 197 ??0UVector32@icu_72@@QAE@AAW4UErrorCode@@@Z
D4E40 197 ??_EUVector32@icu_72@@UAEPAXI@Z
D4E90 197 ?expandCapacity@UVector32@icu_72@@QAECHAAW4UErrorCode@@@Z
D4F30 197 ?getDynamicClassID@UVector32@icu_72@@UBEPAXXZ
D4F40 197 ?setSize@UVector32@icu_72@@QAEXH@Z
D4F90 518 _unz64local_CheckCurrentFileCoherencyHeader
D51D0 518 _unz64local_GetCurrentFileInfoInternal
D5820 518 _unz64local_SearchCentralDir64
D5AB0 518 _unz64local_getLong
D5B20 518 _unz64local_getLong64
D5C30 518 _unz64local_getShort
D5C90 518 _unzClose
D5CD0 518 _unzCloseCurrentFile
D5D60 518 _unzGetCurrentFileInfo
D5E20 518 _unzGoToFirstFile
D5E80 518 _unzLocateFile
D61B0 518 _unzOpen2
D6200 518 _unzOpenCurrentFile
D6220 518 _unzOpenCurrentFile3
D6660 518 _unzOpenInternal
D6C80 518 _unzReadCurrentFile
D6FE0 517 _call_zopen64
D7000 517 _call_zseek64
D7050 517 _call_ztell64
D7090 517 _fclose_file_func
D70A0 517 _ferror_file_func
D70B0 517 _fill_fopen64_filefunc
D70F0 517 _fill_zlib_filefunc64_32_def_from_filefunc32
D7140 517 _fopen64_file_func
D7190 517 _fread_file_func
D71B0 517 _fseek64_file_func
D7200 517 _ftell64_file_func
D7210 517 _fwrite_file_func
D7230 526 _inflate
D8A68 526 $LN824
D8AE8 526 $LN825
D8B00 526 _inflateEnd
D8B70 526 _inflateInit2_
D8CD0 526 _inflateReset
D8E00 526 _updatewindow
D8EF0 524 _crc32
D8F00 524 _crc32_z
D9320 524 _get_crc_table
D9330 523 _adler32
D9340 523 _adler32_z
D95B0 528 _zcalloc
D95D0 528 _zcfree
D95E0 527 _inflate_table
D9B60 525 _inflate_fast
D9F92 199 _GetModuleHandleA@4
D9F98 199 _GetModuleFileNameA@12
D9F9E 229 ??0bad_alloc@std@@QAE@XZ
D9FB6 229 ??0length_error@std@@QAE@ABV01@@Z
D9FD1 229 ??0length_error@std@@QAE@PBD@Z
D9FF0 229 ??0out_of_range@std@@QAE@ABV01@@Z
DA00B 229 ??0out_of_range@std@@QAE@PBD@Z
DA02A 229 ??0regex_error@std@@QAE@ABV01@@Z
DA04E 229 ??0regex_error@std@@QAE@W4error_type@regex_constants@1@@Z
DA07C 229 ??0runtime_error@std@@QAE@PBD@Z
DA09B 473 ??_E__non_rtti_object@std@@UAEPAXI@Z
DA0C8 229 ??_Eregex_error@std@@UAEPAXI@Z
DA0F5 229 ?_Stringify@regex_error@std@@CAPBDW4error_type@regex_constants@2@@Z
DA179 229 $LN21
DA1B5 229 ?_Xbad_alloc@std@@YAXXZ
DA1D2 229 ?_Xinvalid_argument@std@@YAXPBD@Z
DA1F2 229 ?_Xlength_error@std@@YAXPBD@Z
DA212 229 ?_Xout_of_range@std@@YAXPBD@Z
DA232 229 ?_Xregex_error@std@@YAXW4error_type@regex_constants@1@@Z
DA252 229 ?_Xruntime_error@std@@YAXPBD@Z
DA272 222 ??0_Init_locks@std@@QAE@XZ
DA29F 222 ??0_Lockit@std@@QAE@H@Z
DA2D0 222 ??1_Init_locks@std@@QAE@XZ
DA2F7 222 ??1_Lockit@std@@QAE@XZ
DA316 211 ??0_Locimp@locale@std@@AAE@_N@Z
DA357 211 ??1_Fac_node@std@@QAE@XZ
DA388 211 ??1_Fac_tidy_reg_t@std@@QAE@XZ
DA3AC 211 ??1_Locimp@locale@std@@MAE@XZ
DA3D7 211 ??4?$_Yarn@D@std@@QAEAAV01@PBD@Z
DA42B 211 ??_E_Locimp@locale@std@@MAEPAXI@Z
DA44D 211 ?_Facet_Register@std@@YAXPAV_Facet_base@1@@Z
DA47A 211 ?_Getgloballocale@locale@std@@CAPAV_Locimp@12@XZ
DA480 211 ?_Init@locale@std@@CAPAV_Locimp@12@_N@Z
DA50D 211 ?_Locimp_dtor@_Locimp@locale@std@@CAXPAV123@@Z
DA57E 211 ?_Locinfo_ctor@_Locinfo@std@@SAXPAV12@PBD@Z
DA5CA 211 ?_Locinfo_dtor@_Locinfo@std@@SAXPAV12@@Z
DA5E4 211 ?_New_Locimp@_Locimp@locale@std@@CAPAV123@_N@Z
DA607 211 ?_Setgloballocale@locale@std@@CAXPAX@Z
DA62F 211 __Deletegloballocale
DA66A 211 _tidy_global
DA694 217 ?uncaught_exception@std@@YA_NXZ
DA699 208 ?_Addstd@ios_base@std@@SAXPAV12@@Z
DA6E5 208 ?_Callfns@ios_base@std@@AAEXW4event@12@@Z
DA718 208 ?_Ios_base_dtor@ios_base@std@@CAXPAV12@@Z
DA758 208 ?_Tidy@ios_base@std@@AAEXXZ
DA7D3 214 ?_Syserror_map@std@@YAPBDH@Z
DA7F8 214 ?_Winerror_map@std@@YAHH@Z
DA81A 202 __Getctype
DA885 202 __Tolower
DA974 231 __Getcvt
DA9E7 203 __Toupper
DAAD6 207 ??$_Xfiopen@D@?A0x6dc13635@@YAPAU_iobuf@@PBDHH@Z
DAB5B 207 ??$_Xfiopen@_W@?A0x6dc13635@@YAPAU_iobuf@@PB_WHH@Z
DABE0 207 ?_Fiopen@std@@YAPAU_iobuf@@PBDHH@Z
DABE9 207 ?_Fiopen@std@@YAPAU_iobuf@@PB_WHH@Z
DAC00 218 ??$__std_find_trivial_impl@U_Find_traits_2@?A0x8417fefe@@G@?A0x8417fefe@@YGPBXPBX0G@Z
DAD20 218 ___std_find_trivial_2@12
DAD29 215 ___std_get_string_size_without_trailing_whitespace@8
DAD4D 215 ___std_system_error_allocate_message@8
DAD9B 215 ___std_system_error_deallocate_message@4
DADA1 227 __Getcoll
DADC2 227 __Strcoll
DAE51 228 __Strxfrm
DAEFB 206 ___std_fs_close_handle@4
DAF1B 206 ___std_fs_code_page@0
DAF38 206 ___std_fs_convert_wide_to_narrow_replace_chars@20
DAFA7 206 ___std_fs_directory_iterator_advance@8
DAFC8 206 ___std_fs_directory_iterator_close@4
DAFE8 206 ___std_fs_directory_iterator_open@12
DB01F 206 ___std_fs_get_stats@16
DB28B 206 ___std_fs_open_handle@16
DB2BF 206 ___std_fs_read_name_from_reparse_data_buffer@12
DB34A 206 ___std_fs_read_reparse_data_buffer@12
DB37D 212 __Mtx_lock
DB38E 212 __Mtx_unlock
DB3AD 212 _mtx_do_lock
DB4D9 205 ?_Primitive_wait@@YAXQAU_Cnd_internal_imp_t@@QAU_Mtx_internal_imp_t@@@Z
DB4F6 205 ?_Primitive_wait_for@@YA_NQAU_Cnd_internal_imp_t@@QAU_Mtx_internal_imp_t@@I@Z
DB519 205 __Cnd_broadcast
DB52D 205 __Cnd_wait
DB552 205 __Mtx_reset_owner
DB566 216 ??0system_error@std@@QAE@HABVerror_category@1@PBD@Z
DB5B3 216 ?_Throw_Cpp_error@std@@YAXH@Z
DB5E8 224 ___std_init_once_link_alternate_names_and_abort@0
DB5ED 223 __Mtxdst
DB5FB 223 __Mtxinit
DB610 223 __Mtxlock
DB61E 223 __Mtxunlock
DB62C 209 ??1_Init_atexit@@QAE@XZ
DB694 209 ?_Atexit@@YAXP6AXXZ@Z
DB6C3 201 ??1?$__crt_scoped_stack_ptr@_W@@QAE@XZ
DB6DC 201 ___crtLCMapStringA
DB8A6 201 __freea_crt
DB8C4 200 ___crtCompareStringA
DBB33 230 __Timespec64_get_sys
DBB71 230 __Xtime_get_ticks
DBB98 219 ?initialize_pointers@@YAHXZ
DBBCC 219 ___crtGetSystemTimePreciseAsFileTime
DBC21 40 ??2@YAPAXI@Z
DBC51 17 ??3@YAXPAXI@Z
DBC5F 45 ??_Etype_info@@UAEPAXI@Z
DBC82 14 ??_V@YAXPAX@Z
DBC87 38 ??_U@YAPAXI@Z
DBC90 15 ??_V@YAXPAXI@Z
DBC9E 55 ?find_pe_section@@YAPAU_IMAGE_SECTION_HEADER@@QAEI@Z
DBCE0 55 ___scrt_acquire_startup_lock
DBD12 55 ___scrt_dllmain_after_initialize_c
DBD3D 55 ___scrt_dllmain_before_initialize_c
DBD4B 55 ___scrt_dllmain_crt_thread_attach
DBD6A 55 ___scrt_dllmain_crt_thread_detach
DBD77 55 ___scrt_dllmain_exception_filter
DBDAB 55 ___scrt_dllmain_uninitialize_c
DBDCE 55 ___scrt_dllmain_uninitialize_critical
DBDDB 55 ___scrt_initialize_crt
DBE14 55 ___scrt_initialize_onexit_tables
DBE9B 55 ___scrt_is_nonwritable_in_current_image
DBF2F 55 ___scrt_release_startup_lock
DBF4C 55 ___scrt_uninitialize_crt
DBF74 55 __onexit
DBFA2 55 _atexit
DBFB7 18 ?dllmain_crt_dispatch@@YGHQAUHINSTANCE__@@KQAX@Z
DC00A 18 ?dllmain_crt_process_attach@@YAHQAUHINSTANCE__@@QAX@Z
DC111 18 ?dllmain_crt_process_detach@@YAH_N@Z
DC1BF 18 ?dllmain_dispatch@@YAHQAUHINSTANCE__@@KQAX@Z
DC2CA 18 ?dllmain_raw@@YGHQAUHINSTANCE__@@KQAX@Z
DC2F5 18 __DllMainCRTStartup@12
DC318 43 @__security_check_cookie@4
DC326 46 __Init_thread_abort
DC351 46 __Init_thread_footer
DC3A2 46 __Init_thread_header
DC3F1 46 __Init_thread_wait_v2
DC410 25 __ftol3
DC42F 25 _ftol3_default
DC443 25 _ftol3_notsafe
DC463 25 _ftol3_mincheck
DC469 25 _ftol3_NaN
DC471 25 _ftol3_retmin
DC479 27 ___raise_securityfailure
DC4A1 27 ___report_gsfailure
DC59C 27 ___report_rangecheckfailure
DC5A9 27 ___report_securityfailure
DC679 39 ??_U@YAPAXIABUnothrow_t@std@@@Z
DC682 22 ??_L@YGXPAXIIP6EX0@Z1@Z
DC6F6 23 ??_M@YGXPAXIIP6EX0@Z@Z
DC77B 23 ?__ArrayUnwind@@YGXPAXIIP6EX0@Z@Z
DC810 11 __alloca_probe
DC824 11 cs10
DC832 11 cs20
DC840 54 __aullshr
DC850 54 MORE32
DC85A 54 RETZERO
DC860 32 __alldiv
DC881 32 L1
DC89D 32 L2
DC8B9 32 L3
DC8C7 32 L5
DC8F5 32 L6
DC8F6 32 L7
DC8FA 32 L4
DC904 32 L8
DC910 52 __aulldvrm
DC941 52 L1
DC94F 52 L3
DC97D 52 L4
DC986 52 L5
DC988 52 L2
DC9B0 21 __EH_epilog3
DC9C4 21 __EH_epilog3_GS
DC9D3 21 __EH_prolog3
DCA06 21 __EH_prolog3_GS
DCA3C 21 __EH_prolog3_catch
DCA72 12 ___isa_available_init
DCDA0 9 __alloca_probe_16
DCDB6 9 __alloca_probe_8
DCDD0 51 __aulldiv
DCDF2 51 L1
DCE00 51 L3
DCE2E 51 L4
DCE2F 51 L5
DCE33 51 L2
DCE40 53 __aullrem
DCE61 53 L1
DCE6F 53 L3
DCE9A 53 L4
DCEA2 53 L5
DCEB1 53 L2
DCEC0 34 __allmul
DCED9 34 hard
DCEF4 47 ?__scrt_throw_std_bad_array_new_length@@YAXXZ
DCF11 16 ??3@YAXPAX@Z
DCF16 10 __get_startup_argv_mode
DCF1A 50 ___scrt_is_ucrt_dll_in_use
DCF26 56 ___scrt_fastfail
DD03B 56 __crt_debugger_hook
DD050 44 __SEH_prolog4
DD095 28 ___get_entropy
DD0E2 28 ___security_init_cookie
DD12D 19 _DllMain@12
DD133 49 ?__scrt_initialize_type_info@@YAXXZ
DD13F 49 ?__scrt_uninitialize_type_info@@YAXXZ
DD14B 13 ___scrt_initialize_default_local_stdio_options
DD168 20 ___scrt_get_dyn_tls_init_callback
DD16E 31 __RTC_Initialize
DD19A 31 __RTC_Terminate
DD1C6 41 ??2@YAPAXIABUnothrow_t@std@@@Z
DD1FE 41 __catch$??2@YAPAXIABUnothrow_t@std@@@Z$0
DD21B 480 ?GetRangeOfTrysToCheck@__FrameHandler3@@SA?AU?$pair@Viterator@TryBlockMap@__FrameHandler3@@V123@@std@@AAVTryBlockMap@1@HPAXPBU_s_FuncInfo@@H@Z
DD28A 480 ?_CallCatchBlock2@@YAPAXPAUEHRegistrationNode@@PBU_s_FuncInfo@@PAXHK@Z
DD2E7 480 ?_CallSETranslator@@YAHPAUEHExceptionRecord@@PAUEHRegistrationNode@@PAX2PBU_s_FuncInfo@@H1@Z
DD3D7 480 ?_JumpToContinuation@@YGXPAXPAUEHRegistrationNode@@@Z
DD407 480 ?_UnwindNestedFrames@@YGXPAUEHRegistrationNode@@PAUEHExceptionRecord@@@Z
DD45B 480 __CatchGuardHandler
DD48C 480 __CreateFrameInfo
DD4B0 480 __FindAndUnlinkFrame
DD4F8 480 __TranslatorGuardHandler
DD597 480 ___CxxFrameHandler3
DD5CD 474 ___std_exception_copy
DD630 474 ___std_exception_destroy
DD64F 471 __get_purecall_handler
DD656 471 __purecall
DD672 458 ___DestructExceptionObject
DD713 458 ?_CallMemberFunction0@@YGXQAX0@Z
DD720 458 ?_FilterSetCurrentException@@YAKPAU_EXCEPTION_POINTERS@@E@Z
DD778 458 __IsExceptionObjectToBeDestroyed
DD79E 458 ___AdjustPointer
DD7C3 458 ___FrameUnwindFilter
DD819 458 ___current_exception
DD822 458 ___current_exception_context
DD82B 458 ___std_terminate
DD830 479 __CxxThrowException@8
DD8A0 468 _memcpy
DD8C0 468 CopyUp
DD8E4 468 CopyUpLargeMov
DD8F7 468 CopyUpSSE2Check
DD910 468 AtomChk
DD936 468 PalignHead4
DD949 468 PalignHead8
DD960 468 PalignLoop
DD972 468 MovPalign12
DD97C 468 PalignLoop12
DD9CD 468 MovPalign8
DD9D8 468 PalignLoop8
DDA26 468 MovPalign4
DDA30 468 PalignLoop4
DDA7C 468 PalignTail
DDA94 468 PalignTail4
DDAA7 468 PalignTail8
DDABE 468 PalignTailLE3
DDAC7 468 Dword_align
DDACF 468 Dword_up_align_loop
DDAE2 468 Dword_align_Ok
DDAFC 468 ByteCopyUp
DDB04 468 TrailingUpVec
DDB14 468 TrailingUp0
DDB1C 468 TrailingUp1
DDB28 468 TrailingUp2
DDB3C 468 TrailingUp3
DDB54 468 CopyDown
DDB79 468 CopyDownNotAligned
DDB80 468 CopyDownAlignLoop
DDB8D 468 CopyDownAligned
DDBB0 468 TrailingDownVec
DDBC0 468 TrailingDown0
DDBC8 468 TrailingDown1
DDBD8 468 TrailingDown2
DDBEC 468 TrailingDown3
DDC05 468 XmmMovLargeAlignTest
DDC0D 468 XmmMovAlignLoop
DDC1C 468 XmmMovLargeLoop
DDC8C 468 XmmMovSmallTest
DDC91 468 XmmMovSmallLoop
DDCB4 468 CopyDownSmall
DDCBC 468 CopyDownDwordLoop
DDCD1 468 CopyDownByteTest
DDCD5 468 CopyDownByteLoop
DDCE4 468 CopyDownReturn
DDCF0 468 XmmCopy
DDCFD 468 XmmCopyAligned
DDD10 468 XmmCopyLargeLoop
DDD6D 468 XmmCopySmallTest
DDD80 468 XmmCopySmallLoop
DDD9B 468 CopyUpDwordMov
DDDA0 468 CopyUpDwordTest
DDDA7 468 CopyUpDwordLoop
DDDB6 468 CopyUpByteTest
DDDBD 468 CopyUpByteLoop
DDDD0 468 CopyUpReturn
DDDE0 468 XmmCopyUnaligned
DDDF3 468 XmmAlignByte
DDDFC 468 XmmAlignDwordTest
DDE01 468 XmmAlignDwordLoop
DDE0E 468 XmmAlignAdjustCnt
DDE20 469 _memset
DDE65 469 XMMMov
DDEA0 469 LargeRangeBytes
DDEDD 469 XmmMovSmall
DDEF0 469 XmmSmallLoop
DDEF5 469 MidRangeBytes
DDF11 469 XMMTrailingBytes
DDF25 469 SmallMov
DDF2D 469 ByteLoop
DDF3B 469 DwordTest
DDF4B 469 QwordTest
DDF60 469 QwordLoop
DDF73 469 toend
DDF7A 473 ??0__non_rtti_object@std@@QAE@ABV01@@Z
DDF95 473 ??0bad_typeid@std@@QAE@ABV01@@Z
DDFB0 473 ?FindMITargetTypeInstance@@YAPBU_s_RTTIBaseClassDescriptor@@PAXPBU_s_RTTICompleteObjectLocator@@PAUTypeDescriptor@@H2@Z
DE099 473 ?FindSITargetTypeInstance@@YAPBU_s_RTTIBaseClassDescriptor@@PBU_s_RTTICompleteObjectLocator@@PAUTypeDescriptor@@1@Z
DE182 473 ?FindVITargetTypeInstance@@YAPBU_s_RTTIBaseClassDescriptor@@PAXPBU_s_RTTICompleteObjectLocator@@PAUTypeDescriptor@@H2@Z
DE2E1 473 ?PMDtoOffset@@YAHPAXABUPMD@@@Z
DE305 473 ?TypeidsEqual@@YA_NQBUTypeDescriptor@@0@Z
DE34B 473 ?__construct_from_string_literal@__non_rtti_object@std@@SA?AV12@QBD@Z
DE367 473 ?__construct_from_string_literal@bad_cast@std@@SA?AV12@QBD@Z
DE383 473 ?__construct_from_string_literal@bad_typeid@std@@SA?AV12@QBD@Z
DE39F 473 ___RTDynamicCast
DE492 473 ___RTtypeid
DE520 476 _strchr
DE553 476 strchr_sse_loop
DE577 476 strchr_sse_break
DE588 476 strchr_no_sse2
DE58E 476 ___from_strstr_to_strchr
DE5A0 476 str_misaligned
DE5B5 476 main_loop_start
DE5C0 476 main_loop
DE5FC 476 retnull
DE5FE 476 retnull_bx
DE602 476 found_bx
DE607 476 chr_is_found
DE62F 476 byte_3
DE636 476 byte_2
DE63D 476 byte_1
DE644 476 byte_0
DE650 478 _strstr
DE693 478 strstr_sse_safeloop
DE6BA 478 strstr_sse_search
DE6BE 478 strstr_sse_srchloop
DE6F4 478 strstr_sse_srchchar
DE70B 478 strstr_sse_cmploop
DE746 478 strstr_sse_cmpchars
DE74D 478 strstr_sse_cmpunsafe
DE764 478 strstr_sse_match
DE769 478 strstr_sse_not_found
DE76B 478 strstr_sse_exit
DE76F 478 strstr_sttni
DE78B 478 strstr_sttni_setchars
DE790 478 strstr_sttni_setloopchar
DE796 478 strstr_sttni_setloopnochar
DE7AA 478 strstr_sttni_srchnext
DE7AD 478 strstr_sttni_srch
DE7B1 478 strstr_sttni_srchloop
DE7D0 478 strstr_sttni_srchxmm
DE7E3 478 strstr_sttni_srchcheck
DE7E7 478 strstr_sttni_cmploop
DE81F 478 strstr_sttni_cmpchar
DE83A 478 strstr_no_sse
DE84D 478 findnext
DE860 478 loop_start
DE865 478 in_loop
DE86D 478 not_found
DE873 478 first_char_found
DE87C 478 two_first_chars_equal
DE87F 478 compare_loop
DE8A2 478 strchr_call
DE8AE 478 match
DE8B5 478 empty_str2
DE8C0 477 _strrchr
DE8FD 477 strrchr_sse_loop
DE92D 477 strrchr_sse_break
DE94D 477 strrchr_sttni
DE95F 477 strrchr_sttni_chars
DE974 477 strrchr_sttni_aligned
DE978 477 strrchr_sttni_xmm
DE98B 477 exit
DE98E 477 strrchr_zero
DE9B3 477 strchr_zero_loop
DE9C7 477 strchr_zero_result
DE9CE 477 strrchr_no_sse
DE9F1 477 returndi
DE9F3 477 toend
DE9F7 475 ___std_type_info_compare
DEA33 475 ___std_type_info_destroy_list
DEA56 481 ___uncaught_exception
DEA6A 467 _memcmp
DFDAE 467 $LN1250
DFE2E 463 ___vcrt_initialize
DFE4D 463 ___vcrt_thread_attach
DFE58 463 ___vcrt_thread_detach
DFE60 463 ___vcrt_uninitialize
DFE77 463 ___vcrt_uninitialize_critical
DFE80 457 _ValidateLocalCookies
DFEC0 457 __except_handler4
E001E 470 ___vcrt_freefls@4
E003A 470 ___vcrt_freeptd_for_this_thread
E0065 470 ___vcrt_getptd
E0073 470 ___vcrt_getptd_noexit
E0105 470 ___vcrt_getptd_noinit
E013D 470 ___vcrt_initialize_ptd
E0170 470 ___vcrt_uninitialize_ptd
E018B 462 ??$BuildCatchObjectHelperInternal@V__FrameHandler3@@@@YAHPAUEHExceptionRecord@@PAXPBU_s_HandlerType@@PBU_s_CatchableType@@@Z
E02C9 462 ??$BuildCatchObjectInternal@V__FrameHandler3@@@@YAXPAUEHExceptionRecord@@PAXPBU_s_HandlerType@@PBU_s_CatchableType@@@Z
E0362 462 ??$CatchIt@V__FrameHandler3@@@@YAXPAUEHExceptionRecord@@PAUEHRegistrationNode@@PAU_CONTEXT@@PAXPBU_s_FuncInfo@@PBU_s_HandlerType@@PBU_s_CatchableType@@PBU_s_TryBlockMapEntry@@H1EE@Z
E03E3 462 ??$FindHandler@V__FrameHandler3@@@@YAXPAUEHExceptionRecord@@PAUEHRegistrationNode@@PAU_CONTEXT@@PAXPBU_s_FuncInfo@@EH1@Z
E0786 462 ??$FindHandlerForForeignException@V__FrameHandler3@@@@YAXPAUEHExceptionRecord@@PAUEHRegistrationNode@@PAU_CONTEXT@@PAXPBU_s_FuncInfo@@HH1@Z
E08BC 462 ??$TypeMatchHelper@V__FrameHandler3@@@@YAHPBU_s_HandlerType@@PBU_s_CatchableType@@PBU_s_ThrowInfo@@@Z
E094A 462 ??$__InternalCxxFrameHandler@V__FrameHandler3@@@@YA?AW4_EXCEPTION_DISPOSITION@@PAUEHExceptionRecord@@PAUEHRegistrationNode@@PAU_CONTEXT@@PAXPBU_s_FuncInfo@@H1E@Z
E0A4C 462 ??$__InternalCxxFrameHandlerWrapper@V__FrameHandler3@@@@YA?AW4_EXCEPTION_DISPOSITION@@PAUEHExceptionRecord@@PAUEHRegistrationNode@@PAU_CONTEXT@@PAXPBU_s_FuncInfo@@H1E@Z
E0A55 462 ??0bad_exception@std@@QAE@ABV01@@Z
E0A70 462 ??0bad_exception@std@@QAE@XZ
E0A88 462 ?CallCatchBlock@@YAPAXPAUEHExceptionRecord@@PAUEHRegistrationNode@@PAU_CONTEXT@@PBU_s_FuncInfo@@PAXHK@Z
E0C57 462 ?CallUnexpected@@YAXPBU_s_ESTypeList@@@Z
E0C77 462 __catch$?CallUnexpected@@YAXPBU_s_ESTypeList@@@Z$0
E0C96 462 ?ExFilterRethrow@@YAHPAU_EXCEPTION_POINTERS@@@Z
E0CE0 462 ?FrameUnwindToEmptyState@__FrameHandler3@@SAXPAUEHRegistrationNode@@PAXPBU_s_FuncInfo@@@Z
E0CF8 462 ?FrameUnwindToState@__FrameHandler3@@SAXPAUEHRegistrationNode@@PAXPBU_s_FuncInfo@@H@Z
E0DE0 462 ?IsInExceptionSpec@@YAEPAUEHExceptionRecord@@PBU_s_ESTypeList@@@Z
E0E7A 462 ?_CallMemberFunction1@@YGXQAX00@Z
E0E8A 462 ?_CallMemberFunction2@@YGXQAX00H@Z
E0E9D 462 ?getESTypes@__FrameHandler3@@SAPBU_s_ESTypeList@@PBU_s_FuncInfo@@@Z
E0EB0 466 __CallSettingFrame@12
E0ED7 466 __NLG_Return
E0EEF 466 _NLG_Continue
E0EFC 464 ___except_validate_context_record
E0F2C 465 ___vcrt_initialize_locks
E0F68 465 ___vcrt_uninitialize_locks
E0FA0 461 __local_unwind4
E0FD2 461 _lu_top
E1031 461 _lu_done
E1040 461 $$000000
E1090 461 @_EH4_CallFilterFunc@8
E10B0 461 @_EH4_TransferToHandler@8
E10D0 461 @_EH4_GlobalUnwind2@8
E10E5 461 ReturnPoint
E10F0 461 @_EH4_LocalUnwind@16
E1107 486 ?try_get_function@@YAPAXW4function_id@?A0x14174aea@@QBDQBW4module_id@2@2@Z
E11A7 486 ?try_load_library_from_system_directory@@YAPAUHINSTANCE__@@QB_W@Z
E11F2 486 ___vcrt_FlsAlloc
E122D 486 ___vcrt_FlsFree
E1268 486 ___vcrt_FlsGetValue
E12A3 486 ___vcrt_FlsSetValue
E12E1 486 ___vcrt_InitializeCriticalSectionEx
E1328 483 _unexpected
E1345 459 ?GetCurrentState@__FrameHandler3@@SAHPAUEHRegistrationNode@@PAXPBU_s_FuncInfo@@@Z
E1362 459 ?SetState@__FrameHandler3@@SAXPAUEHRegistrationNode@@PBU_s_FuncInfo@@H@Z
E1370 460 __NLG_Notify1
E1380 460 __NLG_Notify
E138B 460 __NLG_Go
E1397 460 __NLG_Dispatch
E13A0 460 __NLG_Call
E13A2 460 __NLG_Return2
E13A3 438 __wcsdup
E1410 394 _realloc
E1420 299 _free
E1425 331 ??0__crt_cached_ptd_host@@QAE@QAU__crt_locale_pointers@@@Z
E146D 331 ??1__crt_cached_ptd_host@@QAE@XZ
E14A9 331 ?check_synchronize_global_state_index@__crt_cached_ptd_host@@AAEIXZ
E14D2 331 ?force_synchronize_per_thread_data@__crt_cached_ptd_host@@AAEPAU__acrt_ptd@@XZ
E1518 331 ?get_raw_ptd@__crt_cached_ptd_host@@QAEPAU__acrt_ptd@@XZ
E1535 331 ___acrt_call_reportfault
E166E 331 ___acrt_initialize_invalid_parameter_handler
E167D 331 __invalid_parameter
E16B4 331 __invalid_parameter_internal
E1731 331 __invalid_parameter_noinfo
E1741 331 __invalid_parameter_noinfo_noreturn
E175E 331 __invoke_watson
E1792 441 _wcsncat
E17D0 256 _calloc
E17E0 409 _strcspn
E1826 381 ??$?RV<lambda_62491a2101a2aba6cc4a769149c84f1f>@@AAV<lambda_826c27fce7726908515bbc79a5266961>@@V<lambda_4e64bbd54b50a7b070e3ea8d795375b6>@@@?$__crt_seh_guarded_call@H@@QAEH$$QAV<lambda_62491a2101a2aba6cc4a769149c84f1f>@@AAV<lambda_826c27fce7726908515bbc79a5266961>@@$$QAV<lambda_4e64bbd54b50a7b070e3ea8d795375b6>@@@Z
E1881 381 ??$common_vsprintf@Vformat_validation_base@__crt_stdio_output@@D@@YAH_KQADIQBDAAV__crt_cached_ptd_host@@1@Z
E19F5 381 ??$common_vsprintf@Vstandard_base@__crt_stdio_output@@D@@YAH_KQADIQBDAAV__crt_cached_ptd_host@@1@Z
E1B69 381 ??$common_vsprintf@Vstandard_base@__crt_stdio_output@@_W@@YAH_KQA_WIQB_WAAV__crt_cached_ptd_host@@QAD@Z
E1CEC 381 ??$common_vsprintf_s@D@@YAH_KQADIQBDAAV__crt_cached_ptd_host@@1@Z
E1D8B 381 ??$count@D@formatting_buffer@__crt_stdio_output@@QBEIXZ
E1DA3 381 ??$count@_W@formatting_buffer@__crt_stdio_output@@QBEIXZ
E1DBC 381 ??$ensure_buffer_is_big_enough@D@formatting_buffer@__crt_stdio_output@@QAE_NIAAV__crt_cached_ptd_host@@@Z
E1E3C 381 ??$ensure_buffer_is_big_enough@_W@formatting_buffer@__crt_stdio_output@@QAE_NIAAV__crt_cached_ptd_host@@@Z
E1EBD 381 ??$is_overflow_condition@K@__crt_strtox@@YA_NIK@Z
E1EF1 381 ??$is_wide_character_specifier@D@__crt_stdio_output@@YA_N_KDW4length_modifier@0@@Z
E1F22 381 ??$is_wide_character_specifier@_W@__crt_stdio_output@@YA_N_K_WW4length_modifier@0@@Z
E1F70 381 ??$make_c_string_character_source@DPAPAD@__crt_strtox@@YA?AV?$c_string_character_source@D@0@QBDQAPAD@Z
E1F8B 381 ??$parse_integer@KV?$c_string_character_source@D@__crt_strtox@@$0A@@__crt_strtox@@YAKAAV__crt_cached_ptd_host@@V?$c_string_character_source@D@0@H_N@Z
E219E 381 ??$parse_integer@KV?$c_string_character_source@_W@__crt_strtox@@$0A@@__crt_strtox@@YAKAAV__crt_cached_ptd_host@@V?$c_string_character_source@_W@0@H_N@Z
E2782 381 ??$scratch_data@D@formatting_buffer@__crt_stdio_output@@QAEPADXZ
E27A0 381 ??$type_case_integer@$07@?$output_processor@DV?$stream_output_adapter@D@__crt_stdio_output@@V?$standard_base@DV?$stream_output_adapter@D@__crt_stdio_output@@@2@@__crt_stdio_output@@AAE_N_N@Z
E292D 381 ??$type_case_integer@$07@?$output_processor@_WV?$string_output_adapter@_W@__crt_stdio_output@@V?$standard_base@_WV?$string_output_adapter@_W@__crt_stdio_output@@@2@@__crt_stdio_output@@AAE_N_N@Z
E2ABF 381 ??$type_case_integer@$09@?$output_processor@DV?$stream_output_adapter@D@__crt_stdio_output@@V?$standard_base@DV?$stream_output_adapter@D@__crt_stdio_output@@@2@@__crt_stdio_output@@AAE_N_N@Z
E2C4C 381 ??$type_case_integer@$09@?$output_processor@_WV?$string_output_adapter@_W@__crt_stdio_output@@V?$standard_base@_WV?$string_output_adapter@_W@__crt_stdio_output@@@2@@__crt_stdio_output@@AAE_N_N@Z
E2DDE 381 ??$type_case_integer@$0BA@@?$output_processor@DV?$stream_output_adapter@D@__crt_stdio_output@@V?$standard_base@DV?$stream_output_adapter@D@__crt_stdio_output@@@2@@__crt_stdio_output@@AAE_N_N@Z
E2F6B 381 ??$type_case_integer@$0BA@@?$output_processor@_WV?$string_output_adapter@_W@__crt_stdio_output@@V?$standard_base@_WV?$string_output_adapter@_W@__crt_stdio_output@@@2@@__crt_stdio_output@@AAE_N_N@Z
E30FD 381 ??$type_case_integer_parse_into_buffer@I$07@?$output_processor@DV?$stream_output_adapter@D@__crt_stdio_output@@V?$standard_base@DV?$stream_output_adapter@D@__crt_stdio_output@@@2@@__crt_stdio_output@@AAEXI_N@Z
E315F 381 ??$type_case_integer_parse_into_buffer@I$07@?$output_processor@_WV?$string_output_adapter@_W@__crt_stdio_output@@V?$standard_base@_WV?$string_output_adapter@_W@__crt_stdio_output@@@2@@__crt_stdio_output@@AAEXI_N@Z
E31D0 381 ??$type_case_integer_parse_into_buffer@I$09@?$output_processor@DV?$stream_output_adapter@D@__crt_stdio_output@@V?$standard_base@DV?$stream_output_adapter@D@__crt_stdio_output@@@2@@__crt_stdio_output@@AAEXI_N@Z
E324F 381 ??$type_case_integer_parse_into_buffer@I$09@?$output_processor@_WV?$string_output_adapter@_W@__crt_stdio_output@@V?$standard_base@_WV?$string_output_adapter@_W@__crt_stdio_output@@@2@@__crt_stdio_output@@AAEXI_N@Z
E32E4 381 ??$type_case_integer_parse_into_buffer@I$0BA@@?$output_processor@DV?$stream_output_adapter@D@__crt_stdio_output@@V?$standard_base@DV?$stream_output_adapter@D@__crt_stdio_output@@@2@@__crt_stdio_output@@AAEXI_N@Z
E3360 381 ??$type_case_integer_parse_into_buffer@I$0BA@@?$output_processor@_WV?$string_output_adapter@_W@__crt_stdio_output@@V?$standard_base@_WV?$string_output_adapter@_W@__crt_stdio_output@@@2@@__crt_stdio_output@@AAEXI_N@Z
E33EB 381 ??$type_case_integer_parse_into_buffer@_K$07@?$output_processor@DV?$stream_output_adapter@D@__crt_stdio_output@@V?$standard_base@DV?$stream_output_adapter@D@__crt_stdio_output@@@2@@__crt_stdio_output@@AAEX_K_N@Z
E345F 381 ??$type_case_integer_parse_into_buffer@_K$07@?$output_processor@_WV?$string_output_adapter@_W@__crt_stdio_output@@V?$standard_base@_WV?$string_output_adapter@_W@__crt_stdio_output@@@2@@__crt_stdio_output@@AAEX_K_N@Z
E34DF 381 ??$type_case_integer_parse_into_buffer@_K$09@?$output_processor@DV?$stream_output_adapter@D@__crt_stdio_output@@V?$standard_base@DV?$stream_output_adapter@D@__crt_stdio_output@@@2@@__crt_stdio_output@@AAEX_K_N@Z
E3571 381 ??$type_case_integer_parse_into_buffer@_K$09@?$output_processor@_WV?$string_output_adapter@_W@__crt_stdio_output@@V?$standard_base@_WV?$string_output_adapter@_W@__crt_stdio_output@@@2@@__crt_stdio_output@@AAEX_K_N@Z
E3616 381 ??$type_case_integer_parse_into_buffer@_K$0BA@@?$output_processor@DV?$stream_output_adapter@D@__crt_stdio_output@@V?$standard_base@DV?$stream_output_adapter@D@__crt_stdio_output@@@2@@__crt_stdio_output@@AAEX_K_N@Z
E369C 381 ??$type_case_integer_parse_into_buffer@_K$0BA@@?$output_processor@_WV?$string_output_adapter@_W@__crt_stdio_output@@V?$standard_base@_WV?$string_output_adapter@_W@__crt_stdio_output@@@2@@__crt_stdio_output@@AAEX_K_N@Z
E372E 381 ??0?$output_adapter_data@DV?$stream_output_adapter@D@__crt_stdio_output@@@__crt_stdio_output@@IAE@ABV?$stream_output_adapter@D@1@_KQBDAAV__crt_cached_ptd_host@@QAD@Z
E3795 381 ??0?$output_adapter_data@_WV?$string_output_adapter@_W@__crt_stdio_output@@@__crt_stdio_output@@IAE@ABV?$string_output_adapter@_W@1@_KQB_WAAV__crt_cached_ptd_host@@QAD@Z
E3801 381 ??1formatting_buffer@__crt_stdio_output@@QAE@XZ
E381B 381 ??4?$__crt_unique_heap_ptr@DU__crt_internal_free_policy@@@@QAEAAV0@$$QAV0@@Z
E383F 381 ??R<lambda_826c27fce7726908515bbc79a5266961>@@QBEHXZ
E38DB 381 ?crop_zeroes@__crt_stdio_output@@YAXPADQAU__crt_locale_pointers@@@Z
E3945 381 ?find_next_state@?$output_processor@DV?$stream_output_adapter@D@__crt_stdio_output@@V?$standard_base@DV?$stream_output_adapter@D@__crt_stdio_output@@@2@@__crt_stdio_output@@ABE?AW4state@2@DW432@@Z
E3980 381 ?find_next_state@?$output_processor@DV?$string_output_adapter@D@__crt_stdio_output@@V?$format_validation_base@DV?$string_output_adapter@D@__crt_stdio_output@@@2@@__crt_stdio_output@@ABE?AW4state@2@DW432@@Z
E39BD 381 ?find_next_state@?$output_processor@_WV?$string_output_adapter@_W@__crt_stdio_output@@V?$standard_base@_WV?$string_output_adapter@_W@__crt_stdio_output@@@2@@__crt_stdio_output@@ABE?AW4state@2@_WW432@@Z
E39F7 381 ?force_decimal_point@__crt_stdio_output@@YAXPADQAU__crt_locale_pointers@@@Z
E3A59 381 ?parse_int_from_format_string@?$output_processor@DV?$stream_output_adapter@D@__crt_stdio_output@@V?$standard_base@DV?$stream_output_adapter@D@__crt_stdio_output@@@2@@__crt_stdio_output@@AAE_NQAH@Z
E3AD1 381 ?parse_int_from_format_string@?$output_processor@_WV?$string_output_adapter@_W@__crt_stdio_output@@V?$standard_base@_WV?$string_output_adapter@_W@__crt_stdio_output@@@2@@__crt_stdio_output@@AAE_NQAH@Z
E3B4B 381 ?process@?$output_processor@DV?$stream_output_adapter@D@__crt_stdio_output@@V?$standard_base@DV?$stream_output_adapter@D@__crt_stdio_output@@@2@@__crt_stdio_output@@QAEHXZ
E3DD3 381 $LN121
E3DF3 381 ?process@?$output_processor@DV?$string_output_adapter@D@__crt_stdio_output@@V?$format_validation_base@DV?$string_output_adapter@D@__crt_stdio_output@@@2@@__crt_stdio_output@@QAEHXZ
E40BB 381 $LN141
E40DB 381 ?process@?$output_processor@DV?$string_output_adapter@D@__crt_stdio_output@@V?$standard_base@DV?$string_output_adapter@D@__crt_stdio_output@@@2@@__crt_stdio_output@@QAEHXZ
E438F 381 $LN130
E43AF 381 ?process@?$output_processor@_WV?$string_output_adapter@_W@__crt_stdio_output@@V?$standard_base@_WV?$string_output_adapter@_W@__crt_stdio_output@@@2@@__crt_stdio_output@@QAEHXZ
E45CB 381 $LN107
E45EB 381 ?state_case_size@?$output_processor@DV?$stream_output_adapter@D@__crt_stdio_output@@V?$standard_base@DV?$stream_output_adapter@D@__crt_stdio_output@@@2@@__crt_stdio_output@@AAE_NXZ
E4744 381 ?state_case_size@?$output_processor@DV?$string_output_adapter@D@__crt_stdio_output@@V?$format_validation_base@DV?$string_output_adapter@D@__crt_stdio_output@@@2@@__crt_stdio_output@@AAE_NXZ
E489D 381 ?state_case_size@?$output_processor@_WV?$string_output_adapter@_W@__crt_stdio_output@@V?$standard_base@_WV?$string_output_adapter@_W@__crt_stdio_output@@@2@@__crt_stdio_output@@AAE_NXZ
E4A27 381 ?state_case_type@?$output_processor@DV?$stream_output_adapter@D@__crt_stdio_output@@V?$standard_base@DV?$stream_output_adapter@D@__crt_stdio_output@@@2@@__crt_stdio_output@@AAE_NXZ
E4E1E 381 ?state_case_type@?$output_processor@DV?$string_output_adapter@D@__crt_stdio_output@@V?$format_validation_base@DV?$string_output_adapter@D@__crt_stdio_output@@@2@@__crt_stdio_output@@AAE_NXZ
E525D 381 ?state_case_type@?$output_processor@_WV?$string_output_adapter@_W@__crt_stdio_output@@V?$standard_base@_WV?$string_output_adapter@_W@__crt_stdio_output@@@2@@__crt_stdio_output@@AAE_NXZ
E5773 381 ?to_integer_size@__crt_stdio_output@@YAIW4length_modifier@1@@Z
E57A7 381 $LN18
E57BB 381 $LN17
E57C7 381 ?type_case_Z@?$output_processor@DV?$stream_output_adapter@D@__crt_stdio_output@@V?$standard_base@DV?$stream_output_adapter@D@__crt_stdio_output@@@2@@__crt_stdio_output@@AAE_NXZ
E583A 381 ?type_case_Z@?$output_processor@_WV?$string_output_adapter@_W@__crt_stdio_output@@V?$standard_base@_WV?$string_output_adapter@_W@__crt_stdio_output@@@2@@__crt_stdio_output@@AAE_NXZ
E58AE 381 ?type_case_a@?$output_processor@DV?$stream_output_adapter@D@__crt_stdio_output@@V?$standard_base@DV?$stream_output_adapter@D@__crt_stdio_output@@@2@@__crt_stdio_output@@AAE_NXZ
E5A65 381 ?type_case_a@?$output_processor@_WV?$string_output_adapter@_W@__crt_stdio_output@@V?$standard_base@_WV?$string_output_adapter@_W@__crt_stdio_output@@@2@@__crt_stdio_output@@AAE_NXZ
E5C32 381 ?type_case_c_tchar@?$output_processor@DV?$stream_output_adapter@D@__crt_stdio_output@@V?$standard_base@DV?$stream_output_adapter@D@__crt_stdio_output@@@2@@__crt_stdio_output@@AAE_ND@Z
E5CBE 381 ?type_case_c_tchar@?$output_processor@_WV?$string_output_adapter@_W@__crt_stdio_output@@V?$standard_base@_WV?$string_output_adapter@_W@__crt_stdio_output@@@2@@__crt_stdio_output@@AAE_N_W@Z
E5D63 381 ?type_case_n@?$output_processor@DV?$stream_output_adapter@D@__crt_stdio_output@@V?$standard_base@DV?$stream_output_adapter@D@__crt_stdio_output@@@2@@__crt_stdio_output@@AAE_NXZ
E5DE8 381 ?type_case_o@?$output_processor@DV?$stream_output_adapter@D@__crt_stdio_output@@V?$standard_base@DV?$stream_output_adapter@D@__crt_stdio_output@@@2@@__crt_stdio_output@@AAE_NXZ
E5E05 381 ?type_case_o@?$output_processor@_WV?$string_output_adapter@_W@__crt_stdio_output@@V?$standard_base@_WV?$string_output_adapter@_W@__crt_stdio_output@@@2@@__crt_stdio_output@@AAE_NXZ
E5E22 381 ?type_case_p@?$output_processor@DV?$stream_output_adapter@D@__crt_stdio_output@@V?$standard_base@DV?$stream_output_adapter@D@__crt_stdio_output@@@2@@__crt_stdio_output@@AAE_NXZ
E5E38 381 ?type_case_p@?$output_processor@_WV?$string_output_adapter@_W@__crt_stdio_output@@V?$standard_base@_WV?$string_output_adapter@_W@__crt_stdio_output@@@2@@__crt_stdio_output@@AAE_NXZ
E5E4E 381 ?type_case_s@?$output_processor@DV?$stream_output_adapter@D@__crt_stdio_output@@V?$standard_base@DV?$stream_output_adapter@D@__crt_stdio_output@@@2@@__crt_stdio_output@@AAE_NXZ
E5EC1 381 ?type_case_s@?$output_processor@_WV?$string_output_adapter@_W@__crt_stdio_output@@V?$standard_base@_WV?$string_output_adapter@_W@__crt_stdio_output@@@2@@__crt_stdio_output@@AAE_NXZ
E5F36 381 ?type_case_s_compute_narrow_string_length@?$output_processor@_WV?$string_output_adapter@_W@__crt_stdio_output@@V?$standard_base@_WV?$string_output_adapter@_W@__crt_stdio_output@@@2@@__crt_stdio_output@@AAEHH_W@Z
E5FFC 381 ?unget@?$c_string_character_source@D@__crt_strtox@@QAEXD@Z
E6025 381 ?unget@?$c_string_character_source@_W@__crt_strtox@@QAEX_W@Z
E6060 381 ?update_locale_slow@__crt_cached_ptd_host@@AAEXXZ
E60BB 381 ?validate@?$c_string_character_source@D@__crt_strtox@@QBE_NXZ
E60D6 381 ?validate@?$stream_output_adapter@D@__crt_stdio_output@@QBE_NAAV__crt_cached_ptd_host@@@Z
E610E 381 ?validate@?$string_output_adapter@D@__crt_stdio_output@@QBE_NAAV__crt_cached_ptd_host@@@Z
E613F 381 ?validate_stream_is_ansi_if_required@?$__acrt_stdio_char_traits@D@@SA_NQAU_iobuf@@@Z
E61C6 381 ?write_character@?$output_adapter_common@DV?$stream_output_adapter@D@__crt_stdio_output@@@__crt_stdio_output@@QBEXDQAHAAV__crt_cached_ptd_host@@@Z
E61E8 381 ?write_character_without_count_update@?$stream_output_adapter@D@__crt_stdio_output@@QBE_NDAAV__crt_cached_ptd_host@@@Z
E6222 381 ?write_string@?$stream_output_adapter@D@__crt_stdio_output@@QBEXQBDHQAHAAV__crt_cached_ptd_host@@@Z
E624E 381 ?write_string@?$string_output_adapter@D@__crt_stdio_output@@QBEXQBDHQAHAAV__crt_cached_ptd_host@@@Z
E62BD 381 ?write_string@?$string_output_adapter@_W@__crt_stdio_output@@QBEXQB_WHQAHAAV__crt_cached_ptd_host@@@Z
E6336 381 ?write_string_impl@?$output_adapter_common@DV?$stream_output_adapter@D@__crt_stdio_output@@@__crt_stdio_output@@IBEXQBDHQAHAAV__crt_cached_ptd_host@@@Z
E63B5 381 ___acrt_locale_get_ctype_array_value
E63D7 381 ___stdio_common_vfprintf
E647B 381 ___stdio_common_vsprintf
E64BC 381 ___stdio_common_vsprintf_s
E64FD 381 ___stdio_common_vswprintf
E653E 444 _wcsncpy
E6585 344 _localeconv
E65B0 301 __decomp
E66C0 301 __sptype
E6740 301 _frexp
E6901 297 ?_fputc_internal@@YAHHQAU_iobuf@@AAV__crt_cached_ptd_host@@@Z
E6A35 297 __fputc_nolock_internal
E6A62 297 _fputc
E6A96 286 ??$?RV<lambda_2866be3712abc81a800a822484c830d8>@@AAV<lambda_39ca0ed439415581b5b15c265174cece>@@V<lambda_2b24c74d71094a6cd0cb82e44167d71b>@@@?$__crt_seh_guarded_call@X@@QAEX$$QAV<lambda_2866be3712abc81a800a822484c830d8>@@AAV<lambda_39ca0ed439415581b5b15c265174cece>@@$$QAV<lambda_2b24c74d71094a6cd0cb82e44167d71b>@@@Z
E6B22 286 ??$?RV<lambda_2cc53f568c5a2bb6f192f930a45d44ea>@@AAV<lambda_ab61a845afdef5b7c387490eaf3616ee>@@V<lambda_c2ffc0b7726aa6be21d5f0026187e748>@@@?$__crt_seh_guarded_call@X@@QAEX$$QAV<lambda_2cc53f568c5a2bb6f192f930a45d44ea>@@AAV<lambda_ab61a845afdef5b7c387490eaf3616ee>@@$$QAV<lambda_c2ffc0b7726aa6be21d5f0026187e748>@@@Z
E6BCE 286 ??$?RV<lambda_6d20deecaf4856105ebacbad442d1079>@@AAV<lambda_9a32fed5bf61b6b509b2d3f6003082a1>@@V<lambda_63ea2239ed67c638ddbae41947fdf875>@@@?$__crt_seh_guarded_call@H@@QAEH$$QAV<lambda_6d20deecaf4856105ebacbad442d1079>@@AAV<lambda_9a32fed5bf61b6b509b2d3f6003082a1>@@$$QAV<lambda_63ea2239ed67c638ddbae41947fdf875>@@@Z
E6C2E 286 ?common_flush_all@@YAH_N@Z
E6C7A 286 ?common_flush_all_should_try_to_flush_stream@@YA_NV__crt_stdio_stream@@QAH@Z
E6CAB 286 ?is_stream_flushable_or_commitable@@YA_NJ@Z
E6CCE 286 ___acrt_stdio_flush_nolock
E6D37 286 __fflush_nolock
E6D9C 286 __flushall
E6DA5 286 _fflush
E6DF8 280 ?_fclose_internal@@YAHQAU_iobuf@@AAV__crt_cached_ptd_host@@@Z
E6E8F 280 ?_fclose_nolock_internal@@YAHQAU_iobuf@@AAV__crt_cached_ptd_host@@@Z
E6F1D 280 _fclose
E6F4D 412 ??$__acrt_convert_wcs_mbs_cp@D_WV<lambda_62f6974d9771e494a5ea317cc32e971c>@@U__crt_win32_buffer_internal_dynamic_resizing@@@@YAHQBDAAV?$__crt_win32_buffer@_WU__crt_win32_buffer_internal_dynamic_resizing@@@@ABV<lambda_62f6974d9771e494a5ea317cc32e971c>@@I@Z
E6FFF 412 ??$__acrt_convert_wcs_mbs_cp@_WDV<lambda_0fec1a7b3f42a53036604e18c2d5e07e>@@U__crt_win32_buffer_no_resizing@@@@YAHQB_WAAV?$__crt_win32_buffer@DU__crt_win32_buffer_no_resizing@@@@ABV<lambda_0fec1a7b3f42a53036604e18c2d5e07e>@@I@Z
E70C1 412 ??$__acrt_mbs_to_wcs_cp@U__crt_win32_buffer_internal_dynamic_resizing@@@@YAHQBDAAV?$__crt_win32_buffer@_WU__crt_win32_buffer_internal_dynamic_resizing@@@@I@Z
E70DE 412 ??$__acrt_wcs_to_mbs_cp@U__crt_win32_buffer_no_resizing@@@@YAHQB_WAAV?$__crt_win32_buffer@DU__crt_win32_buffer_no_resizing@@@@I@Z
E70FB 412 ??0_LocaleUpdate@@QAE@QAU__crt_locale_pointers@@@Z
E717D 412 ??R<lambda_0fec1a7b3f42a53036604e18c2d5e07e>@@QBE@IQB_WQADI@Z
E71A1 252 ?_deallocate@?$__crt_win32_buffer@DU__crt_win32_buffer_internal_dynamic_resizing@@@@AAEXXZ
E71BB 412 ?allocate@?$__crt_win32_buffer@DU__crt_win32_buffer_no_resizing@@@@QAEHI@Z
E71E2 412 ?allocate@?$__crt_win32_buffer@_WU__crt_win32_buffer_internal_dynamic_resizing@@@@QAEHI@Z
E7221 412 ?allocate@__crt_win32_buffer_internal_dynamic_resizing@@SAHQAPAXIABV__crt_win32_buffer_empty_debug_info@@@Z
E7242 412 ?set_to_nullptr@?$__crt_win32_buffer@DU__crt_win32_buffer_no_resizing@@@@QAEXXZ
E7256 412 __Strftime_l
E7352 412 _strftime
E7371 287 __fgetc_nolock
E73AD 287 _fgetc
E74C6 240 ___acrt_initialize_stdio
E758E 240 ___acrt_iob_func
E759E 240 ___acrt_uninitialize_stdio
E75EA 240 __get_stream_buffer_pointers
E7630 240 __lock_file
E7644 240 __unlock_file
E7658 307 ??$?RV<lambda_76055cf4b68c1f980da8b7496a3ae623>@@AAV<lambda_26974eb511f701c600fccfa2a97a8e1b>@@V<lambda_0062726809bb3c529c0733aa37379daf>@@@?$__crt_seh_guarded_call@I@@QAEI$$QAV<lambda_76055cf4b68c1f980da8b7496a3ae623>@@AAV<lambda_26974eb511f701c600fccfa2a97a8e1b>@@$$QAV<lambda_0062726809bb3c529c0733aa37379daf>@@@Z
E76B3 307 ??R<lambda_26974eb511f701c600fccfa2a97a8e1b>@@QBEIXZ
E76FF 307 __fwrite_internal
E7776 307 __fwrite_nolock_internal
E790A 307 _fwrite
E7944 288 _fgetpos
E799D 402 ??$?RV<lambda_c390c0748f48a7db46f6ce5cc3c796da>@@AAV<lambda_703a5c3f7c88128b7f5f7a8861b0a6e0>@@V<lambda_c16a91f8771b304e2b1164fb4c043437>@@@?$__crt_seh_guarded_call@H@@QAEH$$QAV<lambda_c390c0748f48a7db46f6ce5cc3c796da>@@AAV<lambda_703a5c3f7c88128b7f5f7a8861b0a6e0>@@$$QAV<lambda_c16a91f8771b304e2b1164fb4c043437>@@@Z
E79F8 402 ??R<lambda_703a5c3f7c88128b7f5f7a8861b0a6e0>@@QBE@XZ
E7A98 402 ?_setvbuf_internal@@YAHQAU_iobuf@@QADHIAAV__crt_cached_ptd_host@@@Z
E7B2E 402 ?set_buffer@@YAHV__crt_stdio_stream@@QADIH@Z
E7B61 402 _setvbuf
E7B9B 425 __time64
E7C04 345 ??$common_localtime_s@_J@@YAHQAUtm@@QB_J@Z
E7E95 345 __localtime64
E7EBD 433 __ungetc_nolock
E7FB1 433 _ungetc
E8024 304 _fsetpos
E805F 298 __fread_nolock_s
E8233 298 _fread
E8250 298 _fread_s
E82ED 311 _memcpy_s
E836E 303 ?LongLongSub@@YAJ_J0PA_J@Z
E83F0 303 ?common_fseek@@YAHV__crt_stdio_stream@@_JHAAV__crt_cached_ptd_host@@@Z
E849A 303 ?common_fseek_binary_mode_read_only_fast_track_nolock@@YA_NV__crt_stdio_stream@@_JH@Z
E8573 303 ?common_fseek_nolock@@YAHV__crt_stdio_stream@@_JHAAV__crt_cached_ptd_host@@@Z
E865F 303 __fseeki64
E8699 303 _fseek
E86D3 248 _iswspace
E86E6 277 ?bsearch_errentry@@YAPBUerrentry@?A0x31fdb9ec@@KQBU12@I@Z
E8765 277 ___acrt_errno_from_os_error
E87C4 277 ___acrt_errno_map_os_error
E87E7 277 ___acrt_errno_map_os_error_ptd
E880B 277 ___doserrno
E8820 277 __errno
E8835 422 ??$is_overflow_condition@_K@__crt_strtox@@YA_NI_K@Z
E8876 422 ??$parse_integer@KV?$c_string_character_source@D@__crt_strtox@@$00@__crt_strtox@@YAKAAV__crt_cached_ptd_host@@V?$c_string_character_source@D@0@H_N@Z
E8AC1 422 ??$parse_integer@KV?$c_string_character_source@_W@__crt_strtox@@$00@__crt_strtox@@YAKAAV__crt_cached_ptd_host@@V?$c_string_character_source@_W@0@H_N@Z
E90E4 422 ??$parse_integer@_KV?$c_string_character_source@D@__crt_strtox@@$00@__crt_strtox@@YA_KAAV__crt_cached_ptd_host@@V?$c_string_character_source@D@0@H_N@Z
E9394 422 __ischartype_l
E93EB 422 _strtol
E9431 422 _strtoul
E9477 422 _strtoull
E94C3 422 _wcstol
E9510 372 __dclass
E9530 259 __ceil_no_sse41
E9570 259 _ceil
E9590 259 __ceil_pentium4
E9667 421 ??$assemble_floating_point_snan@N@__crt_strtox@@YAX_NAAN@Z
E9688 421 ??$assemble_floating_point_value_t@M@__crt_strtox@@YA?AW4SLD_STATUS@@_NH_KAAM@Z
E96C7 421 ??$assemble_floating_point_value_t@N@__crt_strtox@@YA?AW4SLD_STATUS@@_NH_KAAN@Z
E9709 421 ??$common_strtod_l@ND@@YANQBDQAPADQAU__crt_locale_pointers@@@Z
E979F 421 ??$convert_decimal_string_to_floating_type@M@__crt_strtox@@YA?AW4SLD_STATUS@@ABUfloating_point_string@0@AAM@Z
E97C0 421 ??$convert_decimal_string_to_floating_type@N@__crt_strtox@@YA?AW4SLD_STATUS@@ABUfloating_point_string@0@AAN@Z
E97E1 421 ??$convert_hexadecimal_string_to_floating_type@M@__crt_strtox@@YA?AW4SLD_STATUS@@ABUfloating_point_string@0@AAM@Z
E9802 421 ??$convert_hexadecimal_string_to_floating_type@N@__crt_strtox@@YA?AW4SLD_STATUS@@ABUfloating_point_string@0@AAN@Z
E9823 421 ??$parse_floating_point@V?$c_string_character_source@D@__crt_strtox@@N@__crt_strtox@@YA?AW4SLD_STATUS@@QAU__crt_locale_pointers@@V?$c_string_character_source@D@0@QAN@Z
E98A3 421 ??$parse_floating_point_from_source@V?$c_string_character_source@D@__crt_strtox@@@__crt_strtox@@YA?AW4floating_point_parse_result@0@QAU__crt_locale_pointers@@AAV?$c_string_character_source@D@0@AAUfloating_point_string@0@@Z
E9CCB 421 ??$parse_floating_point_possible_infinity@DV?$c_string_character_source@D@__crt_strtox@@PBD@__crt_strtox@@YA?AW4floating_point_parse_result@0@AADAAV?$c_string_character_source@D@0@PBD@Z
E9D7D 421 ??$parse_floating_point_possible_nan@DV?$c_string_character_source@D@__crt_strtox@@PBD@__crt_strtox@@YA?AW4floating_point_parse_result@0@AADAAV?$c_string_character_source@D@0@PBD@Z
E9E81 421 ??$parse_floating_point_possible_nan_is_ind@DV?$c_string_character_source@D@__crt_strtox@@@__crt_strtox@@YA_NAADAAV?$c_string_character_source@D@0@@Z
E9EBD 421 ??$parse_floating_point_possible_nan_is_snan@DV?$c_string_character_source@D@__crt_strtox@@@__crt_strtox@@YA_NAADAAV?$c_string_character_source@D@0@@Z
E9EF9 421 ??$parse_floating_point_write_result@M@__crt_strtox@@YA?AW4SLD_STATUS@@W4floating_point_parse_result@0@ABUfloating_point_string@0@QAM@Z
EA019 421 $LN32
EA041 421 ??$parse_floating_point_write_result@N@__crt_strtox@@YA?AW4SLD_STATUS@@W4floating_point_parse_result@0@ABUfloating_point_string@0@QAN@Z
EA13D 421 $LN30
EA165 421 ??R<lambda_32aa245da1b5b882fa96db788295c8b2>@@QBE@XZ
EA18B 421 ?as_double@floating_point_value@__crt_strtox@@QBEAANXZ
EA1B0 421 ?as_float@floating_point_value@__crt_strtox@@QBEAAMXZ
EA1D5 421 ?assemble_floating_point_infinity@__crt_strtox@@YAX_NABVfloating_point_value@1@@Z
EA215 421 ?assemble_floating_point_value@__crt_strtox@@YA?AW4SLD_STATUS@@_KH_N1ABVfloating_point_value@1@@Z
EA5AE 421 ?assemble_floating_point_value_from_big_integer@__crt_strtox@@YA?AW4SLD_STATUS@@ABUbig_integer@1@I_N1ABVfloating_point_value@1@@Z
EA74B 421 ?assemble_floating_point_zero@__crt_strtox@@YAX_NABVfloating_point_value@1@@Z
EA780 421 ?convert_decimal_string_to_floating_type_common@__crt_strtox@@YA?AW4SLD_STATUS@@ABUfloating_point_string@1@ABVfloating_point_value@1@@Z
EC47F 421 ?convert_hexadecimal_string_to_floating_type_common@__crt_strtox@@YA?AW4SLD_STATUS@@ABUfloating_point_string@1@ABVfloating_point_value@1@@Z
EC530 421 ?denormal_mantissa_mask@floating_point_value@__crt_strtox@@QBE_KXZ
EC550 421 ?divide@__crt_strtox@@YA_KAAUbig_integer@1@ABU21@@Z
ECA27 421 ?normal_mantissa_mask@floating_point_value@__crt_strtox@@QBE_KXZ
ECA3E 421 _strtod
ECA55 410 __strdup
ECAA9 312 ??$common_getenv@D@@YAPADQBD@Z
ECB28 312 ??$common_getenv_nolock@D@@YAPADQBD@Z
ECB95 312 ??$common_getenv_nolock@_W@@YAPA_WQB_W@Z
ECC19 312 ??$common_getenv_s@_W@@YAHQAIQA_WIQB_W@Z
ECC78 312 ??$common_getenv_s_nolock@_W@@YAHQAIQA_WIQB_W@Z
ECD26 312 __wgetenv_s
ECD31 312 _getenv
ECD40 391 _qsort
ED17C 406 ??$?RV<lambda_3fbdc05a7b75ad3345997c5c88b25055>@@AAV<lambda_c178ad9533f203a2ba4f364d49dc5113>@@V<lambda_f8575de5a9e054d22965e38bf6e91640>@@@?$__crt_seh_guarded_call@H@@QAEH$$QAV<lambda_3fbdc05a7b75ad3345997c5c88b25055>@@AAV<lambda_c178ad9533f203a2ba4f364d49dc5113>@@$$QAV<lambda_f8575de5a9e054d22965e38bf6e91640>@@@Z
ED1D7 406 ??$common_fstat@U_stat64i32@@@@YAHHQAU_stat64i32@@@Z
ED2AB 406 ??$common_stat@U_stat64i32@@@@YAHQBDQAU_stat64i32@@@Z
ED32C 406 ??$common_stat@U_stat64i32@@@@YAHQB_WQAU_stat64i32@@@Z
ED42C 406 ??$common_stat_handle_file_not_opened@U_stat64i32@@@@YA_NQB_WAAU_stat64i32@@@Z
ED4B4 406 ??$common_stat_handle_file_opened@U_stat64i32@@@@YA_NQB_WHQAXAAU_stat64i32@@@Z
ED622 406 ??$convert_filetime_to_time_t@_J@@YA_JU_FILETIME@@_J@Z
ED6A9 406 ??$loctotime@AAGAAGAAGAAGAAGAAGH@?$__crt_integer_traits@_J@@SA_JAAG00000$$QAH@Z
ED6E7 406 ??R<lambda_c178ad9533f203a2ba4f364d49dc5113>@@QBE@XZ
ED75F 406 ?__acrt_get_utf8_acp_compatibility_codepage@@YAIXZ
ED79E 406 ?call_wfullpath@@YAPA_WQA_WQB_WIQAPA_W@Z
ED7FE 406 ?compute_size@@YA_NABU_BY_HANDLE_FILE_INFORMATION@@AAJ@Z
ED831 406 ?convert_to_stat_mode@@YAGHQB_W@Z
ED8F5 406 ?get_drive_number_from_path@@YA_NQB_WAAH@Z
ED951 406 ?is_root_or_empty@@YA_NQB_W@Z
ED9B3 406 ?is_root_unc_name@@YA_NQB_W@Z
EDA61 406 ?is_slash@@YA_N_W@Z
EDA7C 406 ?is_usable_drive_or_unc_root@@YA_NQB_W@Z
EDB34 406 __fstat64i32
EDB3F 406 __stat64i32
EDB4A 406 __wstat64i32
EDB55 263 ??$?RV<lambda_d422a76eb4c3bf3ad751449ab71a6ea4>@@AAV<lambda_c9ba49e555ba839a7b07aa3fbecb7617>@@V<lambda_9476263c8ee91a25d21c55370bdb50de>@@@?$__crt_seh_guarded_call@H@@QAEH$$QAV<lambda_d422a76eb4c3bf3ad751449ab71a6ea4>@@AAV<lambda_c9ba49e555ba839a7b07aa3fbecb7617>@@$$QAV<lambda_9476263c8ee91a25d21c55370bdb50de>@@@Z
EDBE6 263 __close
EDC16 263 __close_internal
EDCB9 263 __close_nolock
EDCE9 263 __close_nolock_internal
EDD89 393 ??$translate_text_mode_nolock@D@@YAHHQADI@Z
EDEDC 393 ??$translate_text_mode_nolock@_W@@YAHHQA_WI@Z
EE09C 393 ?translate_ansi_or_utf8_nolock@@YAHHQADIQA_WI@Z
EE1F3 393 ?translate_utf16_from_console_nolock@@YAHHQA_WI@Z
EE270 393 __read
EE389 393 __read_nolock
EE715 378 ??$common_sopen_dispatch@D@@YAHQBDHHHQAHH@Z
EE7F0 378 ??$common_sopen_dispatch@_W@@YAHQB_WHHHQAHH@Z
EE8CB 378 ?configure_text_mode@@YAHHUfile_options@?A0xa9d50aae@@HAAW4__crt_lowio_text_mode@@@Z
EEB21 378 ?create_file@@YAPAXQB_WQAU_SECURITY_ATTRIBUTES@@Ufile_options@?A0xa9d50aae@@@Z
EEB46 378 ?decode_open_create_flags@@YAKH@Z
EEBB6 378 ?decode_options@@YA?AUfile_options@?A0xa9d50aae@@HHH@Z
EED2F 378 ?truncate_ctrl_z_if_present@@YAHH@Z
EEDD9 378 __sopen_nolock
EEE47 378 __sopen_s
EEE67 378 __wsopen_nolock
EF192 378 __wsopen_s
EF1C0 415 _strncpy
EF2E4 293 ??$common_fsopen@D@@YAPAU_iobuf@@QBD0H@Z
EF39B 293 ??$common_fsopen@_W@@YAPAU_iobuf@@QB_W0H@Z
EF451 293 __fsopen
EF45C 293 __wfopen
EF473 293 __wfsopen
EF47E 293 _fopen
EF495 284 _ferror
EF4D0 413 _strncmp
EF550 357 _malloc
EF55B 392 _rand
EF57C 392 _srand
EF58E 428 __toupper_l
EF68C 428 _toupper
EF6BC 330 ??$common_vsscanf@D@@YAH_KQBDI1QAU__crt_locale_pointers@@QAD@Z
EF770 330 ??$make_input_adapter_character_source@V?$string_input_adapter@D@__crt_stdio_input@@@__crt_strtox@@YA?AV?$input_adapter_character_source@V?$string_input_adapter@D@__crt_stdio_input@@@0@QAV?$string_input_adapter@D@__crt_stdio_input@@_KQA_N@Z
EF78E 330 ??$parse_floating_point@V?$input_adapter_character_source@V?$string_input_adapter@D@__crt_stdio_input@@@__crt_strtox@@M@__crt_strtox@@YA?AW4SLD_STATUS@@QAU__crt_locale_pointers@@V?$input_adapter_character_source@V?$string_input_adapter@D@__crt_stdio_input@@@0@QAM@Z
EF818 330 ??$parse_floating_point@V?$input_adapter_character_source@V?$string_input_adapter@D@__crt_stdio_input@@@__crt_strtox@@N@__crt_strtox@@YA?AW4SLD_STATUS@@QAU__crt_locale_pointers@@V?$input_adapter_character_source@V?$string_input_adapter@D@__crt_stdio_input@@@0@QAN@Z
EF8A2 330 ??$parse_floating_point_from_source@V?$input_adapter_character_source@V?$string_input_adapter@D@__crt_stdio_input@@@__crt_strtox@@@__crt_strtox@@YA?AW4floating_point_parse_result@0@QAU__crt_locale_pointers@@AAV?$input_adapter_character_source@V?$string_input_adapter@D@__crt_stdio_input@@@0@AAUfloating_point_string@0@@Z
EFD0F 330 ??$parse_floating_point_possible_infinity@DV?$input_adapter_character_source@V?$string_input_adapter@D@__crt_stdio_input@@@__crt_strtox@@_K@__crt_strtox@@YA?AW4floating_point_parse_result@0@AADAAV?$input_adapter_character_source@V?$string_input_adapter@D@__crt_stdio_input@@@0@_K@Z
EFDCA 330 ??$parse_floating_point_possible_nan@DV?$input_adapter_character_source@V?$string_input_adapter@D@__crt_stdio_input@@@__crt_strtox@@_K@__crt_strtox@@YA?AW4floating_point_parse_result@0@AADAAV?$input_adapter_character_source@V?$string_input_adapter@D@__crt_stdio_input@@@0@_K@Z
EFED2 330 ??$parse_floating_point_possible_nan_is_ind@DV?$input_adapter_character_source@V?$string_input_adapter@D@__crt_stdio_input@@@__crt_strtox@@@__crt_strtox@@YA_NAADAAV?$input_adapter_character_source@V?$string_input_adapter@D@__crt_stdio_input@@@0@@Z
EFF0C 330 ??$parse_floating_point_possible_nan_is_snan@DV?$input_adapter_character_source@V?$string_input_adapter@D@__crt_stdio_input@@@__crt_strtox@@@__crt_strtox@@YA_NAADAAV?$input_adapter_character_source@V?$string_input_adapter@D@__crt_stdio_input@@@0@@Z
EFF46 330 ??$parse_integer@_KV?$input_adapter_character_source@V?$string_input_adapter@D@__crt_stdio_input@@@__crt_strtox@@$00@__crt_strtox@@YA_KAAV__crt_cached_ptd_host@@V?$input_adapter_character_source@V?$string_input_adapter@D@__crt_stdio_input@@@0@H_N@Z
F023A 330 ??$parse_integer@_KV?$input_adapter_character_source@V?$string_input_adapter@D@__crt_stdio_input@@@__crt_strtox@@@__crt_strtox@@YA_KQAU__crt_locale_pointers@@V?$input_adapter_character_source@V?$string_input_adapter@D@__crt_stdio_input@@@0@H_N@Z
F0296 330 ??$process_floating_point_specifier_t@M@?$input_processor@DV?$string_input_adapter@D@__crt_stdio_input@@@__crt_stdio_input@@AAE_NXZ
F02FE 330 ??$process_floating_point_specifier_t@N@?$input_processor@DV?$string_input_adapter@D@__crt_stdio_input@@@__crt_stdio_input@@AAE_NXZ
F036A 330 ??$process_string_specifier_tchar@D@?$input_processor@DV?$string_input_adapter@D@__crt_stdio_input@@@__crt_stdio_input@@AAE_NW4conversion_mode@1@D@Z
F04D6 330 ??$process_string_specifier_tchar@_W@?$input_processor@DV?$string_input_adapter@D@__crt_stdio_input@@@__crt_stdio_input@@AAE_NW4conversion_mode@1@_W@Z
F064E 330 ??$skip_whitespace@Vstring_input_adapter@__crt_stdio_input@@D@__crt_stdio_input@@YAHAAV?$string_input_adapter@D@0@QAU__crt_locale_pointers@@@Z
F067D 330 ??$write_floating_point@M@?$input_processor@DV?$string_input_adapter@D@__crt_stdio_input@@@__crt_stdio_input@@AAE_NABM@Z
F06B2 330 ??$write_floating_point@N@?$input_processor@DV?$string_input_adapter@D@__crt_stdio_input@@@__crt_stdio_input@@AAE_NABN@Z
F06ED 330 ??0?$format_string_parser@D@__crt_stdio_input@@QAE@_KQBE@Z
F0737 330 ??0?$input_adapter_character_source@V?$string_input_adapter@D@__crt_stdio_input@@@__crt_strtox@@QAE@$$QAV01@@Z
F0774 330 ??0?$input_adapter_character_source@V?$string_input_adapter@D@__crt_stdio_input@@@__crt_strtox@@QAE@QAV?$string_input_adapter@D@__crt_stdio_input@@_KQA_N@Z
F07A5 330 ??0?$input_processor@DV?$string_input_adapter@D@__crt_stdio_input@@@__crt_stdio_input@@QAE@ABV?$string_input_adapter@D@1@_KQBDQAU__crt_locale_pointers@@QAD@Z
F07E9 330 ??R<lambda_644f8ab42ed3fd1d660977a2364b3a7d>@@QBE@XZ
F0813 330 ?advance@?$format_string_parser@D@__crt_stdio_input@@QAE_NXZ
F092B 330 ?get@?$input_adapter_character_source@V?$string_input_adapter@D@__crt_stdio_input@@@__crt_strtox@@QAEDXZ
F096C 330 ?get@?$string_input_adapter@D@__crt_stdio_input@@QAEHXZ
F0982 330 ?is_character_allowed_in_string@?$input_processor@DV?$string_input_adapter@D@__crt_stdio_input@@@__crt_stdio_input@@ABE_NW4conversion_mode@2@H@Z
F09D2 330 ?length@?$format_string_parser@D@__crt_stdio_input@@QBEIXZ
F0A0A 330 $LN16
F0A16 330 $LN15
F0A20 330 ?process@?$input_processor@DV?$string_input_adapter@D@__crt_stdio_input@@@__crt_stdio_input@@QAEHXZ
F0AA5 330 ?process_character_count_specifier@?$input_processor@DV?$string_input_adapter@D@__crt_stdio_input@@@__crt_stdio_input@@AAE_NXZ
F0ABD 330 ?process_conversion_specifier@?$input_processor@DV?$string_input_adapter@D@__crt_stdio_input@@@__crt_stdio_input@@AAE_NXZ
F0B09 330 $LN15
F0B31 330 ?process_floating_point_specifier@?$input_processor@DV?$string_input_adapter@D@__crt_stdio_input@@@__crt_stdio_input@@AAE_NXZ
F0B61 330 ?process_integer_specifier@?$input_processor@DV?$string_input_adapter@D@__crt_stdio_input@@@__crt_stdio_input@@AAE_NI_N@Z
F0BC6 330 ?process_literal_character@?$input_processor@DV?$string_input_adapter@D@__crt_stdio_input@@@__crt_stdio_input@@AAE_NXZ
F0BFC 330 ?process_literal_character_tchar@?$input_processor@DV?$string_input_adapter@D@__crt_stdio_input@@@__crt_stdio_input@@AAE_ND@Z
F0C4A 330 ?process_state@?$input_processor@DV?$string_input_adapter@D@__crt_stdio_input@@@__crt_stdio_input@@AAE_NXZ
F0C8C 330 ?process_string_specifier@?$input_processor@DV?$string_input_adapter@D@__crt_stdio_input@@@__crt_stdio_input@@AAE_NW4conversion_mode@2@@Z
F0CD4 330 ?process_whitespace@?$input_processor@DV?$string_input_adapter@D@__crt_stdio_input@@@__crt_stdio_input@@AAE_NXZ
F0CF1 330 ?restore_state@?$input_adapter_character_source@V?$string_input_adapter@D@__crt_stdio_input@@@__crt_strtox@@QAE_N_K@Z
F0D16 330 ?scan_conversion_specifier@?$format_string_parser@D@__crt_stdio_input@@AAE_NXZ
F0E92 330 ?scan_optional_field_width@?$format_string_parser@D@__crt_stdio_input@@AAE_NXZ
F0F26 330 ?scan_optional_length_modifier@?$format_string_parser@D@__crt_stdio_input@@AAEXXZ
F103B 330 ?scan_optional_literal_character_trail_bytes_tchar@?$format_string_parser@D@__crt_stdio_input@@AAE_ND@Z
F108D 330 ?scan_optional_wide_modifier@?$format_string_parser@D@__crt_stdio_input@@AAEXXZ
F10AB 330 ?scan_scanset_range@?$format_string_parser@D@__crt_stdio_input@@AAE_NXZ
F11FB 330 ?set@?$scanset_buffer@E@__crt_stdio_input@@QAEXE@Z
F1226 330 ?set_wide_for_c_s_or_scanset@?$format_string_parser@D@__crt_stdio_input@@AAEXXZ
F1247 330 ?to_floating_point_length@__crt_stdio_input@@YAIW4length_modifier@1@@Z
F126A 330 ?to_integer_length@__crt_stdio_input@@YAIW4length_modifier@1@@Z
F129E 330 $LN17
F12B2 330 $LN16
F12BD 330 ?unget@?$input_adapter_character_source@V?$string_input_adapter@D@__crt_stdio_input@@@__crt_strtox@@QAEXD@Z
F1304 330 ?unget@?$string_input_adapter@D@__crt_stdio_input@@QAEXH@Z
F1323 330 ?validate@?$format_string_parser@D@__crt_stdio_input@@QBE_NXZ
F133F 330 ?validate@?$input_adapter_character_source@V?$string_input_adapter@D@__crt_stdio_input@@@__crt_strtox@@QBE_NXZ
F1360 330 ?validate@?$string_input_adapter@D@__crt_stdio_input@@QAE_NXZ
F1382 330 ?write_character@?$input_processor@DV?$string_input_adapter@D@__crt_stdio_input@@@__crt_stdio_input@@AAE_NQA_WIAAPA_WAAID@Z
F13EF 330 ?write_integer@?$input_processor@DV?$string_input_adapter@D@__crt_stdio_input@@@__crt_stdio_input@@AAE_N_K@Z
F145E 330 ___stdio_common_vsscanf
F1490 291 __floor_no_sse41
F14D0 291 _floor
F14F0 291 __floor_pentium4
F15A7 424 ??$thread_start@P6AXPAX@Z$0A@@@YGKQAX@Z
F1627 424 ??1?$__crt_unique_heap_ptr@U__acrt_thread_parameter@@Uthread_parameter_free_policy@?A0x4e93fcdd@@@@QAE@XZ
F165E 424 ?common_end_thread@@YAXI@Z
F16B5 424 ?create_thread_parameter@@YAPAU__acrt_thread_parameter@@QAX0@Z
F1705 424 __beginthread
F1793 424 __endthread
F179B 424 __endthreadex
F17A9 279 ??$?RV<lambda_03b1d95aef87969028cfba75ccab2455>@@AAV<lambda_6e4b09c48022b2350581041d5f6b0c4c>@@V<lambda_22bdf7517842c4b3e53723af5aa32b9e>@@@?$__crt_seh_guarded_call@X@@QAEX$$QAV<lambda_03b1d95aef87969028cfba75ccab2455>@@AAV<lambda_6e4b09c48022b2350581041d5f6b0c4c>@@$$QAV<lambda_22bdf7517842c4b3e53723af5aa32b9e>@@@Z
F17F6 374 ??$__crt_fast_decode_pointer@P6AHI@Z@@YAP6AHI@ZQ6AHI@Z@Z
F1811 279 ??R<lambda_6e4b09c48022b2350581041d5f6b0c4c>@@QBE@XZ
F18F9 279 ?common_exit@@YAXHW4_crt_exit_cleanup_mode@@W4_crt_exit_return_mode@@@Z
F19B7 279 ?exit_or_terminate_process@@YAXI_N@Z
F19E5 279 ?is_managed_app@@YA_NXZ
F1A27 279 ?try_cor_exit_process@@YAXI@Z
F1AA9 279 ___acrt_initialize_thread_local_exit_callback
F1AB8 279 __cexit
F1AC7 279 __exit
F1ADD 279 __is_c_termination_complete
F1AF0 235 __CIfmod
F1B00 235 __fFMOD
F1B10 350 __libm_sse2_log10_precise
F1DC0 386 __libm_sse2_pow_precise
F2910 253 __wtol
F294F 426 ___acrt_initialize_timeset
F2984 426 ___daylight
F298A 426 ___dstbias
F2990 426 ___timezone
F2996 426 ___tzname
F299C 426 ___wide_tzname
F29A2 426 __get_daylight
F29CE 426 __get_dstbias
F29FA 426 __get_timezone
F2A26 431 ??$__crt_time_elapsed_leap_years@H@@YAHH@Z
F2A60 431 ??$__crt_time_is_leap_year@H@@YA_NH@Z
F2AA3 431 ?_isindst_nolock@@YAHQAUtm@@@Z
F2CBF 431 ?cvtdate@@YAXW4transition_type@?A0x7639d0b4@@W4date_type@2@HHHHHHHHH@Z
F2E0A 431 ?get_tz_environment_variable@@YAPA_WAAY0BAA@_W@Z
F2E81 431 ?tzset_env_copy_to_tzname@@YAXQB_WQA_WQADI@Z
F2EC8 431 ?tzset_from_environment_nolock@@YAXPA_W@Z
F315B 431 ?tzset_from_system_nolock@@YAXXZ
F32B5 431 ?tzset_nolock@@YAXXZ
F332A 431 ?tzset_os_copy_to_tzname@@YAXQB_WQA_WQADI@Z
F336C 431 ___tzset
F33C9 431 __isindst
F3420 368 _modf
F3460 368 __modf_pentium4
F3570 354 __libm_sse2_log_precise
F3800 249 _abort
F3844 305 ??$common_ftell@_J@@YA_JV__crt_stdio_stream@@AAV__crt_cached_ptd_host@@@Z
F38D7 305 ??$common_ftell_nolock@_J@@YA_JV__crt_stdio_stream@@AAV__crt_cached_ptd_host@@@Z
F3A78 305 ?common_ftell_read_mode_nolock@@YA_JV__crt_stdio_stream@@_J1AAV__crt_cached_ptd_host@@@Z
F3C43 305 ?common_ftell_translated_utf8_nolock@@YA_JV__crt_stdio_stream@@_JAAV__crt_cached_ptd_host@@@Z
F3E09 305 ?count_newline_bytes@@YA_JQBD0W4__crt_lowio_text_mode@@@Z
F3E72 305 __ftelli64
F3EA8 305 __ftelli64_nolock_internal
F3EB3 346 ___acrt_initialize_locks
F3EF4 346 ___acrt_lock
F3F0B 346 ___acrt_uninitialize_locks
F3F3C 346 ___acrt_unlock
F3F53 346 __lock_locales
F3F61 346 __unlock_locales
F3F6A 400 ??$?RV<lambda_f5952838e36297a1e2e9d6c748429792>@@AAV<lambda_2116bde18c9e5f34230805ea4a4660ed>@@V<lambda_3c7107de1cc98bf330a3031f42c322a3>@@@?$__crt_seh_guarded_call@PAD@@QAEPAD$$QAV<lambda_f5952838e36297a1e2e9d6c748429792>@@AAV<lambda_2116bde18c9e5f34230805ea4a4660ed>@@$$QAV<lambda_3c7107de1cc98bf330a3031f42c322a3>@@@Z
F3FC5 400 ??R<lambda_2116bde18c9e5f34230805ea4a4660ed>@@QBEPADXZ
F4124 400 _call_wsetlocale
F41BF 400 _setlocale
F41F7 272 ___pctype_func
F4220 237 _islower
F42B0 237 _isspace
F4340 237 _isupper
F43C4 324 ____lc_codepage_func
F43E9 324 ____lc_collate_cp_func
F440E 324 ____lc_locale_name_func
F4435 324 ____mb_cur_max_func
F445A 324 ___acrt_locale_initialize_ctype
F48BE 414 ___strncnt
F48DA 439 ?compute_iso_week@@YAHHHH@Z
F4928 439 ?compute_iso_week_internal@@YAHHHH@Z
F49C1 439 ?compute_iso_year@@YAHHHH@Z
F49EF 439 ?expand_time@@YA_NPAU__crt_locale_pointers@@_WPBUtm@@PAPA_WPAIPBU__crt_lc_time_data@@_N@Z
F5397 439 $LN189
F53B7 439 ?store_number@@YAXHHQAPA_WQAI_W@Z
F544B 439 ?store_number_without_lead_zeroes@@YAXHQAPA_WQAI@Z
F54B7 439 ?store_string@@YAXPB_WQAPA_WQAI@Z
F54EA 439 ?store_winword@@YA_NQAU__crt_locale_pointers@@HQBUtm@@QAPA_WQAIQBU__crt_lc_time_data@@@Z
F591B 439 __Wcsftime_l
F5A7B 419 _strnlen
F5BB0 419 _wcslen
F5CCA 419 _wcsnlen
F5E80 374 __callnewh
F5EC0 374 ___acrt_initialize_new_handler
F5EE0 374 __query_new_handler
F5F40 374 __set_new_handler
F5FB0 374 ?_set_new_handler@@YAP6AHI@ZH@Z
F5FBD 374 ??$__crt_fast_encode_pointer@P6AHI@Z@@YAP6AHI@ZQ6AHI@Z@Z
F5FDC 278 __seh_filter_dll
F5FFC 278 __seh_filter_exe
F6142 251 ??$common_configure_argv@D@@YAHW4_crt_argv_mode@@@Z
F627F 251 ??$parse_command_line@D@@YAXPADPAPAD0PAI2@Z
F63F1 251 ___acrt_allocate_buffer_for_argv
F6440 251 __configure_narrow_argv
F644B 276 ??$common_get_or_create_environment_nolock@D@@YAPAPADXZ
F6477 276 ??$common_get_or_create_environment_nolock@_W@@YAPAPA_WXZ
F64A3 276 ??$common_initialize_environment_nolock@D@@YAHXZ
F64FD 276 ??$common_initialize_environment_nolock@_W@@YAHXZ
F6552 276 ??$create_environment@D@@YAQAPADQAD@Z
F6637 276 ??$create_environment@_W@@YAQAPA_WQA_W@Z
F675A 276 ??$free_environment@D@@YAXQAPAD@Z
F6789 276 ??$initialize_environment_by_cloning_nolock@D@@YAHXZ
F680C 276 ??$initialize_environment_by_cloning_nolock@_W@@YAHXZ
F688D 276 ??$uninitialize_environment_internal@D@@YAXAAPAPAD@Z
F68A8 276 ??$uninitialize_environment_internal@_W@@YAXAAPAPA_W@Z
F68C3 276 ___dcrt_get_or_create_narrow_environment_nolock
F68C8 276 ___dcrt_get_or_create_wide_environment_nolock
F68CD 276 ___dcrt_uninitialize_environments_nolock
F691E 276 __initialize_narrow_environment
F6923 377 ??$?RV<lambda_69a2805e680e0e292e8ba93315fe43a8>@@AAV<lambda_f03950bc5685219e0bcd2087efbe011e>@@V<lambda_03fcd07e894ec930e3f35da366ca99d6>@@@?$__crt_seh_guarded_call@H@@QAEH$$QAV<lambda_69a2805e680e0e292e8ba93315fe43a8>@@AAV<lambda_f03950bc5685219e0bcd2087efbe011e>@@$$QAV<lambda_03fcd07e894ec930e3f35da366ca99d6>@@@Z
F697E 377 ??$?RV<lambda_8e746cf0007f6ed984d6f78af1fec997>@@AAV<lambda_22ebabd17bc4fa466a2aca6d8deb888d>@@V<lambda_18ed0c0b38a6dc0daf1e7ac6d6adf05e>@@@?$__crt_seh_guarded_call@H@@QAEH$$QAV<lambda_8e746cf0007f6ed984d6f78af1fec997>@@AAV<lambda_22ebabd17bc4fa466a2aca6d8deb888d>@@$$QAV<lambda_18ed0c0b38a6dc0daf1e7ac6d6adf05e>@@@Z
F69D9 377 ??R<lambda_22ebabd17bc4fa466a2aca6d8deb888d>@@QBE@XZ
F6AEC 377 ??R<lambda_f03950bc5685219e0bcd2087efbe011e>@@QBE@XZ
F6BC6 377 __crt_atexit
F6BDC 377 __execute_onexit_table
F6C1A 377 __initialize_onexit_table
F6C43 377 __register_onexit_function
F6C76 325 _initialize_global_variables
F6C83 325 _initialize_c
F6C9D 325 _uninitialize_environment
F6CA5 325 _initialize_pointers
F6CD3 325 _uninitialize_vcruntime
F6CDC 325 _uninitialize_allocated_memory
F6CF3 325 _uninitialize_allocated_io_buffers
F6D43 325 ??R<lambda_af42a3ee9806e9a7305d451646e05244>@@QBE@AAPAU__crt_multibyte_data@@@Z
F6D71 325 ___acrt_initialize
F6D83 325 ___acrt_thread_attach
F6D8E 325 ___acrt_thread_detach
F6D96 325 ___acrt_uninitialize
F6DC6 325 ___acrt_uninitialize_critical
F6DD8 328 __initterm
F6E03 328 __initterm_e
F6E40 296 __except1
F6F80 296 __handle_exc
F72B0 296 __raise_exc
F72E0 296 __raise_exc_ex
F75F4 296 $LN55
F7610 296 __set_errno_from_matherr
F7650 296 __umatherr
F774F 423 _terminate
F778B 454 ?write_double_translated_ansi_nolock@@YA?AUwrite_result@?A0x17268360@@HQBDIAAV__crt_cached_ptd_host@@@Z
F7B56 454 ?write_double_translated_unicode_nolock@@YA?AUwrite_result@?A0x17268360@@QBDI@Z
F7BBE 454 ?write_requires_double_translation_nolock@@YA_NHAAV__crt_cached_ptd_host@@@Z
F7C3B 454 ?write_text_ansi_nolock@@YA?AUwrite_result@?A0x17268360@@HQBDI@Z
F7D16 454 ?write_text_utf16le_nolock@@YA?AUwrite_result@?A0x17268360@@HQBDI@Z
F7DFF 454 ?write_text_utf8_nolock@@YA?AUwrite_result@?A0x17268360@@HQBDI@Z
F7F31 454 __write
F7F68 454 __write_internal
F8079 454 __write_nolock
F8295 311 ??$__acrt_convert_wcs_mbs_cp@_WDV<lambda_fecc33a432ccb74a901dff60d61ca385>@@U__crt_win32_buffer_public_dynamic_resizing@@@@YAHQB_WAAV?$__crt_win32_buffer@DU__crt_win32_buffer_public_dynamic_resizing@@@@ABV<lambda_fecc33a432ccb74a901dff60d61ca385>@@I@Z
F835B 311 ??$__acrt_get_full_path_name_narrow_acp_or_utf8@U__crt_win32_buffer_no_resizing@@@@YAHQBDAAV?$__crt_win32_buffer@DU__crt_win32_buffer_no_resizing@@@@@Z
F8462 311 ??$__acrt_get_full_path_name_narrow_acp_or_utf8@U__crt_win32_buffer_public_dynamic_resizing@@@@YAHQBDAAV?$__crt_win32_buffer@DU__crt_win32_buffer_public_dynamic_resizing@@@@@Z
F8569 311 ??$__acrt_get_full_path_name_wide@U__crt_win32_buffer_internal_dynamic_resizing@@@@YAHQB_WAAV?$__crt_win32_buffer@_WU__crt_win32_buffer_internal_dynamic_resizing@@@@@Z
F8583 311 ??$__acrt_get_full_path_name_wide@U__crt_win32_buffer_no_resizing@@@@YAHQB_WAAV?$__crt_win32_buffer@_WU__crt_win32_buffer_no_resizing@@@@@Z
F859D 311 ??$__acrt_get_full_path_name_wide@U__crt_win32_buffer_public_dynamic_resizing@@@@YAHQB_WAAV?$__crt_win32_buffer@_WU__crt_win32_buffer_public_dynamic_resizing@@@@@Z
F85B7 311 ??$__acrt_wcs_to_mbs_cp@U__crt_win32_buffer_public_dynamic_resizing@@@@YAHQB_WAAV?$__crt_win32_buffer@DU__crt_win32_buffer_public_dynamic_resizing@@@@I@Z
F85D4 311 ??$call_win32_function@V<lambda_0d87af4cf61654f651d26e3c6a4f13fc>@@@?$__crt_win32_buffer@_WU__crt_win32_buffer_public_dynamic_resizing@@@@QAEHABV<lambda_0d87af4cf61654f651d26e3c6a4f13fc>@@@Z
F863A 311 ??$call_win32_function@V<lambda_33d632c04396b3de813369f94278cf6d>@@@?$__crt_win32_buffer@_WU__crt_win32_buffer_no_resizing@@@@QAEHABV<lambda_33d632c04396b3de813369f94278cf6d>@@@Z
F86A0 311 ??$call_win32_function@V<lambda_44f1df80ccead0226c26eac3423fba1d>@@@?$__crt_win32_buffer@_WU__crt_win32_buffer_internal_dynamic_resizing@@@@QAEHABV<lambda_44f1df80ccead0226c26eac3423fba1d>@@@Z
F8706 311 ??$common_getdcwd@D@@YAPADHPADHHQBDH@Z
F8835 311 ??$common_getdcwd@_W@@YAPA_WHPA_WHHQBDH@Z
F898A 311 ?_deallocate@?$__crt_win32_buffer@DU__crt_win32_buffer_public_dynamic_resizing@@@@AAEXXZ
F89A4 311 ?allocate@?$__crt_win32_buffer@DU__crt_win32_buffer_public_dynamic_resizing@@@@QAEHI@Z
F89E0 311 ?allocate@?$__crt_win32_buffer@_WU__crt_win32_buffer_public_dynamic_resizing@@@@QAEHI@Z
F8A1F 311 ?allocate@__crt_win32_buffer_public_dynamic_resizing@@SAHQAPAXIABV__crt_win32_buffer_debug_info@@@Z
F8A40 311 ?detach@?$__crt_win32_buffer@DU__crt_win32_buffer_public_dynamic_resizing@@@@QAEPADXZ
F8A9C 311 ?detach@?$__crt_win32_buffer@_WU__crt_win32_buffer_public_dynamic_resizing@@@@QAEPA_WXZ
F8AF9 311 ?is_valid_drive@@YAHI@Z
F8B78 311 __getcwd
F8B94 311 __wgetcwd
F8BB0 261 @_guard_check_icall@4
F8BB6 408 _strcpy_s
F8C10 443 _wcsncmp
F8C4A 436 _wcscpy_s
F8CB0 395 __realloc_base
F8D20 300 __free_base
F8D60 300 ?select_heap@@YAPAXQAX@Z
F8D66 383 ??$?RV<lambda_15ade71b0218206bbe3333a0c9b79046>@@AAV<lambda_da44e0f8b0f19ba52fefafb335991732>@@V<lambda_207f2d024fc103971653565357d6cd41>@@@?$__crt_seh_guarded_call@X@@QAEX$$QAV<lambda_15ade71b0218206bbe3333a0c9b79046>@@AAV<lambda_da44e0f8b0f19ba52fefafb335991732>@@$$QAV<lambda_207f2d024fc103971653565357d6cd41>@@@Z
F8DB8 383 ??$?RV<lambda_38edbb1296d33220d7e4dd0ed76b244a>@@AAV<lambda_5ce1d447e08cb34b2473517608e21441>@@V<lambda_fb385d3da700c9147fc39e65dd577a8c>@@@?$__crt_seh_guarded_call@X@@QAEX$$QAV<lambda_38edbb1296d33220d7e4dd0ed76b244a>@@AAV<lambda_5ce1d447e08cb34b2473517608e21441>@@$$QAV<lambda_fb385d3da700c9147fc39e65dd577a8c>@@@Z
F8E23 383 ??$?RV<lambda_6affb1475c98b40b75cdec977db92e3c>@@AAV<lambda_b8d4b9c228a6ecc3f80208dbb4b4a104>@@V<lambda_608742c3c92a14382c1684fc64f96c88>@@@?$__crt_seh_guarded_call@X@@QAEX$$QAV<lambda_6affb1475c98b40b75cdec977db92e3c>@@AAV<lambda_b8d4b9c228a6ecc3f80208dbb4b4a104>@@$$QAV<lambda_608742c3c92a14382c1684fc64f96c88>@@@Z
F8E78 383 ??$?RV<lambda_a7e850c220f1c8d1e6efeecdedd162c6>@@AAV<lambda_46720907175c18b6c9d2717bc0d2d362>@@V<lambda_9048902d66e8d99359bc9897bbb930a8>@@@?$__crt_seh_guarded_call@X@@QAEX$$QAV<lambda_a7e850c220f1c8d1e6efeecdedd162c6>@@AAV<lambda_46720907175c18b6c9d2717bc0d2d362>@@$$QAV<lambda_9048902d66e8d99359bc9897bbb930a8>@@@Z
F8ED2 383 ?construct_ptd@@YAXQAU__acrt_ptd@@QAPAU__crt_locale_data@@@Z
F8F6B 383 ?destroy_fls@@YGXPAX@Z
F8F8C 383 ?destroy_ptd@@YAXQAU__acrt_ptd@@@Z
F9059 383 ?internal_get_ptd_head_slow@@YAPAU__acrt_ptd@@XZ
F9101 383 ?replace_current_thread_locale_nolock@@YAXQAU__acrt_ptd@@QAU__crt_locale_data@@@Z
F914C 383 ___acrt_freeptd
F9190 383 ___acrt_getptd
F919E 383 ___acrt_getptd_head
F91E1 383 ___acrt_getptd_noexit
F926D 383 ___acrt_getptd_noexit_explicit
F92B6 383 ___acrt_initialize_ptd
F92EC 383 ___acrt_uninitialize_ptd
F9306 455 ??$?RV<lambda_4fdada1b837b2abbf20876fac97688ad>@@AAV<lambda_b57350f2640456a0859d250846f69caf>@@V<lambda_eed5e4f92b5b7d55fa22c48c484aaa54>@@@?$__crt_seh_guarded_call@X@@QAEX$$QAV<lambda_4fdada1b837b2abbf20876fac97688ad>@@AAV<lambda_b57350f2640456a0859d250846f69caf>@@$$QAV<lambda_eed5e4f92b5b7d55fa22c48c484aaa54>@@@Z
F9353 455 ??$?RV<lambda_ac03c5d59bd18b09cb88b28331f6bfed>@@AAV<lambda_2a444430fde8c29194d880d93eed5e8f>@@AAV<lambda_02db5278e8aef8b5e4976579d73f5304>@@@?$__crt_seh_guarded_call@X@@QAEX$$QAV<lambda_ac03c5d59bd18b09cb88b28331f6bfed>@@AAV<lambda_2a444430fde8c29194d880d93eed5e8f>@@AAV<lambda_02db5278e8aef8b5e4976579d73f5304>@@@Z
F9398 455 ??$?RV<lambda_e5124f882df8998aaf41531e079ba474>@@AAV<lambda_3e16ef9562a7dcce91392c22ab16ea36>@@V<lambda_e25ca0880e6ef98be67edffd8c599615>@@@?$__crt_seh_guarded_call@X@@QAEX$$QAV<lambda_e5124f882df8998aaf41531e079ba474>@@AAV<lambda_3e16ef9562a7dcce91392c22ab16ea36>@@$$QAV<lambda_e25ca0880e6ef98be67edffd8c599615>@@@Z
F9406 455 ??0_expandlocale_locale_name_cache@@QAE@QA_WIQAU__crt_qualified_locale_data@@@Z
F9450 455 ??1_expandlocale_locale_name_cache@@QAE@XZ
F9480 455 ??R<lambda_2a444430fde8c29194d880d93eed5e8f>@@QBE@XZ
F94EA 455 ??R<lambda_b57350f2640456a0859d250846f69caf>@@QBE@XZ
F95E8 455 ?commit_locale_name@_expandlocale_locale_name_cache@@QAEXQB_WI@Z
F962C 455 ?commit_locale_name_cache_already_updated@_expandlocale_locale_name_cache@@QAEXQB_WI@Z
F9661 455 ___acrt_copy_locale_name
F96C1 455 ___acrt_set_locale_changed
F96CC 455 ___acrt_uninitialize_locale
F96F3 455 ___lc_lctowcs
F9763 455 ___lc_wcstolc
F98A0 455 __copytlocinfo_nolock
F98CF 455 __expandlocale
F9CA5 455 __wcscats
F9CE6 455 __wsetlocale
F9D69 455 __wsetlocale_get_all
F9F06 455 __wsetlocale_nolock
FA1F6 455 __wsetlocale_set_cat
FA5A7 455 _get_default_code_page
FA5D6 455 _parse_bcp47
FA7B0 455 _parse_bcp47_code_page
FA7EF 455 _parse_bcp47_language
FA861 455 _parse_bcp47_region
FA91F 455 _parse_bcp47_script
FA98F 455 _string_is_alpha
FA9D0 257 __calloc_base
FAA30 358 __malloc_base
FAA81 343 ___acrt_update_locale_info
FAAAE 343 ___acrt_update_locale_info_explicit
FAADF 343 ___acrt_update_multibyte_info
FAB0C 343 ___acrt_update_multibyte_info_explicit
FAB3D 273 ?__acrt_fp_classify@@YA?AW4__acrt_fp_class@@ABN@Z
FAB9F 273 ?fe_to_nearest@@YA_NQBN_KF@Z
FAC51 273 ?fp_format_a@@YAHQBNPADIQADIH_NIW4__acrt_rounding_mode@@AAV__crt_cached_ptd_host@@@Z
FAF8D 273 ?fp_format_e@@YAHQBNQADI1IH_NIW4__acrt_rounding_mode@@AAV__crt_cached_ptd_host@@@Z
FB01D 273 ?fp_format_e_internal@@YAHQADIH_NIQAU_strflt@@1AAV__crt_cached_ptd_host@@@Z
FB160 273 ?fp_format_f@@YAHQBNQADI1IHW4__acrt_rounding_mode@@AAV__crt_cached_ptd_host@@@Z
FB1E9 273 ?fp_format_f_internal@@YAHQADIHQAU_strflt@@_NAAV__crt_cached_ptd_host@@@Z
FB2C9 273 ?fp_format_g@@YAHQBNQADI1IH_NIW4__acrt_rounding_mode@@AAV__crt_cached_ptd_host@@@Z
FB390 273 ?fp_format_nan_or_infinity@@YAHW4__acrt_fp_class@@_NPADI1@Z
FB425 273 ?shift_bytes@@YAXQADI0H@Z
FB459 273 ?should_round_up@@YA_NQBN_KFW4__acrt_rounding_mode@@@Z
FB4EC 273 ___acrt_fp_format
FB66C 450 __wctomb_internal
FB7D0 366 __mbtowc_internal
FB900 366 __mbtowc_l
FB938 362 ?__mblen_utf8@__crt_mbstring@@YAHPBD@Z
FB979 362 ?__mbrtoc32_utf8@__crt_mbstring@@YAIPA_UPBDIPAU_Mbstatet@@AAV__crt_cached_ptd_host@@@Z
FBB32 254 ?__c16rtomb_utf8@__crt_mbstring@@YAIPAD_SPAU_Mbstatet@@AAV__crt_cached_ptd_host@@@Z
FBBDD 363 ??R<lambda_e96123212306c92459f955e8e4eac55d>@@QBEIPBD@Z
FBC09 363 ?__mbrtowc_utf8@__crt_mbstring@@YAIPA_WPBDIPAU_Mbstatet@@AAV__crt_cached_ptd_host@@@Z
FBC4C 363 ?__mbsrtowcs_utf8@__crt_mbstring@@YAIPA_WPAPBDIPAU_Mbstatet@@AAV__crt_cached_ptd_host@@@Z
FBD5F 289 __fileno
FBD86 389 __get_printf_count_output
FBD9B 245 ___acrt_should_use_temporary_buffer
FBDD9 245 ___acrt_stdio_begin_temporary_buffering_nolock
FBE84 245 ___acrt_stdio_end_temporary_buffering_nolock
FBEC2 332 ?initialize_inherited_file_handles_nolock@@YAXXZ
FBF72 332 ?initialize_stdio_handles_nolock@@YAXXZ
FC022 332 ___acrt_initialize_lowio
FC082 332 ___acrt_uninitialize_lowio
FC0AE 295 ___set_fpsr_sse2
FC12E 295 __clrfp
FC13F 295 __ctrlfp
FC168 295 __set_statfp
FC1C1 295 __statfp
FC1D1 241 ??$common_flush_and_write_nolock@D@@YAHHV__crt_stdio_stream@@AAV__crt_cached_ptd_host@@@Z
FC2C7 241 ??$write_buffer_nolock@D@@YA_NDV__crt_stdio_stream@@AAV__crt_cached_ptd_host@@@Z
FC399 241 ?stream_is_at_end_of_file_nolock@@YA_NV__crt_stdio_stream@@@Z
FC428 241 ___acrt_stdio_flush_and_write_narrow_nolock
FC433 265 ??$?RV<lambda_9e9de3de5fa147e2223d7db92bc10aa6>@@AAV<lambda_38ce7e780aa69e748d6df282ebc68efe>@@V<lambda_8ca6da459f0f6780f1cff60fdc3d00e5>@@@?$__crt_seh_guarded_call@H@@QAEH$$QAV<lambda_9e9de3de5fa147e2223d7db92bc10aa6>@@AAV<lambda_38ce7e780aa69e748d6df282ebc68efe>@@$$QAV<lambda_8ca6da459f0f6780f1cff60fdc3d00e5>@@@Z
FC4D5 265 __commit
FC552 411 ?__acrt_stdio_allocate_stream@@YA?AV__crt_stdio_stream@@XZ
FC5BB 411 ?__acrt_stdio_free_stream@@YAXV__crt_stdio_stream@@@Z
FC5F6 411 ?find_or_allocate_unused_stream_nolock@@YA?AV__crt_stdio_stream@@XZ
FC6B8 243 ___acrt_stdio_free_buffer_nolock
FC6F8 371 ?filter_mbtowcs_flags@@YAKIK@Z
FC790 371 ___acrt_MultiByteToWideChar
FC7BA 451 ?filter_wcstomb_flags@@YAKIK@Z
FC84A 451 ___acrt_WideCharToMultiByte
FC8B4 239 ??$common_refill_and_read_nolock@D@@YAHV__crt_stdio_stream@@@Z
FCA3F 239 ___acrt_stdio_refill_and_read_narrow_nolock
FCA4A 453 ?<lambda_invoker_stdcall>@<lambda_c91022d537dc4a9efbeb91d0d380c697>@@CG@PA_W@Z
FCA6C 453 ??$?RV<lambda_6b4b7855443974f2b4b77000ea21c99c>@@AAV<lambda_8f7d3b162ab39427f4fa9995c67a7986>@@V<lambda_cc9a5ba8a5d8428b9634eab82665e5dc>@@@?$__crt_seh_guarded_call@H@@QAEH$$QAV<lambda_6b4b7855443974f2b4b77000ea21c99c>@@AAV<lambda_8f7d3b162ab39427f4fa9995c67a7986>@@$$QAV<lambda_cc9a5ba8a5d8428b9634eab82665e5dc>@@@Z
FCADF 453 ?try_get_AreFileApisANSI@@YAP6GHXZXZ
FCB09 453 ?try_get_CompareStringEx@@YAP6GHPB_WK0H0HPAU_nlsversioninfo@@PAXJ@ZXZ
FCB34 453 ?try_get_EnumSystemLocalesEx@@YAP6GHP6GHPA_WKJ@ZKJPAX@ZXZ
FCB5F 453 ?try_get_GetDateFormatEx@@YAP6GHPB_WKPBU_SYSTEMTIME@@0PA_WH0@ZXZ
FCB8A 453 ?try_get_GetLocaleInfoEx@@YAP6GHPB_WKPA_WH@ZXZ
FCBB5 453 ?try_get_GetTimeFormatEx@@YAP6GHPB_WKPBU_SYSTEMTIME@@0PA_WH@ZXZ
FCBE0 453 ?try_get_GetUserDefaultLocaleName@@YAP6GHPA_WH@ZXZ
FCC0B 453 ?try_get_IsValidLocaleName@@YAP6GHPB_W@ZXZ
FCC36 453 ?try_get_LCIDToLocaleName@@YAP6GHKPA_WHK@ZXZ
FCC61 453 ?try_get_LCMapStringEx@@YAP6GHPB_WK0HPA_WHPAU_nlsversioninfo@@PAXJ@ZXZ
FCC8C 453 ?try_get_LocaleNameToLCID@@YAP6GKPB_WK@ZXZ
FCCB7 453 ?try_get_function_slow@@YAPAXW4function_id@?A0x391cf84c@@QBDQBW4module_id@2@2@Z
FCD84 453 ?try_load_library_from_system_directory@@YAPAUHINSTANCE__@@QB_W@Z
FCDE7 453 ___acrt_AppPolicyGetProcessTerminationMethodInternal@4
FCE36 453 ___acrt_AppPolicyGetThreadInitializationTypeInternal@4
FCE85 453 ___acrt_AreFileApisANSI@0
FCEA4 453 ___acrt_CompareStringEx@36
FCF01 453 ___acrt_EnumSystemLocalesEx@16
FCF55 453 ___acrt_FlsAlloc@4
FCF61 453 ___acrt_FlsFree@4
FCF6D 453 ___acrt_FlsGetValue2@4
FCF7A 453 ___acrt_FlsGetValue@4
FCF86 453 ___acrt_FlsSetValue@8
FCF92 453 ___acrt_GetDateFormatEx@28
FCFE9 453 ___acrt_GetLocaleInfoEx@16
FD028 453 ___acrt_GetTimeFormatEx@24
FD06D 453 ___acrt_GetUserDefaultLocaleName@8
FD0A9 453 ___acrt_InitializeCriticalSectionEx@12
FD0B5 453 ___acrt_IsValidLocaleName@4
FD0ED 453 ___acrt_LCIDToLocaleName@16
FD12C 453 ___acrt_LCMapStringEx@36
FD189 453 ___acrt_LocaleNameToLCID@8
FD1BA 453 ___acrt_RoInitialize@4
FD204 453 ___acrt_RoUninitialize@0
FD241 453 ___acrt_can_use_vista_locale_apis
FD24C 453 ___acrt_eagerly_load_locale_apis
FD283 453 ___acrt_initialize_winapi_thunks
FD2A6 453 ___acrt_tls2_supported
FD2D7 453 ___acrt_uninitialize_winapi_thunks
FD30D 264 __fcloseall
FD3B8 319 ??$common_gmtime_s@_J@@YAHQAUtm@@QB_J@Z
FD503 319 ?compute_year@@YAHAA_JAA_N@Z
FD5BC 319 ___getgmtimebuf
FD5FA 319 __gmtime64_s
FD605 244 ___acrt_stdio_allocate_buffer_nolock
FD661 356 ??$common_lseek@_J@@YA_JH_JHAAV__crt_cached_ptd_host@@@Z
FD786 356 ??$common_lseek_nolock@_J@@YA_JH_JHAAV__crt_cached_ptd_host@@@Z
FD809 356 __lseeki64
FD849 356 __lseeki64_internal
FD867 356 __lseeki64_nolock
FD8A7 356 __lseeki64_nolock_internal
FD8C5 336 _iswctype
FD92E 334 __isctype_l
FDA00 247 __dtest_inline
FDA6A 340 ___libm_error_support
FDC90 360 ___acrt_initialize_sse2
FDCA0 258 __ceil_default
FDD80 282 _fegetround
FDD8F 447 __wcsnicoll
FDDFC 447 __wcsnicoll_l
FDEBC 418 __strnicoll
FDEE5 418 __strnicoll_l
FDFAD 398 ??$common_set_variable_in_environment_nolock@D@@YAHQADH@Z
FE20B 398 ??$common_set_variable_in_environment_nolock@_W@@YAHQA_WH@Z
FE495 398 ??$copy_environment@D@@YAPAPADQAPAD@Z
FE545 398 ??$copy_environment@_W@@YAPAPA_WQAPA_W@Z
FE603 398 ??$ensure_current_environment_is_not_initial_environment_nolock@D@@YAXXZ
FE61D 398 ??$ensure_current_environment_is_not_initial_environment_nolock@_W@@YAXXZ
FE637 398 ??$find_in_environment_nolock@D@@YAHQBDI@Z
FE68C 398 ??$find_in_environment_nolock@_W@@YAHQB_WI@Z
FE6E4 398 ___dcrt_set_variable_in_narrow_environment_nolock
FE6EF 398 ___dcrt_set_variable_in_wide_environment_nolock
FE6FA 275 ?get_drive_number_from_path@@YAHQB_W@Z
FE728 275 __getdrive
FE7CC 306 ??$common_fullpath@_W@@YAPA_WQA_WQB_WIHQBDH@Z
FE865 306 __wfullpath
FE883 448 _wcspbrk
FE8BB 440 ___ascii_wcsicmp
FE904 440 __towlower_internal
FE943 440 __wcsicmp
FE98C 440 __wcsicmp_l
FEA5F 347 ??$common_loctotime_t@_J@@YA_JHHHHHHH@Z
FEC2E 347 ?__crt_time_is_day_valid@@YA_NHHH@Z
FEC74 347 ___loctotime64_t
FEC7F 380 ___acrt_lowio_create_handle_array
FECFA 380 ___acrt_lowio_destroy_handle_array
FED2F 380 ___acrt_lowio_ensure_fh_exists
FEDCD 380 ___acrt_lowio_lock_fh
FEDF0 380 ___acrt_lowio_set_os_handle
FEE82 380 ___acrt_lowio_unlock_fh
FEEA5 380 __alloc_osfhnd
FEFB8 380 __free_osfhnd
FF049 380 __get_osfhandle
FF0B3 333 __isatty
FF109 401 __get_fmode
FF136 401 __setmode_nolock
FF207 262 ??0__crt_seek_guard@@QAE@H_J@Z
FF254 262 __chsize_nolock
FF28B 262 __chsize_nolock_internal
FF422 379 ??$__acrt_stdio_parse_mode@D@@YA?AU__acrt_stdio_stream_mode@@QBD@Z
FF663 379 ??$__acrt_stdio_parse_mode@_W@@YA?AU__acrt_stdio_stream_mode@@QB_W@Z
FF8F5 379 ??$common_openfile@D@@YAPAU_iobuf@@QBD0HV__crt_stdio_stream@@@Z
FF978 379 ??$common_openfile@_W@@YAPAU_iobuf@@QB_W0HV__crt_stdio_stream@@@Z
FF9FB 379 ?__acrt_stdio_parse_mode_D@@YA_NAAU__acrt_stdio_stream_mode@@@Z
FFA16 379 ?__acrt_stdio_parse_mode_T@@YA_NAAU__acrt_stdio_stream_mode@@@Z
FFA35 379 ?__acrt_stdio_parse_mode_b@@YA_NAAU__acrt_stdio_stream_mode@@@Z
FFA55 379 ?__acrt_stdio_parse_mode_c@@YA_NAAU__acrt_stdio_stream_mode@@AA_N@Z
FFA77 379 ?__acrt_stdio_parse_mode_n@@YA_NAAU__acrt_stdio_stream_mode@@AA_N@Z
FFA99 379 ?__acrt_stdio_parse_mode_plus@@YA_NAAU__acrt_stdio_stream_mode@@AA_N@Z
FFACF 379 ?__acrt_stdio_parse_mode_t@@YA_NAAU__acrt_stdio_stream_mode@@@Z
FFAEF 379 ?__acrt_stdio_parse_mode_x@@YA_NAAU__acrt_stdio_stream_mode@@@Z
FFB0F 379 __openfile
FFB1A 379 __wopenfile
FFB25 338 ?__acrt_LCMapStringA_stat@@YAHPAU__crt_locale_pointers@@PB_WKPBDHPADHHH@Z
FFD12 338 ___acrt_LCMapStringA
FFD5B 290 __floor_default
FFE30 452 ___acrt_get_begin_thread_init_policy
FFE6A 452 ___acrt_get_process_end_policy
FFE91 382 ___acrt_app_verifier_enabled
FFEA3 382 ___acrt_is_secure_process
FFEC0 232 __cintrindisp2
FFF10 232 __cintrindisp1
FFF59 232 __ctrandisp2
1000E8 232 __ctrandisp1
10011B 232 __fload
100160 233 __trandisp1
1001D5 233 __trandisp2
10026F 233 __rttospopde
100274 233 __rttospop
100280 233 __rtnospop
100290 233 __rttosnpop
100291 233 __rtnospopde
100298 233 __rtzeropop
10029A 233 __rtzeronpop
1002A0 233 __rtzerospop
1002AD 233 __rtonepop
1002B0 233 __rtonenpop
1002C0 233 __tosnan1
1002F0 233 __nosnan2
100300 233 __tosnan2
100330 233 __nan2
100370 233 __rtindfpop
100372 233 __rtindfnpop
100383 233 __rttosnpopde
100390 233 __rtatan2inf
1003AD 233 __rtchsifneg
1003C0 348 __CIlog10
1003FB 348 __CIlog10_default
10040F 348 __log10_default
1004D0 384 __CIpow
10050B 384 __CIpow_default
100524 384 __pow_default
100719 445 ??$common_tcsncpy_s@_W@@YAHQA_WIQB_WI@Z
1007F8 445 _wcsncpy_s
100803 367 __modf_default
100950 352 __CIlog
10098B 352 __CIlog_default
10099F 352 __log_default
100A60 404 ??$?RV<lambda_cbab9ec6f41b0180b23cc171c22676b0>@@AAV<lambda_44731a7d0e6d81c3e6aa82d741081786>@@V<lambda_4b292cb8dd18144e164572427af410ab>@@@?$__crt_seh_guarded_call@P6AXH@Z@@QAEP6AXH@Z$$QAV<lambda_cbab9ec6f41b0180b23cc171c22676b0>@@AAV<lambda_44731a7d0e6d81c3e6aa82d741081786>@@$$QAV<lambda_4b292cb8dd18144e164572427af410ab>@@@Z
100AC8 404 ?get_global_action_nolock@@YAPAP6AXH@ZH@Z
100B0A 404 ?siglookup@@YAPAU__crt_signal_action_t@@HQAU1@@Z
100B32 404 ___acrt_get_sigabrt_handler
100B59 404 ___acrt_initialize_signal_handlers
100B77 404 _raise
100D69 365 ?_mbstowcs_internal@@YAHPAIPA_WIPBDIAAV__crt_cached_ptd_host@@@Z
100E46 365 ?_mbstowcs_l_helper@@YAIPA_WPBDIAAV__crt_cached_ptd_host@@@Z
10100F 365 _mbstowcs_s
10104C 449 ?_wcstombs_internal@@YAHPAIPADIPB_WIAAV__crt_cached_ptd_host@@@Z
101122 449 ?_wcstombs_l_helper@@YAIPADPB_WIAAV__crt_cached_ptd_host@@@Z
1013C3 449 __wcstombs_s_l
101401 313 ?InternalGetLocaleInfoA@@YAHQAU__crt_locale_pointers@@QB_WKQADH@Z
1014E1 313 ___acrt_GetLocaleInfoA
101691 316 ___acrt_GetStringTypeA
10178F 252 ?<lambda_invoker_cdecl>@<lambda_838c7f62c73c983481e27c09e84b0b5d>@@CAHPBX0@Z
1017A7 252 ??$__acrt_convert_wcs_mbs_cp@_WDV<lambda_28bda7af82a03b66c1cb3803a755f95d>@@U__crt_win32_buffer_internal_dynamic_resizing@@@@YAHQB_WAAV?$__crt_win32_buffer@DU__crt_win32_buffer_internal_dynamic_resizing@@@@ABV<lambda_28bda7af82a03b66c1cb3803a755f95d>@@I@Z
10186D 252 ??$common_expand_argv_wildcards@D@@YAHQAPADQAPAPAD@Z
1019EA 252 ??$copy_and_add_argument_to_buffer@D@@YAHQBD0IAAV?$argument_list@D@?A0x5f5c8891@@@Z
101A9B 252 ??$expand_argument_wildcards@D@@YAHQAD0AAV?$argument_list@D@?A0x5f5c8891@@@Z
101D27 252 ??1?$argument_list@D@?A0x5f5c8891@@QAE@XZ
101D4C 252 ?allocate@?$__crt_win32_buffer@DU__crt_win32_buffer_internal_dynamic_resizing@@@@QAEHI@Z
101D88 252 ?expand_if_necessary@?$argument_list@D@?A0x5f5c8891@@AAEHXZ
101E0F 252 ___acrt_expand_narrow_argv_wildcards
101E1A 314 ___acrt_GetModuleFileNameA
101EBB 361 ??$?RV<lambda_ceb1ee4838e85a9d631eb091e2fbe199>@@AAV<lambda_ae742caa10f662c28703da3d2ea5e57e>@@V<lambda_cd08b5d6af4937fe54fc07d0c9bf6b37>@@@?$__crt_seh_guarded_call@X@@QAEX$$QAV<lambda_ceb1ee4838e85a9d631eb091e2fbe199>@@AAV<lambda_ae742caa10f662c28703da3d2ea5e57e>@@$$QAV<lambda_cd08b5d6af4937fe54fc07d0c9bf6b37>@@@Z
101F08 361 ??R<lambda_ae742caa10f662c28703da3d2ea5e57e>@@QBE@XZ
101F8B 361 ?CPtoLocaleName@@YAPB_WH@Z
101FC9 361 ?getSystemCP@@YAHH@Z
10203A 361 ?setSBCS@@YAXPAU__crt_multibyte_data@@@Z
10209D 361 ?setSBUpLow@@YAXPAU__crt_multibyte_data@@@Z
102242 361 ?setmbcp_internal@@YAHH_NQAU__acrt_ptd@@QAPAU__crt_multibyte_data@@@Z
102397 361 ?update_thread_multibyte_data_internal@@YAPAU__crt_multibyte_data@@QAU__acrt_ptd@@QAPAU1@@Z
102437 361 ___acrt_initialize_multibyte
10247F 361 ___acrt_update_thread_multibyte_data
102492 361 __setmbcp_nolock
102697 335 ?x_ismbbtype_l@@YAHPAU__crt_locale_pointers@@IHH@Z
1026E7 335 __ismbblead
1026FF 250 ___acrt_initialize_command_line
102718 309 ?find_end_of_double_null_terminated_sequence@@YAPB_WQB_W@Z
10274F 309 ___dcrt_get_narrow_environment_from_os
1027EF 309 ___dcrt_get_wide_environment_from_os
102840 396 __recalloc_base
1028C0 396 __recalloc
1028D0 320 __get_heap_handle
1028E0 320 ___acrt_initialize_heap
102900 320 ___acrt_uninitialize_heap
102910 320 ___acrt_getheap
102916 403 ___acrt_execute_initializers
10297E 403 ___acrt_execute_uninitializers
1029B0 359 ___acrt_has_user_matherr
1029D0 359 ___acrt_initialize_user_matherr
1029E0 359 ___acrt_invoke_user_matherr
102A19 238 ?to_abstract_control@@YA?AW4__acrt_fenv_abstract_control@@W4__acrt_fenv_machine_sse_control@@@Z
102ACF 238 ?to_abstract_control@@YA?AW4__acrt_fenv_abstract_control@@W4__acrt_fenv_machine_x87_control@@@Z
102B7E 238 ?to_machine_sse_control@@YA?AW4__acrt_fenv_machine_sse_control@@W4__acrt_fenv_abstract_control@@@Z
102C38 238 ?to_machine_x87_control@@YA?AW4__acrt_fenv_machine_x87_control@@W4__acrt_fenv_abstract_control@@@Z
102CF1 238 ___acrt_fenv_get_common_round_control
102D14 238 ___acrt_fenv_get_control
102D94 238 ___acrt_fenv_get_status
102E3E 238 ___acrt_fenv_set_control
102EB9 238 ___acrt_fenv_set_status
102FB5 390 __putwch_nolock
102FF0 375 __query_new_mode
103000 375 __set_new_mode
10302F 342 ___acrt_add_locale_ref
1030AC 342 ___acrt_free_locale
1031F4 342 ___acrt_locale_add_lc_time_reference
10321D 342 ___acrt_locale_free_lc_time_if_unreferenced
10324E 342 ___acrt_locale_release_lc_time_reference
103277 342 ___acrt_release_locale_ref
1032F8 342 ___acrt_update_thread_locale_data
103379 342 __updatetlocinfoEx_nolock
1033C9 326 ___acrt_locale_free_monetary
1034C7 326 ___acrt_locale_initialize_monetary
103828 327 ___acrt_locale_free_numeric
103891 327 ___acrt_locale_initialize_numeric
103AAE 329 ?free_crt_array_internal@@YAXQAPBXI@Z
103AD3 329 ?initialize_lc_time@@YA_NQAU__crt_lc_time_data@@QAU__crt_locale_data@@@Z
103D4F 329 ___acrt_locale_free_time
103E33 329 ___acrt_locale_initialize_time
103EAE 435 _wcscat_s
103F1D 442 ??$common_tcsncat_s@_W@@YAHQA_WIQB_WI@Z
104005 442 _wcsncat_s
104010 437 _wcscspn
10404C 310 _GetLocaleNameFromDefault
1040D3 310 _GetLocaleNameFromLangCountry
10416C 310 _GetLocaleNameFromLanguage
1041C5 310 _GetPrimaryLen
1041F9 310 _LangCountryEnumProcEx@12
1044D9 310 _LanguageEnumProcEx@12
104593 310 _ProcessCodePage
104683 310 _TestDefaultCountry
1046D0 310 _TranslateName
10473D 310 ___acrt_get_qualified_locale
10494C 315 _CountryEnumProc@4
1049EF 315 _GetLcidFromCountry
104A3A 315 _GetLcidFromLangCountry
104AD5 315 _GetLcidFromLanguage
104B34 315 _GetPrimaryLen
104B60 315 _LangCountryEnumProc@4
104DB4 315 _LanguageEnumProc@4
104E85 315 _LcidFromHexString
104ED9 315 _ProcessCodePage
104FBA 315 _TestDefaultCountry
104FDF 315 _TestDefaultLanguage
105054 315 _TranslateName
1050BB 315 ___acrt_get_qualified_locale_downlevel
1052AB 242 ?check_trailing@@YA_NPBDW4__acrt_has_trailing_digits@@@Z
1052CE 242 ?should_round_up@@YA_NQBD0HW4__acrt_has_trailing_digits@@W4__acrt_rounding_mode@@@Z
10535C 242 ___acrt_fp_strflt_to_string
105455 260 ___acrt_fltout
106923 255 ?__c32rtomb_utf8@__crt_mbstring@@YAIPAD_UPAU_Mbstatet@@AAV__crt_cached_ptd_host@@@Z
1069D1 267 ?reset_and_return@__crt_mbstring@@YAIIPAU_Mbstatet@@@Z
1069E5 267 ?return_illegal_sequence@__crt_mbstring@@YAIPAU_Mbstatet@@AAV__crt_cached_ptd_host@@@Z
106A07 337 ?GetTableIndexFromLcid@@YAHK@Z
106A4A 337 ?GetTableIndexFromLocaleName@@YAHPB_W@Z
106A9E 337 ___acrt_DownlevelLCIDToLocaleName
106B1C 337 ___acrt_DownlevelLocaleNameToLCID
106B48 317 ___acrt_GetStringTypeW
106B61 302 __frnd
106B75 269 ___acrt_CompareStringW
106BDB 446 ___ascii_wcsnicmp
106C2F 446 __wcsnicmp
106C7B 446 __wcsnicmp_l
106D4E 417 __strnicmp
106DBB 417 __strnicmp_l
106E86 268 ?InternalCompareStringA@@YAHPAU__crt_locale_pointers@@PB_WKPBDH2HH@Z
107125 268 ___acrt_CompareStringA
10716B 399 ___acrt_SetEnvironmentVariableA
107200 429 __towlower_l
1072D4 397 __query_app_type
1072DA 430 ___acrt_initialize_fmode
1072F0 234 __87except
107410 349 __CIlog10_pentium4
107428 349 __log10_pentium4
1076A0 236 $$000000
1076C0 236 __fFEXP
107717 236 __rtinfpopse
107719 236 __rtinfnpopse
107729 236 __fFLN
1077DE 236 __rtinfpop
1077E0 236 __rtinfnpop
1077F0 236 __rtforexpinf
1077FD 236 __ffexpm1
1078B0 266 __twoToTOS
1078C5 266 __load_CW
1078DC 266 __convertTOStoQNaN
1078F5 266 __fload_withFB
107938 266 __checkTOS_withFB
10794E 266 __fast_exit
10795B 266 __math_exit
107985 266 __check_overflow_exit
107999 266 __check_range_exit
107A40 308 __startTwoArgErrorHandling
107A57 308 __startOneArgErrorHandling
107AA0 385 __CIpow_pentium4
107AB9 385 __pow_pentium4
1085C0 388 __powhlp
1087B3 322 __copysign
1087DB 322 __fpclass
108880 353 __CIlog_pentium4
108898 353 __log_pentium4
108AF0 434 ?__wcsrtombs_utf8@__crt_mbstring@@YAIPADPAPB_WIPAU_Mbstatet@@AAV__crt_cached_ptd_host@@@Z
108BF7 416 ??$common_tcsncpy_s@D@@YAHQADIQBDI@Z
108CC2 416 _strncpy_s
108CD0 420 _strpbrk
108D10 364 __mbsdec
108D27 364 __mbsdec_l
108DB4 370 ?initialize_multibyte@@YAHXZ
108DC0 369 __msize_base
108E00 369 __msize
108E0B 323 ?__dcrt_lowio_initialize_console_output@@YAXXZ
108E2A 323 ___dcrt_lowio_ensure_console_output_initialized
108E49 323 ___dcrt_terminate_console_output
108E60 323 ___dcrt_write_console
108EB5 456 ??$common_xtox@K_W@@YAHKQA_WII_N@Z
108F67 456 ??$common_xtox_s@K_W@@YAHKQA_WII_N@Z
108FD9 456 __itow_s
109010 271 __controlfp_s
109080 281 _fegetenv
1090A0 285 _fesetenv
109100 283 _feholdexcept
109160 246 ___ascii_strnicmp
1091C1 339 ___acrt_LCMapStringW
1091FF 321 ___hw_cw_sse2
1092BB 321 __clearfp
1093D1 321 __control87
109721 321 __hw_cw
109810 42 __FindPESection
109860 42 __IsNonwritableInCurrentImage
109920 42 __ValidateImageBase
109960 36 __allshl
109970 36 MORE32
10997A 36 RETZERO
109980 33 __alldvrm
1099A4 33 L1
1099C0 33 L2
1099EC 33 L3
1099FA 33 L5
109A28 33 L6
109A31 33 L7
109A33 33 L4
109A45 33 L9
109A59 33 L8
109A60 35 __allrem
109A80 35 L1
109A9B 35 L2
109ABA 35 L3
109AC8 35 L5
109AF3 35 L6
109AFB 35 L7
109B06 35 L4
109B0D 35 L8
109B12 484 _wcschr
109BAC 485 _wcsrchr
109C4E 57 __filter_x86_sse2_floating_point_exception
109CD0 4 __unwindfunclet$??0Exception@@QAE@ABV0@@Z$0
109CDD 4 __ehhandler$??0Exception@@QAE@ABV0@@Z
109CF0 4 __unwindfunclet$?AddItem@ChooseTypeMenu@@QAEIPBVFileType@@I@Z$0
109CFD 4 __ehhandler$?AddItem@ChooseTypeMenu@@QAEIPBVFileType@@I@Z
109D10 4 __unwindfunclet$?AddFavorite@ChooseTypeMenu@@QAEIPBVFileType@@@Z$0
109D1D 4 __ehhandler$?AddFavorite@ChooseTypeMenu@@QAEIPBVFileType@@@Z
109D30 4 __unwindfunclet$?DelFromFavorites@ChooseTypeMenu@@QAEXI@Z$0
109D3B 4 __unwindfunclet$?DelFromFavorites@ChooseTypeMenu@@QAEXI@Z$1
109D48 4 __ehhandler$?DelFromFavorites@ChooseTypeMenu@@QAEXI@Z
109D60 4 __unwindfunclet$?AddItemInGroup@ChooseTypeMenu@@QAEIPAVFileType@@@Z$0
109D6B 4 __unwindfunclet$?AddItemInGroup@ChooseTypeMenu@@QAEIPAVFileType@@@Z$1
109D89 4 __ehhandler$?AddItemInGroup@ChooseTypeMenu@@QAEIPAVFileType@@@Z
109DA0 4 __unwindfunclet$?GenerateName@ChooseTypeMenu@@SAPAVUnicodeString@icu_72@@PBVFileType@@@Z$0
109DAB 4 __unwindfunclet$?GenerateName@ChooseTypeMenu@@SAPAVUnicodeString@icu_72@@PBVFileType@@@Z$2
109DB3 4 __unwindfunclet$?GenerateName@ChooseTypeMenu@@SAPAVUnicodeString@icu_72@@PBVFileType@@@Z$3
109DBB 4 __unwindfunclet$?GenerateName@ChooseTypeMenu@@SAPAVUnicodeString@icu_72@@PBVFileType@@@Z$4
109DCB 4 __ehhandler$?GenerateName@ChooseTypeMenu@@SAPAVUnicodeString@icu_72@@PBVFileType@@@Z
109DE0 5 __unwindfunclet$??0_System_error@std@@IAE@Verror_code@1@ABV?$basic_string@DU?$char_traits@D@std@@V?$allocator@D@2@@1@@Z$3
109DE8 5 __unwindfunclet$??0_System_error@std@@IAE@Verror_code@1@ABV?$basic_string@DU?$char_traits@D@std@@V?$allocator@D@2@@1@@Z$4
109DF5 5 __ehhandler$??0_System_error@std@@IAE@Verror_code@1@ABV?$basic_string@DU?$char_traits@D@std@@V?$allocator@D@2@@1@@Z
109E10 5 __unwindfunclet$??0_Locinfo@std@@QAE@PBD@Z$0
109E18 5 __unwindfunclet$??0_Locinfo@std@@QAE@PBD@Z$1
109E23 5 __unwindfunclet$??0_Locinfo@std@@QAE@PBD@Z$2
109E2E 5 __unwindfunclet$??0_Locinfo@std@@QAE@PBD@Z$3
109E39 5 __unwindfunclet$??0_Locinfo@std@@QAE@PBD@Z$4
109E44 5 __unwindfunclet$??0_Locinfo@std@@QAE@PBD@Z$5
109E4F 5 __unwindfunclet$??0_Locinfo@std@@QAE@PBD@Z$6
109E5F 5 __ehhandler$??0_Locinfo@std@@QAE@PBD@Z
109E70 5 __ehhandler$??1_Locinfo@std@@QAE@XZ
109E80 5 __unwindfunclet$??0failure@ios_base@std@@QAE@PBDABVerror_code@2@@Z$1
109E8D 5 __ehhandler$??0failure@ios_base@std@@QAE@PBDABVerror_code@2@@Z
109EA0 5 __ehhandler$??1?$basic_ios@DU?$char_traits@D@std@@@std@@UAE@XZ
109EB0 5 __unwindfunclet$?print@?$ArgumentT@VUnicodeString@icu_72@@@details@@UBEXAAV?$basic_ostream@DU?$char_traits@D@std@@@std@@@Z$0
109EB8 5 __unwindfunclet$?print@?$ArgumentT@VUnicodeString@icu_72@@@details@@UBEXAAV?$basic_ostream@DU?$char_traits@D@std@@@std@@@Z$5
109EC0 5 __unwindfunclet$?print@?$ArgumentT@VUnicodeString@icu_72@@@details@@UBEXAAV?$basic_ostream@DU?$char_traits@D@std@@@std@@@Z$4
109ECD 5 __ehhandler$?print@?$ArgumentT@VUnicodeString@icu_72@@@details@@UBEXAAV?$basic_ostream@DU?$char_traits@D@std@@@std@@@Z
109EE0 5 __unwindfunclet$??0FarEditor@@QAE@PAUPluginStartupInfo@@PAVParserFactory@@PBVUnicodeString@icu_72@@@Z$0
109EEB 5 __unwindfunclet$??0FarEditor@@QAE@PAUPluginStartupInfo@@PAVParserFactory@@PBVUnicodeString@icu_72@@@Z$1
109EF6 5 __unwindfunclet$??0FarEditor@@QAE@PAUPluginStartupInfo@@PAVParserFactory@@PBVUnicodeString@icu_72@@@Z$2
109F01 5 __unwindfunclet$??0FarEditor@@QAE@PAUPluginStartupInfo@@PAVParserFactory@@PBVUnicodeString@icu_72@@@Z$3
109F0C 5 __unwindfunclet$??0FarEditor@@QAE@PAUPluginStartupInfo@@PAVParserFactory@@PBVUnicodeString@icu_72@@@Z$4
109F1F 5 __ehhandler$??0FarEditor@@QAE@PAUPluginStartupInfo@@PAVParserFactory@@PBVUnicodeString@icu_72@@@Z
109F30 5 __unwindfunclet$?init@FarEditor@@AAEXXZ$5
109F3F 5 __unwindfunclet$?init@FarEditor@@AAEXXZ$1
109F4A 5 __unwindfunclet$?init@FarEditor@@AAEXXZ$2
109F52 5 __unwindfunclet$?init@FarEditor@@AAEXXZ$9
109F61 5 __unwindfunclet$?init@FarEditor@@AAEXXZ$11
109F75 5 __ehhandler$?init@FarEditor@@AAEXXZ
109F90 5 __unwindfunclet$?getLine@FarEditor@@UAEPAVUnicodeString@icu_72@@I@Z$1
109F9B 5 __unwindfunclet$?getLine@FarEditor@@UAEPAVUnicodeString@icu_72@@I@Z$2
109FB9 5 __ehhandler$?getLine@FarEditor@@UAEPAVUnicodeString@icu_72@@I@Z
109FD0 5 __unwindfunclet$?chooseFileType@FarEditor@@QAEXPBVUnicodeString@icu_72@@@Z$9
109FDF 5 __unwindfunclet$?chooseFileType@FarEditor@@QAEXPBVUnicodeString@icu_72@@@Z$0
109FE7 5 __unwindfunclet$?chooseFileType@FarEditor@@QAEXPBVUnicodeString@icu_72@@@Z$1
109FEF 5 __unwindfunclet$?chooseFileType@FarEditor@@QAEXPBVUnicodeString@icu_72@@@Z$2
109FFA 5 __unwindfunclet$?chooseFileType@FarEditor@@QAEXPBVUnicodeString@icu_72@@@Z$3
10A013 5 __unwindfunclet$?chooseFileType@FarEditor@@QAEXPBVUnicodeString@icu_72@@@Z$4
10A01B 5 __unwindfunclet$?chooseFileType@FarEditor@@QAEXPBVUnicodeString@icu_72@@@Z$5
10A026 5 __unwindfunclet$?chooseFileType@FarEditor@@QAEXPBVUnicodeString@icu_72@@@Z$6
10A031 5 __unwindfunclet$?chooseFileType@FarEditor@@QAEXPBVUnicodeString@icu_72@@@Z$7
10A04D 5 __unwindfunclet$?chooseFileType@FarEditor@@QAEXPBVUnicodeString@icu_72@@@Z$8
10A06E 5 __ehhandler$?chooseFileType@FarEditor@@QAEXPBVUnicodeString@icu_72@@@Z
10A080 5 __unwindfunclet$?reloadTypeSettings@FarEditor@@AAEXXZ$0
10A08B 5 __unwindfunclet$?reloadTypeSettings@FarEditor@@AAEXXZ$1
10A093 5 __unwindfunclet$?reloadTypeSettings@FarEditor@@AAEXXZ$2
10A09B 5 __unwindfunclet$?reloadTypeSettings@FarEditor@@AAEXXZ$3
10A0A3 5 __unwindfunclet$?reloadTypeSettings@FarEditor@@AAEXXZ$4
10A0AB 5 __unwindfunclet$?reloadTypeSettings@FarEditor@@AAEXXZ$5
10A0B3 5 __unwindfunclet$?reloadTypeSettings@FarEditor@@AAEXXZ$6
10A0BB 5 __unwindfunclet$?reloadTypeSettings@FarEditor@@AAEXXZ$7
10A0C3 5 __unwindfunclet$?reloadTypeSettings@FarEditor@@AAEXXZ$8
10A0CB 5 __unwindfunclet$?reloadTypeSettings@FarEditor@@AAEXXZ$9
10A0D3 5 __unwindfunclet$?reloadTypeSettings@FarEditor@@AAEXXZ$10
10A0DE 5 __unwindfunclet$?reloadTypeSettings@FarEditor@@AAEXXZ$11
10A0FA 5 __unwindfunclet$?reloadTypeSettings@FarEditor@@AAEXXZ$12
10A105 5 __unwindfunclet$?reloadTypeSettings@FarEditor@@AAEXXZ$13
10A110 5 __unwindfunclet$?reloadTypeSettings@FarEditor@@AAEXXZ$14
10A129 5 __unwindfunclet$?reloadTypeSettings@FarEditor@@AAEXXZ$15
10A134 5 __unwindfunclet$?reloadTypeSettings@FarEditor@@AAEXXZ$16
10A144 5 __ehhandler$?reloadTypeSettings@FarEditor@@AAEXXZ
10A150 5 __unwindfunclet$?setCrossState@FarEditor@@QAEXHH@Z$0
10A158 5 __unwindfunclet$?setCrossState@FarEditor@@QAEXHH@Z$1
10A163 5 __unwindfunclet$?setCrossState@FarEditor@@QAEXHH@Z$2
10A16E 5 __unwindfunclet$?setCrossState@FarEditor@@QAEXHH@Z$3
10A176 5 __unwindfunclet$?setCrossState@FarEditor@@QAEXHH@Z$4
10A17E 5 __unwindfunclet$?setCrossState@FarEditor@@QAEXHH@Z$5
10A186 5 __unwindfunclet$?setCrossState@FarEditor@@QAEXHH@Z$6
10A196 5 __ehhandler$?setCrossState@FarEditor@@QAEXHH@Z
10A1B0 5 __unwindfunclet$?getNameCurrentScheme@FarEditor@@QAEXXZ$0
10A1BB 5 __unwindfunclet$?getNameCurrentScheme@FarEditor@@QAEXXZ$1
10A1C6 5 __unwindfunclet$?getNameCurrentScheme@FarEditor@@QAEXXZ$2
10A1D1 5 __unwindfunclet$?getNameCurrentScheme@FarEditor@@QAEXXZ$3
10A1DC 5 __unwindfunclet$?getNameCurrentScheme@FarEditor@@QAEXXZ$4
10A1E4 5 __unwindfunclet$?getNameCurrentScheme@FarEditor@@QAEXXZ$5
10A1F1 5 __ehhandler$?getNameCurrentScheme@FarEditor@@QAEXXZ
10A200 5 __unwindfunclet$?locateFunction@FarEditor@@QAEXXZ$0
10A210 5 __ehhandler$?locateFunction@FarEditor@@QAEXXZ
10A220 5 __unwindfunclet$?editorEvent@FarEditor@@QAEHHPAX@Z$1
10A237 5 __ehhandler$?editorEvent@FarEditor@@QAEHHPAX@Z
10A250 5 __unwindfunclet$?showOutliner@FarEditor@@AAEXPAVOutliner@@@Z$0
10A25B 5 __unwindfunclet$?showOutliner@FarEditor@@AAEXPAVOutliner@@@Z$1
10A277 5 __unwindfunclet$?showOutliner@FarEditor@@AAEXPAVOutliner@@@Z$2
10A282 5 __unwindfunclet$?showOutliner@FarEditor@@AAEXPAVOutliner@@@Z$5
10A28D 5 __unwindfunclet$?showOutliner@FarEditor@@AAEXPAVOutliner@@@Z$6
10A298 5 __unwindfunclet$?showOutliner@FarEditor@@AAEXPAVOutliner@@@Z$7
10A2A3 5 __unwindfunclet$?showOutliner@FarEditor@@AAEXPAVOutliner@@@Z$8
10A2AE 5 __unwindfunclet$?showOutliner@FarEditor@@AAEXPAVOutliner@@@Z$9
10A2B9 5 __unwindfunclet$?showOutliner@FarEditor@@AAEXPAVOutliner@@@Z$10
10A2C9 5 __ehhandler$?showOutliner@FarEditor@@AAEXPAVOutliner@@@Z
10A2E0 5 __unwindfunclet$?addFARColor@FarEditor@@ABEXHHHABUFarColor@@_K@Z$0
10A2EB 5 __unwindfunclet$?addFARColor@FarEditor@@ABEXHHHABUFarColor@@_K@Z$1
10A2F8 5 __ehhandler$?addFARColor@FarEditor@@ABEXHHHABUFarColor@@_K@Z
10A310 5 __unwindfunclet$??$use_facet@V?$ctype@D@std@@@std@@YAABV?$ctype@D@0@ABVlocale@0@@Z$0
10A318 5 __unwindfunclet$??$use_facet@V?$ctype@D@std@@@std@@YAABV?$ctype@D@0@ABVlocale@0@@Z$2
10A327 5 __unwindfunclet$??$use_facet@V?$ctype@D@std@@@std@@YAABV?$ctype@D@0@ABVlocale@0@@Z$1
10A334 5 __ehhandler$??$use_facet@V?$ctype@D@std@@@std@@YAABV?$ctype@D@0@ABVlocale@0@@Z
10A340 5 __unwindfunclet$??$toUTF8String@V?$basic_string@DU?$char_traits@D@std@@V?$allocator@D@2@@std@@@UnicodeString@icu_72@@QBEAAV?$basic_string@DU?$char_traits@D@std@@V?$allocator@D@2@@std@@AAV23@@Z$1
10A348 5 __unwindfunclet$??$toUTF8String@V?$basic_string@DU?$char_traits@D@std@@V?$allocator@D@2@@std@@@UnicodeString@icu_72@@QBEAAV?$basic_string@DU?$char_traits@D@std@@V?$allocator@D@2@@std@@AAV23@@Z$0
10A355 5 __ehhandler$??$toUTF8String@V?$basic_string@DU?$char_traits@D@std@@V?$allocator@D@2@@std@@@UnicodeString@icu_72@@QBEAAV?$basic_string@DU?$char_traits@D@std@@V?$allocator@D@2@@std@@AAV23@@Z
10A370 5 __unwindfunclet$??$log@AAVUnicodeString@icu_72@@@Log@@SAXW4LogLevel@Logger@@PBDH1V?$basic_string_view@DU?$char_traits@D@std@@@std@@AAVUnicodeString@icu_72@@@Z$0
10A37B 5 __unwindfunclet$??$log@AAVUnicodeString@icu_72@@@Log@@SAXW4LogLevel@Logger@@PBDH1V?$basic_string_view@DU?$char_traits@D@std@@@std@@AAVUnicodeString@icu_72@@@Z$1
10A388 5 __ehhandler$??$log@AAVUnicodeString@icu_72@@@Log@@SAXW4LogLevel@Logger@@PBDH1V?$basic_string_view@DU?$char_traits@D@std@@@std@@AAVUnicodeString@icu_72@@@Z
10A3A0 5 __unwindfunclet$?str@?$basic_stringstream@DU?$char_traits@D@std@@V?$allocator@D@2@@std@@QBE?AV?$basic_string@DU?$char_traits@D@std@@V?$allocator@D@2@@2@XZ$1
10A3BE 5 __ehhandler$?str@?$basic_stringstream@DU?$char_traits@D@std@@V?$allocator@D@2@@std@@QBE?AV?$basic_string@DU?$char_traits@D@std@@V?$allocator@D@2@@2@XZ
10A3D0 5 __unwindfunclet$??0?$basic_stringstream@DU?$char_traits@D@std@@V?$allocator@D@2@@std@@QAE@XZ$0
10A3EC 5 __unwindfunclet$??0?$basic_stringstream@DU?$char_traits@D@std@@V?$allocator@D@2@@std@@QAE@XZ$4
10A3F7 5 __unwindfunclet$??0?$basic_stringstream@DU?$char_traits@D@std@@V?$allocator@D@2@@std@@QAE@XZ$1
10A407 5 __ehhandler$??0?$basic_stringstream@DU?$char_traits@D@std@@V?$allocator@D@2@@std@@QAE@XZ
10A420 5 __ehhandler$??0?$basic_streambuf@DU?$char_traits@D@std@@@std@@IAE@XZ
10A430 5 __unwindfunclet$?init@?$basic_ios@DU?$char_traits@D@std@@@std@@IAEXPAV?$basic_streambuf@DU?$char_traits@D@std@@@2@_N@Z$1
10A43D 5 __ehhandler$?init@?$basic_ios@DU?$char_traits@D@std@@@std@@IAEXPAV?$basic_streambuf@DU?$char_traits@D@std@@@2@_N@Z
10A450 5 __unwindfunclet$??$_Insert_string@DU?$char_traits@D@std@@I@std@@YAAAV?$basic_ostream@DU?$char_traits@D@std@@@0@AAV10@QBDI@Z$5
10A458 5 __unwindfunclet$??$_Insert_string@DU?$char_traits@D@std@@I@std@@YAAAV?$basic_ostream@DU?$char_traits@D@std@@@0@AAV10@QBDI@Z$2
10A465 5 __ehhandler$??$_Insert_string@DU?$char_traits@D@std@@I@std@@YAAAV?$basic_ostream@DU?$char_traits@D@std@@@0@AAV10@QBDI@Z
10A480 5 __unwindfunclet$??0sentry@?$basic_ostream@DU?$char_traits@D@std@@@std@@QAE@AAV12@@Z$0
10A48D 5 __ehhandler$??0sentry@?$basic_ostream@DU?$char_traits@D@std@@@std@@QAE@AAV12@@Z
10A4A0 5 __unwindfunclet$?flush@?$basic_ostream@DU?$char_traits@D@std@@@std@@QAEAAV12@XZ$2
10A4AD 5 __ehhandler$?flush@?$basic_ostream@DU?$char_traits@D@std@@@std@@QAEAAV12@XZ
10A4C0 5 __unwindfunclet$??6?$basic_ostream@DU?$char_traits@D@std@@@std@@QAEAAV01@K@Z$4
10A4C8 5 __unwindfunclet$??6?$basic_ostream@DU?$char_traits@D@std@@@std@@QAEAAV01@K@Z$2
10A4D0 5 __unwindfunclet$??6?$basic_ostream@DU?$char_traits@D@std@@@std@@QAEAAV01@K@Z$3
10A4DD 5 __ehhandler$??6?$basic_ostream@DU?$char_traits@D@std@@@std@@QAEAAV01@K@Z
10A4F0 5 __unwindfunclet$??6?$basic_ostream@DU?$char_traits@D@std@@@std@@QAEAAV01@H@Z$4
10A4F8 5 __unwindfunclet$??6?$basic_ostream@DU?$char_traits@D@std@@@std@@QAEAAV01@H@Z$2
10A500 5 __unwindfunclet$??6?$basic_ostream@DU?$char_traits@D@std@@@std@@QAEAAV01@H@Z$3
10A50D 5 __ehhandler$??6?$basic_ostream@DU?$char_traits@D@std@@@std@@QAEAAV01@H@Z
10A520 5 __ehhandler$?_Osfx@?$basic_ostream@DU?$char_traits@D@std@@@std@@QAEXXZ
10A530 5 __unwindfunclet$?do_put@?$num_put@DV?$ostreambuf_iterator@DU?$char_traits@D@std@@@std@@@std@@MBE?AV?$ostreambuf_iterator@DU?$char_traits@D@std@@@2@V32@AAVios_base@2@DN@Z$0
10A53D 5 __ehhandler$?do_put@?$num_put@DV?$ostreambuf_iterator@DU?$char_traits@D@std@@@std@@@std@@MBE?AV?$ostreambuf_iterator@DU?$char_traits@D@std@@@2@V32@AAVios_base@2@DN@Z
10A550 5 __unwindfunclet$?do_put@?$num_put@DV?$ostreambuf_iterator@DU?$char_traits@D@std@@@std@@@std@@MBE?AV?$ostreambuf_iterator@DU?$char_traits@D@std@@@2@V32@AAVios_base@2@D_N@Z$0
10A558 5 __unwindfunclet$?do_put@?$num_put@DV?$ostreambuf_iterator@DU?$char_traits@D@std@@@std@@@std@@MBE?AV?$ostreambuf_iterator@DU?$char_traits@D@std@@@2@V32@AAVios_base@2@D_N@Z$1
10A565 5 __ehhandler$?do_put@?$num_put@DV?$ostreambuf_iterator@DU?$char_traits@D@std@@@std@@@std@@MBE?AV?$ostreambuf_iterator@DU?$char_traits@D@std@@@2@V32@AAVios_base@2@D_N@Z
10A580 5 __unwindfunclet$?_Iput@?$num_put@DV?$ostreambuf_iterator@DU?$char_traits@D@std@@@std@@@std@@ABA?AV?$ostreambuf_iterator@DU?$char_traits@D@std@@@2@V32@AAVios_base@2@DPADI@Z$0
10A588 5 __unwindfunclet$?_Iput@?$num_put@DV?$ostreambuf_iterator@DU?$char_traits@D@std@@@std@@@std@@ABA?AV?$ostreambuf_iterator@DU?$char_traits@D@std@@@2@V32@AAVios_base@2@DPADI@Z$1
10A590 5 __unwindfunclet$?_Iput@?$num_put@DV?$ostreambuf_iterator@DU?$char_traits@D@std@@@std@@@std@@ABA?AV?$ostreambuf_iterator@DU?$char_traits@D@std@@@2@V32@AAVios_base@2@DPADI@Z$2
10A598 5 __unwindfunclet$?_Iput@?$num_put@DV?$ostreambuf_iterator@DU?$char_traits@D@std@@@std@@@std@@ABA?AV?$ostreambuf_iterator@DU?$char_traits@D@std@@@2@V32@AAVios_base@2@DPADI@Z$3
10A5A5 5 __ehhandler$?_Iput@?$num_put@DV?$ostreambuf_iterator@DU?$char_traits@D@std@@@std@@@std@@ABA?AV?$ostreambuf_iterator@DU?$char_traits@D@std@@@2@V32@AAVios_base@2@DPADI@Z
10A5C0 5 __unwindfunclet$??$use_facet@V?$num_put@DV?$ostreambuf_iterator@DU?$char_traits@D@std@@@std@@@std@@@std@@YAABV?$num_put@DV?$ostreambuf_iterator@DU?$char_traits@D@std@@@std@@@0@ABVlocale@0@@Z$0
10A5C8 5 __unwindfunclet$??$use_facet@V?$num_put@DV?$ostreambuf_iterator@DU?$char_traits@D@std@@@std@@@std@@@std@@YAABV?$num_put@DV?$ostreambuf_iterator@DU?$char_traits@D@std@@@std@@@0@ABVlocale@0@@Z$2
10A5D7 5 __unwindfunclet$??$use_facet@V?$num_put@DV?$ostreambuf_iterator@DU?$char_traits@D@std@@@std@@@std@@@std@@YAABV?$num_put@DV?$ostreambuf_iterator@DU?$char_traits@D@std@@@std@@@0@ABVlocale@0@@Z$1
10A5E4 5 __ehhandler$??$use_facet@V?$num_put@DV?$ostreambuf_iterator@DU?$char_traits@D@std@@@std@@@std@@@std@@YAABV?$num_put@DV?$ostreambuf_iterator@DU?$char_traits@D@std@@@std@@@0@ABVlocale@0@@Z
10A5F0 5 __unwindfunclet$??$_Fput_v3@$0A@@?$num_put@DV?$ostreambuf_iterator@DU?$char_traits@D@std@@@std@@@std@@ABE?AV?$ostreambuf_iterator@DU?$char_traits@D@std@@@1@V21@AAVios_base@1@DPBDI_N@Z$0
10A5F8 5 __unwindfunclet$??$_Fput_v3@$0A@@?$num_put@DV?$ostreambuf_iterator@DU?$char_traits@D@std@@@std@@@std@@ABE?AV?$ostreambuf_iterator@DU?$char_traits@D@std@@@1@V21@AAVios_base@1@DPBDI_N@Z$1
10A600 5 __unwindfunclet$??$_Fput_v3@$0A@@?$num_put@DV?$ostreambuf_iterator@DU?$char_traits@D@std@@@std@@@std@@ABE?AV?$ostreambuf_iterator@DU?$char_traits@D@std@@@1@V21@AAVios_base@1@DPBDI_N@Z$2
10A608 5 __unwindfunclet$??$_Fput_v3@$0A@@?$num_put@DV?$ostreambuf_iterator@DU?$char_traits@D@std@@@std@@@std@@ABE?AV?$ostreambuf_iterator@DU?$char_traits@D@std@@@1@V21@AAVios_base@1@DPBDI_N@Z$3
10A615 5 __ehhandler$??$_Fput_v3@$0A@@?$num_put@DV?$ostreambuf_iterator@DU?$char_traits@D@std@@@std@@@std@@ABE?AV?$ostreambuf_iterator@DU?$char_traits@D@std@@@1@V21@AAVios_base@1@DPBDI_N@Z
10A630 5 __unwindfunclet$??$use_facet@V?$numpunct@D@std@@@std@@YAABV?$numpunct@D@0@ABVlocale@0@@Z$0
10A638 5 __unwindfunclet$??$use_facet@V?$numpunct@D@std@@@std@@YAABV?$numpunct@D@0@ABVlocale@0@@Z$2
10A647 5 __unwindfunclet$??$use_facet@V?$numpunct@D@std@@@std@@YAABV?$numpunct@D@0@ABVlocale@0@@Z$3
10A660 5 __unwindfunclet$??$use_facet@V?$numpunct@D@std@@@std@@YAABV?$numpunct@D@0@ABVlocale@0@@Z$4
10A668 5 __unwindfunclet$??$use_facet@V?$numpunct@D@std@@@std@@YAABV?$numpunct@D@0@ABVlocale@0@@Z$6
10A670 5 __unwindfunclet$??$use_facet@V?$numpunct@D@std@@@std@@YAABV?$numpunct@D@0@ABVlocale@0@@Z$1
10A67D 5 __ehhandler$??$use_facet@V?$numpunct@D@std@@@std@@YAABV?$numpunct@D@0@ABVlocale@0@@Z
10A690 6 __unwindfunclet$?open_logfile@SimpleLogger@@QAEXXZ$1
10A698 6 __unwindfunclet$?open_logfile@SimpleLogger@@QAEXXZ$0
10A6A5 6 __ehhandler$?open_logfile@SimpleLogger@@QAEXXZ
10A6C0 6 __ehhandler$??_GSimpleLogger@@UAEPAXI@Z
10A6D0 6 __unwindfunclet$??0FarEditorSet@@QAE@XZ$0
10A6DB 6 __unwindfunclet$??0FarEditorSet@@QAE@XZ$1
10A6E6 6 __unwindfunclet$??0FarEditorSet@@QAE@XZ$12
10A6F1 6 __unwindfunclet$??0FarEditorSet@@QAE@XZ$13
10A6FC 6 __unwindfunclet$??0FarEditorSet@@QAE@XZ$2
10A707 6 __unwindfunclet$??0FarEditorSet@@QAE@XZ$3
10A712 6 __unwindfunclet$??0FarEditorSet@@QAE@XZ$4
10A71D 6 __unwindfunclet$??0FarEditorSet@@QAE@XZ$5
10A72B 6 __unwindfunclet$??0FarEditorSet@@QAE@XZ$6
10A739 6 __unwindfunclet$??0FarEditorSet@@QAE@XZ$7
10A747 6 __unwindfunclet$??0FarEditorSet@@QAE@XZ$8
10A755 6 __unwindfunclet$??0FarEditorSet@@QAE@XZ$9
10A75D 6 __unwindfunclet$??0FarEditorSet@@QAE@XZ$15
10A76D 6 __ehhandler$??0FarEditorSet@@QAE@XZ
10A780 6 __unwindfunclet$?execMenuAction@FarEditorSet@@AAEXW4MENU_ACTION@1@PAVFarEditor@@@Z$2
10A788 6 __unwindfunclet$?execMenuAction@FarEditorSet@@AAEXW4MENU_ACTION@1@PAVFarEditor@@@Z$3
10A798 6 __ehhandler$?execMenuAction@FarEditorSet@@AAEXW4MENU_ACTION@1@PAVFarEditor@@@Z
10A7B0 6 __unwindfunclet$?viewFile@FarEditorSet@@QAEXABVUnicodeString@icu_72@@@Z$4
10A7B8 6 __unwindfunclet$?viewFile@FarEditorSet@@QAEXABVUnicodeString@icu_72@@@Z$5
10A7C3 6 __unwindfunclet$?viewFile@FarEditorSet@@QAEXABVUnicodeString@icu_72@@@Z$6
10A7CB 6 __unwindfunclet$?viewFile@FarEditorSet@@QAEXABVUnicodeString@icu_72@@@Z$7
10A7D6 6 __unwindfunclet$?viewFile@FarEditorSet@@QAEXABVUnicodeString@icu_72@@@Z$10
10A7E1 6 __unwindfunclet$?viewFile@FarEditorSet@@QAEXABVUnicodeString@icu_72@@@Z$11
10A7EC 6 __unwindfunclet$?viewFile@FarEditorSet@@QAEXABVUnicodeString@icu_72@@@Z$12
10A7F7 6 __unwindfunclet$?viewFile@FarEditorSet@@QAEXABVUnicodeString@icu_72@@@Z$13
10A802 6 __unwindfunclet$?viewFile@FarEditorSet@@QAEXABVUnicodeString@icu_72@@@Z$14
10A80A 6 __unwindfunclet$?viewFile@FarEditorSet@@QAEXABVUnicodeString@icu_72@@@Z$15
10A81A 6 __ehhandler$?viewFile@FarEditorSet@@QAEXABVUnicodeString@icu_72@@@Z
10A830 6 __unwindfunclet$?FillTypeMenu@FarEditorSet@@ABEXPAVChooseTypeMenu@@PAVFileType@@@Z$0
10A83B 6 __unwindfunclet$?FillTypeMenu@FarEditorSet@@ABEXPAVChooseTypeMenu@@PAVFileType@@@Z$1
10A843 6 __unwindfunclet$?FillTypeMenu@FarEditorSet@@ABEXPAVChooseTypeMenu@@PAVFileType@@@Z$2
10A84E 6 __unwindfunclet$?FillTypeMenu@FarEditorSet@@ABEXPAVChooseTypeMenu@@PAVFileType@@@Z$3
10A86C 6 __ehhandler$?FillTypeMenu@FarEditorSet@@ABEXPAVChooseTypeMenu@@PAVFileType@@@Z
10A880 6 __unwindfunclet$?chooseType@FarEditorSet@@AAE_NXZ$0
10A888 6 __unwindfunclet$?chooseType@FarEditorSet@@AAE_NXZ$1
10A890 6 __unwindfunclet$?chooseType@FarEditorSet@@AAE_NXZ$2
10A89B 6 __unwindfunclet$?chooseType@FarEditorSet@@AAE_NXZ$3
10A8A6 6 __unwindfunclet$?chooseType@FarEditorSet@@AAE_NXZ$4
10A8B1 6 __unwindfunclet$?chooseType@FarEditorSet@@AAE_NXZ$6
10A8BC 6 __unwindfunclet$?chooseType@FarEditorSet@@AAE_NXZ$7
10A8CC 6 __ehhandler$?chooseType@FarEditorSet@@AAE_NXZ
10A8E0 6 __unwindfunclet$?SettingDialogProc@@YGHPAXHH0@Z$0
10A8E8 6 __unwindfunclet$?SettingDialogProc@@YGHPAXHH0@Z$1
10A8F5 6 __ehhandler$?SettingDialogProc@@YGHPAXHH0@Z
10A910 6 __unwindfunclet$?configure@FarEditorSet@@QAE_NXZ$2
10A91B 6 __unwindfunclet$?configure@FarEditorSet@@QAE_NXZ$3
10A926 6 __unwindfunclet$?configure@FarEditorSet@@QAE_NXZ$4
10A931 6 __unwindfunclet$?configure@FarEditorSet@@QAE_NXZ$5
10A93C 6 __unwindfunclet$?configure@FarEditorSet@@QAE_NXZ$9
10A947 6 __unwindfunclet$?configure@FarEditorSet@@QAE_NXZ$17
10A95C 6 __unwindfunclet$?configure@FarEditorSet@@QAE_NXZ$15
10A967 6 __unwindfunclet$?configure@FarEditorSet@@QAE_NXZ$16
10A977 6 __ehhandler$?configure@FarEditorSet@@QAE_NXZ
10A990 6 __unwindfunclet$?editorEvent@FarEditorSet@@QAEHPBUProcessEditorEventInfo@@@Z$2
10A998 6 __unwindfunclet$?editorEvent@FarEditorSet@@QAEHPBUProcessEditorEventInfo@@@Z$3
10A9A8 6 __ehhandler$?editorEvent@FarEditorSet@@QAEHPBUProcessEditorEventInfo@@@Z
10A9C0 6 __unwindfunclet$?TestLoadBase@FarEditorSet@@QAE_NPB_W0000_NW4HRC_MODE@1@@Z$6
10A9C8 6 __unwindfunclet$?TestLoadBase@FarEditorSet@@QAE_NPB_W0000_NW4HRC_MODE@1@@Z$7
10A9D0 6 __unwindfunclet$?TestLoadBase@FarEditorSet@@QAE_NPB_W0000_NW4HRC_MODE@1@@Z$31
10A9DB 6 __unwindfunclet$?TestLoadBase@FarEditorSet@@QAE_NPB_W0000_NW4HRC_MODE@1@@Z$8
10A9E3 6 __unwindfunclet$?TestLoadBase@FarEditorSet@@QAE_NPB_W0000_NW4HRC_MODE@1@@Z$33
10A9EE 6 __unwindfunclet$?TestLoadBase@FarEditorSet@@QAE_NPB_W0000_NW4HRC_MODE@1@@Z$9
10A9F6 6 __unwindfunclet$?TestLoadBase@FarEditorSet@@QAE_NPB_W0000_NW4HRC_MODE@1@@Z$44
10AA01 6 __unwindfunclet$?TestLoadBase@FarEditorSet@@QAE_NPB_W0000_NW4HRC_MODE@1@@Z$10
10AA09 6 __unwindfunclet$?TestLoadBase@FarEditorSet@@QAE_NPB_W0000_NW4HRC_MODE@1@@Z$11
10AA11 6 __unwindfunclet$?TestLoadBase@FarEditorSet@@QAE_NPB_W0000_NW4HRC_MODE@1@@Z$12
10AA1C 6 __unwindfunclet$?TestLoadBase@FarEditorSet@@QAE_NPB_W0000_NW4HRC_MODE@1@@Z$13
10AA27 6 __unwindfunclet$?TestLoadBase@FarEditorSet@@QAE_NPB_W0000_NW4HRC_MODE@1@@Z$35
10AA36 6 __unwindfunclet$?TestLoadBase@FarEditorSet@@QAE_NPB_W0000_NW4HRC_MODE@1@@Z$15
10AA41 6 __unwindfunclet$?TestLoadBase@FarEditorSet@@QAE_NPB_W0000_NW4HRC_MODE@1@@Z$16
10AA4C 6 __unwindfunclet$?TestLoadBase@FarEditorSet@@QAE_NPB_W0000_NW4HRC_MODE@1@@Z$19
10AA57 6 __unwindfunclet$?TestLoadBase@FarEditorSet@@QAE_NPB_W0000_NW4HRC_MODE@1@@Z$22
10AA62 6 __unwindfunclet$?TestLoadBase@FarEditorSet@@QAE_NPB_W0000_NW4HRC_MODE@1@@Z$23
10AA6D 6 __unwindfunclet$?TestLoadBase@FarEditorSet@@QAE_NPB_W0000_NW4HRC_MODE@1@@Z$24
10AA78 6 __unwindfunclet$?TestLoadBase@FarEditorSet@@QAE_NPB_W0000_NW4HRC_MODE@1@@Z$25
10AA80 6 __unwindfunclet$?TestLoadBase@FarEditorSet@@QAE_NPB_W0000_NW4HRC_MODE@1@@Z$26
10AA90 6 __ehhandler$?TestLoadBase@FarEditorSet@@QAE_NPB_W0000_NW4HRC_MODE@1@@Z
10AAA0 6 __unwindfunclet$?ReloadBase@FarEditorSet@@AAEXXZ$5
10AAAB 6 __unwindfunclet$?ReloadBase@FarEditorSet@@AAEXXZ$6
10AAB6 6 __unwindfunclet$?ReloadBase@FarEditorSet@@AAEXXZ$20
10AAC5 6 __unwindfunclet$?ReloadBase@FarEditorSet@@AAEXXZ$10
10AAD0 6 __unwindfunclet$?ReloadBase@FarEditorSet@@AAEXXZ$18
10AADB 6 __unwindfunclet$?ReloadBase@FarEditorSet@@AAEXXZ$13
10AAE6 6 __unwindfunclet$?ReloadBase@FarEditorSet@@AAEXXZ$14
10AAF1 6 __unwindfunclet$?ReloadBase@FarEditorSet@@AAEXXZ$33
10AAFE 6 __ehhandler$?ReloadBase@FarEditorSet@@AAEXXZ
10AB10 6 __unwindfunclet$?addCurrentEditor@FarEditorSet@@AAEPAVFarEditor@@XZ$0
10AB27 6 __ehhandler$?addCurrentEditor@FarEditorSet@@AAEPAVFarEditor@@XZ
10AB40 6 __unwindfunclet$?getCurrentFileName@FarEditorSet@@CAPAVUnicodeString@icu_72@@XZ$0
10AB48 6 __unwindfunclet$?getCurrentFileName@FarEditorSet@@CAPAVUnicodeString@icu_72@@XZ$1
10AB58 6 __ehhandler$?getCurrentFileName@FarEditorSet@@CAPAVUnicodeString@icu_72@@XZ
10AB70 6 __unwindfunclet$?disableColorer@FarEditorSet@@QAEXXZ$0
10AB7D 6 __ehhandler$?disableColorer@FarEditorSet@@QAEXXZ
10AB90 6 __unwindfunclet$?ReadSettings@FarEditorSet@@QAEXXZ$0
10AB98 6 __unwindfunclet$?ReadSettings@FarEditorSet@@QAEXXZ$3
10ABA3 6 __unwindfunclet$?ReadSettings@FarEditorSet@@QAEXXZ$1
10ABAE 6 __unwindfunclet$?ReadSettings@FarEditorSet@@QAEXXZ$2
10ABB6 6 __unwindfunclet$?ReadSettings@FarEditorSet@@QAEXXZ$6
10ABC1 6 __unwindfunclet$?ReadSettings@FarEditorSet@@QAEXXZ$8
10ABD1 6 __ehhandler$?ReadSettings@FarEditorSet@@QAEXXZ
10ABE0 6 __unwindfunclet$?applyLogSetting@FarEditorSet@@QAEXXZ$2
10ABEB 6 __unwindfunclet$?applyLogSetting@FarEditorSet@@QAEXXZ$4
10ABF3 6 __unwindfunclet$?applyLogSetting@FarEditorSet@@QAEXXZ$5
10ABFE 6 __unwindfunclet$?applyLogSetting@FarEditorSet@@QAEXXZ$6
10AC06 6 __unwindfunclet$?applyLogSetting@FarEditorSet@@QAEXXZ$13
10AC18 6 __unwindfunclet$?applyLogSetting@FarEditorSet@@QAEXXZ$17
10AC34 6 __unwindfunclet$?applyLogSetting@FarEditorSet@@QAEXXZ$18
10AC3F 6 __unwindfunclet$?applyLogSetting@FarEditorSet@@QAEXXZ$15
10AC4A 6 __unwindfunclet$?applyLogSetting@FarEditorSet@@QAEXXZ$16
10AC58 6 __unwindfunclet$?applyLogSetting@FarEditorSet@@QAEXXZ$8
10AC68 6 __ehhandler$?applyLogSetting@FarEditorSet@@QAEXXZ
10AC80 6 __unwindfunclet$?SaveLogSettings@FarEditorSet@@ABEXXZ$0
10AC8D 6 __ehhandler$?SaveLogSettings@FarEditorSet@@ABEXXZ
10ACA0 6 __unwindfunclet$?showExceptionMessage@FarEditorSet@@SAXPBVUnicodeString@icu_72@@@Z$0
10ACAD 6 __ehhandler$?showExceptionMessage@FarEditorSet@@SAXPBVUnicodeString@icu_72@@@Z
10ACC0 6 __unwindfunclet$?configureLogging@FarEditorSet@@QAE_NXZ$0
10ACCB 6 __unwindfunclet$?configureLogging@FarEditorSet@@QAE_NXZ$1
10ACD6 6 __unwindfunclet$?configureLogging@FarEditorSet@@QAE_NXZ$2
10ACE6 6 __ehhandler$?configureLogging@FarEditorSet@@QAE_NXZ
10AD00 6 __unwindfunclet$?getHrdArrayWithCurrent@FarEditorSet@@CAHPB_WPAV?$vector@PBVHrdNode@@V?$allocator@PBVHrdNode@@@std@@@std@@PAV?$vector@PB_WV?$allocator@PB_W@std@@@3@@Z$0
10AD08 6 __unwindfunclet$?getHrdArrayWithCurrent@FarEditorSet@@CAHPB_WPAV?$vector@PBVHrdNode@@V?$allocator@PBVHrdNode@@@std@@@std@@PAV?$vector@PB_WV?$allocator@PB_W@std@@@3@@Z$1
10AD10 6 __unwindfunclet$?getHrdArrayWithCurrent@FarEditorSet@@CAHPB_WPAV?$vector@PBVHrdNode@@V?$allocator@PBVHrdNode@@@std@@@std@@PAV?$vector@PB_WV?$allocator@PB_W@std@@@3@@Z$2
10AD20 6 __ehhandler$?getHrdArrayWithCurrent@FarEditorSet@@CAHPB_WPAV?$vector@PBVHrdNode@@V?$allocator@PBVHrdNode@@@std@@@std@@PAV?$vector@PB_WV?$allocator@PB_W@std@@@3@@Z
10AD30 6 __unwindfunclet$?execMacro@FarEditorSet@@QAEPAXW4FARMACROAREA@@PAUOpenMacroInfo@@@Z$0
10AD3B 6 __unwindfunclet$?execMacro@FarEditorSet@@QAEPAXW4FARMACROAREA@@PAUOpenMacroInfo@@@Z$1
10AD46 6 __unwindfunclet$?execMacro@FarEditorSet@@QAEPAXW4FARMACROAREA@@PAUOpenMacroInfo@@@Z$2
10AD51 6 __unwindfunclet$?execMacro@FarEditorSet@@QAEPAXW4FARMACROAREA@@PAUOpenMacroInfo@@@Z$3
10AD5C 6 __unwindfunclet$?execMacro@FarEditorSet@@QAEPAXW4FARMACROAREA@@PAUOpenMacroInfo@@@Z$4
10AD67 6 __unwindfunclet$?execMacro@FarEditorSet@@QAEPAXW4FARMACROAREA@@PAUOpenMacroInfo@@@Z$11
10AD72 6 __unwindfunclet$?execMacro@FarEditorSet@@QAEPAXW4FARMACROAREA@@PAUOpenMacroInfo@@@Z$12
10AD7A 6 __unwindfunclet$?execMacro@FarEditorSet@@QAEPAXW4FARMACROAREA@@PAUOpenMacroInfo@@@Z$13
10AD82 6 __unwindfunclet$?execMacro@FarEditorSet@@QAEPAXW4FARMACROAREA@@PAUOpenMacroInfo@@@Z$14
10AD8A 6 __unwindfunclet$?execMacro@FarEditorSet@@QAEPAXW4FARMACROAREA@@PAUOpenMacroInfo@@@Z$5
10AD92 6 __unwindfunclet$?execMacro@FarEditorSet@@QAEPAXW4FARMACROAREA@@PAUOpenMacroInfo@@@Z$6
10AD9A 6 __unwindfunclet$?execMacro@FarEditorSet@@QAEPAXW4FARMACROAREA@@PAUOpenMacroInfo@@@Z$7
10ADA2 6 __unwindfunclet$?execMacro@FarEditorSet@@QAEPAXW4FARMACROAREA@@PAUOpenMacroInfo@@@Z$8
10ADAA 6 __unwindfunclet$?execMacro@FarEditorSet@@QAEPAXW4FARMACROAREA@@PAUOpenMacroInfo@@@Z$9
10ADB7 6 __ehhandler$?execMacro@FarEditorSet@@QAEPAXW4FARMACROAREA@@PAUOpenMacroInfo@@@Z
10ADD0 6 __unwindfunclet$?macroSettings@FarEditorSet@@AAEPAXW4FARMACROAREA@@PAUOpenMacroInfo@@@Z$0
10ADDB 6 __unwindfunclet$?macroSettings@FarEditorSet@@AAEPAXW4FARMACROAREA@@PAUOpenMacroInfo@@@Z$1
10ADE3 6 __unwindfunclet$?macroSettings@FarEditorSet@@AAEPAXW4FARMACROAREA@@PAUOpenMacroInfo@@@Z$2
10ADEB 6 __unwindfunclet$?macroSettings@FarEditorSet@@AAEPAXW4FARMACROAREA@@PAUOpenMacroInfo@@@Z$3
10ADF3 6 __unwindfunclet$?macroSettings@FarEditorSet@@AAEPAXW4FARMACROAREA@@PAUOpenMacroInfo@@@Z$4
10ADFB 6 __unwindfunclet$?macroSettings@FarEditorSet@@AAEPAXW4FARMACROAREA@@PAUOpenMacroInfo@@@Z$5
10AE03 6 __unwindfunclet$?macroSettings@FarEditorSet@@AAEPAXW4FARMACROAREA@@PAUOpenMacroInfo@@@Z$6
10AE0B 6 __unwindfunclet$?macroSettings@FarEditorSet@@AAEPAXW4FARMACROAREA@@PAUOpenMacroInfo@@@Z$7
10AE18 6 __ehhandler$?macroSettings@FarEditorSet@@AAEPAXW4FARMACROAREA@@PAUOpenMacroInfo@@@Z
10AE30 6 __unwindfunclet$?macroTypes@FarEditorSet@@AAEPAXW4FARMACROAREA@@PAUOpenMacroInfo@@@Z$0
10AE3B 6 __unwindfunclet$?macroTypes@FarEditorSet@@AAEPAXW4FARMACROAREA@@PAUOpenMacroInfo@@@Z$1
10AE43 6 __unwindfunclet$?macroTypes@FarEditorSet@@AAEPAXW4FARMACROAREA@@PAUOpenMacroInfo@@@Z$2
10AE4B 6 __unwindfunclet$?macroTypes@FarEditorSet@@AAEPAXW4FARMACROAREA@@PAUOpenMacroInfo@@@Z$3
10AE53 6 __unwindfunclet$?macroTypes@FarEditorSet@@AAEPAXW4FARMACROAREA@@PAUOpenMacroInfo@@@Z$4
10AE5B 6 __unwindfunclet$?macroTypes@FarEditorSet@@AAEPAXW4FARMACROAREA@@PAUOpenMacroInfo@@@Z$5
10AE6A 6 __unwindfunclet$?macroTypes@FarEditorSet@@AAEPAXW4FARMACROAREA@@PAUOpenMacroInfo@@@Z$8
10AE72 6 __unwindfunclet$?macroTypes@FarEditorSet@@AAEPAXW4FARMACROAREA@@PAUOpenMacroInfo@@@Z$9
10AE94 6 __unwindfunclet$?macroTypes@FarEditorSet@@AAEPAXW4FARMACROAREA@@PAUOpenMacroInfo@@@Z$11
10AEA8 6 __ehhandler$?macroTypes@FarEditorSet@@AAEPAXW4FARMACROAREA@@PAUOpenMacroInfo@@@Z
10AEC0 6 __unwindfunclet$?macroRegion@FarEditorSet@@AAEPAXW4FARMACROAREA@@PAUOpenMacroInfo@@@Z$0
10AECB 6 __unwindfunclet$?macroRegion@FarEditorSet@@AAEPAXW4FARMACROAREA@@PAUOpenMacroInfo@@@Z$1
10AED3 6 __unwindfunclet$?macroRegion@FarEditorSet@@AAEPAXW4FARMACROAREA@@PAUOpenMacroInfo@@@Z$2
10AEDB 6 __unwindfunclet$?macroRegion@FarEditorSet@@AAEPAXW4FARMACROAREA@@PAUOpenMacroInfo@@@Z$3
10AEE3 6 __unwindfunclet$?macroRegion@FarEditorSet@@AAEPAXW4FARMACROAREA@@PAUOpenMacroInfo@@@Z$4
10AEEB 6 __unwindfunclet$?macroRegion@FarEditorSet@@AAEPAXW4FARMACROAREA@@PAUOpenMacroInfo@@@Z$5
10AEF6 6 __unwindfunclet$?macroRegion@FarEditorSet@@AAEPAXW4FARMACROAREA@@PAUOpenMacroInfo@@@Z$6
10AF0A 6 __ehhandler$?macroRegion@FarEditorSet@@AAEPAXW4FARMACROAREA@@PAUOpenMacroInfo@@@Z
10AF20 6 __unwindfunclet$?macroFunctions@FarEditorSet@@AAEPAXW4FARMACROAREA@@PAUOpenMacroInfo@@@Z$0
10AF2B 6 __unwindfunclet$?macroFunctions@FarEditorSet@@AAEPAXW4FARMACROAREA@@PAUOpenMacroInfo@@@Z$1
10AF33 6 __unwindfunclet$?macroFunctions@FarEditorSet@@AAEPAXW4FARMACROAREA@@PAUOpenMacroInfo@@@Z$2
10AF3B 6 __unwindfunclet$?macroFunctions@FarEditorSet@@AAEPAXW4FARMACROAREA@@PAUOpenMacroInfo@@@Z$3
10AF43 6 __unwindfunclet$?macroFunctions@FarEditorSet@@AAEPAXW4FARMACROAREA@@PAUOpenMacroInfo@@@Z$4
10AF65 6 __unwindfunclet$?macroFunctions@FarEditorSet@@AAEPAXW4FARMACROAREA@@PAUOpenMacroInfo@@@Z$5
10AF87 6 __unwindfunclet$?macroFunctions@FarEditorSet@@AAEPAXW4FARMACROAREA@@PAUOpenMacroInfo@@@Z$7
10AF9B 6 __ehhandler$?macroFunctions@FarEditorSet@@AAEPAXW4FARMACROAREA@@PAUOpenMacroInfo@@@Z
10AFB0 6 __unwindfunclet$?macroErrors@FarEditorSet@@AAEPAXW4FARMACROAREA@@PAUOpenMacroInfo@@@Z$0
10AFBB 6 __unwindfunclet$?macroErrors@FarEditorSet@@AAEPAXW4FARMACROAREA@@PAUOpenMacroInfo@@@Z$1
10AFC3 6 __unwindfunclet$?macroErrors@FarEditorSet@@AAEPAXW4FARMACROAREA@@PAUOpenMacroInfo@@@Z$2
10AFCB 6 __unwindfunclet$?macroErrors@FarEditorSet@@AAEPAXW4FARMACROAREA@@PAUOpenMacroInfo@@@Z$3
10AFED 6 __unwindfunclet$?macroErrors@FarEditorSet@@AAEPAXW4FARMACROAREA@@PAUOpenMacroInfo@@@Z$4
10B00F 6 __unwindfunclet$?macroErrors@FarEditorSet@@AAEPAXW4FARMACROAREA@@PAUOpenMacroInfo@@@Z$6
10B023 6 __ehhandler$?macroErrors@FarEditorSet@@AAEPAXW4FARMACROAREA@@PAUOpenMacroInfo@@@Z
10B030 6 __unwindfunclet$?macroEditor@FarEditorSet@@AAEPAXW4FARMACROAREA@@PAUOpenMacroInfo@@@Z$0
10B03B 6 __unwindfunclet$?macroEditor@FarEditorSet@@AAEPAXW4FARMACROAREA@@PAUOpenMacroInfo@@@Z$1
10B043 6 __unwindfunclet$?macroEditor@FarEditorSet@@AAEPAXW4FARMACROAREA@@PAUOpenMacroInfo@@@Z$10
10B055 6 __unwindfunclet$?macroEditor@FarEditorSet@@AAEPAXW4FARMACROAREA@@PAUOpenMacroInfo@@@Z$2
10B05D 6 __unwindfunclet$?macroEditor@FarEditorSet@@AAEPAXW4FARMACROAREA@@PAUOpenMacroInfo@@@Z$3
10B06C 6 __unwindfunclet$?macroEditor@FarEditorSet@@AAEPAXW4FARMACROAREA@@PAUOpenMacroInfo@@@Z$4
10B074 6 __unwindfunclet$?macroEditor@FarEditorSet@@AAEPAXW4FARMACROAREA@@PAUOpenMacroInfo@@@Z$5
10B07C 6 __unwindfunclet$?macroEditor@FarEditorSet@@AAEPAXW4FARMACROAREA@@PAUOpenMacroInfo@@@Z$6
10B084 6 __unwindfunclet$?macroEditor@FarEditorSet@@AAEPAXW4FARMACROAREA@@PAUOpenMacroInfo@@@Z$7
10B08C 6 __unwindfunclet$?macroEditor@FarEditorSet@@AAEPAXW4FARMACROAREA@@PAUOpenMacroInfo@@@Z$8
10B0A0 6 __ehhandler$?macroEditor@FarEditorSet@@AAEPAXW4FARMACROAREA@@PAUOpenMacroInfo@@@Z
10B0B0 6 __unwindfunclet$?macroParams@FarEditorSet@@AAEPAXW4FARMACROAREA@@PAUOpenMacroInfo@@@Z$0
10B0BB 6 __unwindfunclet$?macroParams@FarEditorSet@@AAEPAXW4FARMACROAREA@@PAUOpenMacroInfo@@@Z$1
10B0C6 6 __unwindfunclet$?macroParams@FarEditorSet@@AAEPAXW4FARMACROAREA@@PAUOpenMacroInfo@@@Z$2
10B0D1 6 __unwindfunclet$?macroParams@FarEditorSet@@AAEPAXW4FARMACROAREA@@PAUOpenMacroInfo@@@Z$3
10B0F3 6 __unwindfunclet$?macroParams@FarEditorSet@@AAEPAXW4FARMACROAREA@@PAUOpenMacroInfo@@@Z$4
10B115 6 __unwindfunclet$?macroParams@FarEditorSet@@AAEPAXW4FARMACROAREA@@PAUOpenMacroInfo@@@Z$5
10B11D 6 __unwindfunclet$?macroParams@FarEditorSet@@AAEPAXW4FARMACROAREA@@PAUOpenMacroInfo@@@Z$8
10B125 6 __unwindfunclet$?macroParams@FarEditorSet@@AAEPAXW4FARMACROAREA@@PAUOpenMacroInfo@@@Z$11
10B134 6 __unwindfunclet$?macroParams@FarEditorSet@@AAEPAXW4FARMACROAREA@@PAUOpenMacroInfo@@@Z$12
10B13F 6 __unwindfunclet$?macroParams@FarEditorSet@@AAEPAXW4FARMACROAREA@@PAUOpenMacroInfo@@@Z$13
10B14A 6 __unwindfunclet$?macroParams@FarEditorSet@@AAEPAXW4FARMACROAREA@@PAUOpenMacroInfo@@@Z$14
10B155 6 __unwindfunclet$?macroParams@FarEditorSet@@AAEPAXW4FARMACROAREA@@PAUOpenMacroInfo@@@Z$15
10B164 6 __unwindfunclet$?macroParams@FarEditorSet@@AAEPAXW4FARMACROAREA@@PAUOpenMacroInfo@@@Z$17
10B16F 6 __unwindfunclet$?macroParams@FarEditorSet@@AAEPAXW4FARMACROAREA@@PAUOpenMacroInfo@@@Z$18
10B17A 6 __unwindfunclet$?macroParams@FarEditorSet@@AAEPAXW4FARMACROAREA@@PAUOpenMacroInfo@@@Z$19
10B185 6 __unwindfunclet$?macroParams@FarEditorSet@@AAEPAXW4FARMACROAREA@@PAUOpenMacroInfo@@@Z$20
10B195 6 __ehhandler$?macroParams@FarEditorSet@@AAEPAXW4FARMACROAREA@@PAUOpenMacroInfo@@@Z
10B1B0 6 __unwindfunclet$?uflow@?$basic_filebuf@DU?$char_traits@D@std@@@std@@MAEHXZ$0
10B1BD 6 __ehhandler$?uflow@?$basic_filebuf@DU?$char_traits@D@std@@@std@@MAEHXZ
10B1D0 6 __unwindfunclet$??$?6U?$char_traits@D@std@@@std@@YAAAV?$basic_ostream@DU?$char_traits@D@std@@@0@AAV10@PBD@Z$5
10B1D8 6 __unwindfunclet$??$?6U?$char_traits@D@std@@@std@@YAAAV?$basic_ostream@DU?$char_traits@D@std@@@0@AAV10@PBD@Z$2
10B1E5 6 __ehhandler$??$?6U?$char_traits@D@std@@@std@@YAAAV?$basic_ostream@DU?$char_traits@D@std@@@0@AAV10@PBD@Z
10B200 6 __unwindfunclet$??$?6U?$char_traits@D@std@@@std@@YAAAV?$basic_ostream@DU?$char_traits@D@std@@@0@AAV10@D@Z$5
10B208 6 __unwindfunclet$??$?6U?$char_traits@D@std@@@std@@YAAAV?$basic_ostream@DU?$char_traits@D@std@@@0@AAV10@D@Z$2
10B215 6 __ehhandler$??$?6U?$char_traits@D@std@@@std@@YAAAV?$basic_ostream@DU?$char_traits@D@std@@@0@AAV10@D@Z
10B230 6 __unwindfunclet$??$emplace@AAU?$pair@HPAVFarEditor@@@std@@@?$_Hash@V?$_Umap_traits@HPAVFarEditor@@V?$_Uhash_compare@HU?$hash@H@std@@U?$equal_to@H@2@@std@@V?$allocator@U?$pair@$$CBHPAVFarEditor@@@std@@@3@$0A@@std@@@std@@QAE?AU?$pair@V?$_List_iterator@V?$_List_val@U?$_List_simple_types@U?$pair@$$CBHPAVFarEditor@@@std@@@std@@@std@@@std@@_N@1@AAU?$pair@HPAVFarEditor@@@1@@Z$1
10B238 6 __unwindfunclet$??$emplace@AAU?$pair@HPAVFarEditor@@@std@@@?$_Hash@V?$_Umap_traits@HPAVFarEditor@@V?$_Uhash_compare@HU?$hash@H@std@@U?$equal_to@H@2@@std@@V?$allocator@U?$pair@$$CBHPAVFarEditor@@@std@@@3@$0A@@std@@@std@@QAE?AU?$pair@V?$_List_iterator@V?$_List_val@U?$_List_simple_types@U?$pair@$$CBHPAVFarEditor@@@std@@@std@@@std@@@std@@_N@1@AAU?$pair@HPAVFarEditor@@@1@@Z$0
10B245 6 __ehhandler$??$emplace@AAU?$pair@HPAVFarEditor@@@std@@@?$_Hash@V?$_Umap_traits@HPAVFarEditor@@V?$_Uhash_compare@HU?$hash@H@std@@U?$equal_to@H@2@@std@@V?$allocator@U?$pair@$$CBHPAVFarEditor@@@std@@@3@$0A@@std@@@std@@QAE?AU?$pair@V?$_List_iterator@V?$_List_val@U?$_List_simple_types@U?$pair@$$CBHPAVFarEditor@@@std@@@std@@@std@@@std@@_N@1@AAU?$pair@HPAVFarEditor@@@1@@Z
10B260 6 __unwindfunclet$??$_Insertion_sort_unchecked@PAPBVHrdNode@@V<lambda_85fe6422f3902895f06d7a876f82eb00>@@@std@@YAPAPBVHrdNode@@QAPBV1@0V<lambda_85fe6422f3902895f06d7a876f82eb00>@@@Z$0
10B26B 6 __unwindfunclet$??$_Insertion_sort_unchecked@PAPBVHrdNode@@V<lambda_85fe6422f3902895f06d7a876f82eb00>@@@std@@YAPAPBVHrdNode@@QAPBV1@0V<lambda_85fe6422f3902895f06d7a876f82eb00>@@@Z$1
10B273 6 __unwindfunclet$??$_Insertion_sort_unchecked@PAPBVHrdNode@@V<lambda_85fe6422f3902895f06d7a876f82eb00>@@@std@@YAPAPBVHrdNode@@QAPBV1@0V<lambda_85fe6422f3902895f06d7a876f82eb00>@@@Z$2
10B27B 6 __unwindfunclet$??$_Insertion_sort_unchecked@PAPBVHrdNode@@V<lambda_85fe6422f3902895f06d7a876f82eb00>@@@std@@YAPAPBVHrdNode@@QAPBV1@0V<lambda_85fe6422f3902895f06d7a876f82eb00>@@@Z$3
10B28B 6 __ehhandler$??$_Insertion_sort_unchecked@PAPBVHrdNode@@V<lambda_85fe6422f3902895f06d7a876f82eb00>@@@std@@YAPAPBVHrdNode@@QAPBV1@0V<lambda_85fe6422f3902895f06d7a876f82eb00>@@@Z
10B2A0 6 __unwindfunclet$??$?RPBVHrdNode@@PBV0@@<lambda_85fe6422f3902895f06d7a876f82eb00>@@QBE?A_PPBVHrdNode@@0@Z$0
10B2AB 6 __unwindfunclet$??$?RPBVHrdNode@@PBV0@@<lambda_85fe6422f3902895f06d7a876f82eb00>@@QBE?A_PPBVHrdNode@@0@Z$1
10B2B8 6 __ehhandler$??$?RPBVHrdNode@@PBV0@@<lambda_85fe6422f3902895f06d7a876f82eb00>@@QBE?A_PPBVHrdNode@@0@Z
10B2D0 6 __unwindfunclet$??$_Make_heap_unchecked@PAPBVHrdNode@@V<lambda_85fe6422f3902895f06d7a876f82eb00>@@@std@@YAXPAPBVHrdNode@@0V<lambda_85fe6422f3902895f06d7a876f82eb00>@@@Z$0
10B2DB 6 __unwindfunclet$??$_Make_heap_unchecked@PAPBVHrdNode@@V<lambda_85fe6422f3902895f06d7a876f82eb00>@@@std@@YAXPAPBVHrdNode@@0V<lambda_85fe6422f3902895f06d7a876f82eb00>@@@Z$1
10B2E3 6 __unwindfunclet$??$_Make_heap_unchecked@PAPBVHrdNode@@V<lambda_85fe6422f3902895f06d7a876f82eb00>@@@std@@YAXPAPBVHrdNode@@0V<lambda_85fe6422f3902895f06d7a876f82eb00>@@@Z$2
10B2EB 6 __unwindfunclet$??$_Make_heap_unchecked@PAPBVHrdNode@@V<lambda_85fe6422f3902895f06d7a876f82eb00>@@@std@@YAXPAPBVHrdNode@@0V<lambda_85fe6422f3902895f06d7a876f82eb00>@@@Z$3
10B2FB 6 __ehhandler$??$_Make_heap_unchecked@PAPBVHrdNode@@V<lambda_85fe6422f3902895f06d7a876f82eb00>@@@std@@YAXPAPBVHrdNode@@0V<lambda_85fe6422f3902895f06d7a876f82eb00>@@@Z
10B310 6 __unwindfunclet$??$_Partition_by_median_guess_unchecked@PAPBVHrdNode@@V<lambda_85fe6422f3902895f06d7a876f82eb00>@@@std@@YA?AU?$pair@PAPBVHrdNode@@PAPBV1@@0@PAPBVHrdNode@@0V<lambda_85fe6422f3902895f06d7a876f82eb00>@@@Z$8
10B31B 6 __unwindfunclet$??$_Partition_by_median_guess_unchecked@PAPBVHrdNode@@V<lambda_85fe6422f3902895f06d7a876f82eb00>@@@std@@YA?AU?$pair@PAPBVHrdNode@@PAPBV1@@0@PAPBVHrdNode@@0V<lambda_85fe6422f3902895f06d7a876f82eb00>@@@Z$9
10B323 6 __unwindfunclet$??$_Partition_by_median_guess_unchecked@PAPBVHrdNode@@V<lambda_85fe6422f3902895f06d7a876f82eb00>@@@std@@YA?AU?$pair@PAPBVHrdNode@@PAPBV1@@0@PAPBVHrdNode@@0V<lambda_85fe6422f3902895f06d7a876f82eb00>@@@Z$12
10B32B 6 __unwindfunclet$??$_Partition_by_median_guess_unchecked@PAPBVHrdNode@@V<lambda_85fe6422f3902895f06d7a876f82eb00>@@@std@@YA?AU?$pair@PAPBVHrdNode@@PAPBV1@@0@PAPBVHrdNode@@0V<lambda_85fe6422f3902895f06d7a876f82eb00>@@@Z$13
10B336 6 __unwindfunclet$??$_Partition_by_median_guess_unchecked@PAPBVHrdNode@@V<lambda_85fe6422f3902895f06d7a876f82eb00>@@@std@@YA?AU?$pair@PAPBVHrdNode@@PAPBV1@@0@PAPBVHrdNode@@0V<lambda_85fe6422f3902895f06d7a876f82eb00>@@@Z$10
10B33E 6 __unwindfunclet$??$_Partition_by_median_guess_unchecked@PAPBVHrdNode@@V<lambda_85fe6422f3902895f06d7a876f82eb00>@@@std@@YA?AU?$pair@PAPBVHrdNode@@PAPBV1@@0@PAPBVHrdNode@@0V<lambda_85fe6422f3902895f06d7a876f82eb00>@@@Z$11
10B349 6 __unwindfunclet$??$_Partition_by_median_guess_unchecked@PAPBVHrdNode@@V<lambda_85fe6422f3902895f06d7a876f82eb00>@@@std@@YA?AU?$pair@PAPBVHrdNode@@PAPBV1@@0@PAPBVHrdNode@@0V<lambda_85fe6422f3902895f06d7a876f82eb00>@@@Z$14
10B351 6 __unwindfunclet$??$_Partition_by_median_guess_unchecked@PAPBVHrdNode@@V<lambda_85fe6422f3902895f06d7a876f82eb00>@@@std@@YA?AU?$pair@PAPBVHrdNode@@PAPBV1@@0@PAPBVHrdNode@@0V<lambda_85fe6422f3902895f06d7a876f82eb00>@@@Z$15
10B35C 6 __unwindfunclet$??$_Partition_by_median_guess_unchecked@PAPBVHrdNode@@V<lambda_85fe6422f3902895f06d7a876f82eb00>@@@std@@YA?AU?$pair@PAPBVHrdNode@@PAPBV1@@0@PAPBVHrdNode@@0V<lambda_85fe6422f3902895f06d7a876f82eb00>@@@Z$4
10B364 6 __unwindfunclet$??$_Partition_by_median_guess_unchecked@PAPBVHrdNode@@V<lambda_85fe6422f3902895f06d7a876f82eb00>@@@std@@YA?AU?$pair@PAPBVHrdNode@@PAPBV1@@0@PAPBVHrdNode@@0V<lambda_85fe6422f3902895f06d7a876f82eb00>@@@Z$5
10B36F 6 __unwindfunclet$??$_Partition_by_median_guess_unchecked@PAPBVHrdNode@@V<lambda_85fe6422f3902895f06d7a876f82eb00>@@@std@@YA?AU?$pair@PAPBVHrdNode@@PAPBV1@@0@PAPBVHrdNode@@0V<lambda_85fe6422f3902895f06d7a876f82eb00>@@@Z$6
10B377 6 __unwindfunclet$??$_Partition_by_median_guess_unchecked@PAPBVHrdNode@@V<lambda_85fe6422f3902895f06d7a876f82eb00>@@@std@@YA?AU?$pair@PAPBVHrdNode@@PAPBV1@@0@PAPBVHrdNode@@0V<lambda_85fe6422f3902895f06d7a876f82eb00>@@@Z$7
10B382 6 __unwindfunclet$??$_Partition_by_median_guess_unchecked@PAPBVHrdNode@@V<lambda_85fe6422f3902895f06d7a876f82eb00>@@@std@@YA?AU?$pair@PAPBVHrdNode@@PAPBV1@@0@PAPBVHrdNode@@0V<lambda_85fe6422f3902895f06d7a876f82eb00>@@@Z$0
10B38A 6 __unwindfunclet$??$_Partition_by_median_guess_unchecked@PAPBVHrdNode@@V<lambda_85fe6422f3902895f06d7a876f82eb00>@@@std@@YA?AU?$pair@PAPBVHrdNode@@PAPBV1@@0@PAPBVHrdNode@@0V<lambda_85fe6422f3902895f06d7a876f82eb00>@@@Z$1
10B395 6 __unwindfunclet$??$_Partition_by_median_guess_unchecked@PAPBVHrdNode@@V<lambda_85fe6422f3902895f06d7a876f82eb00>@@@std@@YA?AU?$pair@PAPBVHrdNode@@PAPBV1@@0@PAPBVHrdNode@@0V<lambda_85fe6422f3902895f06d7a876f82eb00>@@@Z$2
10B39D 6 __unwindfunclet$??$_Partition_by_median_guess_unchecked@PAPBVHrdNode@@V<lambda_85fe6422f3902895f06d7a876f82eb00>@@@std@@YA?AU?$pair@PAPBVHrdNode@@PAPBV1@@0@PAPBVHrdNode@@0V<lambda_85fe6422f3902895f06d7a876f82eb00>@@@Z$3
10B3AD 6 __ehhandler$??$_Partition_by_median_guess_unchecked@PAPBVHrdNode@@V<lambda_85fe6422f3902895f06d7a876f82eb00>@@@std@@YA?AU?$pair@PAPBVHrdNode@@PAPBV1@@0@PAPBVHrdNode@@0V<lambda_85fe6422f3902895f06d7a876f82eb00>@@@Z
10B3C0 7 __unwindfunclet$?loadUserHrd@FarHrcSettings@@QAEXPBVUnicodeString@icu_72@@@Z$0
10B3C8 7 __unwindfunclet$?loadUserHrd@FarHrcSettings@@QAEXPBVUnicodeString@icu_72@@@Z$1
10B3D0 7 __unwindfunclet$?loadUserHrd@FarHrcSettings@@QAEXPBVUnicodeString@icu_72@@@Z$3
10B3D8 7 __unwindfunclet$?loadUserHrd@FarHrcSettings@@QAEXPBVUnicodeString@icu_72@@@Z$4
10B3E0 7 __unwindfunclet$?loadUserHrd@FarHrcSettings@@QAEXPBVUnicodeString@icu_72@@@Z$2
10B3F0 7 __ehhandler$?loadUserHrd@FarHrcSettings@@QAEXPBVUnicodeString@icu_72@@@Z
10B400 7 __unwindfunclet$?readPluginHrcSettings@FarHrcSettings@@QAEXPBVUnicodeString@icu_72@@@Z$0
10B40B 7 __unwindfunclet$?readPluginHrcSettings@FarHrcSettings@@QAEXPBVUnicodeString@icu_72@@@Z$1
10B418 7 __ehhandler$?readPluginHrcSettings@FarHrcSettings@@QAEXPBVUnicodeString@icu_72@@@Z
10B430 7 __unwindfunclet$?readXML@FarHrcSettings@@QAEXPBVUnicodeString@icu_72@@@Z$0
10B438 7 __unwindfunclet$?readXML@FarHrcSettings@@QAEXPBVUnicodeString@icu_72@@@Z$1
10B440 7 __unwindfunclet$?readXML@FarHrcSettings@@QAEXPBVUnicodeString@icu_72@@@Z$3
10B448 7 __unwindfunclet$?readXML@FarHrcSettings@@QAEXPBVUnicodeString@icu_72@@@Z$4
10B450 7 __unwindfunclet$?readXML@FarHrcSettings@@QAEXPBVUnicodeString@icu_72@@@Z$2
10B45B 7 __unwindfunclet$?readXML@FarHrcSettings@@QAEXPBVUnicodeString@icu_72@@@Z$5
10B46B 7 __ehhandler$?readXML@FarHrcSettings@@QAEXPBVUnicodeString@icu_72@@@Z
10B480 7 __unwindfunclet$?UpdatePrototype@FarHrcSettings@@AAEXABVXMLNode@@@Z$0
10B48D 7 __ehhandler$?UpdatePrototype@FarHrcSettings@@AAEXABVXMLNode@@@Z
10B4A0 7 __unwindfunclet$?readUserProfile@FarHrcSettings@@QAEXPBVFileType@@@Z$0
10B4A8 7 __unwindfunclet$?readUserProfile@FarHrcSettings@@QAEXPBVFileType@@@Z$1
10B4B3 7 __unwindfunclet$?readUserProfile@FarHrcSettings@@QAEXPBVFileType@@@Z$2
10B4BE 7 __unwindfunclet$?readUserProfile@FarHrcSettings@@QAEXPBVFileType@@@Z$3
10B4CE 7 __ehhandler$?readUserProfile@FarHrcSettings@@QAEXPBVFileType@@@Z
10B4E0 7 __unwindfunclet$?writeUserProfile@FarHrcSettings@@QAEXXZ$0
10B4E8 7 __unwindfunclet$?writeUserProfile@FarHrcSettings@@QAEXXZ$1
10B4F0 7 __unwindfunclet$?writeUserProfile@FarHrcSettings@@QAEXXZ$2
10B4F8 7 __unwindfunclet$?writeUserProfile@FarHrcSettings@@QAEXXZ$3
10B503 7 __unwindfunclet$?writeUserProfile@FarHrcSettings@@QAEXXZ$4
10B50B 7 __unwindfunclet$?writeUserProfile@FarHrcSettings@@QAEXXZ$5
10B51B 7 __ehhandler$?writeUserProfile@FarHrcSettings@@QAEXXZ
10B530 8 __unwindfunclet$?getCountFileTypeAndGroup@HrcSettingsForm@@QBEIXZ$0
10B53D 8 __ehhandler$?getCountFileTypeAndGroup@HrcSettingsForm@@QBEIXZ
10B550 8 __unwindfunclet$?buildHrcList@HrcSettingsForm@@QBEPAUFarList@@XZ$0
10B55B 8 __unwindfunclet$?buildHrcList@HrcSettingsForm@@QBEPAUFarList@@XZ$1
10B563 8 __unwindfunclet$?buildHrcList@HrcSettingsForm@@QBEPAUFarList@@XZ$2
10B573 8 __ehhandler$?buildHrcList@HrcSettingsForm@@QBEPAUFarList@@XZ
10B580 8 __unwindfunclet$?OnChangeParam@HrcSettingsForm@@QAEXH@Z$0
10B58B 8 __unwindfunclet$?OnChangeParam@HrcSettingsForm@@QAEXH@Z$1
10B596 8 __unwindfunclet$?OnChangeParam@HrcSettingsForm@@QAEXH@Z$2
10B5A1 8 __unwindfunclet$?OnChangeParam@HrcSettingsForm@@QAEXH@Z$3
10B5AC 8 __unwindfunclet$?OnChangeParam@HrcSettingsForm@@QAEXH@Z$4
10B5C5 8 __unwindfunclet$?OnChangeParam@HrcSettingsForm@@QAEXH@Z$5
10B5E1 8 __unwindfunclet$?OnChangeParam@HrcSettingsForm@@QAEXH@Z$6
10B5FD 8 __unwindfunclet$?OnChangeParam@HrcSettingsForm@@QAEXH@Z$7
10B619 8 __unwindfunclet$?OnChangeParam@HrcSettingsForm@@QAEXH@Z$8
10B635 8 __unwindfunclet$?OnChangeParam@HrcSettingsForm@@QAEXH@Z$9
10B651 8 __unwindfunclet$?OnChangeParam@HrcSettingsForm@@QAEXH@Z$10
10B66D 8 __unwindfunclet$?OnChangeParam@HrcSettingsForm@@QAEXH@Z$11
10B68E 8 __unwindfunclet$?OnChangeParam@HrcSettingsForm@@QAEXH@Z$12
10B696 8 __unwindfunclet$?OnChangeParam@HrcSettingsForm@@QAEXH@Z$13
10B69E 8 __unwindfunclet$?OnChangeParam@HrcSettingsForm@@QAEXH@Z$14
10B6A6 8 __unwindfunclet$?OnChangeParam@HrcSettingsForm@@QAEXH@Z$15
10B6B3 8 __ehhandler$?OnChangeParam@HrcSettingsForm@@QAEXH@Z
10B6C0 8 __unwindfunclet$?SaveChangedValueParam@HrcSettingsForm@@QBEXXZ$0
10B6C8 8 __unwindfunclet$?SaveChangedValueParam@HrcSettingsForm@@QBEXXZ$1
10B6D8 8 __ehhandler$?SaveChangedValueParam@HrcSettingsForm@@QBEXXZ
10B6F0 8 __unwindfunclet$?setTFListValueToCombobox@HrcSettingsForm@@QBEXABVUnicodeString@icu_72@@@Z$1
10B6FB 8 __unwindfunclet$?setTFListValueToCombobox@HrcSettingsForm@@QBEXABVUnicodeString@icu_72@@@Z$2
10B70B 8 __ehhandler$?setTFListValueToCombobox@HrcSettingsForm@@QBEXABVUnicodeString@icu_72@@@Z
10B720 8 __unwindfunclet$?setCustomListValueToCombobox@HrcSettingsForm@@QBEXABVUnicodeString@icu_72@@@Z$1
10B72D 8 __ehhandler$?setCustomListValueToCombobox@HrcSettingsForm@@QBEXABVUnicodeString@icu_72@@@Z
10B740 8 __unwindfunclet$?setCrossValueListToCombobox@HrcSettingsForm@@QBEXXZ$0
10B74B 8 __unwindfunclet$?setCrossValueListToCombobox@HrcSettingsForm@@QBEXXZ$2
10B753 8 __unwindfunclet$?setCrossValueListToCombobox@HrcSettingsForm@@QBEXXZ$3
10B75B 8 __unwindfunclet$?setCrossValueListToCombobox@HrcSettingsForm@@QBEXXZ$4
10B763 8 __unwindfunclet$?setCrossValueListToCombobox@HrcSettingsForm@@QBEXXZ$5
10B770 8 __ehhandler$?setCrossValueListToCombobox@HrcSettingsForm@@QBEXXZ
10B780 8 __unwindfunclet$?setCrossPosValueListToCombobox@HrcSettingsForm@@QBEXXZ$0
10B78B 8 __unwindfunclet$?setCrossPosValueListToCombobox@HrcSettingsForm@@QBEXXZ$2
10B793 8 __unwindfunclet$?setCrossPosValueListToCombobox@HrcSettingsForm@@QBEXXZ$3
10B7A0 8 __ehhandler$?setCrossPosValueListToCombobox@HrcSettingsForm@@QBEXXZ
10B7B0 8 __unwindfunclet$?getParamDefValue@HrcSettingsForm@@QBEPBVUnicodeString@icu_72@@PAVFileType@@ABV23@@Z$0
10B7BB 8 __unwindfunclet$?getParamDefValue@HrcSettingsForm@@QBEPBVUnicodeString@icu_72@@PAVFileType@@ABV23@@Z$1
10B7C6 8 __unwindfunclet$?getParamDefValue@HrcSettingsForm@@QBEPBVUnicodeString@icu_72@@PAVFileType@@ABV23@@Z$2
10B7D3 8 __ehhandler$?getParamDefValue@HrcSettingsForm@@QBEPBVUnicodeString@icu_72@@PAVFileType@@ABV23@@Z
10B7E0 8 __unwindfunclet$?buildParamsList@HrcSettingsForm@@QBEPAUFarList@@PAVFileType@@@Z$0
10B7E8 8 __unwindfunclet$?buildParamsList@HrcSettingsForm@@QBEPAUFarList@@PAVFileType@@@Z$1
10B7F5 8 __ehhandler$?buildParamsList@HrcSettingsForm@@QBEPAUFarList@@PAVFileType@@@Z
10B810 8 __ehhandler$??$_Insert_counted_range@PAVUnicodeString@icu_72@@@?$vector@VUnicodeString@icu_72@@V?$allocator@VUnicodeString@icu_72@@@std@@@std@@AAEXV?$_Vector_const_iterator@V?$_Vector_val@U?$_Simple_types@VUnicodeString@icu_72@@@std@@@std@@@1@PAVUnicodeString@icu_72@@I@Z
10B820 8 __unwindfunclet$??$_Uninitialized_copy_n@PAVUnicodeString@icu_72@@V?$allocator@VUnicodeString@icu_72@@@std@@@std@@YAPAVUnicodeString@icu_72@@PAV12@I0AAV?$allocator@VUnicodeString@icu_72@@@0@@Z$0
10B82D 8 __ehhandler$??$_Uninitialized_copy_n@PAVUnicodeString@icu_72@@V?$allocator@VUnicodeString@icu_72@@@std@@@std@@YAPAVUnicodeString@icu_72@@PAV12@I0AAV?$allocator@VUnicodeString@icu_72@@@0@@Z
10B840 8 __unwindfunclet$??$_Sort_unchecked@PAVUnicodeString@icu_72@@U?$less@X@std@@@std@@YAXPAVUnicodeString@icu_72@@0HU?$less@X@0@@Z$0
10B84D 8 __ehhandler$??$_Sort_unchecked@PAVUnicodeString@icu_72@@U?$less@X@std@@@std@@YAXPAVUnicodeString@icu_72@@0HU?$less@X@0@@Z
10B860 8 __unwindfunclet$??$_Insertion_sort_unchecked@PAVUnicodeString@icu_72@@U?$less@X@std@@@std@@YAPAVUnicodeString@icu_72@@QAV12@0U?$less@X@0@@Z$0
10B86D 8 __ehhandler$??$_Insertion_sort_unchecked@PAVUnicodeString@icu_72@@U?$less@X@std@@@std@@YAPAVUnicodeString@icu_72@@QAV12@0U?$less@X@0@@Z
10B880 8 __unwindfunclet$??$_Make_heap_unchecked@PAVUnicodeString@icu_72@@U?$less@X@std@@@std@@YAXPAVUnicodeString@icu_72@@0U?$less@X@0@@Z$0
10B88D 8 __ehhandler$??$_Make_heap_unchecked@PAVUnicodeString@icu_72@@U?$less@X@std@@@std@@YAXPAVUnicodeString@icu_72@@0U?$less@X@0@@Z
10B8A0 58 __unwindfunclet$??0SettingsControl@@QAE@XZ$0
10B8B0 58 __ehhandler$??0SettingsControl@@QAE@XZ
10B8C0 519 __ehhandler$_ProcessSynchroEventW@4
10B8D0 521 __unwindfunclet$?PathToFullS@@YAPAVUnicodeString@icu_72@@PB_W_N@Z$0
10B8E0 521 __ehhandler$?PathToFullS@@YAPAVUnicodeString@icu_72@@PB_W_N@Z
10B8F0 521 __unwindfunclet$?macroReturnInt@@YAPAUFarMacroCall@@_J@Z$0
10B904 521 __ehhandler$?macroReturnInt@@YAPAUFarMacroCall@@_J@Z
10B910 65 __ehhandler$??0Exception@@QAE@ABVUnicodeString@icu_72@@@Z
10B940 279 __ehhandler$?try_cor_exit_process@@YAXI@Z
10B960 65 __ehhandler$??0InputSourceException@@QAE@ABVUnicodeString@icu_72@@@Z
10B990 69 __unwindfunclet$??$log@ABVUnicodeString@icu_72@@AAV?$basic_string@DU?$char_traits@D@std@@V?$allocator@D@2@@std@@@Log@@SAXW4LogLevel@Logger@@PBDH1V?$basic_string_view@DU?$char_traits@D@std@@@std@@ABVUnicodeString@icu_72@@AAV?$basic_string@DU?$char_traits@D@std@@V?$allocator@D@2@@4@@Z$2
10B9AC 69 __unwindfunclet$??$log@ABVUnicodeString@icu_72@@AAV?$basic_string@DU?$char_traits@D@std@@V?$allocator@D@2@@std@@@Log@@SAXW4LogLevel@Logger@@PBDH1V?$basic_string_view@DU?$char_traits@D@std@@@std@@ABVUnicodeString@icu_72@@AAV?$basic_string@DU?$char_traits@D@std@@V?$allocator@D@2@@4@@Z$6
10B9B7 69 __unwindfunclet$??$log@ABVUnicodeString@icu_72@@AAV?$basic_string@DU?$char_traits@D@std@@V?$allocator@D@2@@std@@@Log@@SAXW4LogLevel@Logger@@PBDH1V?$basic_string_view@DU?$char_traits@D@std@@@std@@ABVUnicodeString@icu_72@@AAV?$basic_string@DU?$char_traits@D@std@@V?$allocator@D@2@@4@@Z$3
10B9C2 69 __unwindfunclet$??$log@ABVUnicodeString@icu_72@@AAV?$basic_string@DU?$char_traits@D@std@@V?$allocator@D@2@@std@@@Log@@SAXW4LogLevel@Logger@@PBDH1V?$basic_string_view@DU?$char_traits@D@std@@@std@@ABVUnicodeString@icu_72@@AAV?$basic_string@DU?$char_traits@D@std@@V?$allocator@D@2@@4@@Z$0
10B9CD 69 __unwindfunclet$??$log@ABVUnicodeString@icu_72@@AAV?$basic_string@DU?$char_traits@D@std@@V?$allocator@D@2@@std@@@Log@@SAXW4LogLevel@Logger@@PBDH1V?$basic_string_view@DU?$char_traits@D@std@@@std@@ABVUnicodeString@icu_72@@AAV?$basic_string@DU?$char_traits@D@std@@V?$allocator@D@2@@4@@Z$13
10B9E6 69 __unwindfunclet$??$log@ABVUnicodeString@icu_72@@AAV?$basic_string@DU?$char_traits@D@std@@V?$allocator@D@2@@std@@@Log@@SAXW4LogLevel@Logger@@PBDH1V?$basic_string_view@DU?$char_traits@D@std@@@std@@ABVUnicodeString@icu_72@@AAV?$basic_string@DU?$char_traits@D@std@@V?$allocator@D@2@@4@@Z$1
10B9F3 69 __ehhandler$??$log@ABVUnicodeString@icu_72@@AAV?$basic_string@DU?$char_traits@D@std@@V?$allocator@D@2@@std@@@Log@@SAXW4LogLevel@Logger@@PBDH1V?$basic_string_view@DU?$char_traits@D@std@@@std@@ABVUnicodeString@icu_72@@AAV?$basic_string@DU?$char_traits@D@std@@V?$allocator@D@2@@4@@Z
10BA20 96 __unwindfunclet$?HexToUInt@UStr@@SA_NABVUnicodeString@icu_72@@PAI@Z$2
10BA28 96 __unwindfunclet$?HexToUInt@UStr@@SA_NABVUnicodeString@icu_72@@PAI@Z$5
10BA4C 96 __ehhandler$?HexToUInt@UStr@@SA_NABVUnicodeString@icu_72@@PAI@Z
10BA80 96 __unwindfunclet$?createCharClass@UStr@@SA?AV?$unique_ptr@VUnicodeSet@icu_72@@U?$default_delete@VUnicodeSet@icu_72@@@std@@@std@@ABVUnicodeString@icu_72@@HPAH_N@Z$45
10BA8B 96 __unwindfunclet$?createCharClass@UStr@@SA?AV?$unique_ptr@VUnicodeSet@icu_72@@U?$default_delete@VUnicodeSet@icu_72@@@std@@@std@@ABVUnicodeString@icu_72@@HPAH_N@Z$1
10BA93 96 __unwindfunclet$?createCharClass@UStr@@SA?AV?$unique_ptr@VUnicodeSet@icu_72@@U?$default_delete@VUnicodeSet@icu_72@@@std@@@std@@ABVUnicodeString@icu_72@@HPAH_N@Z$2
10BA9B 96 __unwindfunclet$?createCharClass@UStr@@SA?AV?$unique_ptr@VUnicodeSet@icu_72@@U?$default_delete@VUnicodeSet@icu_72@@@std@@@std@@ABVUnicodeString@icu_72@@HPAH_N@Z$3
10BAA3 96 __unwindfunclet$?createCharClass@UStr@@SA?AV?$unique_ptr@VUnicodeSet@icu_72@@U?$default_delete@VUnicodeSet@icu_72@@@std@@@std@@ABVUnicodeString@icu_72@@HPAH_N@Z$4
10BAAE 96 __unwindfunclet$?createCharClass@UStr@@SA?AV?$unique_ptr@VUnicodeSet@icu_72@@U?$default_delete@VUnicodeSet@icu_72@@@std@@@std@@ABVUnicodeString@icu_72@@HPAH_N@Z$5
10BAB9 96 __unwindfunclet$?createCharClass@UStr@@SA?AV?$unique_ptr@VUnicodeSet@icu_72@@U?$default_delete@VUnicodeSet@icu_72@@@std@@@std@@ABVUnicodeString@icu_72@@HPAH_N@Z$6
10BAC1 96 __unwindfunclet$?createCharClass@UStr@@SA?AV?$unique_ptr@VUnicodeSet@icu_72@@U?$default_delete@VUnicodeSet@icu_72@@@std@@@std@@ABVUnicodeString@icu_72@@HPAH_N@Z$7
10BACC 96 __unwindfunclet$?createCharClass@UStr@@SA?AV?$unique_ptr@VUnicodeSet@icu_72@@U?$default_delete@VUnicodeSet@icu_72@@@std@@@std@@ABVUnicodeString@icu_72@@HPAH_N@Z$8
10BAD7 96 __unwindfunclet$?createCharClass@UStr@@SA?AV?$unique_ptr@VUnicodeSet@icu_72@@U?$default_delete@VUnicodeSet@icu_72@@@std@@@std@@ABVUnicodeString@icu_72@@HPAH_N@Z$9
10BAE2 96 __unwindfunclet$?createCharClass@UStr@@SA?AV?$unique_ptr@VUnicodeSet@icu_72@@U?$default_delete@VUnicodeSet@icu_72@@@std@@@std@@ABVUnicodeString@icu_72@@HPAH_N@Z$10
10BAED 96 __unwindfunclet$?createCharClass@UStr@@SA?AV?$unique_ptr@VUnicodeSet@icu_72@@U?$default_delete@VUnicodeSet@icu_72@@@std@@@std@@ABVUnicodeString@icu_72@@HPAH_N@Z$11
10BAF8 96 __unwindfunclet$?createCharClass@UStr@@SA?AV?$unique_ptr@VUnicodeSet@icu_72@@U?$default_delete@VUnicodeSet@icu_72@@@std@@@std@@ABVUnicodeString@icu_72@@HPAH_N@Z$12
10BB03 96 __unwindfunclet$?createCharClass@UStr@@SA?AV?$unique_ptr@VUnicodeSet@icu_72@@U?$default_delete@VUnicodeSet@icu_72@@@std@@@std@@ABVUnicodeString@icu_72@@HPAH_N@Z$13
10BB0E 96 __unwindfunclet$?createCharClass@UStr@@SA?AV?$unique_ptr@VUnicodeSet@icu_72@@U?$default_delete@VUnicodeSet@icu_72@@@std@@@std@@ABVUnicodeString@icu_72@@HPAH_N@Z$14
10BB19 96 __unwindfunclet$?createCharClass@UStr@@SA?AV?$unique_ptr@VUnicodeSet@icu_72@@U?$default_delete@VUnicodeSet@icu_72@@@std@@@std@@ABVUnicodeString@icu_72@@HPAH_N@Z$15
10BB24 96 __unwindfunclet$?createCharClass@UStr@@SA?AV?$unique_ptr@VUnicodeSet@icu_72@@U?$default_delete@VUnicodeSet@icu_72@@@std@@@std@@ABVUnicodeString@icu_72@@HPAH_N@Z$16
10BB2F 96 __unwindfunclet$?createCharClass@UStr@@SA?AV?$unique_ptr@VUnicodeSet@icu_72@@U?$default_delete@VUnicodeSet@icu_72@@@std@@@std@@ABVUnicodeString@icu_72@@HPAH_N@Z$17
10BB3A 96 __unwindfunclet$?createCharClass@UStr@@SA?AV?$unique_ptr@VUnicodeSet@icu_72@@U?$default_delete@VUnicodeSet@icu_72@@@std@@@std@@ABVUnicodeString@icu_72@@HPAH_N@Z$18
10BB45 96 __unwindfunclet$?createCharClass@UStr@@SA?AV?$unique_ptr@VUnicodeSet@icu_72@@U?$default_delete@VUnicodeSet@icu_72@@@std@@@std@@ABVUnicodeString@icu_72@@HPAH_N@Z$19
10BB50 96 __unwindfunclet$?createCharClass@UStr@@SA?AV?$unique_ptr@VUnicodeSet@icu_72@@U?$default_delete@VUnicodeSet@icu_72@@@std@@@std@@ABVUnicodeString@icu_72@@HPAH_N@Z$20
10BB5B 96 __unwindfunclet$?createCharClass@UStr@@SA?AV?$unique_ptr@VUnicodeSet@icu_72@@U?$default_delete@VUnicodeSet@icu_72@@@std@@@std@@ABVUnicodeString@icu_72@@HPAH_N@Z$21
10BB66 96 __unwindfunclet$?createCharClass@UStr@@SA?AV?$unique_ptr@VUnicodeSet@icu_72@@U?$default_delete@VUnicodeSet@icu_72@@@std@@@std@@ABVUnicodeString@icu_72@@HPAH_N@Z$22
10BB71 96 __unwindfunclet$?createCharClass@UStr@@SA?AV?$unique_ptr@VUnicodeSet@icu_72@@U?$default_delete@VUnicodeSet@icu_72@@@std@@@std@@ABVUnicodeString@icu_72@@HPAH_N@Z$23
10BB7C 96 __unwindfunclet$?createCharClass@UStr@@SA?AV?$unique_ptr@VUnicodeSet@icu_72@@U?$default_delete@VUnicodeSet@icu_72@@@std@@@std@@ABVUnicodeString@icu_72@@HPAH_N@Z$24
10BB87 96 __unwindfunclet$?createCharClass@UStr@@SA?AV?$unique_ptr@VUnicodeSet@icu_72@@U?$default_delete@VUnicodeSet@icu_72@@@std@@@std@@ABVUnicodeString@icu_72@@HPAH_N@Z$25
10BB92 96 __unwindfunclet$?createCharClass@UStr@@SA?AV?$unique_ptr@VUnicodeSet@icu_72@@U?$default_delete@VUnicodeSet@icu_72@@@std@@@std@@ABVUnicodeString@icu_72@@HPAH_N@Z$26
10BB9D 96 __unwindfunclet$?createCharClass@UStr@@SA?AV?$unique_ptr@VUnicodeSet@icu_72@@U?$default_delete@VUnicodeSet@icu_72@@@std@@@std@@ABVUnicodeString@icu_72@@HPAH_N@Z$27
10BBA8 96 __unwindfunclet$?createCharClass@UStr@@SA?AV?$unique_ptr@VUnicodeSet@icu_72@@U?$default_delete@VUnicodeSet@icu_72@@@std@@@std@@ABVUnicodeString@icu_72@@HPAH_N@Z$28
10BBB3 96 __unwindfunclet$?createCharClass@UStr@@SA?AV?$unique_ptr@VUnicodeSet@icu_72@@U?$default_delete@VUnicodeSet@icu_72@@@std@@@std@@ABVUnicodeString@icu_72@@HPAH_N@Z$29
10BBBE 96 __unwindfunclet$?createCharClass@UStr@@SA?AV?$unique_ptr@VUnicodeSet@icu_72@@U?$default_delete@VUnicodeSet@icu_72@@@std@@@std@@ABVUnicodeString@icu_72@@HPAH_N@Z$30
10BBC9 96 __unwindfunclet$?createCharClass@UStr@@SA?AV?$unique_ptr@VUnicodeSet@icu_72@@U?$default_delete@VUnicodeSet@icu_72@@@std@@@std@@ABVUnicodeString@icu_72@@HPAH_N@Z$31
10BBD4 96 __unwindfunclet$?createCharClass@UStr@@SA?AV?$unique_ptr@VUnicodeSet@icu_72@@U?$default_delete@VUnicodeSet@icu_72@@@std@@@std@@ABVUnicodeString@icu_72@@HPAH_N@Z$32
10BBDF 96 __unwindfunclet$?createCharClass@UStr@@SA?AV?$unique_ptr@VUnicodeSet@icu_72@@U?$default_delete@VUnicodeSet@icu_72@@@std@@@std@@ABVUnicodeString@icu_72@@HPAH_N@Z$33
10BBEA 96 __unwindfunclet$?createCharClass@UStr@@SA?AV?$unique_ptr@VUnicodeSet@icu_72@@U?$default_delete@VUnicodeSet@icu_72@@@std@@@std@@ABVUnicodeString@icu_72@@HPAH_N@Z$34
10BBF5 96 __unwindfunclet$?createCharClass@UStr@@SA?AV?$unique_ptr@VUnicodeSet@icu_72@@U?$default_delete@VUnicodeSet@icu_72@@@std@@@std@@ABVUnicodeString@icu_72@@HPAH_N@Z$35
10BC00 96 __unwindfunclet$?createCharClass@UStr@@SA?AV?$unique_ptr@VUnicodeSet@icu_72@@U?$default_delete@VUnicodeSet@icu_72@@@std@@@std@@ABVUnicodeString@icu_72@@HPAH_N@Z$36
10BC0B 96 __unwindfunclet$?createCharClass@UStr@@SA?AV?$unique_ptr@VUnicodeSet@icu_72@@U?$default_delete@VUnicodeSet@icu_72@@@std@@@std@@ABVUnicodeString@icu_72@@HPAH_N@Z$37
10BC16 96 __unwindfunclet$?createCharClass@UStr@@SA?AV?$unique_ptr@VUnicodeSet@icu_72@@U?$default_delete@VUnicodeSet@icu_72@@@std@@@std@@ABVUnicodeString@icu_72@@HPAH_N@Z$38
10BC21 96 __unwindfunclet$?createCharClass@UStr@@SA?AV?$unique_ptr@VUnicodeSet@icu_72@@U?$default_delete@VUnicodeSet@icu_72@@@std@@@std@@ABVUnicodeString@icu_72@@HPAH_N@Z$39
10BC2C 96 __unwindfunclet$?createCharClass@UStr@@SA?AV?$unique_ptr@VUnicodeSet@icu_72@@U?$default_delete@VUnicodeSet@icu_72@@@std@@@std@@ABVUnicodeString@icu_72@@HPAH_N@Z$40
10BC34 96 __unwindfunclet$?createCharClass@UStr@@SA?AV?$unique_ptr@VUnicodeSet@icu_72@@U?$default_delete@VUnicodeSet@icu_72@@@std@@@std@@ABVUnicodeString@icu_72@@HPAH_N@Z$41
10BC3C 96 __unwindfunclet$?createCharClass@UStr@@SA?AV?$unique_ptr@VUnicodeSet@icu_72@@U?$default_delete@VUnicodeSet@icu_72@@@std@@@std@@ABVUnicodeString@icu_72@@HPAH_N@Z$42
10BC49 96 __ehhandler$?createCharClass@UStr@@SA?AV?$unique_ptr@VUnicodeSet@icu_72@@U?$default_delete@VUnicodeSet@icu_72@@@std@@@std@@ABVUnicodeString@icu_72@@HPAH_N@Z
10BC80 96 __unwindfunclet$?indexOfIgnoreCase@UStr@@SAHABVUnicodeString@icu_72@@0H@Z$0
10BC8B 96 __unwindfunclet$?indexOfIgnoreCase@UStr@@SAHABVUnicodeString@icu_72@@0H@Z$1
10BC98 96 __ehhandler$?indexOfIgnoreCase@UStr@@SAHABVUnicodeString@icu_72@@0H@Z
10BCD0 96 __unwindfunclet$?to_stdstr@UStr@@SA?AV?$basic_string@DU?$char_traits@D@std@@V?$allocator@D@2@@std@@ABV?$unique_ptr@VUnicodeString@icu_72@@U?$default_delete@VUnicodeString@icu_72@@@std@@@3@@Z$1
10BCEE 96 __ehhandler$?to_stdstr@UStr@@SA?AV?$basic_string@DU?$char_traits@D@std@@V?$allocator@D@2@@std@@ABV?$unique_ptr@VUnicodeString@icu_72@@U?$default_delete@VUnicodeString@icu_72@@@std@@@3@@Z
10BD10 96 __unwindfunclet$?to_stdstr@UStr@@SA?AV?$basic_string@DU?$char_traits@D@std@@V?$allocator@D@2@@std@@PBVUnicodeString@icu_72@@@Z$0
10BD2E 96 __ehhandler$?to_stdstr@UStr@@SA?AV?$basic_string@DU?$char_traits@D@std@@V?$allocator@D@2@@std@@PBVUnicodeString@icu_72@@@Z
10BD50 96 __unwindfunclet$?to_stdwstr@UStr@@SA?AV?$basic_string@_WU?$char_traits@_W@std@@V?$allocator@_W@2@@std@@PBVUnicodeString@icu_72@@@Z$0
10BD69 96 __unwindfunclet$?to_stdwstr@UStr@@SA?AV?$basic_string@_WU?$char_traits@_W@std@@V?$allocator@_W@2@@std@@PBVUnicodeString@icu_72@@@Z$1
10BD76 96 __ehhandler$?to_stdwstr@UStr@@SA?AV?$basic_string@_WU?$char_traits@_W@std@@V?$allocator@_W@2@@std@@PBVUnicodeString@icu_72@@@Z
10BDA0 96 __unwindfunclet$?to_unistr@UStr@@SA?AVUnicodeString@icu_72@@H@Z$0
10BDAD 96 __ehhandler$?to_unistr@UStr@@SA?AVUnicodeString@icu_72@@H@Z
10BDE0 67 __unwindfunclet$??0FileType@@QAE@VUnicodeString@icu_72@@00@Z$0
10BDEB 67 __unwindfunclet$??0FileType@@QAE@VUnicodeString@icu_72@@00@Z$1
10BDF3 67 __unwindfunclet$??0FileType@@QAE@VUnicodeString@icu_72@@00@Z$2
10BDFB 67 __unwindfunclet$??0FileType@@QAE@VUnicodeString@icu_72@@00@Z$4
10BE12 67 __ehhandler$??0FileType@@QAE@VUnicodeString@icu_72@@00@Z
10BE30 61 __unwindfunclet$??0CatalogParserException@@QAE@ABV0@@Z$1
10BE3D 61 __ehhandler$??0CatalogParserException@@QAE@ABV0@@Z
10BE60 61 __ehhandler$??0CatalogParserException@@QAE@ABVUnicodeString@icu_72@@@Z
10BE90 82 __unwindfunclet$??0ParserFactory@@QAE@XZ$1
10BEA4 82 __ehhandler$??0ParserFactory@@QAE@XZ
10BED0 82 __ehhandler$??1?$unique_ptr@VTextParser@@U?$default_delete@VTextParser@@@std@@@std@@QAE@XZ
10BEF0 82 __unwindfunclet$?addHrd@ParserFactory@@QAEXV?$unique_ptr@VHrdNode@@U?$default_delete@VHrdNode@@@std@@@std@@@Z$0
10BEFD 82 __ehhandler$?addHrd@ParserFactory@@QAEXV?$unique_ptr@VHrdNode@@U?$default_delete@VHrdNode@@@std@@@std@@@Z
10BF20 88 __unwindfunclet$?clone@StyledRegion@@UBEPAVRegionDefine@@XZ$0
10BF34 88 __ehhandler$?clone@StyledRegion@@UBEPAVRegionDefine@@XZ
10BF60 81 __unwindfunclet$??0Outliner@@QAE@PAVBaseEditor@@PBVRegion@@@Z$0
10BF70 81 __ehhandler$??0Outliner@@QAE@PAVBaseEditor@@PBVRegion@@@Z
10BF90 81 __ehhandler$??_GOutliner@@UAEPAXI@Z
10BFB0 81 __unwindfunclet$?addRegion@Outliner@@UAEXIPAVUnicodeString@icu_72@@HHPBVRegion@@@Z$0
10BFB8 81 __unwindfunclet$?addRegion@Outliner@@UAEXIPAVUnicodeString@icu_72@@HHPBVRegion@@@Z$1
10BFC7 81 __unwindfunclet$?addRegion@Outliner@@UAEXIPAVUnicodeString@icu_72@@HHPBVRegion@@@Z$2
10BFD2 81 __unwindfunclet$?addRegion@Outliner@@UAEXIPAVUnicodeString@icu_72@@HHPBVRegion@@@Z$4
10BFE2 81 __ehhandler$?addRegion@Outliner@@UAEXIPAVUnicodeString@icu_72@@HHPBVRegion@@@Z
10C010 70 __unwindfunclet$??0HrcLibrary@@QAE@XZ$1
10C027 70 __ehhandler$??0HrcLibrary@@QAE@XZ
10C050 60 __unwindfunclet$??$log@$$V@Log@@SAXW4LogLevel@Logger@@PBDH1V?$basic_string_view@DU?$char_traits@D@std@@@std@@@Z$0
10C05B 60 __unwindfunclet$??$log@$$V@Log@@SAXW4LogLevel@Logger@@PBDH1V?$basic_string_view@DU?$char_traits@D@std@@@std@@@Z$1
10C068 60 __ehhandler$??$log@$$V@Log@@SAXW4LogLevel@Logger@@PBDH1V?$basic_string_view@DU?$char_traits@D@std@@@std@@@Z
10C0A0 60 __unwindfunclet$??$log@AAH@Log@@SAXW4LogLevel@Logger@@PBDH1V?$basic_string_view@DU?$char_traits@D@std@@@std@@AAH@Z$0
10C0AB 60 __unwindfunclet$??$log@AAH@Log@@SAXW4LogLevel@Logger@@PBDH1V?$basic_string_view@DU?$char_traits@D@std@@@std@@AAH@Z$1
10C0B8 60 __ehhandler$??$log@AAH@Log@@SAXW4LogLevel@Logger@@PBDH1V?$basic_string_view@DU?$char_traits@D@std@@@std@@AAH@Z
10C0F0 60 __unwindfunclet$??0BaseEditor@@QAE@PAVParserFactory@@PAVLineSource@@@Z$0
10C0FE 60 __unwindfunclet$??0BaseEditor@@QAE@PAVParserFactory@@PAVLineSource@@@Z$1
10C10C 60 __unwindfunclet$??0BaseEditor@@QAE@PAVParserFactory@@PAVLineSource@@@Z$2
10C11A 60 __unwindfunclet$??0BaseEditor@@QAE@PAVParserFactory@@PAVLineSource@@@Z$4
10C125 60 __unwindfunclet$??0BaseEditor@@QAE@PAVParserFactory@@PAVLineSource@@@Z$5
10C130 60 __unwindfunclet$??0BaseEditor@@QAE@PAVParserFactory@@PAVLineSource@@@Z$6
10C13B 60 __unwindfunclet$??0BaseEditor@@QAE@PAVParserFactory@@PAVLineSource@@@Z$7
10C146 60 __unwindfunclet$??0BaseEditor@@QAE@PAVParserFactory@@PAVLineSource@@@Z$8
10C153 60 __ehhandler$??0BaseEditor@@QAE@PAVParserFactory@@PAVLineSource@@@Z
10C180 60 __ehhandler$??1BaseEditor@@UAE@XZ
10C1A0 60 __unwindfunclet$??6?$basic_ostream@DU?$char_traits@D@std@@@std@@QAEAAV01@I@Z$2
10C1A8 60 __unwindfunclet$??6?$basic_ostream@DU?$char_traits@D@std@@@std@@QAEAAV01@I@Z$3
10C1B5 60 __ehhandler$??6?$basic_ostream@DU?$char_traits@D@std@@@std@@QAEAAV01@I@Z
10C1E0 60 __unwindfunclet$?chooseFileType@BaseEditor@@QAEPAVFileType@@PBVUnicodeString@icu_72@@@Z$0
10C1E8 60 __unwindfunclet$?chooseFileType@BaseEditor@@QAEPAVFileType@@PBVUnicodeString@icu_72@@@Z$1
10C1F0 60 __unwindfunclet$?chooseFileType@BaseEditor@@QAEPAVFileType@@PBVUnicodeString@icu_72@@@Z$2
10C1FD 60 __ehhandler$?chooseFileType@BaseEditor@@QAEPAVFileType@@PBVUnicodeString@icu_72@@@Z
10C230 60 __unwindfunclet$?chooseFileTypeCh@BaseEditor@@AAEPAVFileType@@PBVUnicodeString@icu_72@@HH@Z$0
10C238 60 __unwindfunclet$?chooseFileTypeCh@BaseEditor@@AAEPAVFileType@@PBVUnicodeString@icu_72@@HH@Z$1
10C240 60 __unwindfunclet$?chooseFileTypeCh@BaseEditor@@AAEPAVFileType@@PBVUnicodeString@icu_72@@HH@Z$2
10C248 60 __unwindfunclet$?chooseFileTypeCh@BaseEditor@@AAEPAVFileType@@PBVUnicodeString@icu_72@@HH@Z$3
10C255 60 __ehhandler$?chooseFileTypeCh@BaseEditor@@AAEPAVFileType@@PBVUnicodeString@icu_72@@HH@Z
10C280 60 __unwindfunclet$?getPairMatch@BaseEditor@@AAEPAVPairMatch@@HHPAPAVLineRegion@@@Z$0
10C28F 60 __unwindfunclet$?getPairMatch@BaseEditor@@AAEPAVPairMatch@@HHPAPAVLineRegion@@@Z$1
10C2A3 60 __ehhandler$?getPairMatch@BaseEditor@@AAEPAVPairMatch@@HHPAPAVLineRegion@@@Z
10C2C0 60 __unwindfunclet$?remapLRS@BaseEditor@@AAEX_N@Z$0
10C2D2 60 __unwindfunclet$?remapLRS@BaseEditor@@AAEX_N@Z$1
10C2E4 60 __unwindfunclet$?remapLRS@BaseEditor@@AAEX_N@Z$2
10C2EC 60 __unwindfunclet$?remapLRS@BaseEditor@@AAEX_N@Z$3
10C2F4 60 __unwindfunclet$?remapLRS@BaseEditor@@AAEX_N@Z$4
10C304 60 __ehhandler$?remapLRS@BaseEditor@@AAEX_N@Z
10C330 60 __unwindfunclet$?searchPair@BaseEditor@@AAEPAVPairMatch@@HHHH@Z$0
10C344 60 __ehhandler$?searchPair@BaseEditor@@AAEPAVPairMatch@@HHHH@Z
10C370 60 __unwindfunclet$?validate@BaseEditor@@QAEXH_N@Z$0
10C37B 60 __unwindfunclet$?validate@BaseEditor@@QAEXH_N@Z$1
10C383 60 __unwindfunclet$?validate@BaseEditor@@QAEXH_N@Z$3
10C38E 60 __unwindfunclet$?validate@BaseEditor@@QAEXH_N@Z$4
10C396 60 __unwindfunclet$?validate@BaseEditor@@QAEXH_N@Z$6
10C3A1 60 __unwindfunclet$?validate@BaseEditor@@QAEXH_N@Z$7
10C3AE 60 __ehhandler$?validate@BaseEditor@@QAEXH_N@Z
10C3E0 60 __unwindfunclet$?visibleTextEvent@BaseEditor@@QAEXHH@Z$0
10C3EB 60 __unwindfunclet$?visibleTextEvent@BaseEditor@@QAEXHH@Z$1
10C3F8 60 __ehhandler$?visibleTextEvent@BaseEditor@@QAEXHH@Z
10C430 63 __unwindfunclet$?fromUTF8@Encodings@@SA?AV?$unique_ptr@VUnicodeString@icu_72@@U?$default_delete@VUnicodeString@icu_72@@@std@@@std@@PADH@Z$1
10C440 63 __ehhandler$?fromUTF8@Encodings@@SA?AV?$unique_ptr@VUnicodeString@icu_72@@U?$default_delete@VUnicodeString@icu_72@@@std@@@std@@PADH@Z
10C460 91 __unwindfunclet$?loadFile@TextLinesStore@@QAEXPBVUnicodeString@icu_72@@_N@Z$2
10C468 91 __unwindfunclet$?loadFile@TextLinesStore@@QAEXPBVUnicodeString@icu_72@@_N@Z$3
10C470 91 __unwindfunclet$?loadFile@TextLinesStore@@QAEXPBVUnicodeString@icu_72@@_N@Z$10
10C47B 91 __unwindfunclet$?loadFile@TextLinesStore@@QAEXPBVUnicodeString@icu_72@@_N@Z$7
10C486 91 __unwindfunclet$?loadFile@TextLinesStore@@QAEXPBVUnicodeString@icu_72@@_N@Z$8
10C48E 91 __unwindfunclet$?loadFile@TextLinesStore@@QAEXPBVUnicodeString@icu_72@@_N@Z$9
10C49B 91 __ehhandler$?loadFile@TextLinesStore@@QAEXPBVUnicodeString@icu_72@@_N@Z
10C4D0 61 __ehhandler$??$_Emplace_reallocate@AAVUnicodeString@icu_72@@@?$vector@VUnicodeString@icu_72@@V?$allocator@VUnicodeString@icu_72@@@std@@@std@@AAEPAVUnicodeString@icu_72@@QAV23@AAV23@@Z
10C4F0 61 __unwindfunclet$?addHrcSetsLocation@CatalogParser@@AAEXABVXMLNode@@@Z$0
10C4FB 61 __unwindfunclet$?addHrcSetsLocation@CatalogParser@@AAEXABVXMLNode@@@Z$1
10C503 61 __unwindfunclet$?addHrcSetsLocation@CatalogParser@@AAEXABVXMLNode@@@Z$3
10C50E 61 __unwindfunclet$?addHrcSetsLocation@CatalogParser@@AAEXABVXMLNode@@@Z$4
10C51B 61 __ehhandler$?addHrcSetsLocation@CatalogParser@@AAEXABVXMLNode@@@Z
10C550 61 __unwindfunclet$?parse@CatalogParser@@QAEXPBVUnicodeString@icu_72@@@Z$0
10C558 61 __unwindfunclet$?parse@CatalogParser@@QAEXPBVUnicodeString@icu_72@@@Z$1
10C560 61 __unwindfunclet$?parse@CatalogParser@@QAEXPBVUnicodeString@icu_72@@@Z$4
10C568 61 __unwindfunclet$?parse@CatalogParser@@QAEXPBVUnicodeString@icu_72@@@Z$5
10C570 61 __unwindfunclet$?parse@CatalogParser@@QAEXPBVUnicodeString@icu_72@@@Z$6
10C578 61 __unwindfunclet$?parse@CatalogParser@@QAEXPBVUnicodeString@icu_72@@@Z$2
10C580 61 __unwindfunclet$?parse@CatalogParser@@QAEXPBVUnicodeString@icu_72@@@Z$3
10C58D 61 __ehhandler$?parse@CatalogParser@@QAEXPBVUnicodeString@icu_72@@@Z
10C5C0 61 __unwindfunclet$?parseCatalogBlock@CatalogParser@@AAEXABVXMLNode@@@Z$0
10C5CD 61 __ehhandler$?parseCatalogBlock@CatalogParser@@AAEXABVXMLNode@@@Z
10C5F0 61 __unwindfunclet$?parseHRDSetsChild@CatalogParser@@SA?AV?$unique_ptr@VHrdNode@@U?$default_delete@VHrdNode@@@std@@@std@@ABVXMLNode@@@Z$1
10C5F8 61 __unwindfunclet$?parseHRDSetsChild@CatalogParser@@SA?AV?$unique_ptr@VHrdNode@@U?$default_delete@VHrdNode@@@std@@@std@@ABVXMLNode@@@Z$5
10C600 61 __unwindfunclet$?parseHRDSetsChild@CatalogParser@@SA?AV?$unique_ptr@VHrdNode@@U?$default_delete@VHrdNode@@@std@@@std@@ABVXMLNode@@@Z$11
10C60B 61 __unwindfunclet$?parseHRDSetsChild@CatalogParser@@SA?AV?$unique_ptr@VHrdNode@@U?$default_delete@VHrdNode@@@std@@@std@@ABVXMLNode@@@Z$12
10C613 61 __unwindfunclet$?parseHRDSetsChild@CatalogParser@@SA?AV?$unique_ptr@VHrdNode@@U?$default_delete@VHrdNode@@@std@@@std@@ABVXMLNode@@@Z$7
10C61E 61 __unwindfunclet$?parseHRDSetsChild@CatalogParser@@SA?AV?$unique_ptr@VHrdNode@@U?$default_delete@VHrdNode@@@std@@@std@@ABVXMLNode@@@Z$8
10C62B 61 __ehhandler$?parseHRDSetsChild@CatalogParser@@SA?AV?$unique_ptr@VHrdNode@@U?$default_delete@VHrdNode@@@std@@@std@@ABVXMLNode@@@Z
10C660 100 __unwindfunclet$?parse@XmlReader@@QAE_NXZ$0
10C674 100 __ehhandler$?parse@XmlReader@@QAE_NXZ
10C6A0 98 __unwindfunclet$?getAttrValue@XMLNode@@QBEABVUnicodeString@icu_72@@ABV23@@Z$0
10C6B1 98 __ehhandler$?getAttrValue@XMLNode@@QBEABVUnicodeString@icu_72@@ABV23@@Z
10C6D0 74 __unwindfunclet$??0LibXmlInputSource@@QAE@ABVUnicodeString@icu_72@@PBV12@@Z$0
10C6DB 74 __unwindfunclet$??0LibXmlInputSource@@QAE@ABVUnicodeString@icu_72@@PBV12@@Z$2
10C6E3 74 __unwindfunclet$??0LibXmlInputSource@@QAE@ABVUnicodeString@icu_72@@PBV12@@Z$3
10C6EE 74 __unwindfunclet$??0LibXmlInputSource@@QAE@ABVUnicodeString@icu_72@@PBV12@@Z$4
10C6F9 74 __unwindfunclet$??0LibXmlInputSource@@QAE@ABVUnicodeString@icu_72@@PBV12@@Z$5
10C704 74 __unwindfunclet$??0LibXmlInputSource@@QAE@ABVUnicodeString@icu_72@@PBV12@@Z$6
10C70F 74 __unwindfunclet$??0LibXmlInputSource@@QAE@ABVUnicodeString@icu_72@@PBV12@@Z$7
10C71A 74 __unwindfunclet$??0LibXmlInputSource@@QAE@ABVUnicodeString@icu_72@@PBV12@@Z$1
10C72A 74 __ehhandler$??0LibXmlInputSource@@QAE@ABVUnicodeString@icu_72@@PBV12@@Z
10C760 209 __ehhandler$??1_Init_atexit@@QAE@XZ
10C780 74 __unwindfunclet$?getFullPathsToZip@LibXmlInputSource@@SA?AUPathInJar@@ABVUnicodeString@icu_72@@PBV34@@Z$0
10C78B 74 __unwindfunclet$?getFullPathsToZip@LibXmlInputSource@@SA?AUPathInJar@@ABVUnicodeString@icu_72@@PBV34@@Z$3
10C796 74 __unwindfunclet$?getFullPathsToZip@LibXmlInputSource@@SA?AUPathInJar@@ABVUnicodeString@icu_72@@PBV34@@Z$4
10C7A1 74 __unwindfunclet$?getFullPathsToZip@LibXmlInputSource@@SA?AUPathInJar@@ABVUnicodeString@icu_72@@PBV34@@Z$5
10C7BD 74 __unwindfunclet$?getFullPathsToZip@LibXmlInputSource@@SA?AUPathInJar@@ABVUnicodeString@icu_72@@PBV34@@Z$6
10C7D6 74 __unwindfunclet$?getFullPathsToZip@LibXmlInputSource@@SA?AUPathInJar@@ABVUnicodeString@icu_72@@PBV34@@Z$8
10C7E1 74 __unwindfunclet$?getFullPathsToZip@LibXmlInputSource@@SA?AUPathInJar@@ABVUnicodeString@icu_72@@PBV34@@Z$9
10C7EC 74 __unwindfunclet$?getFullPathsToZip@LibXmlInputSource@@SA?AUPathInJar@@ABVUnicodeString@icu_72@@PBV34@@Z$11
10C7F7 74 __unwindfunclet$?getFullPathsToZip@LibXmlInputSource@@SA?AUPathInJar@@ABVUnicodeString@icu_72@@PBV34@@Z$12
10C802 74 __unwindfunclet$?getFullPathsToZip@LibXmlInputSource@@SA?AUPathInJar@@ABVUnicodeString@icu_72@@PBV34@@Z$13
10C80D 74 __unwindfunclet$?getFullPathsToZip@LibXmlInputSource@@SA?AUPathInJar@@ABVUnicodeString@icu_72@@PBV34@@Z$14
10C818 74 __unwindfunclet$?getFullPathsToZip@LibXmlInputSource@@SA?AUPathInJar@@ABVUnicodeString@icu_72@@PBV34@@Z$15
10C820 74 __unwindfunclet$?getFullPathsToZip@LibXmlInputSource@@SA?AUPathInJar@@ABVUnicodeString@icu_72@@PBV34@@Z$16
10C828 74 __unwindfunclet$?getFullPathsToZip@LibXmlInputSource@@SA?AUPathInJar@@ABVUnicodeString@icu_72@@PBV34@@Z$17
10C833 74 __unwindfunclet$?getFullPathsToZip@LibXmlInputSource@@SA?AUPathInJar@@ABVUnicodeString@icu_72@@PBV34@@Z$20
10C83E 74 __unwindfunclet$?getFullPathsToZip@LibXmlInputSource@@SA?AUPathInJar@@ABVUnicodeString@icu_72@@PBV34@@Z$21
10C846 74 __unwindfunclet$?getFullPathsToZip@LibXmlInputSource@@SA?AUPathInJar@@ABVUnicodeString@icu_72@@PBV34@@Z$22
10C851 74 __unwindfunclet$?getFullPathsToZip@LibXmlInputSource@@SA?AUPathInJar@@ABVUnicodeString@icu_72@@PBV34@@Z$23
10C85C 74 __unwindfunclet$?getFullPathsToZip@LibXmlInputSource@@SA?AUPathInJar@@ABVUnicodeString@icu_72@@PBV34@@Z$24
10C867 74 __unwindfunclet$?getFullPathsToZip@LibXmlInputSource@@SA?AUPathInJar@@ABVUnicodeString@icu_72@@PBV34@@Z$25
10C86F 74 __unwindfunclet$?getFullPathsToZip@LibXmlInputSource@@SA?AUPathInJar@@ABVUnicodeString@icu_72@@PBV34@@Z$26
10C87A 74 __unwindfunclet$?getFullPathsToZip@LibXmlInputSource@@SA?AUPathInJar@@ABVUnicodeString@icu_72@@PBV34@@Z$27
10C885 74 __unwindfunclet$?getFullPathsToZip@LibXmlInputSource@@SA?AUPathInJar@@ABVUnicodeString@icu_72@@PBV34@@Z$28
10C890 74 __unwindfunclet$?getFullPathsToZip@LibXmlInputSource@@SA?AUPathInJar@@ABVUnicodeString@icu_72@@PBV34@@Z$29
10C898 74 __unwindfunclet$?getFullPathsToZip@LibXmlInputSource@@SA?AUPathInJar@@ABVUnicodeString@icu_72@@PBV34@@Z$30
10C8A3 74 __unwindfunclet$?getFullPathsToZip@LibXmlInputSource@@SA?AUPathInJar@@ABVUnicodeString@icu_72@@PBV34@@Z$32
10C8AE 74 __unwindfunclet$?getFullPathsToZip@LibXmlInputSource@@SA?AUPathInJar@@ABVUnicodeString@icu_72@@PBV34@@Z$1
10C8B9 74 __unwindfunclet$?getFullPathsToZip@LibXmlInputSource@@SA?AUPathInJar@@ABVUnicodeString@icu_72@@PBV34@@Z$2
10C8C9 74 __ehhandler$?getFullPathsToZip@LibXmlInputSource@@SA?AUPathInJar@@ABVUnicodeString@icu_72@@PBV34@@Z
10C900 99 __unwindfunclet$??0XmlInputSource@@QAE@ABVUnicodeString@icu_72@@@Z$1
10C908 99 __unwindfunclet$??0XmlInputSource@@QAE@ABVUnicodeString@icu_72@@@Z$3
10C91C 99 __ehhandler$??0XmlInputSource@@QAE@ABVUnicodeString@icu_72@@@Z
10C940 99 __unwindfunclet$?createRelative@XmlInputSource@@QBE?AV?$unique_ptr@VXmlInputSource@@U?$default_delete@VXmlInputSource@@@std@@@std@@ABVUnicodeString@icu_72@@@Z$0
10C948 99 __unwindfunclet$?createRelative@XmlInputSource@@QBE?AV?$unique_ptr@VXmlInputSource@@U?$default_delete@VXmlInputSource@@@std@@@std@@ABVUnicodeString@icu_72@@@Z$2
10C95C 99 __ehhandler$?createRelative@XmlInputSource@@QBE?AV?$unique_ptr@VXmlInputSource@@U?$default_delete@VXmlInputSource@@@std@@@std@@ABVUnicodeString@icu_72@@@Z
10C990 97 __unwindfunclet$?getCurlyContent@UnicodeTools@@SA?AV?$unique_ptr@VUnicodeString@icu_72@@U?$default_delete@VUnicodeString@icu_72@@@std@@@std@@ABVUnicodeString@icu_72@@H@Z$1
10C9A0 97 __ehhandler$?getCurlyContent@UnicodeTools@@SA?AV?$unique_ptr@VUnicodeString@icu_72@@U?$default_delete@VUnicodeString@icu_72@@@std@@@std@@ABVUnicodeString@icu_72@@H@Z
10C9C0 97 __unwindfunclet$?getEscapedChar@UnicodeTools@@SA_SABVUnicodeString@icu_72@@HAAH@Z$0
10C9C8 97 __unwindfunclet$?getEscapedChar@UnicodeTools@@SA_SABVUnicodeString@icu_72@@HAAH@Z$1
10C9D5 97 __ehhandler$?getEscapedChar@UnicodeTools@@SA_SABVUnicodeString@icu_72@@HAAH@Z
10CA00 101 __unwindfunclet$?lowParse@CRegExp@@AAE_NPAVSRegInfo@@0H@Z$0
10CA0D 101 __ehhandler$?lowParse@CRegExp@@AAE_NPAVSRegInfo@@0H@Z
10CA40 101 __unwindfunclet$?setRELow@CRegExp@@AAE?AW4EError@@ABVUnicodeString@icu_72@@@Z$2
10CA4D 101 __ehhandler$?setRELow@CRegExp@@AAE?AW4EError@@ABVUnicodeString@icu_72@@@Z
10CA80 101 __unwindfunclet$?setStructs@CRegExp@@AAE?AW4EError@@AAPAVSRegInfo@@ABVUnicodeString@icu_72@@AAH@Z$1
10CA88 101 __unwindfunclet$?setStructs@CRegExp@@AAE?AW4EError@@AAPAVSRegInfo@@ABVUnicodeString@icu_72@@AAH@Z$2
10CA90 101 __unwindfunclet$?setStructs@CRegExp@@AAE?AW4EError@@AAPAVSRegInfo@@ABVUnicodeString@icu_72@@AAH@Z$3
10CA98 101 __unwindfunclet$?setStructs@CRegExp@@AAE?AW4EError@@AAPAVSRegInfo@@ABVUnicodeString@icu_72@@AAH@Z$4
10CAA0 101 __unwindfunclet$?setStructs@CRegExp@@AAE?AW4EError@@AAPAVSRegInfo@@ABVUnicodeString@icu_72@@AAH@Z$5
10CAA8 101 __unwindfunclet$?setStructs@CRegExp@@AAE?AW4EError@@AAPAVSRegInfo@@ABVUnicodeString@icu_72@@AAH@Z$6
10CAB3 101 __unwindfunclet$?setStructs@CRegExp@@AAE?AW4EError@@AAPAVSRegInfo@@ABVUnicodeString@icu_72@@AAH@Z$8
10CABB 101 __unwindfunclet$?setStructs@CRegExp@@AAE?AW4EError@@AAPAVSRegInfo@@ABVUnicodeString@icu_72@@AAH@Z$10
10CACB 101 __ehhandler$?setStructs@CRegExp@@AAE?AW4EError@@AAPAVSRegInfo@@ABVUnicodeString@icu_72@@AAH@Z
10CB00 69 __unwindfunclet$??$_Try_emplace@ABVUnicodeString@icu_72@@ABV12@ABV12@@?$_Hash@V?$_Umap_traits@VUnicodeString@icu_72@@VTypeParameter@@V?$_Uhash_compare@VUnicodeString@icu_72@@U?$hash@VUnicodeString@icu_72@@@std@@U?$equal_to@VUnicodeString@icu_72@@@4@@std@@V?$allocator@U?$pair@$$CBVUnicodeString@icu_72@@VTypeParameter@@@std@@@5@$0A@@std@@@std@@IAE?AU?$pair@PAU?$_List_node@U?$pair@$$CBVUnicodeString@icu_72@@VTypeParameter@@@std@@PAX@std@@_N@1@ABVUnicodeString@icu_72@@00@Z$1
10CB08 69 __unwindfunclet$??$_Try_emplace@ABVUnicodeString@icu_72@@ABV12@ABV12@@?$_Hash@V?$_Umap_traits@VUnicodeString@icu_72@@VTypeParameter@@V?$_Uhash_compare@VUnicodeString@icu_72@@U?$hash@VUnicodeString@icu_72@@@std@@U?$equal_to@VUnicodeString@icu_72@@@4@@std@@V?$allocator@U?$pair@$$CBVUnicodeString@icu_72@@VTypeParameter@@@std@@@5@$0A@@std@@@std@@IAE?AU?$pair@PAU?$_List_node@U?$pair@$$CBVUnicodeString@icu_72@@VTypeParameter@@@std@@PAX@std@@_N@1@ABVUnicodeString@icu_72@@00@Z$3
10CB10 69 __unwindfunclet$??$_Try_emplace@ABVUnicodeString@icu_72@@ABV12@ABV12@@?$_Hash@V?$_Umap_traits@VUnicodeString@icu_72@@VTypeParameter@@V?$_Uhash_compare@VUnicodeString@icu_72@@U?$hash@VUnicodeString@icu_72@@@std@@U?$equal_to@VUnicodeString@icu_72@@@4@@std@@V?$allocator@U?$pair@$$CBVUnicodeString@icu_72@@VTypeParameter@@@std@@@5@$0A@@std@@@std@@IAE?AU?$pair@PAU?$_List_node@U?$pair@$$CBVUnicodeString@icu_72@@VTypeParameter@@@std@@PAX@std@@_N@1@ABVUnicodeString@icu_72@@00@Z$4
10CB18 69 __unwindfunclet$??$_Try_emplace@ABVUnicodeString@icu_72@@ABV12@ABV12@@?$_Hash@V?$_Umap_traits@VUnicodeString@icu_72@@VTypeParameter@@V?$_Uhash_compare@VUnicodeString@icu_72@@U?$hash@VUnicodeString@icu_72@@@std@@U?$equal_to@VUnicodeString@icu_72@@@4@@std@@V?$allocator@U?$pair@$$CBVUnicodeString@icu_72@@VTypeParameter@@@std@@@5@$0A@@std@@@std@@IAE?AU?$pair@PAU?$_List_node@U?$pair@$$CBVUnicodeString@icu_72@@VTypeParameter@@@std@@PAX@std@@_N@1@ABVUnicodeString@icu_72@@00@Z$0
10CB25 69 __ehhandler$??$_Try_emplace@ABVUnicodeString@icu_72@@ABV12@ABV12@@?$_Hash@V?$_Umap_traits@VUnicodeString@icu_72@@VTypeParameter@@V?$_Uhash_compare@VUnicodeString@icu_72@@U?$hash@VUnicodeString@icu_72@@@std@@U?$equal_to@VUnicodeString@icu_72@@@4@@std@@V?$allocator@U?$pair@$$CBVUnicodeString@icu_72@@VTypeParameter@@@std@@@5@$0A@@std@@@std@@IAE?AU?$pair@PAU?$_List_node@U?$pair@$$CBVUnicodeString@icu_72@@VTypeParameter@@@std@@PAX@std@@_N@1@ABVUnicodeString@icu_72@@00@Z
10CB50 69 __unwindfunclet$??0Impl@FileType@@QAE@VUnicodeString@icu_72@@00@Z$0
10CB5B 69 __unwindfunclet$??0Impl@FileType@@QAE@VUnicodeString@icu_72@@00@Z$1
10CB63 69 __unwindfunclet$??0Impl@FileType@@QAE@VUnicodeString@icu_72@@00@Z$2
10CB6B 69 __unwindfunclet$??0Impl@FileType@@QAE@VUnicodeString@icu_72@@00@Z$3
10CB76 69 __unwindfunclet$??0Impl@FileType@@QAE@VUnicodeString@icu_72@@00@Z$4
10CB81 69 __unwindfunclet$??0Impl@FileType@@QAE@VUnicodeString@icu_72@@00@Z$5
10CB8F 69 __unwindfunclet$??0Impl@FileType@@QAE@VUnicodeString@icu_72@@00@Z$6
10CB9D 69 __unwindfunclet$??0Impl@FileType@@QAE@VUnicodeString@icu_72@@00@Z$12
10CBA8 69 __unwindfunclet$??0Impl@FileType@@QAE@VUnicodeString@icu_72@@00@Z$13
10CBB3 69 __unwindfunclet$??0Impl@FileType@@QAE@VUnicodeString@icu_72@@00@Z$7
10CBC1 69 __unwindfunclet$??0Impl@FileType@@QAE@VUnicodeString@icu_72@@00@Z$8
10CBCF 69 __unwindfunclet$??0Impl@FileType@@QAE@VUnicodeString@icu_72@@00@Z$9
10CBDD 69 __unwindfunclet$??0Impl@FileType@@QAE@VUnicodeString@icu_72@@00@Z$10
10CBEA 69 __ehhandler$??0Impl@FileType@@QAE@VUnicodeString@icu_72@@00@Z
10CC20 69 __unwindfunclet$?_Forced_rehash@?$_Hash@V?$_Umap_traits@VUnicodeString@icu_72@@VTypeParameter@@V?$_Uhash_compare@VUnicodeString@icu_72@@U?$hash@VUnicodeString@icu_72@@@std@@U?$equal_to@VUnicodeString@icu_72@@@4@@std@@V?$allocator@U?$pair@$$CBVUnicodeString@icu_72@@VTypeParameter@@@std@@@5@$0A@@std@@@std@@IAEXI@Z$0
10CC2D 69 __ehhandler$?_Forced_rehash@?$_Hash@V?$_Umap_traits@VUnicodeString@icu_72@@VTypeParameter@@V?$_Uhash_compare@VUnicodeString@icu_72@@U?$hash@VUnicodeString@icu_72@@@std@@U?$equal_to@VUnicodeString@icu_72@@@4@@std@@V?$allocator@U?$pair@$$CBVUnicodeString@icu_72@@VTypeParameter@@@std@@@5@$0A@@std@@@std@@IAEXI@Z
10CC50 69 __unwindfunclet$?enumParams@Impl@FileType@@QBE?AV?$vector@VUnicodeString@icu_72@@V?$allocator@VUnicodeString@icu_72@@@std@@@std@@XZ$0
10CC6E 69 __ehhandler$?enumParams@Impl@FileType@@QBE?AV?$vector@VUnicodeString@icu_72@@V?$allocator@VUnicodeString@icu_72@@@std@@@std@@XZ
10CC90 69 __unwindfunclet$?getParamValueInt@Impl@FileType@@QBEHABVUnicodeString@icu_72@@H@Z$2
10CC9D 69 __ehhandler$?getParamValueInt@Impl@FileType@@QBEHABVUnicodeString@icu_72@@H@Z
10CCD0 69 __unwindfunclet$?setParamDefaultValue@Impl@FileType@@QAEXABVUnicodeString@icu_72@@PBV34@@Z$4
10CCDB 69 __unwindfunclet$?setParamDefaultValue@Impl@FileType@@QAEXABVUnicodeString@icu_72@@PBV34@@Z$5
10CCE6 69 __unwindfunclet$?setParamDefaultValue@Impl@FileType@@QAEXABVUnicodeString@icu_72@@PBV34@@Z$6
10CCF1 69 __unwindfunclet$?setParamDefaultValue@Impl@FileType@@QAEXABVUnicodeString@icu_72@@PBV34@@Z$7
10CCFC 69 __unwindfunclet$?setParamDefaultValue@Impl@FileType@@QAEXABVUnicodeString@icu_72@@PBV34@@Z$0
10CD07 69 __unwindfunclet$?setParamDefaultValue@Impl@FileType@@QAEXABVUnicodeString@icu_72@@PBV34@@Z$1
10CD12 69 __unwindfunclet$?setParamDefaultValue@Impl@FileType@@QAEXABVUnicodeString@icu_72@@PBV34@@Z$2
10CD1D 69 __unwindfunclet$?setParamDefaultValue@Impl@FileType@@QAEXABVUnicodeString@icu_72@@PBV34@@Z$3
10CD2D 69 __ehhandler$?setParamDefaultValue@Impl@FileType@@QAEXABVUnicodeString@icu_72@@PBV34@@Z
10CD60 69 __unwindfunclet$?setParamDescription@Impl@FileType@@QAEXABVUnicodeString@icu_72@@PBV34@@Z$1
10CD6B 69 __unwindfunclet$?setParamDescription@Impl@FileType@@QAEXABVUnicodeString@icu_72@@PBV34@@Z$2
10CD73 69 __unwindfunclet$?setParamDescription@Impl@FileType@@QAEXABVUnicodeString@icu_72@@PBV34@@Z$3
10CD7E 69 __unwindfunclet$?setParamDescription@Impl@FileType@@QAEXABVUnicodeString@icu_72@@PBV34@@Z$4
10CD8E 69 __ehhandler$?setParamDescription@Impl@FileType@@QAEXABVUnicodeString@icu_72@@PBV34@@Z
10CDC0 83 __unwindfunclet$??$_Try_emplace@ABVUnicodeString@icu_72@@V?$unique_ptr@V?$vector@V?$unique_ptr@VHrdNode@@U?$default_delete@VHrdNode@@@std@@@std@@V?$allocator@V?$unique_ptr@VHrdNode@@U?$default_delete@VHrdNode@@@std@@@std@@@2@@std@@U?$default_delete@V?$vector@V?$unique_ptr@VHrdNode@@U?$default_delete@VHrdNode@@@std@@@std@@V?$allocator@V?$unique_ptr@VHrdNode@@U?$default_delete@VHrdNode@@@std@@@std@@@2@@std@@@2@@std@@@?$_Hash@V?$_Umap_traits@VUnicodeString@icu_72@@V?$unique_ptr@V?$vector@V?$unique_ptr@VHrdNode@@U?$default_delete@VHrdNode@@@std@@@std@@V?$allocator@V?$unique_ptr@VHrdNode@@U?$default_delete@VHrdNode@@@std@@@std@@@2@@std@@U?$default_delete@V?$vector@V?$unique_ptr@VHrdNode@@U?$default_delete@VHrdNode@@@std@@@std@@V?$allocator@V?$unique_ptr@VHrdNode@@U?$default_delete@VHrdNode@@@std@@@std@@@2@@std@@@2@@std@@V?$_Uhash_compare@VUnicodeString@icu_72@@U?$hash@VUnicodeString@icu_72@@@std@@U?$equal_to@VUnicodeString@icu_72@@@4@@4@V?$allocator@U?$pair@$$CBVUnicodeString@icu_72@@V?$unique_ptr@V?$vector@V?$unique_ptr@VHrdNode@@U?$default_delete@VHrdNode@@@std@@@std@@V?$allocator@V?$unique_ptr@VHrdNode@@U?$default_delete@VHrdNode@@@std@@@std@@@2@@std@@U?$default_delete@V?$vector@V?$unique_ptr@VHrdNode@@U?$default_delete@VHrdNode@@@std@@@std@@V?$allocator@V?$unique_ptr@VHrdNode@@U?$default_delete@VHrdNode@@@std@@@std@@@2@@std@@@2@@std@@@std@@@4@$0A@@std@@@std@@IAE?AU?$pair@PAU?$_List_node@U?$pair@$$CBVUnicodeString@icu_72@@V?$unique_ptr@V?$vector@V?$unique_ptr@VHrdNode@@U?$default_delete@VHrdNode@@@std@@@std@@V?$allocator@V?$unique_ptr@VHrdNode@@U?$default_delete@VHrdNode@@@std@@@std@@@2@@std@@U?$default_delete@V?$vector@V?$unique_ptr@VHrdNode@@U?$default_delete@VHrdNode@@@std@@@std@@V?$allocator@V?$unique_ptr@VHrdNode@@U?$default_delete@VHrdNode@@@std@@@std@@@2@@std@@@2@@std@@@std@@PAX@std@@_N@1@ABVUnicodeString@icu_72@@$$QAV?$unique_ptr@V?$vector@V?$unique_ptr@VHrdNode@@U?$default_delete@VHrdNode@@@std@@@std@@V?$allocator@V?$unique_ptr@VHrdNode@@U?$default_delete@VHrdNode@@@std@@@std@@@2@@std@@U?$default_delete@V?$vector@V?$unique_ptr@VHrdNode@@U?$default_delete@VHrdNode@@@std@@@std@@V?$allocator@V?$unique_ptr@VHrdNode@@U?$default_delete@VHrdNode@@@std@@@std@@@2@@std@@@2@@1@@Z$1
10CDC8 83 __unwindfunclet$??$_Try_emplace@ABVUnicodeString@icu_72@@V?$unique_ptr@V?$vector@V?$unique_ptr@VHrdNode@@U?$default_delete@VHrdNode@@@std@@@std@@V?$allocator@V?$unique_ptr@VHrdNode@@U?$default_delete@VHrdNode@@@std@@@std@@@2@@std@@U?$default_delete@V?$vector@V?$unique_ptr@VHrdNode@@U?$default_delete@VHrdNode@@@std@@@std@@V?$allocator@V?$unique_ptr@VHrdNode@@U?$default_delete@VHrdNode@@@std@@@std@@@2@@std@@@2@@std@@@?$_Hash@V?$_Umap_traits@VUnicodeString@icu_72@@V?$unique_ptr@V?$vector@V?$unique_ptr@VHrdNode@@U?$default_delete@VHrdNode@@@std@@@std@@V?$allocator@V?$unique_ptr@VHrdNode@@U?$default_delete@VHrdNode@@@std@@@std@@@2@@std@@U?$default_delete@V?$vector@V?$unique_ptr@VHrdNode@@U?$default_delete@VHrdNode@@@std@@@std@@V?$allocator@V?$unique_ptr@VHrdNode@@U?$default_delete@VHrdNode@@@std@@@std@@@2@@std@@@2@@std@@V?$_Uhash_compare@VUnicodeString@icu_72@@U?$hash@VUnicodeString@icu_72@@@std@@U?$equal_to@VUnicodeString@icu_72@@@4@@4@V?$allocator@U?$pair@$$CBVUnicodeString@icu_72@@V?$unique_ptr@V?$vector@V?$unique_ptr@VHrdNode@@U?$default_delete@VHrdNode@@@std@@@std@@V?$allocator@V?$unique_ptr@VHrdNode@@U?$default_delete@VHrdNode@@@std@@@std@@@2@@std@@U?$default_delete@V?$vector@V?$unique_ptr@VHrdNode@@U?$default_delete@VHrdNode@@@std@@@std@@V?$allocator@V?$unique_ptr@VHrdNode@@U?$default_delete@VHrdNode@@@std@@@std@@@2@@std@@@2@@std@@@std@@@4@$0A@@std@@@std@@IAE?AU?$pair@PAU?$_List_node@U?$pair@$$CBVUnicodeString@icu_72@@V?$unique_ptr@V?$vector@V?$unique_ptr@VHrdNode@@U?$default_delete@VHrdNode@@@std@@@std@@V?$allocator@V?$unique_ptr@VHrdNode@@U?$default_delete@VHrdNode@@@std@@@std@@@2@@std@@U?$default_delete@V?$vector@V?$unique_ptr@VHrdNode@@U?$default_delete@VHrdNode@@@std@@@std@@V?$allocator@V?$unique_ptr@VHrdNode@@U?$default_delete@VHrdNode@@@std@@@std@@@2@@std@@@2@@std@@@std@@PAX@std@@_N@1@ABVUnicodeString@icu_72@@$$QAV?$unique_ptr@V?$vector@V?$unique_ptr@VHrdNode@@U?$default_delete@VHrdNode@@@std@@@std@@V?$allocator@V?$unique_ptr@VHrdNode@@U?$default_delete@VHrdNode@@@std@@@std@@@2@@std@@U?$default_delete@V?$vector@V?$unique_ptr@VHrdNode@@U?$default_delete@VHrdNode@@@std@@@std@@V?$allocator@V?$unique_ptr@VHrdNode@@U?$default_delete@VHrdNode@@@std@@@std@@@2@@std@@@2@@1@@Z$0
10CDD5 83 __ehhandler$??$_Try_emplace@ABVUnicodeString@icu_72@@V?$unique_ptr@V?$vector@V?$unique_ptr@VHrdNode@@U?$default_delete@VHrdNode@@@std@@@std@@V?$allocator@V?$unique_ptr@VHrdNode@@U?$default_delete@VHrdNode@@@std@@@std@@@2@@std@@U?$default_delete@V?$vector@V?$unique_ptr@VHrdNode@@U?$default_delete@VHrdNode@@@std@@@std@@V?$allocator@V?$unique_ptr@VHrdNode@@U?$default_delete@VHrdNode@@@std@@@std@@@2@@std@@@2@@std@@@?$_Hash@V?$_Umap_traits@VUnicodeString@icu_72@@V?$unique_ptr@V?$vector@V?$unique_ptr@VHrdNode@@U?$default_delete@VHrdNode@@@std@@@std@@V?$allocator@V?$unique_ptr@VHrdNode@@U?$default_delete@VHrdNode@@@std@@@std@@@2@@std@@U?$default_delete@V?$vector@V?$unique_ptr@VHrdNode@@U?$default_delete@VHrdNode@@@std@@@std@@V?$allocator@V?$unique_ptr@VHrdNode@@U?$default_delete@VHrdNode@@@std@@@std@@@2@@std@@@2@@std@@V?$_Uhash_compare@VUnicodeString@icu_72@@U?$hash@VUnicodeString@icu_72@@@std@@U?$equal_to@VUnicodeString@icu_72@@@4@@4@V?$allocator@U?$pair@$$CBVUnicodeString@icu_72@@V?$unique_ptr@V?$vector@V?$unique_ptr@VHrdNode@@U?$default_delete@VHrdNode@@@std@@@std@@V?$allocator@V?$unique_ptr@VHrdNode@@U?$default_delete@VHrdNode@@@std@@@std@@@2@@std@@U?$default_delete@V?$vector@V?$unique_ptr@VHrdNode@@U?$default_delete@VHrdNode@@@std@@@std@@V?$allocator@V?$unique_ptr@VHrdNode@@U?$default_delete@VHrdNode@@@std@@@std@@@2@@std@@@2@@std@@@std@@@4@$0A@@std@@@std@@IAE?AU?$pair@PAU?$_List_node@U?$pair@$$CBVUnicodeString@icu_72@@V?$unique_ptr@V?$vector@V?$unique_ptr@VHrdNode@@U?$default_delete@VHrdNode@@@std@@@std@@V?$allocator@V?$unique_ptr@VHrdNode@@U?$default_delete@VHrdNode@@@std@@@std@@@2@@std@@U?$default_delete@V?$vector@V?$unique_ptr@VHrdNode@@U?$default_delete@VHrdNode@@@std@@@std@@V?$allocator@V?$unique_ptr@VHrdNode@@U?$default_delete@VHrdNode@@@std@@@std@@@2@@std@@@2@@std@@@std@@PAX@std@@_N@1@ABVUnicodeString@icu_72@@$$QAV?$unique_ptr@V?$vector@V?$unique_ptr@VHrdNode@@U?$default_delete@VHrdNode@@@std@@@std@@V?$allocator@V?$unique_ptr@VHrdNode@@U?$default_delete@VHrdNode@@@std@@@std@@@2@@std@@U?$default_delete@V?$vector@V?$unique_ptr@VHrdNode@@U?$default_delete@VHrdNode@@@std@@@std@@V?$allocator@V?$unique_ptr@VHrdNode@@U?$default_delete@VHrdNode@@@std@@@std@@@2@@std@@@2@@1@@Z
10CE00 83 __unwindfunclet$??0HrdNode@@QAE@ABV0@@Z$0
10CE08 83 __unwindfunclet$??0HrdNode@@QAE@ABV0@@Z$1
10CE13 83 __unwindfunclet$??0HrdNode@@QAE@ABV0@@Z$2
10CE21 83 __unwindfunclet$??0HrdNode@@QAE@ABV0@@Z$4
10CE29 83 __unwindfunclet$??0HrdNode@@QAE@ABV0@@Z$5
10CE36 83 __ehhandler$??0HrdNode@@QAE@ABV0@@Z
10CE60 83 __unwindfunclet$??0Impl@ParserFactory@@QAE@XZ$0
10CE68 83 __unwindfunclet$??0Impl@ParserFactory@@QAE@XZ$1
10CE73 83 __unwindfunclet$??0Impl@ParserFactory@@QAE@XZ$5
10CE7E 83 __unwindfunclet$??0Impl@ParserFactory@@QAE@XZ$6
10CE89 83 __unwindfunclet$??0Impl@ParserFactory@@QAE@XZ$2
10CE94 83 __unwindfunclet$??0Impl@ParserFactory@@QAE@XZ$3
10CEA8 83 __ehhandler$??0Impl@ParserFactory@@QAE@XZ
10CED0 83 __unwindfunclet$??0RegionMapper@@QAE@XZ$3
10CEDB 83 __unwindfunclet$??0RegionMapper@@QAE@XZ$4
10CEEB 83 __ehhandler$??0RegionMapper@@QAE@XZ
10CF10 83 __unwindfunclet$?_Forced_rehash@?$_Hash@V?$_Umap_traits@VUnicodeString@icu_72@@V?$unique_ptr@V?$vector@V?$unique_ptr@VHrdNode@@U?$default_delete@VHrdNode@@@std@@@std@@V?$allocator@V?$unique_ptr@VHrdNode@@U?$default_delete@VHrdNode@@@std@@@std@@@2@@std@@U?$default_delete@V?$vector@V?$unique_ptr@VHrdNode@@U?$default_delete@VHrdNode@@@std@@@std@@V?$allocator@V?$unique_ptr@VHrdNode@@U?$default_delete@VHrdNode@@@std@@@std@@@2@@std@@@2@@std@@V?$_Uhash_compare@VUnicodeString@icu_72@@U?$hash@VUnicodeString@icu_72@@@std@@U?$equal_to@VUnicodeString@icu_72@@@4@@4@V?$allocator@U?$pair@$$CBVUnicodeString@icu_72@@V?$unique_ptr@V?$vector@V?$unique_ptr@VHrdNode@@U?$default_delete@VHrdNode@@@std@@@std@@V?$allocator@V?$unique_ptr@VHrdNode@@U?$default_delete@VHrdNode@@@std@@@std@@@2@@std@@U?$default_delete@V?$vector@V?$unique_ptr@VHrdNode@@U?$default_delete@VHrdNode@@@std@@@std@@V?$allocator@V?$unique_ptr@VHrdNode@@U?$default_delete@VHrdNode@@@std@@@std@@@2@@std@@@2@@std@@@std@@@4@$0A@@std@@@std@@IAEXI@Z$0
10CF1D 83 __ehhandler$?_Forced_rehash@?$_Hash@V?$_Umap_traits@VUnicodeString@icu_72@@V?$unique_ptr@V?$vector@V?$unique_ptr@VHrdNode@@U?$default_delete@VHrdNode@@@std@@@std@@V?$allocator@V?$unique_ptr@VHrdNode@@U?$default_delete@VHrdNode@@@std@@@std@@@2@@std@@U?$default_delete@V?$vector@V?$unique_ptr@VHrdNode@@U?$default_delete@VHrdNode@@@std@@@std@@V?$allocator@V?$unique_ptr@VHrdNode@@U?$default_delete@VHrdNode@@@std@@@std@@@2@@std@@@2@@std@@V?$_Uhash_compare@VUnicodeString@icu_72@@U?$hash@VUnicodeString@icu_72@@@std@@U?$equal_to@VUnicodeString@icu_72@@@4@@4@V?$allocator@U?$pair@$$CBVUnicodeString@icu_72@@V?$unique_ptr@V?$vector@V?$unique_ptr@VHrdNode@@U?$default_delete@VHrdNode@@@std@@@std@@V?$allocator@V?$unique_ptr@VHrdNode@@U?$default_delete@VHrdNode@@@std@@@std@@@2@@std@@U?$default_delete@V?$vector@V?$unique_ptr@VHrdNode@@U?$default_delete@VHrdNode@@@std@@@std@@V?$allocator@V?$unique_ptr@VHrdNode@@U?$default_delete@VHrdNode@@@std@@@std@@@2@@std@@@2@@std@@@std@@@4@$0A@@std@@@std@@IAEXI@Z
10CF40 83 __unwindfunclet$?addHrd@Impl@ParserFactory@@QAEXV?$unique_ptr@VHrdNode@@U?$default_delete@VHrdNode@@@std@@@std@@@Z$0
10CF48 83 __unwindfunclet$?addHrd@Impl@ParserFactory@@QAEXV?$unique_ptr@VHrdNode@@U?$default_delete@VHrdNode@@@std@@@std@@@Z$1
10CF55 83 __ehhandler$?addHrd@Impl@ParserFactory@@QAEXV?$unique_ptr@VHrdNode@@U?$default_delete@VHrdNode@@@std@@@std@@@Z
10CF80 83 __unwindfunclet$?createStyledMapper@Impl@ParserFactory@@QAE?AV?$unique_ptr@VStyledHRDMapper@@U?$default_delete@VStyledHRDMapper@@@std@@@std@@PBVUnicodeString@icu_72@@0@Z$0
10CF88 83 __unwindfunclet$?createStyledMapper@Impl@ParserFactory@@QAE?AV?$unique_ptr@VStyledHRDMapper@@U?$default_delete@VStyledHRDMapper@@@std@@@std@@PBVUnicodeString@icu_72@@0@Z$2
10CF97 83 __unwindfunclet$?createStyledMapper@Impl@ParserFactory@@QAE?AV?$unique_ptr@VStyledHRDMapper@@U?$default_delete@VStyledHRDMapper@@@std@@@std@@PBVUnicodeString@icu_72@@0@Z$1
10CFB5 83 __ehhandler$?createStyledMapper@Impl@ParserFactory@@QAE?AV?$unique_ptr@VStyledHRDMapper@@U?$default_delete@VStyledHRDMapper@@@std@@@std@@PBVUnicodeString@icu_72@@0@Z
10CFE0 83 __unwindfunclet$?createTextParser@Impl@ParserFactory@@SA?AV?$unique_ptr@VTextParser@@U?$default_delete@VTextParser@@@std@@@std@@XZ$1
10CFF4 83 __ehhandler$?createTextParser@Impl@ParserFactory@@SA?AV?$unique_ptr@VTextParser@@U?$default_delete@VTextParser@@@std@@@std@@XZ
10D020 83 __unwindfunclet$?enumHrdInstances@Impl@ParserFactory@@QAE?AV?$vector@PBVHrdNode@@V?$allocator@PBVHrdNode@@@std@@@std@@ABVUnicodeString@icu_72@@@Z$0
10D03E 83 __ehhandler$?enumHrdInstances@Impl@ParserFactory@@QAE?AV?$vector@PBVHrdNode@@V?$allocator@PBVHrdNode@@@std@@@std@@ABVUnicodeString@icu_72@@@Z
10D060 83 __unwindfunclet$?fillMapper@Impl@ParserFactory@@AAEXABVUnicodeString@icu_72@@PBV34@AAVRegionMapper@@@Z$2
10D06B 83 __unwindfunclet$?fillMapper@Impl@ParserFactory@@AAEXABVUnicodeString@icu_72@@PBV34@AAVRegionMapper@@@Z$3
10D076 83 __unwindfunclet$?fillMapper@Impl@ParserFactory@@AAEXABVUnicodeString@icu_72@@PBV34@AAVRegionMapper@@@Z$5
10D07E 83 __unwindfunclet$?fillMapper@Impl@ParserFactory@@AAEXABVUnicodeString@icu_72@@PBV34@AAVRegionMapper@@@Z$6
10D086 83 __unwindfunclet$?fillMapper@Impl@ParserFactory@@AAEXABVUnicodeString@icu_72@@PBV34@AAVRegionMapper@@@Z$7
10D096 83 __ehhandler$?fillMapper@Impl@ParserFactory@@AAEXABVUnicodeString@icu_72@@PBV34@AAVRegionMapper@@@Z
10D0C0 83 __unwindfunclet$?getHrdNode@Impl@ParserFactory@@QAEABVHrdNode@@ABVUnicodeString@icu_72@@0@Z$0
10D0CB 83 __unwindfunclet$?getHrdNode@Impl@ParserFactory@@QAEABVHrdNode@@ABVUnicodeString@icu_72@@0@Z$1
10D0D6 83 __unwindfunclet$?getHrdNode@Impl@ParserFactory@@QAEABVHrdNode@@ABVUnicodeString@icu_72@@0@Z$2
10D0E1 83 __unwindfunclet$?getHrdNode@Impl@ParserFactory@@QAEABVHrdNode@@ABVUnicodeString@icu_72@@0@Z$3
10D0EC 83 __unwindfunclet$?getHrdNode@Impl@ParserFactory@@QAEABVHrdNode@@ABVUnicodeString@icu_72@@0@Z$4
10D0F7 83 __unwindfunclet$?getHrdNode@Impl@ParserFactory@@QAEABVHrdNode@@ABVUnicodeString@icu_72@@0@Z$5
10D102 83 __unwindfunclet$?getHrdNode@Impl@ParserFactory@@QAEABVHrdNode@@ABVUnicodeString@icu_72@@0@Z$6
10D10A 83 __unwindfunclet$?getHrdNode@Impl@ParserFactory@@QAEABVHrdNode@@ABVUnicodeString@icu_72@@0@Z$7
10D117 83 __ehhandler$?getHrdNode@Impl@ParserFactory@@QAEABVHrdNode@@ABVUnicodeString@icu_72@@0@Z
10D150 83 __unwindfunclet$?loadCatalog@Impl@ParserFactory@@QAEXPBVUnicodeString@icu_72@@@Z$0
10D158 83 __unwindfunclet$?loadCatalog@Impl@ParserFactory@@QAEXPBVUnicodeString@icu_72@@@Z$1
10D160 83 __unwindfunclet$?loadCatalog@Impl@ParserFactory@@QAEXPBVUnicodeString@icu_72@@@Z$2
10D16D 83 __ehhandler$?loadCatalog@Impl@ParserFactory@@QAEXPBVUnicodeString@icu_72@@@Z
10D1A0 83 __unwindfunclet$?loadHrc@Impl@ParserFactory@@ABEXABVUnicodeString@icu_72@@PBV34@@Z$2
10D1AD 83 __ehhandler$?loadHrc@Impl@ParserFactory@@ABEXABVUnicodeString@icu_72@@PBV34@@Z
10D1D0 83 __unwindfunclet$?loadHrcPath@Impl@ParserFactory@@QAEXABVUnicodeString@icu_72@@@Z$2
10D1D8 83 __unwindfunclet$?loadHrcPath@Impl@ParserFactory@@QAEXABVUnicodeString@icu_72@@@Z$3
10D1E5 83 __ehhandler$?loadHrcPath@Impl@ParserFactory@@QAEXABVUnicodeString@icu_72@@@Z
10D210 83 __unwindfunclet$?parseCatalog@Impl@ParserFactory@@AAEXABVUnicodeString@icu_72@@@Z$0
10D21D 83 __ehhandler$?parseCatalog@Impl@ParserFactory@@AAEXABVUnicodeString@icu_72@@@Z
10D240 71 __ehhandler$??$_Emplace_reallocate@AAW4ChooserType@FileTypeChooser@@AANPAVCRegExp@@@?$vector@VFileTypeChooser@@V?$allocator@VFileTypeChooser@@@std@@@std@@AAEPAVFileTypeChooser@@QAV2@AAW4ChooserType@2@AAN$$QAPAVCRegExp@@@Z
10D260 71 __unwindfunclet$??$_Try_emplace@ABVUnicodeString@icu_72@@AAPAVFileType@@@?$_Hash@V?$_Umap_traits@VUnicodeString@icu_72@@PAVFileType@@V?$_Uhash_compare@VUnicodeString@icu_72@@U?$hash@VUnicodeString@icu_72@@@std@@U?$equal_to@VUnicodeString@icu_72@@@4@@std@@V?$allocator@U?$pair@$$CBVUnicodeString@icu_72@@PAVFileType@@@std@@@5@$0A@@std@@@std@@IAE?AU?$pair@PAU?$_List_node@U?$pair@$$CBVUnicodeString@icu_72@@PAVFileType@@@std@@PAX@std@@_N@1@ABVUnicodeString@icu_72@@AAPAVFileType@@@Z$1
10D268 71 __unwindfunclet$??$_Try_emplace@ABVUnicodeString@icu_72@@AAPAVFileType@@@?$_Hash@V?$_Umap_traits@VUnicodeString@icu_72@@PAVFileType@@V?$_Uhash_compare@VUnicodeString@icu_72@@U?$hash@VUnicodeString@icu_72@@@std@@U?$equal_to@VUnicodeString@icu_72@@@4@@std@@V?$allocator@U?$pair@$$CBVUnicodeString@icu_72@@PAVFileType@@@std@@@5@$0A@@std@@@std@@IAE?AU?$pair@PAU?$_List_node@U?$pair@$$CBVUnicodeString@icu_72@@PAVFileType@@@std@@PAX@std@@_N@1@ABVUnicodeString@icu_72@@AAPAVFileType@@@Z$0
10D275 71 __ehhandler$??$_Try_emplace@ABVUnicodeString@icu_72@@AAPAVFileType@@@?$_Hash@V?$_Umap_traits@VUnicodeString@icu_72@@PAVFileType@@V?$_Uhash_compare@VUnicodeString@icu_72@@U?$hash@VUnicodeString@icu_72@@@std@@U?$equal_to@VUnicodeString@icu_72@@@4@@std@@V?$allocator@U?$pair@$$CBVUnicodeString@icu_72@@PAVFileType@@@std@@@5@$0A@@std@@@std@@IAE?AU?$pair@PAU?$_List_node@U?$pair@$$CBVUnicodeString@icu_72@@PAVFileType@@@std@@PAX@std@@_N@1@ABVUnicodeString@icu_72@@AAPAVFileType@@@Z
10D2A0 71 __unwindfunclet$??$log@AAVUnicodeString@icu_72@@ABV12@PBDAAV12@@Log@@SAXW4LogLevel@Logger@@PBDH1V?$basic_string_view@DU?$char_traits@D@std@@@std@@AAVUnicodeString@icu_72@@ABV56@$$QAPBD3@Z$0
10D2AB 71 __unwindfunclet$??$log@AAVUnicodeString@icu_72@@ABV12@PBDAAV12@@Log@@SAXW4LogLevel@Logger@@PBDH1V?$basic_string_view@DU?$char_traits@D@std@@@std@@AAVUnicodeString@icu_72@@ABV56@$$QAPBD3@Z$1
10D2B8 71 __ehhandler$??$log@AAVUnicodeString@icu_72@@ABV12@PBDAAV12@@Log@@SAXW4LogLevel@Logger@@PBDH1V?$basic_string_view@DU?$char_traits@D@std@@@std@@AAVUnicodeString@icu_72@@ABV56@$$QAPBD3@Z
10D2F0 71 __unwindfunclet$??$log@ABVUnicodeString@icu_72@@AAV12@AAV12@@Log@@SAXW4LogLevel@Logger@@PBDH1V?$basic_string_view@DU?$char_traits@D@std@@@std@@ABVUnicodeString@icu_72@@AAV56@4@Z$0
10D2FB 71 __unwindfunclet$??$log@ABVUnicodeString@icu_72@@AAV12@AAV12@@Log@@SAXW4LogLevel@Logger@@PBDH1V?$basic_string_view@DU?$char_traits@D@std@@@std@@ABVUnicodeString@icu_72@@AAV56@4@Z$1
10D308 71 __ehhandler$??$log@ABVUnicodeString@icu_72@@AAV12@AAV12@@Log@@SAXW4LogLevel@Logger@@PBDH1V?$basic_string_view@DU?$char_traits@D@std@@@std@@ABVUnicodeString@icu_72@@AAV56@4@Z
10D340 71 __unwindfunclet$??$make_unique@VCRegExp@@PAVUnicodeString@icu_72@@$0A@@std@@YA?AV?$unique_ptr@VCRegExp@@U?$default_delete@VCRegExp@@@std@@@0@$$QAPAVUnicodeString@icu_72@@@Z$0
10D357 71 __ehhandler$??$make_unique@VCRegExp@@PAVUnicodeString@icu_72@@$0A@@std@@YA?AV?$unique_ptr@VCRegExp@@U?$default_delete@VCRegExp@@@std@@@0@$$QAPAVUnicodeString@icu_72@@@Z
10D380 71 __unwindfunclet$??0Impl@HrcLibrary@@QAE@XZ$8
10D38B 71 __unwindfunclet$??0Impl@HrcLibrary@@QAE@XZ$9
10D396 71 __unwindfunclet$??0Impl@HrcLibrary@@QAE@XZ$0
10D39E 71 __unwindfunclet$??0Impl@HrcLibrary@@QAE@XZ$1
10D3A9 71 __unwindfunclet$??0Impl@HrcLibrary@@QAE@XZ$11
10D3B4 71 __unwindfunclet$??0Impl@HrcLibrary@@QAE@XZ$12
10D3BF 71 __unwindfunclet$??0Impl@HrcLibrary@@QAE@XZ$2
10D3CA 71 __unwindfunclet$??0Impl@HrcLibrary@@QAE@XZ$14
10D3D5 71 __unwindfunclet$??0Impl@HrcLibrary@@QAE@XZ$15
10D3E0 71 __unwindfunclet$??0Impl@HrcLibrary@@QAE@XZ$3
10D3EB 71 __unwindfunclet$??0Impl@HrcLibrary@@QAE@XZ$4
10D3F6 71 __unwindfunclet$??0Impl@HrcLibrary@@QAE@XZ$17
10D401 71 __unwindfunclet$??0Impl@HrcLibrary@@QAE@XZ$18
10D40C 71 __unwindfunclet$??0Impl@HrcLibrary@@QAE@XZ$5
10D417 71 __unwindfunclet$??0Impl@HrcLibrary@@QAE@XZ$20
10D422 71 __unwindfunclet$??0Impl@HrcLibrary@@QAE@XZ$21
10D42D 71 __unwindfunclet$??0Impl@HrcLibrary@@QAE@XZ$6
10D440 71 __ehhandler$??0Impl@HrcLibrary@@QAE@XZ
10D460 71 __unwindfunclet$??6?$basic_ostream@DU?$char_traits@D@std@@@std@@QAEAAV01@N@Z$2
10D468 71 __unwindfunclet$??6?$basic_ostream@DU?$char_traits@D@std@@@std@@QAEAAV01@N@Z$3
10D475 71 __ehhandler$??6?$basic_ostream@DU?$char_traits@D@std@@@std@@QAEAAV01@N@Z
10D4A0 71 __unwindfunclet$?_Forced_rehash@?$_Hash@V?$_Umap_traits@VUnicodeString@icu_72@@PAV12@V?$_Uhash_compare@VUnicodeString@icu_72@@U?$hash@VUnicodeString@icu_72@@@std@@U?$equal_to@VUnicodeString@icu_72@@@4@@std@@V?$allocator@U?$pair@$$CBVUnicodeString@icu_72@@PAV12@@std@@@4@$0A@@std@@@std@@IAEXI@Z$0
10D4AD 71 __ehhandler$?_Forced_rehash@?$_Hash@V?$_Umap_traits@VUnicodeString@icu_72@@PAV12@V?$_Uhash_compare@VUnicodeString@icu_72@@U?$hash@VUnicodeString@icu_72@@@std@@U?$equal_to@VUnicodeString@icu_72@@@4@@std@@V?$allocator@U?$pair@$$CBVUnicodeString@icu_72@@PAV12@@std@@@4@$0A@@std@@@std@@IAEXI@Z
10D4D0 71 __unwindfunclet$?addPrototype@Impl@HrcLibrary@@IAEXABVXMLNode@@@Z$0
10D4D8 71 __unwindfunclet$?addPrototype@Impl@HrcLibrary@@IAEXABVXMLNode@@@Z$1
10D4E7 71 __unwindfunclet$?addPrototype@Impl@HrcLibrary@@IAEXABVXMLNode@@@Z$2
10D4EF 71 __unwindfunclet$?addPrototype@Impl@HrcLibrary@@IAEXABVXMLNode@@@Z$3
10D4FC 71 __ehhandler$?addPrototype@Impl@HrcLibrary@@IAEXABVXMLNode@@@Z
10D530 71 __unwindfunclet$?addPrototypeDetectParam@Impl@HrcLibrary@@IAEXABVXMLNode@@PAVFileType@@@Z$5
10D542 71 __unwindfunclet$?addPrototypeDetectParam@Impl@HrcLibrary@@IAEXABVXMLNode@@PAVFileType@@@Z$2
10D54A 71 __unwindfunclet$?addPrototypeDetectParam@Impl@HrcLibrary@@IAEXABVXMLNode@@PAVFileType@@@Z$3
10D552 71 __unwindfunclet$?addPrototypeDetectParam@Impl@HrcLibrary@@IAEXABVXMLNode@@PAVFileType@@@Z$4
10D55A 71 __unwindfunclet$?addPrototypeDetectParam@Impl@HrcLibrary@@IAEXABVXMLNode@@PAVFileType@@@Z$7
10D565 71 __unwindfunclet$?addPrototypeDetectParam@Impl@HrcLibrary@@IAEXABVXMLNode@@PAVFileType@@@Z$8
10D572 71 __ehhandler$?addPrototypeDetectParam@Impl@HrcLibrary@@IAEXABVXMLNode@@PAVFileType@@@Z
10D5A0 71 __unwindfunclet$?addPrototypeParameters@Impl@HrcLibrary@@IAEXABVXMLNode@@PAVFileType@@@Z$7
10D5AB 71 __unwindfunclet$?addPrototypeParameters@Impl@HrcLibrary@@IAEXABVXMLNode@@PAVFileType@@@Z$4
10D5B6 71 __unwindfunclet$?addPrototypeParameters@Impl@HrcLibrary@@IAEXABVXMLNode@@PAVFileType@@@Z$5
10D5BE 71 __unwindfunclet$?addPrototypeParameters@Impl@HrcLibrary@@IAEXABVXMLNode@@PAVFileType@@@Z$1
10D5C9 71 __unwindfunclet$?addPrototypeParameters@Impl@HrcLibrary@@IAEXABVXMLNode@@PAVFileType@@@Z$2
10D5D6 71 __ehhandler$?addPrototypeParameters@Impl@HrcLibrary@@IAEXABVXMLNode@@PAVFileType@@@Z
10D600 71 __unwindfunclet$?addScheme@Impl@HrcLibrary@@IAEXABVXMLNode@@@Z$0
10D608 71 __unwindfunclet$?addScheme@Impl@HrcLibrary@@IAEXABVXMLNode@@@Z$1
10D617 71 __unwindfunclet$?addScheme@Impl@HrcLibrary@@IAEXABVXMLNode@@@Z$4
10D622 71 __unwindfunclet$?addScheme@Impl@HrcLibrary@@IAEXABVXMLNode@@@Z$5
10D62D 71 __unwindfunclet$?addScheme@Impl@HrcLibrary@@IAEXABVXMLNode@@@Z$7
10D638 71 __unwindfunclet$?addScheme@Impl@HrcLibrary@@IAEXABVXMLNode@@@Z$2
10D651 71 __unwindfunclet$?addScheme@Impl@HrcLibrary@@IAEXABVXMLNode@@@Z$3
10D66F 71 __ehhandler$?addScheme@Impl@HrcLibrary@@IAEXABVXMLNode@@@Z
10D6A0 71 __unwindfunclet$?addSchemeBlock@Impl@HrcLibrary@@IAEXPAVSchemeImpl@@ABVXMLNode@@@Z$0
10D6AB 71 __unwindfunclet$?addSchemeBlock@Impl@HrcLibrary@@IAEXPAVSchemeImpl@@ABVXMLNode@@@Z$1
10D6B6 71 __unwindfunclet$?addSchemeBlock@Impl@HrcLibrary@@IAEXPAVSchemeImpl@@ABVXMLNode@@@Z$2
10D6C1 71 __unwindfunclet$?addSchemeBlock@Impl@HrcLibrary@@IAEXPAVSchemeImpl@@ABVXMLNode@@@Z$3
10D6CC 71 __unwindfunclet$?addSchemeBlock@Impl@HrcLibrary@@IAEXPAVSchemeImpl@@ABVXMLNode@@@Z$4
10D6D7 71 __unwindfunclet$?addSchemeBlock@Impl@HrcLibrary@@IAEXPAVSchemeImpl@@ABVXMLNode@@@Z$12
10D6EC 71 __unwindfunclet$?addSchemeBlock@Impl@HrcLibrary@@IAEXPAVSchemeImpl@@ABVXMLNode@@@Z$5
10D6F7 71 __unwindfunclet$?addSchemeBlock@Impl@HrcLibrary@@IAEXPAVSchemeImpl@@ABVXMLNode@@@Z$6
10D702 71 __unwindfunclet$?addSchemeBlock@Impl@HrcLibrary@@IAEXPAVSchemeImpl@@ABVXMLNode@@@Z$8
10D70A 71 __unwindfunclet$?addSchemeBlock@Impl@HrcLibrary@@IAEXPAVSchemeImpl@@ABVXMLNode@@@Z$9
10D712 71 __unwindfunclet$?addSchemeBlock@Impl@HrcLibrary@@IAEXPAVSchemeImpl@@ABVXMLNode@@@Z$10
10D71A 71 __unwindfunclet$?addSchemeBlock@Impl@HrcLibrary@@IAEXPAVSchemeImpl@@ABVXMLNode@@@Z$16
10D722 71 __unwindfunclet$?addSchemeBlock@Impl@HrcLibrary@@IAEXPAVSchemeImpl@@ABVXMLNode@@@Z$17
10D72A 71 __unwindfunclet$?addSchemeBlock@Impl@HrcLibrary@@IAEXPAVSchemeImpl@@ABVXMLNode@@@Z$18
10D732 71 __unwindfunclet$?addSchemeBlock@Impl@HrcLibrary@@IAEXPAVSchemeImpl@@ABVXMLNode@@@Z$11
10D742 71 __ehhandler$?addSchemeBlock@Impl@HrcLibrary@@IAEXPAVSchemeImpl@@ABVXMLNode@@@Z
10D770 71 __unwindfunclet$?addSchemeInherit@Impl@HrcLibrary@@IAEXPAVSchemeImpl@@ABVXMLNode@@@Z$0
10D778 71 __unwindfunclet$?addSchemeInherit@Impl@HrcLibrary@@IAEXPAVSchemeImpl@@ABVXMLNode@@@Z$1
10D780 71 __unwindfunclet$?addSchemeInherit@Impl@HrcLibrary@@IAEXPAVSchemeImpl@@ABVXMLNode@@@Z$8
10D78B 71 __unwindfunclet$?addSchemeInherit@Impl@HrcLibrary@@IAEXPAVSchemeImpl@@ABVXMLNode@@@Z$3
10D793 71 __unwindfunclet$?addSchemeInherit@Impl@HrcLibrary@@IAEXPAVSchemeImpl@@ABVXMLNode@@@Z$4
10D7A2 71 __unwindfunclet$?addSchemeInherit@Impl@HrcLibrary@@IAEXPAVSchemeImpl@@ABVXMLNode@@@Z$10
10D7AD 71 __unwindfunclet$?addSchemeInherit@Impl@HrcLibrary@@IAEXPAVSchemeImpl@@ABVXMLNode@@@Z$11
10D7B8 71 __unwindfunclet$?addSchemeInherit@Impl@HrcLibrary@@IAEXPAVSchemeImpl@@ABVXMLNode@@@Z$14
10D7C3 71 __unwindfunclet$?addSchemeInherit@Impl@HrcLibrary@@IAEXPAVSchemeImpl@@ABVXMLNode@@@Z$16
10D7CE 71 __unwindfunclet$?addSchemeInherit@Impl@HrcLibrary@@IAEXPAVSchemeImpl@@ABVXMLNode@@@Z$5
10D7DB 71 __ehhandler$?addSchemeInherit@Impl@HrcLibrary@@IAEXPAVSchemeImpl@@ABVXMLNode@@@Z
10D810 71 __unwindfunclet$?addSchemeKeyword@Impl@HrcLibrary@@IAEXABVXMLNode@@PBVSchemeImpl@@PBVSchemeNodeKeywords@@PBVRegion@@W4KeywordType@KeywordInfo@@@Z$1
10D81B 71 __unwindfunclet$?addSchemeKeyword@Impl@HrcLibrary@@IAEXABVXMLNode@@PBVSchemeImpl@@PBVSchemeNodeKeywords@@PBVRegion@@W4KeywordType@KeywordInfo@@@Z$2
10D823 71 __unwindfunclet$?addSchemeKeyword@Impl@HrcLibrary@@IAEXABVXMLNode@@PBVSchemeImpl@@PBVSchemeNodeKeywords@@PBVRegion@@W4KeywordType@KeywordInfo@@@Z$4
10D833 71 __ehhandler$?addSchemeKeyword@Impl@HrcLibrary@@IAEXABVXMLNode@@PBVSchemeImpl@@PBVSchemeNodeKeywords@@PBVRegion@@W4KeywordType@KeywordInfo@@@Z
10D860 71 __unwindfunclet$?addSchemeRegexp@Impl@HrcLibrary@@IAEXPAVSchemeImpl@@ABVXMLNode@@@Z$0
10D868 71 __unwindfunclet$?addSchemeRegexp@Impl@HrcLibrary@@IAEXPAVSchemeImpl@@ABVXMLNode@@@Z$1
10D873 71 __unwindfunclet$?addSchemeRegexp@Impl@HrcLibrary@@IAEXPAVSchemeImpl@@ABVXMLNode@@@Z$6
10D888 71 __unwindfunclet$?addSchemeRegexp@Impl@HrcLibrary@@IAEXPAVSchemeImpl@@ABVXMLNode@@@Z$2
10D893 71 __unwindfunclet$?addSchemeRegexp@Impl@HrcLibrary@@IAEXPAVSchemeImpl@@ABVXMLNode@@@Z$3
10D89E 71 __unwindfunclet$?addSchemeRegexp@Impl@HrcLibrary@@IAEXPAVSchemeImpl@@ABVXMLNode@@@Z$4
10D8A9 71 __unwindfunclet$?addSchemeRegexp@Impl@HrcLibrary@@IAEXPAVSchemeImpl@@ABVXMLNode@@@Z$10
10D8B4 71 __unwindfunclet$?addSchemeRegexp@Impl@HrcLibrary@@IAEXPAVSchemeImpl@@ABVXMLNode@@@Z$11
10D8BF 71 __unwindfunclet$?addSchemeRegexp@Impl@HrcLibrary@@IAEXPAVSchemeImpl@@ABVXMLNode@@@Z$5
10D8CF 71 __ehhandler$?addSchemeRegexp@Impl@HrcLibrary@@IAEXPAVSchemeImpl@@ABVXMLNode@@@Z
10D900 71 __unwindfunclet$?addType@Impl@HrcLibrary@@IAEXABVXMLNode@@@Z$0
10D90D 71 __ehhandler$?addType@Impl@HrcLibrary@@IAEXABVXMLNode@@@Z
10D930 71 __unwindfunclet$?addTypeRegion@Impl@HrcLibrary@@IAEXABVXMLNode@@@Z$0
10D938 71 __unwindfunclet$?addTypeRegion@Impl@HrcLibrary@@IAEXABVXMLNode@@@Z$1
10D940 71 __unwindfunclet$?addTypeRegion@Impl@HrcLibrary@@IAEXABVXMLNode@@@Z$5
10D94B 71 __unwindfunclet$?addTypeRegion@Impl@HrcLibrary@@IAEXABVXMLNode@@@Z$6
10D953 71 __unwindfunclet$?addTypeRegion@Impl@HrcLibrary@@IAEXABVXMLNode@@@Z$2
10D95B 71 __unwindfunclet$?addTypeRegion@Impl@HrcLibrary@@IAEXABVXMLNode@@@Z$3
10D96A 71 __unwindfunclet$?addTypeRegion@Impl@HrcLibrary@@IAEXABVXMLNode@@@Z$8
10D972 71 __unwindfunclet$?addTypeRegion@Impl@HrcLibrary@@IAEXABVXMLNode@@@Z$9
10D97D 71 __unwindfunclet$?addTypeRegion@Impl@HrcLibrary@@IAEXABVXMLNode@@@Z$10
10D988 71 __unwindfunclet$?addTypeRegion@Impl@HrcLibrary@@IAEXABVXMLNode@@@Z$12
10D998 71 __ehhandler$?addTypeRegion@Impl@HrcLibrary@@IAEXABVXMLNode@@@Z
10D9D0 71 __unwindfunclet$?getNCRegion@Impl@HrcLibrary@@IAEPBVRegion@@PBVUnicodeString@icu_72@@_N@Z$0
10D9D8 71 __unwindfunclet$?getNCRegion@Impl@HrcLibrary@@IAEPBVRegion@@PBVUnicodeString@icu_72@@_N@Z$1
10D9E5 71 __ehhandler$?getNCRegion@Impl@HrcLibrary@@IAEPBVRegion@@PBVUnicodeString@icu_72@@_N@Z
10DA10 71 __unwindfunclet$?loadFileType@Impl@HrcLibrary@@QAEXPAVFileType@@@Z$5
10DA2C 71 __unwindfunclet$?loadFileType@Impl@HrcLibrary@@QAEXPAVFileType@@@Z$6
10DA48 71 __unwindfunclet$?loadFileType@Impl@HrcLibrary@@QAEXPAVFileType@@@Z$7
10DA61 71 __unwindfunclet$?loadFileType@Impl@HrcLibrary@@QAEXPAVFileType@@@Z$8
10DA7F 71 __ehhandler$?loadFileType@Impl@HrcLibrary@@QAEXPAVFileType@@@Z
10DAB0 71 __unwindfunclet$?loadRegions@Impl@HrcLibrary@@IAEXPAVSchemeNodeBlock@@PBVXMLNode@@_N@Z$0
10DAB8 71 __unwindfunclet$?loadRegions@Impl@HrcLibrary@@IAEXPAVSchemeNodeBlock@@PBVXMLNode@@_N@Z$1
10DAC8 71 __ehhandler$?loadRegions@Impl@HrcLibrary@@IAEXPAVSchemeNodeBlock@@PBVXMLNode@@_N@Z
10DB00 71 __unwindfunclet$?loadSource@Impl@HrcLibrary@@QAEXPAVXmlInputSource@@@Z$2
10DB0D 71 __ehhandler$?loadSource@Impl@HrcLibrary@@QAEXPAVXmlInputSource@@@Z
10DB40 71 __unwindfunclet$?parseHRC@Impl@HrcLibrary@@IAEXABVXmlInputSource@@@Z$0
10DB48 71 __unwindfunclet$?parseHRC@Impl@HrcLibrary@@IAEXABVXmlInputSource@@@Z$5
10DB50 71 __unwindfunclet$?parseHRC@Impl@HrcLibrary@@IAEXABVXmlInputSource@@@Z$6
10DB5B 71 __unwindfunclet$?parseHRC@Impl@HrcLibrary@@IAEXABVXmlInputSource@@@Z$7
10DB63 71 __unwindfunclet$?parseHRC@Impl@HrcLibrary@@IAEXABVXmlInputSource@@@Z$1
10DB6E 71 __unwindfunclet$?parseHRC@Impl@HrcLibrary@@IAEXABVXmlInputSource@@@Z$2
10DB79 71 __unwindfunclet$?parseHRC@Impl@HrcLibrary@@IAEXABVXmlInputSource@@@Z$3
10DB81 71 __unwindfunclet$?parseHRC@Impl@HrcLibrary@@IAEXABVXmlInputSource@@@Z$4
10DB8E 71 __ehhandler$?parseHRC@Impl@HrcLibrary@@IAEXABVXmlInputSource@@@Z
10DBC0 71 __unwindfunclet$?parseSchemeKeywords@Impl@HrcLibrary@@IAEXPAVSchemeImpl@@ABVXMLNode@@@Z$0
10DBC8 71 __unwindfunclet$?parseSchemeKeywords@Impl@HrcLibrary@@IAEXPAVSchemeImpl@@ABVXMLNode@@@Z$1
10DBD0 71 __unwindfunclet$?parseSchemeKeywords@Impl@HrcLibrary@@IAEXPAVSchemeImpl@@ABVXMLNode@@@Z$2
10DBD8 71 __unwindfunclet$?parseSchemeKeywords@Impl@HrcLibrary@@IAEXPAVSchemeImpl@@ABVXMLNode@@@Z$4
10DBE0 71 __unwindfunclet$?parseSchemeKeywords@Impl@HrcLibrary@@IAEXPAVSchemeImpl@@ABVXMLNode@@@Z$14
10DBEF 71 __unwindfunclet$?parseSchemeKeywords@Impl@HrcLibrary@@IAEXPAVSchemeImpl@@ABVXMLNode@@@Z$6
10DBF7 71 __unwindfunclet$?parseSchemeKeywords@Impl@HrcLibrary@@IAEXPAVSchemeImpl@@ABVXMLNode@@@Z$7
10DC04 71 __ehhandler$?parseSchemeKeywords@Impl@HrcLibrary@@IAEXPAVSchemeImpl@@ABVXMLNode@@@Z
10DC30 71 __unwindfunclet$?parseTypeBlock@Impl@HrcLibrary@@IAEXABVXMLNode@@@Z$0
10DC38 71 __unwindfunclet$?parseTypeBlock@Impl@HrcLibrary@@IAEXABVXMLNode@@@Z$1
10DC45 71 __ehhandler$?parseTypeBlock@Impl@HrcLibrary@@IAEXABVXMLNode@@@Z
10DC70 71 __unwindfunclet$?qualifyForeignName@Impl@HrcLibrary@@IAE?AV?$unique_ptr@VUnicodeString@icu_72@@U?$default_delete@VUnicodeString@icu_72@@@std@@@std@@PBVUnicodeString@icu_72@@W4QualifyNameType@12@_N@Z$1
10DC78 71 __unwindfunclet$?qualifyForeignName@Impl@HrcLibrary@@IAE?AV?$unique_ptr@VUnicodeString@icu_72@@U?$default_delete@VUnicodeString@icu_72@@@std@@@std@@PBVUnicodeString@icu_72@@W4QualifyNameType@12@_N@Z$5
10DC80 71 __unwindfunclet$?qualifyForeignName@Impl@HrcLibrary@@IAE?AV?$unique_ptr@VUnicodeString@icu_72@@U?$default_delete@VUnicodeString@icu_72@@@std@@@std@@PBVUnicodeString@icu_72@@W4QualifyNameType@12@_N@Z$8
10DC8B 71 __unwindfunclet$?qualifyForeignName@Impl@HrcLibrary@@IAE?AV?$unique_ptr@VUnicodeString@icu_72@@U?$default_delete@VUnicodeString@icu_72@@@std@@@std@@PBVUnicodeString@icu_72@@W4QualifyNameType@12@_N@Z$6
10DC93 71 __unwindfunclet$?qualifyForeignName@Impl@HrcLibrary@@IAE?AV?$unique_ptr@VUnicodeString@icu_72@@U?$default_delete@VUnicodeString@icu_72@@@std@@@std@@PBVUnicodeString@icu_72@@W4QualifyNameType@12@_N@Z$7
10DCA0 71 __ehhandler$?qualifyForeignName@Impl@HrcLibrary@@IAE?AV?$unique_ptr@VUnicodeString@icu_72@@U?$default_delete@VUnicodeString@icu_72@@@std@@@std@@PBVUnicodeString@icu_72@@W4QualifyNameType@12@_N@Z
10DCD0 71 __unwindfunclet$?qualifyOwnName@Impl@HrcLibrary@@IBE?AV?$unique_ptr@VUnicodeString@icu_72@@U?$default_delete@VUnicodeString@icu_72@@@std@@@std@@ABVUnicodeString@icu_72@@@Z$0
10DCD8 71 __unwindfunclet$?qualifyOwnName@Impl@HrcLibrary@@IBE?AV?$unique_ptr@VUnicodeString@icu_72@@U?$default_delete@VUnicodeString@icu_72@@@std@@@std@@ABVUnicodeString@icu_72@@@Z$4
10DCE3 71 __unwindfunclet$?qualifyOwnName@Impl@HrcLibrary@@IBE?AV?$unique_ptr@VUnicodeString@icu_72@@U?$default_delete@VUnicodeString@icu_72@@@std@@@std@@ABVUnicodeString@icu_72@@@Z$2
10DCEB 71 __unwindfunclet$?qualifyOwnName@Impl@HrcLibrary@@IBE?AV?$unique_ptr@VUnicodeString@icu_72@@U?$default_delete@VUnicodeString@icu_72@@@std@@@std@@ABVUnicodeString@icu_72@@@Z$3
10DCF8 71 __ehhandler$?qualifyOwnName@Impl@HrcLibrary@@IBE?AV?$unique_ptr@VUnicodeString@icu_72@@U?$default_delete@VUnicodeString@icu_72@@@std@@@std@@ABVUnicodeString@icu_72@@@Z
10DD30 71 __ehhandler$?unloadFileType@Impl@HrcLibrary@@IAEXPBVFileType@@@Z
10DD50 71 __unwindfunclet$?updateSchemeLink@Impl@HrcLibrary@@IAEXAAV?$unique_ptr@VUnicodeString@icu_72@@U?$default_delete@VUnicodeString@icu_72@@@std@@@std@@PAPAVSchemeImpl@@EPBV5@@Z$0
10DD5D 71 __ehhandler$?updateSchemeLink@Impl@HrcLibrary@@IAEXAAV?$unique_ptr@VUnicodeString@icu_72@@U?$default_delete@VUnicodeString@icu_72@@@std@@@std@@PAPAVSchemeImpl@@EPBV5@@Z
10DD80 71 __unwindfunclet$?useEntities@Impl@HrcLibrary@@IAE?AV?$unique_ptr@VUnicodeString@icu_72@@U?$default_delete@VUnicodeString@icu_72@@@std@@@std@@PBVUnicodeString@icu_72@@@Z$1
10DD88 71 __unwindfunclet$?useEntities@Impl@HrcLibrary@@IAE?AV?$unique_ptr@VUnicodeString@icu_72@@U?$default_delete@VUnicodeString@icu_72@@@std@@@std@@PBVUnicodeString@icu_72@@@Z$2
10DD90 71 __unwindfunclet$?useEntities@Impl@HrcLibrary@@IAE?AV?$unique_ptr@VUnicodeString@icu_72@@U?$default_delete@VUnicodeString@icu_72@@@std@@@std@@PBVUnicodeString@icu_72@@@Z$3
10DD98 71 __unwindfunclet$?useEntities@Impl@HrcLibrary@@IAE?AV?$unique_ptr@VUnicodeString@icu_72@@U?$default_delete@VUnicodeString@icu_72@@@std@@@std@@PBVUnicodeString@icu_72@@@Z$4
10DDA0 71 __unwindfunclet$?useEntities@Impl@HrcLibrary@@IAE?AV?$unique_ptr@VUnicodeString@icu_72@@U?$default_delete@VUnicodeString@icu_72@@@std@@@std@@PBVUnicodeString@icu_72@@@Z$5
10DDAD 71 __ehhandler$?useEntities@Impl@HrcLibrary@@IAE?AV?$unique_ptr@VUnicodeString@icu_72@@U?$default_delete@VUnicodeString@icu_72@@@std@@@std@@PBVUnicodeString@icu_72@@@Z
10DDE0 92 __unwindfunclet$??0TextParser@@QAE@XZ$1
10DDF7 92 __ehhandler$??0TextParser@@QAE@XZ
10DE20 78 __unwindfunclet$??$log@AAI@Log@@SAXW4LogLevel@Logger@@PBDH1V?$basic_string_view@DU?$char_traits@D@std@@@std@@AAI@Z$2
10DE3C 78 __unwindfunclet$??$log@AAI@Log@@SAXW4LogLevel@Logger@@PBDH1V?$basic_string_view@DU?$char_traits@D@std@@@std@@AAI@Z$6
10DE47 78 __unwindfunclet$??$log@AAI@Log@@SAXW4LogLevel@Logger@@PBDH1V?$basic_string_view@DU?$char_traits@D@std@@@std@@AAI@Z$3
10DE52 78 __unwindfunclet$??$log@AAI@Log@@SAXW4LogLevel@Logger@@PBDH1V?$basic_string_view@DU?$char_traits@D@std@@@std@@AAI@Z$0
10DE5D 78 __unwindfunclet$??$log@AAI@Log@@SAXW4LogLevel@Logger@@PBDH1V?$basic_string_view@DU?$char_traits@D@std@@@std@@AAI@Z$13
10DE76 78 __unwindfunclet$??$log@AAI@Log@@SAXW4LogLevel@Logger@@PBDH1V?$basic_string_view@DU?$char_traits@D@std@@@std@@AAI@Z$1
10DE83 78 __ehhandler$??$log@AAI@Log@@SAXW4LogLevel@Logger@@PBDH1V?$basic_string_view@DU?$char_traits@D@std@@@std@@AAI@Z
10DEB0 78 __unwindfunclet$??0LineRegionsSupport@@QAE@XZ$0
10DEBB 78 __unwindfunclet$??0LineRegionsSupport@@QAE@XZ$1
10DECB 78 __ehhandler$??0LineRegionsSupport@@QAE@XZ
10DEF0 78 __unwindfunclet$?clearLine@LineRegionsSupport@@UAEXIPAVUnicodeString@icu_72@@@Z$0
10DF04 78 __ehhandler$?clearLine@LineRegionsSupport@@UAEXIPAVUnicodeString@icu_72@@@Z
10DF30 78 __unwindfunclet$?enterScheme@LineRegionsSupport@@UAEXIPAVUnicodeString@icu_72@@HHPBVRegion@@PBVScheme@@@Z$0
10DF3F 78 __unwindfunclet$?enterScheme@LineRegionsSupport@@UAEXIPAVUnicodeString@icu_72@@HHPBVRegion@@PBVScheme@@@Z$1
10DF53 78 __ehhandler$?enterScheme@LineRegionsSupport@@UAEXIPAVUnicodeString@icu_72@@HHPBVRegion@@PBVScheme@@@Z
10DF70 78 __unwindfunclet$?leaveScheme@LineRegionsSupport@@UAEXIPAVUnicodeString@icu_72@@HHPBVRegion@@PBVScheme@@@Z$0
10DF84 78 __ehhandler$?leaveScheme@LineRegionsSupport@@UAEXIPAVUnicodeString@icu_72@@HHPBVRegion@@PBVScheme@@@Z
10DFB0 77 __unwindfunclet$?addLineRegion@LineRegionsCompactSupport@@MAEXIPAVLineRegion@@@Z$0
10DFC4 77 __ehhandler$?addLineRegion@LineRegionsCompactSupport@@MAEXIPAVLineRegion@@@Z
10DFF0 63 __unwindfunclet$?fromUTF8@Encodings@@SA?AV?$unique_ptr@VUnicodeString@icu_72@@U?$default_delete@VUnicodeString@icu_72@@@std@@@std@@PAE@Z$2
10E000 63 __ehhandler$?fromUTF8@Encodings@@SA?AV?$unique_ptr@VUnicodeString@icu_72@@U?$default_delete@VUnicodeString@icu_72@@@std@@@std@@PAE@Z
10E020 63 __unwindfunclet$?toUnicodeString@Encodings@@SA?AV?$unique_ptr@VUnicodeString@icu_72@@U?$default_delete@VUnicodeString@icu_72@@@std@@@std@@PADH@Z$1
10E030 63 __ehhandler$?toUnicodeString@Encodings@@SA?AV?$unique_ptr@VUnicodeString@icu_72@@U?$default_delete@VUnicodeString@icu_72@@@std@@@std@@PADH@Z
10E060 72 __unwindfunclet$?getAbsolutePath@InputSource@colorer@@SAPAVUnicodeString@icu_72@@PBV34@0@Z$1
10E06D 72 __ehhandler$?getAbsolutePath@InputSource@colorer@@SAPAVUnicodeString@icu_72@@PBV34@0@Z
10E0A0 72 __unwindfunclet$?newInstance@InputSource@colorer@@SAPAV12@PBVUnicodeString@icu_72@@@Z$2
10E0AF 72 __unwindfunclet$?newInstance@InputSource@colorer@@SAPAV12@PBVUnicodeString@icu_72@@@Z$0
10E0BC 72 __ehhandler$?newInstance@InputSource@colorer@@SAPAV12@PBVUnicodeString@icu_72@@@Z
10E0F0 75 __unwindfunclet$??$?0V?$allocator@U?$_List_node@U?$pair@$$CBVUnicodeString@icu_72@@V12@@std@@PAX@std@@@std@@@?$_Hash@V?$_Umap_traits@VUnicodeString@icu_72@@V12@V?$_Uhash_compare@VUnicodeString@icu_72@@U?$hash@VUnicodeString@icu_72@@@std@@U?$equal_to@VUnicodeString@icu_72@@@4@@std@@V?$allocator@U?$pair@$$CBVUnicodeString@icu_72@@V12@@std@@@4@$0A@@std@@@std@@IAE@ABV01@ABV?$allocator@U?$_List_node@U?$pair@$$CBVUnicodeString@icu_72@@V12@@std@@PAX@std@@@1@@Z$0
10E0FB 75 __unwindfunclet$??$?0V?$allocator@U?$_List_node@U?$pair@$$CBVUnicodeString@icu_72@@V12@@std@@PAX@std@@@std@@@?$_Hash@V?$_Umap_traits@VUnicodeString@icu_72@@V12@V?$_Uhash_compare@VUnicodeString@icu_72@@U?$hash@VUnicodeString@icu_72@@@std@@U?$equal_to@VUnicodeString@icu_72@@@4@@std@@V?$allocator@U?$pair@$$CBVUnicodeString@icu_72@@V12@@std@@@4@$0A@@std@@@std@@IAE@ABV01@ABV?$allocator@U?$_List_node@U?$pair@$$CBVUnicodeString@icu_72@@V12@@std@@PAX@std@@@1@@Z$1
10E106 75 __unwindfunclet$??$?0V?$allocator@U?$_List_node@U?$pair@$$CBVUnicodeString@icu_72@@V12@@std@@PAX@std@@@std@@@?$_Hash@V?$_Umap_traits@VUnicodeString@icu_72@@V12@V?$_Uhash_compare@VUnicodeString@icu_72@@U?$hash@VUnicodeString@icu_72@@@std@@U?$equal_to@VUnicodeString@icu_72@@@4@@std@@V?$allocator@U?$pair@$$CBVUnicodeString@icu_72@@V12@@std@@@4@$0A@@std@@@std@@IAE@ABV01@ABV?$allocator@U?$_List_node@U?$pair@$$CBVUnicodeString@icu_72@@V12@@std@@PAX@std@@@1@@Z$3
10E10E 75 __unwindfunclet$??$?0V?$allocator@U?$_List_node@U?$pair@$$CBVUnicodeString@icu_72@@V12@@std@@PAX@std@@@std@@@?$_Hash@V?$_Umap_traits@VUnicodeString@icu_72@@V12@V?$_Uhash_compare@VUnicodeString@icu_72@@U?$hash@VUnicodeString@icu_72@@@std@@U?$equal_to@VUnicodeString@icu_72@@@4@@std@@V?$allocator@U?$pair@$$CBVUnicodeString@icu_72@@V12@@std@@@4@$0A@@std@@@std@@IAE@ABV01@ABV?$allocator@U?$_List_node@U?$pair@$$CBVUnicodeString@icu_72@@V12@@std@@PAX@std@@@1@@Z$4
10E116 75 __unwindfunclet$??$?0V?$allocator@U?$_List_node@U?$pair@$$CBVUnicodeString@icu_72@@V12@@std@@PAX@std@@@std@@@?$_Hash@V?$_Umap_traits@VUnicodeString@icu_72@@V12@V?$_Uhash_compare@VUnicodeString@icu_72@@U?$hash@VUnicodeString@icu_72@@@std@@U?$equal_to@VUnicodeString@icu_72@@@4@@std@@V?$allocator@U?$pair@$$CBVUnicodeString@icu_72@@V12@@std@@@4@$0A@@std@@@std@@IAE@ABV01@ABV?$allocator@U?$_List_node@U?$pair@$$CBVUnicodeString@icu_72@@V12@@std@@PAX@std@@@1@@Z$2
10E123 75 __ehhandler$??$?0V?$allocator@U?$_List_node@U?$pair@$$CBVUnicodeString@icu_72@@V12@@std@@PAX@std@@@std@@@?$_Hash@V?$_Umap_traits@VUnicodeString@icu_72@@V12@V?$_Uhash_compare@VUnicodeString@icu_72@@U?$hash@VUnicodeString@icu_72@@@std@@U?$equal_to@VUnicodeString@icu_72@@@4@@std@@V?$allocator@U?$pair@$$CBVUnicodeString@icu_72@@V12@@std@@@4@$0A@@std@@@std@@IAE@ABV01@ABV?$allocator@U?$_List_node@U?$pair@$$CBVUnicodeString@icu_72@@V12@@std@@PAX@std@@@1@@Z
10E140 75 __unwindfunclet$??0LibXmlReader@@QAE@ABVXmlInputSource@@@Z$3
10E150 75 __ehhandler$??0LibXmlReader@@QAE@ABVXmlInputSource@@@Z
10E180 75 __unwindfunclet$??0XMLNode@@QAE@ABV0@@Z$0
10E188 75 __unwindfunclet$??0XMLNode@@QAE@ABV0@@Z$1
10E193 75 __unwindfunclet$??0XMLNode@@QAE@ABV0@@Z$2
10E1A1 75 __unwindfunclet$??0XMLNode@@QAE@ABV0@@Z$5
10E1A9 75 __unwindfunclet$??0XMLNode@@QAE@ABV0@@Z$6
10E1B1 75 __unwindfunclet$??0XMLNode@@QAE@ABV0@@Z$10
10E1BE 75 __ehhandler$??0XMLNode@@QAE@ABV0@@Z
10E1E0 75 __unwindfunclet$?_Forced_rehash@?$_Hash@V?$_Umap_traits@VUnicodeString@icu_72@@V12@V?$_Uhash_compare@VUnicodeString@icu_72@@U?$hash@VUnicodeString@icu_72@@@std@@U?$equal_to@VUnicodeString@icu_72@@@4@@std@@V?$allocator@U?$pair@$$CBVUnicodeString@icu_72@@V12@@std@@@4@$0A@@std@@@std@@IAEXI@Z$0
10E1ED 75 __ehhandler$?_Forced_rehash@?$_Hash@V?$_Umap_traits@VUnicodeString@icu_72@@V12@V?$_Uhash_compare@VUnicodeString@icu_72@@U?$hash@VUnicodeString@icu_72@@@std@@U?$equal_to@VUnicodeString@icu_72@@@4@@std@@V?$allocator@U?$pair@$$CBVUnicodeString@icu_72@@V12@@std@@@4@$0A@@std@@@std@@IAEXI@Z
10E210 75 __unwindfunclet$?getAttributes@LibXmlReader@@CAXPBU_xmlNode@@AAV?$unordered_map@VUnicodeString@icu_72@@V12@U?$hash@VUnicodeString@icu_72@@@std@@U?$equal_to@VUnicodeString@icu_72@@@4@V?$allocator@U?$pair@$$CBVUnicodeString@icu_72@@V12@@std@@@4@@std@@@Z$0
10E218 75 __unwindfunclet$?getAttributes@LibXmlReader@@CAXPBU_xmlNode@@AAV?$unordered_map@VUnicodeString@icu_72@@V12@U?$hash@VUnicodeString@icu_72@@@std@@U?$equal_to@VUnicodeString@icu_72@@@4@V?$allocator@U?$pair@$$CBVUnicodeString@icu_72@@V12@@std@@@4@@std@@@Z$1
10E220 75 __unwindfunclet$?getAttributes@LibXmlReader@@CAXPBU_xmlNode@@AAV?$unordered_map@VUnicodeString@icu_72@@V12@U?$hash@VUnicodeString@icu_72@@@std@@U?$equal_to@VUnicodeString@icu_72@@@4@V?$allocator@U?$pair@$$CBVUnicodeString@icu_72@@V12@@std@@@4@@std@@@Z$3
10E228 75 __unwindfunclet$?getAttributes@LibXmlReader@@CAXPBU_xmlNode@@AAV?$unordered_map@VUnicodeString@icu_72@@V12@U?$hash@VUnicodeString@icu_72@@@std@@U?$equal_to@VUnicodeString@icu_72@@@4@V?$allocator@U?$pair@$$CBVUnicodeString@icu_72@@V12@@std@@@4@@std@@@Z$5
10E230 75 __unwindfunclet$?getAttributes@LibXmlReader@@CAXPBU_xmlNode@@AAV?$unordered_map@VUnicodeString@icu_72@@V12@U?$hash@VUnicodeString@icu_72@@@std@@U?$equal_to@VUnicodeString@icu_72@@@4@V?$allocator@U?$pair@$$CBVUnicodeString@icu_72@@V12@@std@@@4@@std@@@Z$2
10E23D 75 __ehhandler$?getAttributes@LibXmlReader@@CAXPBU_xmlNode@@AAV?$unordered_map@VUnicodeString@icu_72@@V12@U?$hash@VUnicodeString@icu_72@@@std@@U?$equal_to@VUnicodeString@icu_72@@@4@V?$allocator@U?$pair@$$CBVUnicodeString@icu_72@@V12@@std@@@4@@std@@@Z
10E270 75 __unwindfunclet$?getChildren@LibXmlReader@@AAEXPAU_xmlNode@@AAVXMLNode@@@Z$1
10E278 75 __unwindfunclet$?getChildren@LibXmlReader@@AAEXPAU_xmlNode@@AAVXMLNode@@@Z$2
10E280 75 __unwindfunclet$?getChildren@LibXmlReader@@AAEXPAU_xmlNode@@AAVXMLNode@@@Z$6
10E28B 75 __unwindfunclet$?getChildren@LibXmlReader@@AAEXPAU_xmlNode@@AAVXMLNode@@@Z$7
10E296 75 __unwindfunclet$?getChildren@LibXmlReader@@AAEXPAU_xmlNode@@AAVXMLNode@@@Z$3
10E2A1 75 __unwindfunclet$?getChildren@LibXmlReader@@AAEXPAU_xmlNode@@AAVXMLNode@@@Z$0
10E2A9 75 __unwindfunclet$?getChildren@LibXmlReader@@AAEXPAU_xmlNode@@AAVXMLNode@@@Z$9
10E2B6 75 __ehhandler$?getChildren@LibXmlReader@@AAEXPAU_xmlNode@@AAVXMLNode@@@Z
10E2E0 75 __unwindfunclet$?parse@LibXmlReader@@QAEXAAV?$list@VXMLNode@@V?$allocator@VXMLNode@@@std@@@std@@@Z$1
10E2E8 75 __unwindfunclet$?parse@LibXmlReader@@QAEXAAV?$list@VXMLNode@@V?$allocator@VXMLNode@@@std@@@std@@@Z$2
10E2F0 75 __unwindfunclet$?parse@LibXmlReader@@QAEXAAV?$list@VXMLNode@@V?$allocator@VXMLNode@@@std@@@std@@@Z$6
10E2FB 75 __unwindfunclet$?parse@LibXmlReader@@QAEXAAV?$list@VXMLNode@@V?$allocator@VXMLNode@@@std@@@std@@@Z$7
10E306 75 __unwindfunclet$?parse@LibXmlReader@@QAEXAAV?$list@VXMLNode@@V?$allocator@VXMLNode@@@std@@@std@@@Z$3
10E311 75 __unwindfunclet$?parse@LibXmlReader@@QAEXAAV?$list@VXMLNode@@V?$allocator@VXMLNode@@@std@@@std@@@Z$0
10E319 75 __unwindfunclet$?parse@LibXmlReader@@QAEXAAV?$list@VXMLNode@@V?$allocator@VXMLNode@@@std@@@std@@@Z$9
10E326 75 __ehhandler$?parse@LibXmlReader@@QAEXAAV?$list@VXMLNode@@V?$allocator@VXMLNode@@@std@@@std@@@Z
10E350 75 __unwindfunclet$?populateNode@LibXmlReader@@AAE_NPAU_xmlNode@@AAVXMLNode@@@Z$4
10E358 75 __unwindfunclet$?populateNode@LibXmlReader@@AAE_NPAU_xmlNode@@AAVXMLNode@@@Z$1
10E365 75 __ehhandler$?populateNode@LibXmlReader@@AAE_NPAU_xmlNode@@AAVXMLNode@@@Z
10E390 75 __unwindfunclet$?xmlMyExternalEntityLoader@LibXmlReader@@CAPAU_xmlParserInput@@PBD0PAU_xmlParserCtxt@@@Z$2
10E39B 75 __unwindfunclet$?xmlMyExternalEntityLoader@LibXmlReader@@CAPAU_xmlParserInput@@PBD0PAU_xmlParserCtxt@@@Z$3
10E3A3 75 __unwindfunclet$?xmlMyExternalEntityLoader@LibXmlReader@@CAPAU_xmlParserInput@@PBD0PAU_xmlParserCtxt@@@Z$5
10E3AE 75 __unwindfunclet$?xmlMyExternalEntityLoader@LibXmlReader@@CAPAU_xmlParserInput@@PBD0PAU_xmlParserCtxt@@@Z$8
10E3B9 75 __unwindfunclet$?xmlMyExternalEntityLoader@LibXmlReader@@CAPAU_xmlParserInput@@PBD0PAU_xmlParserCtxt@@@Z$7
10E3C4 75 __unwindfunclet$?xmlMyExternalEntityLoader@LibXmlReader@@CAPAU_xmlParserInput@@PBD0PAU_xmlParserCtxt@@@Z$4
10E3D5 75 __ehhandler$?xmlMyExternalEntityLoader@LibXmlReader@@CAPAU_xmlParserInput@@PBD0PAU_xmlParserCtxt@@@Z
10E400 75 __unwindfunclet$?xmlZipEntityLoader@LibXmlReader@@CAPAU_xmlParserInput@@ABUPathInJar@@PAU_xmlParserCtxt@@@Z$0
10E408 75 __unwindfunclet$?xmlZipEntityLoader@LibXmlReader@@CAPAU_xmlParserInput@@ABUPathInJar@@PAU_xmlParserCtxt@@@Z$1
10E415 75 __ehhandler$?xmlZipEntityLoader@LibXmlReader@@CAPAU_xmlParserInput@@ABUPathInJar@@PAU_xmlParserCtxt@@@Z
10E440 75 __unwindfunclet$?xml_error_func@LibXmlReader@@CAXPAXPBDZZ$0
10E44B 75 __unwindfunclet$?xml_error_func@LibXmlReader@@CAXPAXPBDZZ$1
10E453 75 __unwindfunclet$?xml_error_func@LibXmlReader@@CAXPAXPBDZZ$3
10E45E 75 __unwindfunclet$?xml_error_func@LibXmlReader@@CAXPAXPBDZZ$4
10E46B 75 __ehhandler$?xml_error_func@LibXmlReader@@CAXPAXPBDZZ
10E4A0 86 __unwindfunclet$??0?$basic_ifstream@DU?$char_traits@D@std@@@std@@QAE@PB_WHH@Z$0
10E4BC 86 __unwindfunclet$??0?$basic_ifstream@DU?$char_traits@D@std@@@std@@QAE@PB_WHH@Z$1
10E4C7 86 __unwindfunclet$??0?$basic_ifstream@DU?$char_traits@D@std@@@std@@QAE@PB_WHH@Z$2
10E4D2 86 __unwindfunclet$??0?$basic_ifstream@DU?$char_traits@D@std@@@std@@QAE@PB_WHH@Z$5
10E4DF 86 __ehhandler$??0?$basic_ifstream@DU?$char_traits@D@std@@@std@@QAE@PB_WHH@Z
10E500 93 __ehhandler$??1VTList@@QAE@XZ
10E520 86 __ehhandler$??1sentry@?$basic_istream@DU?$char_traits@D@std@@@std@@QAE@XZ
10E540 86 __unwindfunclet$?_Forced_rehash@?$_Hash@V?$_Umap_traits@VUnicodeString@icu_72@@PAVSharedXmlInputSource@@V?$_Uhash_compare@VUnicodeString@icu_72@@U?$hash@VUnicodeString@icu_72@@@std@@U?$equal_to@VUnicodeString@icu_72@@@4@@std@@V?$allocator@U?$pair@$$CBVUnicodeString@icu_72@@PAVSharedXmlInputSource@@@std@@@5@$0A@@std@@@std@@IAEXI@Z$0
10E54D 86 __ehhandler$?_Forced_rehash@?$_Hash@V?$_Umap_traits@VUnicodeString@icu_72@@PAVSharedXmlInputSource@@V?$_Uhash_compare@VUnicodeString@icu_72@@U?$hash@VUnicodeString@icu_72@@@std@@U?$equal_to@VUnicodeString@icu_72@@@4@@std@@V?$allocator@U?$pair@$$CBVUnicodeString@icu_72@@PAVSharedXmlInputSource@@@std@@@5@$0A@@std@@@std@@IAEXI@Z
10E570 86 __unwindfunclet$?_Ipfx@?$basic_istream@DU?$char_traits@D@std@@@std@@QAE_N_N@Z$2
10E57D 86 __ehhandler$?_Ipfx@?$basic_istream@DU?$char_traits@D@std@@@std@@QAE_N_N@Z
10E5A0 86 __ehhandler$?delref@SharedXmlInputSource@@QAEHXZ
10E5C0 86 __unwindfunclet$?getSharedInputSource@SharedXmlInputSource@@SAPAV1@ABVUnicodeString@icu_72@@@Z$0
10E5CF 86 __unwindfunclet$?getSharedInputSource@SharedXmlInputSource@@SAPAV1@ABVUnicodeString@icu_72@@@Z$3
10E5DA 86 __unwindfunclet$?getSharedInputSource@SharedXmlInputSource@@SAPAV1@ABVUnicodeString@icu_72@@@Z$4
10E5E5 86 __unwindfunclet$?getSharedInputSource@SharedXmlInputSource@@SAPAV1@ABVUnicodeString@icu_72@@@Z$1
10E5F9 86 __ehhandler$?getSharedInputSource@SharedXmlInputSource@@SAPAV1@ABVUnicodeString@icu_72@@@Z
10E620 86 __unwindfunclet$?open@SharedXmlInputSource@@QAEXXZ$0
10E62B 86 __unwindfunclet$?open@SharedXmlInputSource@@QAEXXZ$1
10E636 86 __unwindfunclet$?open@SharedXmlInputSource@@QAEXXZ$2
10E63E 86 __unwindfunclet$?open@SharedXmlInputSource@@QAEXXZ$3
10E64B 86 __ehhandler$?open@SharedXmlInputSource@@QAEXXZ
10E680 86 __unwindfunclet$?read@?$basic_istream@DU?$char_traits@D@std@@@std@@QAEAAV12@PAD_J@Z$3
10E688 86 __unwindfunclet$?read@?$basic_istream@DU?$char_traits@D@std@@@std@@QAEAAV12@PAD_J@Z$2
10E695 86 __ehhandler$?read@?$basic_istream@DU?$char_traits@D@std@@@std@@QAEAAV12@PAD_J@Z
10E6C0 64 __unwindfunclet$??$?_0V?$basic_string_view@_WU?$char_traits@_W@std@@@std@@$0A@@path@filesystem@std@@QAEAAV012@ABV?$basic_string_view@_WU?$char_traits@_W@std@@@2@@Z$0
10E6CD 64 __ehhandler$??$?_0V?$basic_string_view@_WU?$char_traits@_W@std@@@std@@$0A@@path@filesystem@std@@QAEAAV012@ABV?$basic_string_view@_WU?$char_traits@_W@std@@@2@@Z
10E700 64 __unwindfunclet$??$_Convert_wide_to_narrow_replace_chars@U?$char_traits@D@std@@V?$allocator@D@2@@filesystem@std@@YA?AV?$basic_string@DU?$char_traits@D@std@@V?$allocator@D@2@@1@W4__std_code_page@@V?$basic_string_view@_WU?$char_traits@_W@std@@@1@ABV?$allocator@D@1@@Z$0
10E71E 64 __ehhandler$??$_Convert_wide_to_narrow_replace_chars@U?$char_traits@D@std@@V?$allocator@D@2@@filesystem@std@@YA?AV?$basic_string@DU?$char_traits@D@std@@V?$allocator@D@2@@1@W4__std_code_page@@V?$basic_string_view@_WU?$char_traits@_W@std@@@1@ABV?$allocator@D@1@@Z
10E750 64 __ehhandler$??$_Emplace_reallocate@PB_W@?$vector@VUnicodeString@icu_72@@V?$allocator@VUnicodeString@icu_72@@@std@@@std@@AAEPAVUnicodeString@icu_72@@QAV23@$$QAPB_W@Z
10E770 64 __unwindfunclet$??$_Initialize_dir_enum@U_Dir_enum_impl@filesystem@std@@@_Dir_enum_impl@filesystem@std@@SA?AW4__std_win_error@@AAV?$shared_ptr@U_Dir_enum_impl@filesystem@std@@@2@ABVpath@12@W4directory_options@12@@Z$0
10E77B 64 __unwindfunclet$??$_Initialize_dir_enum@U_Dir_enum_impl@filesystem@std@@@_Dir_enum_impl@filesystem@std@@SA?AW4__std_win_error@@AAV?$shared_ptr@U_Dir_enum_impl@filesystem@std@@@2@ABVpath@12@W4directory_options@12@@Z$2
10E792 64 __ehhandler$??$_Initialize_dir_enum@U_Dir_enum_impl@filesystem@std@@@_Dir_enum_impl@filesystem@std@@SA?AW4__std_win_error@@AAV?$shared_ptr@U_Dir_enum_impl@filesystem@std@@@2@ABVpath@12@W4directory_options@12@@Z
10E7C0 64 __unwindfunclet$??$_Regex_search2@V?$_String_const_iterator@V?$_String_val@U?$_Simple_types@D@std@@@std@@@std@@V?$allocator@V?$sub_match@V?$_String_const_iterator@V?$_String_val@U?$_Simple_types@D@std@@@std@@@std@@@std@@@2@DV?$regex_traits@D@2@V12@@std@@YA_NV?$_String_const_iterator@V?$_String_val@U?$_Simple_types@D@std@@@std@@@0@0PAV?$match_results@V?$_String_const_iterator@V?$_String_val@U?$_Simple_types@D@std@@@std@@@std@@V?$allocator@V?$sub_match@V?$_String_const_iterator@V?$_String_val@U?$_Simple_types@D@std@@@std@@@std@@@std@@@2@@0@ABV?$basic_regex@DV?$regex_traits@D@std@@@0@W4match_flag_type@regex_constants@0@0@Z$1
10E7CB 64 __unwindfunclet$??$_Regex_search2@V?$_String_const_iterator@V?$_String_val@U?$_Simple_types@D@std@@@std@@@std@@V?$allocator@V?$sub_match@V?$_String_const_iterator@V?$_String_val@U?$_Simple_types@D@std@@@std@@@std@@@std@@@2@DV?$regex_traits@D@2@V12@@std@@YA_NV?$_String_const_iterator@V?$_String_val@U?$_Simple_types@D@std@@@std@@@0@0PAV?$match_results@V?$_String_const_iterator@V?$_String_val@U?$_Simple_types@D@std@@@std@@@std@@V?$allocator@V?$sub_match@V?$_String_const_iterator@V?$_String_val@U?$_Simple_types@D@std@@@std@@@std@@@std@@@2@@0@ABV?$basic_regex@DV?$regex_traits@D@std@@@0@W4match_flag_type@regex_constants@0@0@Z$2
10E7D3 64 __unwindfunclet$??$_Regex_search2@V?$_String_const_iterator@V?$_String_val@U?$_Simple_types@D@std@@@std@@@std@@V?$allocator@V?$sub_match@V?$_String_const_iterator@V?$_String_val@U?$_Simple_types@D@std@@@std@@@std@@@std@@@2@DV?$regex_traits@D@2@V12@@std@@YA_NV?$_String_const_iterator@V?$_String_val@U?$_Simple_types@D@std@@@std@@@0@0PAV?$match_results@V?$_String_const_iterator@V?$_String_val@U?$_Simple_types@D@std@@@std@@@std@@V?$allocator@V?$sub_match@V?$_String_const_iterator@V?$_String_val@U?$_Simple_types@D@std@@@std@@@std@@@std@@@2@@0@ABV?$basic_regex@DV?$regex_traits@D@std@@@0@W4match_flag_type@regex_constants@0@0@Z$3
10E7DB 64 __unwindfunclet$??$_Regex_search2@V?$_String_const_iterator@V?$_String_val@U?$_Simple_types@D@std@@@std@@@std@@V?$allocator@V?$sub_match@V?$_String_const_iterator@V?$_String_val@U?$_Simple_types@D@std@@@std@@@std@@@std@@@2@DV?$regex_traits@D@2@V12@@std@@YA_NV?$_String_const_iterator@V?$_String_val@U?$_Simple_types@D@std@@@std@@@0@0PAV?$match_results@V?$_String_const_iterator@V?$_String_val@U?$_Simple_types@D@std@@@std@@@std@@V?$allocator@V?$sub_match@V?$_String_const_iterator@V?$_String_val@U?$_Simple_types@D@std@@@std@@@std@@@std@@@2@@0@ABV?$basic_regex@DV?$regex_traits@D@std@@@0@W4match_flag_type@regex_constants@0@0@Z$0
10E7EB 64 __ehhandler$??$_Regex_search2@V?$_String_const_iterator@V?$_String_val@U?$_Simple_types@D@std@@@std@@@std@@V?$allocator@V?$sub_match@V?$_String_const_iterator@V?$_String_val@U?$_Simple_types@D@std@@@std@@@std@@@std@@@2@DV?$regex_traits@D@2@V12@@std@@YA_NV?$_String_const_iterator@V?$_String_val@U?$_Simple_types@D@std@@@std@@@0@0PAV?$match_results@V?$_String_const_iterator@V?$_String_val@U?$_Simple_types@D@std@@@std@@@std@@V?$allocator@V?$sub_match@V?$_String_const_iterator@V?$_String_val@U?$_Simple_types@D@std@@@std@@@std@@@std@@@2@@0@ABV?$basic_regex@DV?$regex_traits@D@std@@@0@W4match_flag_type@regex_constants@0@0@Z
10E810 64 __unwindfunclet$??$_Reset@PBD@?$basic_regex@DV?$regex_traits@D@std@@@std@@AAEXPBD0W4syntax_option_type@regex_constants@1@@Z$2
10E818 64 __unwindfunclet$??$_Reset@PBD@?$basic_regex@DV?$regex_traits@D@std@@@std@@AAEXPBD0W4syntax_option_type@regex_constants@1@@Z$1
10E820 64 __unwindfunclet$??$_Reset@PBD@?$basic_regex@DV?$regex_traits@D@std@@@std@@AAEXPBD0W4syntax_option_type@regex_constants@1@@Z$0
10E828 64 __unwindfunclet$??$_Reset@PBD@?$basic_regex@DV?$regex_traits@D@std@@@std@@AAEXPBD0W4syntax_option_type@regex_constants@1@@Z$6
10E835 64 __ehhandler$??$_Reset@PBD@?$basic_regex@DV?$regex_traits@D@std@@@std@@AAEXPBD0W4syntax_option_type@regex_constants@1@@Z
10E860 64 __unwindfunclet$??$transform_primary@PAD@?$_Regex_traits@D@std@@QBE?AV?$basic_string@DU?$char_traits@D@std@@V?$allocator@D@2@@1@PAD0@Z$0
10E879 64 __unwindfunclet$??$transform_primary@PAD@?$_Regex_traits@D@std@@QBE?AV?$basic_string@DU?$char_traits@D@std@@V?$allocator@D@2@@1@PAD0@Z$1
10E886 64 __ehhandler$??$transform_primary@PAD@?$_Regex_traits@D@std@@QBE?AV?$basic_string@DU?$char_traits@D@std@@V?$allocator@D@2@@1@PAD0@Z
10E8B0 64 __unwindfunclet$??0?$_Tgt_state_t@V?$_String_const_iterator@V?$_String_val@U?$_Simple_types@D@std@@@std@@@std@@@std@@QAE@ABV01@@Z$0
10E8BD 64 __ehhandler$??0?$_Tgt_state_t@V?$_String_const_iterator@V?$_String_val@U?$_Simple_types@D@std@@@std@@@std@@@std@@QAE@ABV01@@Z
10E8E0 64 __unwindfunclet$??0?$basic_regex@DV?$regex_traits@D@std@@@std@@QAE@PBDW4syntax_option_type@regex_constants@1@@Z$2
10E8EB 64 __unwindfunclet$??0?$basic_regex@DV?$regex_traits@D@std@@@std@@QAE@PBDW4syntax_option_type@regex_constants@1@@Z$4
10E8F3 64 __unwindfunclet$??0?$basic_regex@DV?$regex_traits@D@std@@@std@@QAE@PBDW4syntax_option_type@regex_constants@1@@Z$0
10E8FE 64 __unwindfunclet$??0?$basic_regex@DV?$regex_traits@D@std@@@std@@QAE@PBDW4syntax_option_type@regex_constants@1@@Z$5
10E90B 64 __ehhandler$??0?$basic_regex@DV?$regex_traits@D@std@@@std@@QAE@PBDW4syntax_option_type@regex_constants@1@@Z
10E930 64 __unwindfunclet$??0_Creator@_Dir_enum_impl@filesystem@std@@QAE@ABVpath@23@W4directory_options@23@@Z$0
10E938 64 __unwindfunclet$??0_Creator@_Dir_enum_impl@filesystem@std@@QAE@ABVpath@23@W4directory_options@23@@Z$1
10E948 64 __ehhandler$??0_Creator@_Dir_enum_impl@filesystem@std@@QAE@ABVpath@23@W4directory_options@23@@Z
10E970 64 __unwindfunclet$??0_Dir_enum_impl@filesystem@std@@QAE@$$QAU_Creator@012@W4directory_options@12@@Z$0
10E978 64 __unwindfunclet$??0_Dir_enum_impl@filesystem@std@@QAE@$$QAU_Creator@012@W4directory_options@12@@Z$1
10E988 64 __ehhandler$??0_Dir_enum_impl@filesystem@std@@QAE@$$QAU_Creator@012@W4directory_options@12@@Z
10E9B0 64 __unwindfunclet$??0filesystem_error@filesystem@std@@QAE@ABV012@@Z$0
10E9B8 64 __unwindfunclet$??0filesystem_error@filesystem@std@@QAE@ABV012@@Z$1
10E9C3 64 __unwindfunclet$??0filesystem_error@filesystem@std@@QAE@ABV012@@Z$2
10E9D3 64 __ehhandler$??0filesystem_error@filesystem@std@@QAE@ABV012@@Z
10E9F0 64 __unwindfunclet$??0filesystem_error@filesystem@std@@QAE@ABV?$basic_string@DU?$char_traits@D@std@@V?$allocator@D@2@@2@ABVpath@12@Verror_code@2@@Z$0
10E9F8 64 __unwindfunclet$??0filesystem_error@filesystem@std@@QAE@ABV?$basic_string@DU?$char_traits@D@std@@V?$allocator@D@2@@2@ABVpath@12@Verror_code@2@@Z$1
10EA03 64 __unwindfunclet$??0filesystem_error@filesystem@std@@QAE@ABV?$basic_string@DU?$char_traits@D@std@@V?$allocator@D@2@@2@ABVpath@12@Verror_code@2@@Z$2
10EA0E 64 __unwindfunclet$??0filesystem_error@filesystem@std@@QAE@ABV?$basic_string@DU?$char_traits@D@std@@V?$allocator@D@2@@2@ABVpath@12@Verror_code@2@@Z$3
10EA1B 64 __ehhandler$??0filesystem_error@filesystem@std@@QAE@ABV?$basic_string@DU?$char_traits@D@std@@V?$allocator@D@2@@2@ABVpath@12@Verror_code@2@@Z
10EA50 64 __unwindfunclet$??Kfilesystem@std@@YA?AVpath@01@ABV201@0@Z$0
10EA69 64 __unwindfunclet$??Kfilesystem@std@@YA?AVpath@01@ABV201@0@Z$1
10EA87 64 __ehhandler$??Kfilesystem@std@@YA?AVpath@01@ABV201@0@Z
10EAB0 64 __unwindfunclet$?_Add_equiv@?$_Builder@PBDDV?$regex_traits@D@std@@@std@@QAEXPBD0H@Z$0
10EABD 64 __ehhandler$?_Add_equiv@?$_Builder@PBDDV?$regex_traits@D@std@@@std@@QAEXPBD0H@Z
10EAF0 64 __unwindfunclet$?_Do_assert_group@?$_Parser@PBDDV?$regex_traits@D@std@@@std@@AAEX_N@Z$0
10EAFD 64 __ehhandler$?_Do_assert_group@?$_Parser@PBDDV?$regex_traits@D@std@@@std@@AAEX_N@Z
10EB20 64 __unwindfunclet$?_Do_if@?$_Matcher@V?$_String_const_iterator@V?$_String_val@U?$_Simple_types@D@std@@@std@@@std@@DV?$regex_traits@D@2@V12@@std@@AAE_NPAV_Node_if@2@@Z$0
10EB28 64 __unwindfunclet$?_Do_if@?$_Matcher@V?$_String_const_iterator@V?$_String_val@U?$_Simple_types@D@std@@@std@@@std@@DV?$regex_traits@D@2@V12@@std@@AAE_NPAV_Node_if@2@@Z$1
10EB35 64 __ehhandler$?_Do_if@?$_Matcher@V?$_String_const_iterator@V?$_String_val@U?$_Simple_types@D@std@@@std@@@std@@DV?$regex_traits@D@2@V12@@std@@AAE_NPAV_Node_if@2@@Z
10EB60 64 __unwindfunclet$?_Do_rep0@?$_Matcher@V?$_String_const_iterator@V?$_String_val@U?$_Simple_types@D@std@@@std@@@std@@DV?$regex_traits@D@2@V12@@std@@AAE_NPAV_Node_rep@2@_N@Z$0
10EB68 64 __unwindfunclet$?_Do_rep0@?$_Matcher@V?$_String_const_iterator@V?$_String_val@U?$_Simple_types@D@std@@@std@@@std@@DV?$regex_traits@D@2@V12@@std@@AAE_NPAV_Node_rep@2@_N@Z$1
10EB75 64 __ehhandler$?_Do_rep0@?$_Matcher@V?$_String_const_iterator@V?$_String_val@U?$_Simple_types@D@std@@@std@@@std@@DV?$regex_traits@D@2@V12@@std@@AAE_NPAV_Node_rep@2@_N@Z
10EBA0 64 __unwindfunclet$?_Do_rep@?$_Matcher@V?$_String_const_iterator@V?$_String_val@U?$_Simple_types@D@std@@@std@@@std@@DV?$regex_traits@D@2@V12@@std@@AAE_NPAV_Node_rep@2@_NH@Z$0
10EBAD 64 __ehhandler$?_Do_rep@?$_Matcher@V?$_String_const_iterator@V?$_String_val@U?$_Simple_types@D@std@@@std@@@std@@DV?$regex_traits@D@2@V12@@std@@AAE_NPAV_Node_rep@2@_NH@Z
10EBD0 64 __unwindfunclet$?_Getcat@?$collate@D@std@@SAIPAPBVfacet@locale@2@PBV42@@Z$0
10EBDF 64 __unwindfunclet$?_Getcat@?$collate@D@std@@SAIPAPBVfacet@locale@2@PBV42@@Z$1
10EBFD 64 __ehhandler$?_Getcat@?$collate@D@std@@SAIPAPBVfacet@locale@2@PBV42@@Z
10EC30 64 __unwindfunclet$?_Match_pat@?$_Matcher@V?$_String_const_iterator@V?$_String_val@U?$_Simple_types@D@std@@@std@@@std@@DV?$regex_traits@D@2@V12@@std@@AAE_NPAV_Node_base@2@@Z$0
10EC3D 64 __ehhandler$?_Match_pat@?$_Matcher@V?$_String_const_iterator@V?$_String_val@U?$_Simple_types@D@std@@@std@@@std@@DV?$regex_traits@D@2@V12@@std@@AAE_NPAV_Node_base@2@@Z
10EC60 64 __unwindfunclet$?_Open_dir@_Dir_enum_impl@filesystem@std@@SA?AW4__std_win_error@@AAVpath@23@W4directory_options@23@AAU_Find_file_handle@23@AAU__std_fs_find_data@@@Z$0
10EC6D 64 __ehhandler$?_Open_dir@_Dir_enum_impl@filesystem@std@@SA?AW4__std_win_error@@AAVpath@23@W4directory_options@23@AAU_Find_file_handle@23@AAU__std_fs_find_data@@@Z
10ECA0 64 __unwindfunclet$?_Pretty_message@filesystem_error@filesystem@std@@CA?AV?$basic_string@DU?$char_traits@D@std@@V?$allocator@D@2@@3@V?$basic_string_view@DU?$char_traits@D@std@@@3@ABVpath@23@1@Z$0
10ECB9 64 __unwindfunclet$?_Pretty_message@filesystem_error@filesystem@std@@CA?AV?$basic_string@DU?$char_traits@D@std@@V?$allocator@D@2@@3@V?$basic_string_view@DU?$char_traits@D@std@@@3@ABVpath@23@1@Z$1
10ECC1 64 __unwindfunclet$?_Pretty_message@filesystem_error@filesystem@std@@CA?AV?$basic_string@DU?$char_traits@D@std@@V?$allocator@D@2@@3@V?$basic_string_view@DU?$char_traits@D@std@@@3@ABVpath@23@1@Z$2
10ECCE 64 __ehhandler$?_Pretty_message@filesystem_error@filesystem@std@@CA?AV?$basic_string@DU?$char_traits@D@std@@V?$allocator@D@2@@3@V?$basic_string_view@DU?$char_traits@D@std@@@3@ABVpath@23@1@Z
10ED00 64 __unwindfunclet$?_Refresh@_Dir_enum_impl@filesystem@std@@QAEXABU__std_fs_find_data@@@Z$0
10ED0D 64 __ehhandler$?_Refresh@_Dir_enum_impl@filesystem@std@@QAEXABU__std_fs_find_data@@@Z
10ED40 64 __unwindfunclet$?_Throw_fs_error@filesystem@std@@YAXPBDW4__std_win_error@@@Z$0
10ED4D 64 __ehhandler$?_Throw_fs_error@filesystem@std@@YAXPBDW4__std_win_error@@@Z
10ED70 64 __unwindfunclet$?_Throw_fs_error@filesystem@std@@YAXPBDW4__std_win_error@@ABVpath@12@@Z$0
10ED7D 64 __ehhandler$?_Throw_fs_error@filesystem@std@@YAXPBDW4__std_win_error@@ABVpath@12@@Z
10EDA0 64 __unwindfunclet$?do_transform@?$collate@D@std@@MBE?AV?$basic_string@DU?$char_traits@D@std@@V?$allocator@D@2@@2@PBD0@Z$0
10EDBE 64 __ehhandler$?do_transform@?$collate@D@std@@MBE?AV?$basic_string@DU?$char_traits@D@std@@V?$allocator@D@2@@2@PBD0@Z
10EDE0 64 __unwindfunclet$?expandEnvByRegexp@Environment@colorer@@CA?AV?$basic_string@DU?$char_traits@D@std@@V?$allocator@D@2@@std@@ABV34@ABV?$basic_regex@DV?$regex_traits@D@std@@@4@@Z$0
10EDEB 64 __unwindfunclet$?expandEnvByRegexp@Environment@colorer@@CA?AV?$basic_string@DU?$char_traits@D@std@@V?$allocator@D@2@@std@@ABV34@ABV?$basic_regex@DV?$regex_traits@D@std@@@4@@Z$1
10EE0D 64 __unwindfunclet$?expandEnvByRegexp@Environment@colorer@@CA?AV?$basic_string@DU?$char_traits@D@std@@V?$allocator@D@2@@std@@ABV34@ABV?$basic_regex@DV?$regex_traits@D@std@@@4@@Z$2
10EE15 64 __unwindfunclet$?expandEnvByRegexp@Environment@colorer@@CA?AV?$basic_string@DU?$char_traits@D@std@@V?$allocator@D@2@@std@@ABV34@ABV?$basic_regex@DV?$regex_traits@D@std@@@4@@Z$3
10EE1D 64 __unwindfunclet$?expandEnvByRegexp@Environment@colorer@@CA?AV?$basic_string@DU?$char_traits@D@std@@V?$allocator@D@2@@std@@ABV34@ABV?$basic_regex@DV?$regex_traits@D@std@@@4@@Z$4
10EE25 64 __unwindfunclet$?expandEnvByRegexp@Environment@colorer@@CA?AV?$basic_string@DU?$char_traits@D@std@@V?$allocator@D@2@@std@@ABV34@ABV?$basic_regex@DV?$regex_traits@D@std@@@4@@Z$5
10EE30 64 __unwindfunclet$?expandEnvByRegexp@Environment@colorer@@CA?AV?$basic_string@DU?$char_traits@D@std@@V?$allocator@D@2@@std@@ABV34@ABV?$basic_regex@DV?$regex_traits@D@std@@@4@@Z$6
10EE3B 64 __unwindfunclet$?expandEnvByRegexp@Environment@colorer@@CA?AV?$basic_string@DU?$char_traits@D@std@@V?$allocator@D@2@@std@@ABV34@ABV?$basic_regex@DV?$regex_traits@D@std@@@4@@Z$7
10EE43 64 __unwindfunclet$?expandEnvByRegexp@Environment@colorer@@CA?AV?$basic_string@DU?$char_traits@D@std@@V?$allocator@D@2@@std@@ABV34@ABV?$basic_regex@DV?$regex_traits@D@std@@@4@@Z$8
10EE50 64 __ehhandler$?expandEnvByRegexp@Environment@colorer@@CA?AV?$basic_string@DU?$char_traits@D@std@@V?$allocator@D@2@@std@@ABV34@ABV?$basic_regex@DV?$regex_traits@D@std@@@4@@Z
10EE80 64 __unwindfunclet$?expandEnvironment@Environment@colorer@@SA?AVUnicodeString@icu_72@@ABV34@@Z$4
10EE8B 64 __unwindfunclet$?expandEnvironment@Environment@colorer@@SA?AVUnicodeString@icu_72@@ABV34@@Z$5
10EE93 64 __unwindfunclet$?expandEnvironment@Environment@colorer@@SA?AVUnicodeString@icu_72@@ABV34@@Z$1
10EE9B 64 __unwindfunclet$?expandEnvironment@Environment@colorer@@SA?AVUnicodeString@icu_72@@ABV34@@Z$2
10EEA3 64 __unwindfunclet$?expandEnvironment@Environment@colorer@@SA?AVUnicodeString@icu_72@@ABV34@@Z$3
10EEAB 64 __unwindfunclet$?expandEnvironment@Environment@colorer@@SA?AVUnicodeString@icu_72@@ABV34@@Z$9
10EEB6 64 __unwindfunclet$?expandEnvironment@Environment@colorer@@SA?AVUnicodeString@icu_72@@ABV34@@Z$10
10EEC3 64 __ehhandler$?expandEnvironment@Environment@colorer@@SA?AVUnicodeString@icu_72@@ABV34@@Z
10EEF0 64 __unwindfunclet$?expandSpecialEnvironment@Environment@colorer@@SA?AVUnicodeString@icu_72@@ABV34@@Z$0
10EEF8 64 __unwindfunclet$?expandSpecialEnvironment@Environment@colorer@@SA?AVUnicodeString@icu_72@@ABV34@@Z$1
10EF00 64 __unwindfunclet$?expandSpecialEnvironment@Environment@colorer@@SA?AVUnicodeString@icu_72@@ABV34@@Z$2
10EF08 64 __unwindfunclet$?expandSpecialEnvironment@Environment@colorer@@SA?AVUnicodeString@icu_72@@ABV34@@Z$7
10EF13 64 __unwindfunclet$?expandSpecialEnvironment@Environment@colorer@@SA?AVUnicodeString@icu_72@@ABV34@@Z$8
10EF20 64 __ehhandler$?expandSpecialEnvironment@Environment@colorer@@SA?AVUnicodeString@icu_72@@ABV34@@Z
10EF50 64 __unwindfunclet$?getAbsolutePath@Environment@colorer@@SA?AVUnicodeString@icu_72@@ABV34@0@Z$0
10EF6E 64 __ehhandler$?getAbsolutePath@Environment@colorer@@SA?AVUnicodeString@icu_72@@ABV34@0@Z
10EF90 64 __unwindfunclet$?getClearFilePath@Environment@colorer@@SA?AVpath@filesystem@std@@PBVUnicodeString@icu_72@@0@Z$0
10EF98 64 __unwindfunclet$?getClearFilePath@Environment@colorer@@SA?AVpath@filesystem@std@@PBVUnicodeString@icu_72@@0@Z$1
10EFA0 64 __unwindfunclet$?getClearFilePath@Environment@colorer@@SA?AVpath@filesystem@std@@PBVUnicodeString@icu_72@@0@Z$2
10EFAB 64 __unwindfunclet$?getClearFilePath@Environment@colorer@@SA?AVpath@filesystem@std@@PBVUnicodeString@icu_72@@0@Z$4
10EFB3 64 __unwindfunclet$?getClearFilePath@Environment@colorer@@SA?AVpath@filesystem@std@@PBVUnicodeString@icu_72@@0@Z$5
10EFDA 64 __ehhandler$?getClearFilePath@Environment@colorer@@SA?AVpath@filesystem@std@@PBVUnicodeString@icu_72@@0@Z
10F010 64 __unwindfunclet$?getFileSize@Environment@colorer@@SA_KABVUnicodeString@icu_72@@@Z$0
10F01D 64 __ehhandler$?getFileSize@Environment@colorer@@SA_KABVUnicodeString@icu_72@@@Z
10F050 64 __unwindfunclet$?getFilesFromPath@Environment@colorer@@SA?AV?$vector@VUnicodeString@icu_72@@V?$allocator@VUnicodeString@icu_72@@@std@@@std@@PBVUnicodeString@icu_72@@0ABV56@@Z$0
10F06C 64 __unwindfunclet$?getFilesFromPath@Environment@colorer@@SA?AV?$vector@VUnicodeString@icu_72@@V?$allocator@VUnicodeString@icu_72@@@std@@@std@@PBVUnicodeString@icu_72@@0ABV56@@Z$1
10F074 64 __unwindfunclet$?getFilesFromPath@Environment@colorer@@SA?AV?$vector@VUnicodeString@icu_72@@V?$allocator@VUnicodeString@icu_72@@@std@@@std@@PBVUnicodeString@icu_72@@0ABV56@@Z$2
10F07C 64 __unwindfunclet$?getFilesFromPath@Environment@colorer@@SA?AV?$vector@VUnicodeString@icu_72@@V?$allocator@VUnicodeString@icu_72@@@std@@@std@@PBVUnicodeString@icu_72@@0ABV56@@Z$25
10F084 64 __unwindfunclet$?getFilesFromPath@Environment@colorer@@SA?AV?$vector@VUnicodeString@icu_72@@V?$allocator@VUnicodeString@icu_72@@@std@@@std@@PBVUnicodeString@icu_72@@0ABV56@@Z$3
10F08C 64 __unwindfunclet$?getFilesFromPath@Environment@colorer@@SA?AV?$vector@VUnicodeString@icu_72@@V?$allocator@VUnicodeString@icu_72@@@std@@@std@@PBVUnicodeString@icu_72@@0ABV56@@Z$5
10F094 64 __unwindfunclet$?getFilesFromPath@Environment@colorer@@SA?AV?$vector@VUnicodeString@icu_72@@V?$allocator@VUnicodeString@icu_72@@@std@@@std@@PBVUnicodeString@icu_72@@0ABV56@@Z$7
10F0A4 64 __ehhandler$?getFilesFromPath@Environment@colorer@@SA?AV?$vector@VUnicodeString@icu_72@@V?$allocator@VUnicodeString@icu_72@@@std@@@std@@PBVUnicodeString@icu_72@@0ABV56@@Z
10F0D0 64 __unwindfunclet$?getOSEnv@Environment@colorer@@SA?AV?$unique_ptr@VUnicodeString@icu_72@@U?$default_delete@VUnicodeString@icu_72@@@std@@@std@@ABVUnicodeString@icu_72@@@Z$0
10F0D8 64 __unwindfunclet$?getOSEnv@Environment@colorer@@SA?AV?$unique_ptr@VUnicodeString@icu_72@@U?$default_delete@VUnicodeString@icu_72@@@std@@@std@@ABVUnicodeString@icu_72@@@Z$2
10F0E0 64 __unwindfunclet$?getOSEnv@Environment@colorer@@SA?AV?$unique_ptr@VUnicodeString@icu_72@@U?$default_delete@VUnicodeString@icu_72@@@std@@@std@@ABVUnicodeString@icu_72@@@Z$7
10F0EB 64 __unwindfunclet$?getOSEnv@Environment@colorer@@SA?AV?$unique_ptr@VUnicodeString@icu_72@@U?$default_delete@VUnicodeString@icu_72@@@std@@@std@@ABVUnicodeString@icu_72@@@Z$3
10F0F3 64 __unwindfunclet$?getOSEnv@Environment@colorer@@SA?AV?$unique_ptr@VUnicodeString@icu_72@@U?$default_delete@VUnicodeString@icu_72@@@std@@@std@@ABVUnicodeString@icu_72@@@Z$10
10F0FE 64 __unwindfunclet$?getOSEnv@Environment@colorer@@SA?AV?$unique_ptr@VUnicodeString@icu_72@@U?$default_delete@VUnicodeString@icu_72@@@std@@@std@@ABVUnicodeString@icu_72@@@Z$11
10F10B 64 __ehhandler$?getOSEnv@Environment@colorer@@SA?AV?$unique_ptr@VUnicodeString@icu_72@@U?$default_delete@VUnicodeString@icu_72@@@std@@@std@@ABVUnicodeString@icu_72@@@Z
10F140 64 __unwindfunclet$?isRegularFile@Environment@colorer@@SA_NABVUnicodeString@icu_72@@@Z$1
10F148 64 __unwindfunclet$?isRegularFile@Environment@colorer@@SA_NABVUnicodeString@icu_72@@@Z$5
10F153 64 __unwindfunclet$?isRegularFile@Environment@colorer@@SA_NABVUnicodeString@icu_72@@@Z$6
10F160 64 __ehhandler$?isRegularFile@Environment@colorer@@SA_NABVUnicodeString@icu_72@@@Z
10F190 64 __unwindfunclet$?isRegularFile@Environment@colorer@@SA_NPBVUnicodeString@icu_72@@0AAV34@@Z$0
10F198 64 __unwindfunclet$?isRegularFile@Environment@colorer@@SA_NPBVUnicodeString@icu_72@@0AAV34@@Z$1
10F1A5 64 __ehhandler$?isRegularFile@Environment@colorer@@SA_NPBVUnicodeString@icu_72@@0AAV34@@Z
10F1D0 64 __unwindfunclet$?lexically_normal@path@filesystem@std@@QBE?AV123@XZ$1
10F1D8 64 __unwindfunclet$?lexically_normal@path@filesystem@std@@QBE?AV123@XZ$2
10F1E5 64 __ehhandler$?lexically_normal@path@filesystem@std@@QBE?AV123@XZ
10F210 64 __unwindfunclet$?message@_System_error_category@std@@UBE?AV?$basic_string@DU?$char_traits@D@std@@V?$allocator@D@2@@2@H@Z$0
10F21D 64 __ehhandler$?message@_System_error_category@std@@UBE?AV?$basic_string@DU?$char_traits@D@std@@V?$allocator@D@2@@2@H@Z
10F240 64 __unwindfunclet$?normalizeFsPath@Environment@colorer@@SA?AVpath@filesystem@std@@PBVUnicodeString@icu_72@@@Z$0
10F24B 64 __unwindfunclet$?normalizeFsPath@Environment@colorer@@SA?AVpath@filesystem@std@@PBVUnicodeString@icu_72@@@Z$1
10F26D 64 __unwindfunclet$?normalizeFsPath@Environment@colorer@@SA?AVpath@filesystem@std@@PBVUnicodeString@icu_72@@@Z$6
10F28C 64 __unwindfunclet$?normalizeFsPath@Environment@colorer@@SA?AVpath@filesystem@std@@PBVUnicodeString@icu_72@@@Z$11
10F29C 64 __ehhandler$?normalizeFsPath@Environment@colorer@@SA?AVpath@filesystem@std@@PBVUnicodeString@icu_72@@@Z
10F2D0 64 __unwindfunclet$?normalizePath@Environment@colorer@@SA?AV?$unique_ptr@VUnicodeString@icu_72@@U?$default_delete@VUnicodeString@icu_72@@@std@@@std@@PBVUnicodeString@icu_72@@@Z$0
10F2D8 64 __unwindfunclet$?normalizePath@Environment@colorer@@SA?AV?$unique_ptr@VUnicodeString@icu_72@@U?$default_delete@VUnicodeString@icu_72@@@std@@@std@@PBVUnicodeString@icu_72@@@Z$2
10F2E8 64 __ehhandler$?normalizePath@Environment@colorer@@SA?AV?$unique_ptr@VUnicodeString@icu_72@@U?$default_delete@VUnicodeString@icu_72@@@std@@@std@@PBVUnicodeString@icu_72@@@Z
10F310 377 __ehhandler$__execute_onexit_table
10F330 87 __unwindfunclet$??$_Try_emplace@ABVUnicodeString@icu_72@@V?$unique_ptr@VStyledRegion@@U?$default_delete@VStyledRegion@@@std@@@std@@@?$_Hash@V?$_Umap_traits@VUnicodeString@icu_72@@V?$unique_ptr@VRegionDefine@@U?$default_delete@VRegionDefine@@@std@@@std@@V?$_Uhash_compare@VUnicodeString@icu_72@@U?$hash@VUnicodeString@icu_72@@@std@@U?$equal_to@VUnicodeString@icu_72@@@4@@4@V?$allocator@U?$pair@$$CBVUnicodeString@icu_72@@V?$unique_ptr@VRegionDefine@@U?$default_delete@VRegionDefine@@@std@@@std@@@std@@@4@$0A@@std@@@std@@IAE?AU?$pair@PAU?$_List_node@U?$pair@$$CBVUnicodeString@icu_72@@V?$unique_ptr@VRegionDefine@@U?$default_delete@VRegionDefine@@@std@@@std@@@std@@PAX@std@@_N@1@ABVUnicodeString@icu_72@@$$QAV?$unique_ptr@VStyledRegion@@U?$default_delete@VStyledRegion@@@std@@@1@@Z$1
10F338 87 __unwindfunclet$??$_Try_emplace@ABVUnicodeString@icu_72@@V?$unique_ptr@VStyledRegion@@U?$default_delete@VStyledRegion@@@std@@@std@@@?$_Hash@V?$_Umap_traits@VUnicodeString@icu_72@@V?$unique_ptr@VRegionDefine@@U?$default_delete@VRegionDefine@@@std@@@std@@V?$_Uhash_compare@VUnicodeString@icu_72@@U?$hash@VUnicodeString@icu_72@@@std@@U?$equal_to@VUnicodeString@icu_72@@@4@@4@V?$allocator@U?$pair@$$CBVUnicodeString@icu_72@@V?$unique_ptr@VRegionDefine@@U?$default_delete@VRegionDefine@@@std@@@std@@@std@@@4@$0A@@std@@@std@@IAE?AU?$pair@PAU?$_List_node@U?$pair@$$CBVUnicodeString@icu_72@@V?$unique_ptr@VRegionDefine@@U?$default_delete@VRegionDefine@@@std@@@std@@@std@@PAX@std@@_N@1@ABVUnicodeString@icu_72@@$$QAV?$unique_ptr@VStyledRegion@@U?$default_delete@VStyledRegion@@@std@@@1@@Z$0
10F345 87 __ehhandler$??$_Try_emplace@ABVUnicodeString@icu_72@@V?$unique_ptr@VStyledRegion@@U?$default_delete@VStyledRegion@@@std@@@std@@@?$_Hash@V?$_Umap_traits@VUnicodeString@icu_72@@V?$unique_ptr@VRegionDefine@@U?$default_delete@VRegionDefine@@@std@@@std@@V?$_Uhash_compare@VUnicodeString@icu_72@@U?$hash@VUnicodeString@icu_72@@@std@@U?$equal_to@VUnicodeString@icu_72@@@4@@4@V?$allocator@U?$pair@$$CBVUnicodeString@icu_72@@V?$unique_ptr@VRegionDefine@@U?$default_delete@VRegionDefine@@@std@@@std@@@std@@@4@$0A@@std@@@std@@IAE?AU?$pair@PAU?$_List_node@U?$pair@$$CBVUnicodeString@icu_72@@V?$unique_ptr@VRegionDefine@@U?$default_delete@VRegionDefine@@@std@@@std@@@std@@PAX@std@@_N@1@ABVUnicodeString@icu_72@@$$QAV?$unique_ptr@VStyledRegion@@U?$default_delete@VStyledRegion@@@std@@@1@@Z
10F370 87 __unwindfunclet$?_Forced_rehash@?$_Hash@V?$_Umap_traits@VUnicodeString@icu_72@@V?$unique_ptr@VRegionDefine@@U?$default_delete@VRegionDefine@@@std@@@std@@V?$_Uhash_compare@VUnicodeString@icu_72@@U?$hash@VUnicodeString@icu_72@@@std@@U?$equal_to@VUnicodeString@icu_72@@@4@@4@V?$allocator@U?$pair@$$CBVUnicodeString@icu_72@@V?$unique_ptr@VRegionDefine@@U?$default_delete@VRegionDefine@@@std@@@std@@@std@@@4@$0A@@std@@@std@@IAEXI@Z$0
10F37D 87 __ehhandler$?_Forced_rehash@?$_Hash@V?$_Umap_traits@VUnicodeString@icu_72@@V?$unique_ptr@VRegionDefine@@U?$default_delete@VRegionDefine@@@std@@@std@@V?$_Uhash_compare@VUnicodeString@icu_72@@U?$hash@VUnicodeString@icu_72@@@std@@U?$equal_to@VUnicodeString@icu_72@@@4@@4@V?$allocator@U?$pair@$$CBVUnicodeString@icu_72@@V?$unique_ptr@VRegionDefine@@U?$default_delete@VRegionDefine@@@std@@@std@@@std@@@4@$0A@@std@@@std@@IAEXI@Z
10F3A0 87 __unwindfunclet$?loadRegionMappings@StyledHRDMapper@@UAEXAAVXmlInputSource@@@Z$0
10F3A8 87 __unwindfunclet$?loadRegionMappings@StyledHRDMapper@@UAEXAAVXmlInputSource@@@Z$5
10F3B0 87 __unwindfunclet$?loadRegionMappings@StyledHRDMapper@@UAEXAAVXmlInputSource@@@Z$6
10F3BB 87 __unwindfunclet$?loadRegionMappings@StyledHRDMapper@@UAEXAAVXmlInputSource@@@Z$7
10F3C3 87 __unwindfunclet$?loadRegionMappings@StyledHRDMapper@@UAEXAAVXmlInputSource@@@Z$9
10F3D2 87 __unwindfunclet$?loadRegionMappings@StyledHRDMapper@@UAEXAAVXmlInputSource@@@Z$8
10F3DA 87 __unwindfunclet$?loadRegionMappings@StyledHRDMapper@@UAEXAAVXmlInputSource@@@Z$1
10F3E5 87 __unwindfunclet$?loadRegionMappings@StyledHRDMapper@@UAEXAAVXmlInputSource@@@Z$2
10F3F0 87 __unwindfunclet$?loadRegionMappings@StyledHRDMapper@@UAEXAAVXmlInputSource@@@Z$3
10F3F8 87 __unwindfunclet$?loadRegionMappings@StyledHRDMapper@@UAEXAAVXmlInputSource@@@Z$4
10F405 87 __ehhandler$?loadRegionMappings@StyledHRDMapper@@UAEXAAVXmlInputSource@@@Z
10F430 87 __unwindfunclet$?saveRegionMappings@StyledHRDMapper@@UBEXPAVWriter@@@Z$0
10F43B 87 __unwindfunclet$?saveRegionMappings@StyledHRDMapper@@UBEXPAVWriter@@@Z$1
10F446 87 __unwindfunclet$?saveRegionMappings@StyledHRDMapper@@UBEXPAVWriter@@@Z$2
10F451 87 __unwindfunclet$?saveRegionMappings@StyledHRDMapper@@UBEXPAVWriter@@@Z$3
10F459 87 __unwindfunclet$?saveRegionMappings@StyledHRDMapper@@UBEXPAVWriter@@@Z$4
10F461 87 __unwindfunclet$?saveRegionMappings@StyledHRDMapper@@UBEXPAVWriter@@@Z$5
10F46C 87 __unwindfunclet$?saveRegionMappings@StyledHRDMapper@@UBEXPAVWriter@@@Z$6
10F477 87 __unwindfunclet$?saveRegionMappings@StyledHRDMapper@@UBEXPAVWriter@@@Z$7
10F482 87 __unwindfunclet$?saveRegionMappings@StyledHRDMapper@@UBEXPAVWriter@@@Z$8
10F48D 87 __unwindfunclet$?saveRegionMappings@StyledHRDMapper@@UBEXPAVWriter@@@Z$9
10F49D 87 __ehhandler$?saveRegionMappings@StyledHRDMapper@@UBEXPAVWriter@@@Z
10F4D0 87 __unwindfunclet$?setRegionDefine@StyledHRDMapper@@UAEXABVUnicodeString@icu_72@@PBVRegionDefine@@@Z$1
10F4DF 87 __unwindfunclet$?setRegionDefine@StyledHRDMapper@@UAEXABVUnicodeString@icu_72@@PBVRegionDefine@@@Z$0
10F4EC 87 __ehhandler$?setRegionDefine@StyledHRDMapper@@UAEXABVUnicodeString@icu_72@@PBVRegionDefine@@@Z
10F510 73 __unwindfunclet$??0KeywordList@@QAE@I@Z$0
10F51B 73 __unwindfunclet$??0KeywordList@@QAE@I@Z$2
10F52B 73 __ehhandler$??0KeywordList@@QAE@I@Z
10F550 73 __unwindfunclet$?substrIndex@KeywordList@@QAEXXZ$0
10F56E 73 __ehhandler$?substrIndex@KeywordList@@QAEXXZ
10F5A0 94 __unwindfunclet$?colorize@Impl@TextParser@@AAE_NPAVCRegExp@@_N@Z$0
10F5A8 94 __unwindfunclet$?colorize@Impl@TextParser@@AAE_NPAVCRegExp@@_N@Z$1
10F5B3 94 __unwindfunclet$?colorize@Impl@TextParser@@AAE_NPAVCRegExp@@_N@Z$2
10F5C0 94 __ehhandler$?colorize@Impl@TextParser@@AAE_NPAVCRegExp@@_N@Z
10F5F0 94 __unwindfunclet$?searchBL@Impl@TextParser@@AAEHPAVSchemeNodeBlock@@HHH@Z$0
10F600 94 __ehhandler$?searchBL@Impl@TextParser@@AAEHPAVSchemeNodeBlock@@HHH@Z
10F630 94 __unwindfunclet$?searchKW@Impl@TextParser@@AAEHPBVSchemeNodeKeywords@@HHH@Z$0
10F638 94 __unwindfunclet$?searchKW@Impl@TextParser@@AAEHPBVSchemeNodeKeywords@@HHH@Z$1
10F645 94 __ehhandler$?searchKW@Impl@TextParser@@AAEHPBVSchemeNodeKeywords@@HHH@Z
10F670 66 __unwindfunclet$??0FileInputSource@@QAE@PBVUnicodeString@icu_72@@PAV0@@Z$0
10F678 66 __unwindfunclet$??0FileInputSource@@QAE@PBVUnicodeString@icu_72@@PAV0@@Z$1
10F683 66 __unwindfunclet$??0FileInputSource@@QAE@PBVUnicodeString@icu_72@@PAV0@@Z$2
10F68B 66 __unwindfunclet$??0FileInputSource@@QAE@PBVUnicodeString@icu_72@@PAV0@@Z$3
10F696 66 __unwindfunclet$??0FileInputSource@@QAE@PBVUnicodeString@icu_72@@PAV0@@Z$4
10F69E 66 __unwindfunclet$??0FileInputSource@@QAE@PBVUnicodeString@icu_72@@PAV0@@Z$5
10F6A9 66 __unwindfunclet$??0FileInputSource@@QAE@PBVUnicodeString@icu_72@@PAV0@@Z$6
10F6B4 66 __unwindfunclet$??0FileInputSource@@QAE@PBVUnicodeString@icu_72@@PAV0@@Z$9
10F6BF 66 __unwindfunclet$??0FileInputSource@@QAE@PBVUnicodeString@icu_72@@PAV0@@Z$10
10F6D8 66 __unwindfunclet$??0FileInputSource@@QAE@PBVUnicodeString@icu_72@@PAV0@@Z$12
10F6E5 66 __ehhandler$??0FileInputSource@@QAE@PBVUnicodeString@icu_72@@PAV0@@Z
10F710 66 __unwindfunclet$?closeStream@FileInputSource@@UAEXXZ$0
10F71D 66 __ehhandler$?closeStream@FileInputSource@@UAEXXZ
10F750 66 __unwindfunclet$?createRelative@FileInputSource@@MAEPAVInputSource@colorer@@PBVUnicodeString@icu_72@@@Z$0
10F764 66 __ehhandler$?createRelative@FileInputSource@@MAEPAVInputSource@colorer@@PBVUnicodeString@icu_72@@@Z
10F790 66 __unwindfunclet$?length@FileInputSource@@UBEHXZ$0
10F79D 66 __ehhandler$?length@FileInputSource@@UBEHXZ
10F7D0 66 __unwindfunclet$?openStream@FileInputSource@@UAEPBEXZ$5
10F7DB 66 __unwindfunclet$?openStream@FileInputSource@@UAEPBEXZ$6
10F7E6 66 __unwindfunclet$?openStream@FileInputSource@@UAEPBEXZ$7
10F7F1 66 __unwindfunclet$?openStream@FileInputSource@@UAEPBEXZ$8
10F7FC 66 __unwindfunclet$?openStream@FileInputSource@@UAEPBEXZ$9
10F807 66 __unwindfunclet$?openStream@FileInputSource@@UAEPBEXZ$10
10F812 66 __unwindfunclet$?openStream@FileInputSource@@UAEPBEXZ$0
10F81D 66 __unwindfunclet$?openStream@FileInputSource@@UAEPBEXZ$1
10F828 66 __unwindfunclet$?openStream@FileInputSource@@UAEPBEXZ$2
10F833 66 __unwindfunclet$?openStream@FileInputSource@@UAEPBEXZ$3
10F843 66 __ehhandler$?openStream@FileInputSource@@UAEPBEXZ
10F870 80 __unwindfunclet$?unzip@@YA?AV?$unique_ptr@V?$vector@EV?$allocator@E@std@@@std@@U?$default_delete@V?$vector@EV?$allocator@E@std@@@std@@@2@@std@@PBEHABVUnicodeString@icu_72@@@Z$9
10F878 80 __unwindfunclet$?unzip@@YA?AV?$unique_ptr@V?$vector@EV?$allocator@E@std@@@std@@U?$default_delete@V?$vector@EV?$allocator@E@std@@@std@@@2@@std@@PBEHABVUnicodeString@icu_72@@@Z$10
10F883 80 __unwindfunclet$?unzip@@YA?AV?$unique_ptr@V?$vector@EV?$allocator@E@std@@@std@@U?$default_delete@V?$vector@EV?$allocator@E@std@@@std@@@2@@std@@PBEHABVUnicodeString@icu_72@@@Z$11
10F88E 80 __unwindfunclet$?unzip@@YA?AV?$unique_ptr@V?$vector@EV?$allocator@E@std@@@std@@U?$default_delete@V?$vector@EV?$allocator@E@std@@@std@@@2@@std@@PBEHABVUnicodeString@icu_72@@@Z$12
10F899 80 __unwindfunclet$?unzip@@YA?AV?$unique_ptr@V?$vector@EV?$allocator@E@std@@@std@@U?$default_delete@V?$vector@EV?$allocator@E@std@@@std@@@2@@std@@PBEHABVUnicodeString@icu_72@@@Z$28
10F8AB 80 __unwindfunclet$?unzip@@YA?AV?$unique_ptr@V?$vector@EV?$allocator@E@std@@@std@@U?$default_delete@V?$vector@EV?$allocator@E@std@@@std@@@2@@std@@PBEHABVUnicodeString@icu_72@@@Z$13
10F8CD 80 __unwindfunclet$?unzip@@YA?AV?$unique_ptr@V?$vector@EV?$allocator@E@std@@@std@@U?$default_delete@V?$vector@EV?$allocator@E@std@@@std@@@2@@std@@PBEHABVUnicodeString@icu_72@@@Z$14
10F8D5 80 __unwindfunclet$?unzip@@YA?AV?$unique_ptr@V?$vector@EV?$allocator@E@std@@@std@@U?$default_delete@V?$vector@EV?$allocator@E@std@@@std@@@2@@std@@PBEHABVUnicodeString@icu_72@@@Z$15
10F8E0 80 __unwindfunclet$?unzip@@YA?AV?$unique_ptr@V?$vector@EV?$allocator@E@std@@@std@@U?$default_delete@V?$vector@EV?$allocator@E@std@@@std@@@2@@std@@PBEHABVUnicodeString@icu_72@@@Z$16
10F8EB 80 __unwindfunclet$?unzip@@YA?AV?$unique_ptr@V?$vector@EV?$allocator@E@std@@@std@@U?$default_delete@V?$vector@EV?$allocator@E@std@@@std@@@2@@std@@PBEHABVUnicodeString@icu_72@@@Z$17
10F8F6 80 __unwindfunclet$?unzip@@YA?AV?$unique_ptr@V?$vector@EV?$allocator@E@std@@@std@@U?$default_delete@V?$vector@EV?$allocator@E@std@@@std@@@2@@std@@PBEHABVUnicodeString@icu_72@@@Z$18
10F901 80 __unwindfunclet$?unzip@@YA?AV?$unique_ptr@V?$vector@EV?$allocator@E@std@@@std@@U?$default_delete@V?$vector@EV?$allocator@E@std@@@std@@@2@@std@@PBEHABVUnicodeString@icu_72@@@Z$19
10F90C 80 __unwindfunclet$?unzip@@YA?AV?$unique_ptr@V?$vector@EV?$allocator@E@std@@@std@@U?$default_delete@V?$vector@EV?$allocator@E@std@@@std@@@2@@std@@PBEHABVUnicodeString@icu_72@@@Z$20
10F914 80 __unwindfunclet$?unzip@@YA?AV?$unique_ptr@V?$vector@EV?$allocator@E@std@@@std@@U?$default_delete@V?$vector@EV?$allocator@E@std@@@std@@@2@@std@@PBEHABVUnicodeString@icu_72@@@Z$21
10F91F 80 __unwindfunclet$?unzip@@YA?AV?$unique_ptr@V?$vector@EV?$allocator@E@std@@@std@@U?$default_delete@V?$vector@EV?$allocator@E@std@@@std@@@2@@std@@PBEHABVUnicodeString@icu_72@@@Z$22
10F92A 80 __unwindfunclet$?unzip@@YA?AV?$unique_ptr@V?$vector@EV?$allocator@E@std@@@std@@U?$default_delete@V?$vector@EV?$allocator@E@std@@@std@@@2@@std@@PBEHABVUnicodeString@icu_72@@@Z$23
10F935 80 __unwindfunclet$?unzip@@YA?AV?$unique_ptr@V?$vector@EV?$allocator@E@std@@@std@@U?$default_delete@V?$vector@EV?$allocator@E@std@@@std@@@2@@std@@PBEHABVUnicodeString@icu_72@@@Z$24
10F940 80 __unwindfunclet$?unzip@@YA?AV?$unique_ptr@V?$vector@EV?$allocator@E@std@@@std@@U?$default_delete@V?$vector@EV?$allocator@E@std@@@std@@@2@@std@@PBEHABVUnicodeString@icu_72@@@Z$25
10F94B 80 __unwindfunclet$?unzip@@YA?AV?$unique_ptr@V?$vector@EV?$allocator@E@std@@@std@@U?$default_delete@V?$vector@EV?$allocator@E@std@@@std@@@2@@std@@PBEHABVUnicodeString@icu_72@@@Z$26
10F956 80 __unwindfunclet$?unzip@@YA?AV?$unique_ptr@V?$vector@EV?$allocator@E@std@@@std@@U?$default_delete@V?$vector@EV?$allocator@E@std@@@std@@@2@@std@@PBEHABVUnicodeString@icu_72@@@Z$0
10F961 80 __unwindfunclet$?unzip@@YA?AV?$unique_ptr@V?$vector@EV?$allocator@E@std@@@std@@U?$default_delete@V?$vector@EV?$allocator@E@std@@@std@@@2@@std@@PBEHABVUnicodeString@icu_72@@@Z$1
10F96C 80 __unwindfunclet$?unzip@@YA?AV?$unique_ptr@V?$vector@EV?$allocator@E@std@@@std@@U?$default_delete@V?$vector@EV?$allocator@E@std@@@std@@@2@@std@@PBEHABVUnicodeString@icu_72@@@Z$2
10F977 80 __unwindfunclet$?unzip@@YA?AV?$unique_ptr@V?$vector@EV?$allocator@E@std@@@std@@U?$default_delete@V?$vector@EV?$allocator@E@std@@@std@@@2@@std@@PBEHABVUnicodeString@icu_72@@@Z$3
10F982 80 __unwindfunclet$?unzip@@YA?AV?$unique_ptr@V?$vector@EV?$allocator@E@std@@@std@@U?$default_delete@V?$vector@EV?$allocator@E@std@@@std@@@2@@std@@PBEHABVUnicodeString@icu_72@@@Z$5
10F98D 80 __unwindfunclet$?unzip@@YA?AV?$unique_ptr@V?$vector@EV?$allocator@E@std@@@std@@U?$default_delete@V?$vector@EV?$allocator@E@std@@@std@@@2@@std@@PBEHABVUnicodeString@icu_72@@@Z$6
10F995 80 __unwindfunclet$?unzip@@YA?AV?$unique_ptr@V?$vector@EV?$allocator@E@std@@@std@@U?$default_delete@V?$vector@EV?$allocator@E@std@@@std@@@2@@std@@PBEHABVUnicodeString@icu_72@@@Z$7
10F9A0 80 __unwindfunclet$?unzip@@YA?AV?$unique_ptr@V?$vector@EV?$allocator@E@std@@@std@@U?$default_delete@V?$vector@EV?$allocator@E@std@@@std@@@2@@std@@PBEHABVUnicodeString@icu_72@@@Z$8
10F9B0 80 __ehhandler$?unzip@@YA?AV?$unique_ptr@V?$vector@EV?$allocator@E@std@@@std@@U?$default_delete@V?$vector@EV?$allocator@E@std@@@std@@@2@@std@@PBEHABVUnicodeString@icu_72@@@Z
10F9E0 93 __ehhandler$?clear@VTList@@QAEXXZ
10FA00 93 __ehhandler$?deltree@VTList@@QAEXXZ
10FA20 175 __unwindfunclet$??0UnicodeString@icu_72@@QAE@ABV01@H@Z$0
10FA2D 175 __ehhandler$??0UnicodeString@icu_72@@QAE@ABV01@H@Z
10FA50 175 __unwindfunclet$??0UnicodeString@icu_72@@QAE@ABV01@HH@Z$0
10FA5D 175 __ehhandler$??0UnicodeString@icu_72@@QAE@ABV01@HH@Z
10FA80 120 __unwindfunclet$?composeAndAppend@Normalizer2Impl@icu_72@@QBEXPB_S0CCAAVUnicodeString@2@AAVReorderingBuffer@2@AAW4UErrorCode@@@Z$0
10FA8D 120 __ehhandler$?composeAndAppend@Normalizer2Impl@icu_72@@QBEXPB_S0CCAAVUnicodeString@2@AAVReorderingBuffer@2@AAW4UErrorCode@@@Z
10FAC0 175 __unwindfunclet$?doReplace@UnicodeString@icu_72@@AAEAAV12@HHPB_SHH@Z$0
10FACD 175 __ehhandler$?doReplace@UnicodeString@icu_72@@AAEAAV12@HHPB_SHH@Z
10FB00 178 __unwindfunclet$??0UnicodeString@icu_72@@QAE@PBD@Z$0
10FB0D 178 __ehhandler$??0UnicodeString@icu_72@@QAE@PBD@Z
10FB30 176 __unwindfunclet$?caseMap@UnicodeString@icu_72@@AAEAAV12@HIPAVBreakIterator@2@P6AHHI0PA_SHPB_SHPAVEdits@2@AAW4UErrorCode@@@Z@Z$0
10FB3B 176 __unwindfunclet$?caseMap@UnicodeString@icu_72@@AAEAAV12@HIPAVBreakIterator@2@P6AHHI0PA_SHPB_SHPAVEdits@2@AAW4UErrorCode@@@Z@Z$2
10FB48 176 __ehhandler$?caseMap@UnicodeString@icu_72@@AAEAAV12@HIPAVBreakIterator@2@P6AHHI0PA_SHPB_SHPAVEdits@2@AAW4UErrorCode@@@Z@Z
10FB80 172 __unwindfunclet$??0UnicodeSet@icu_72@@AAE@ABV01@C@Z$0
10FB88 172 __unwindfunclet$??0UnicodeSet@icu_72@@AAE@ABV01@C@Z$3
10FB98 172 __ehhandler$??0UnicodeSet@icu_72@@AAE@ABV01@C@Z
10FBC0 172 __unwindfunclet$??0UnicodeSet@icu_72@@QAE@ABV01@@Z$0
10FBCD 172 __ehhandler$??0UnicodeSet@icu_72@@QAE@ABV01@@Z
10FBF0 172 __unwindfunclet$?_add@UnicodeSet@icu_72@@AAEXABVUnicodeString@2@@Z$1
10FBFB 172 __unwindfunclet$?_add@UnicodeSet@icu_72@@AAEXABVUnicodeString@2@@Z$0
10FC0B 172 __ehhandler$?_add@UnicodeSet@icu_72@@AAEXABVUnicodeString@2@@Z
10FC30 172 __unwindfunclet$?allocateStrings@UnicodeSet@icu_72@@AAECAAW4UErrorCode@@@Z$0
10FC40 172 __ehhandler$?allocateStrings@UnicodeSet@icu_72@@AAECAAW4UErrorCode@@@Z
10FC60 172 __unwindfunclet$?clone@UnicodeSet@icu_72@@UBEPAV12@XZ$0
10FC6B 172 __unwindfunclet$?clone@UnicodeSet@icu_72@@UBEPAV12@XZ$1
10FC78 172 __ehhandler$?clone@UnicodeSet@icu_72@@UBEPAV12@XZ
10FCA0 172 __unwindfunclet$?cloneAsThawed@UnicodeSet@icu_72@@QBEPAV12@XZ$0
10FCB0 172 __ehhandler$?cloneAsThawed@UnicodeSet@icu_72@@QBEPAV12@XZ
10FCD0 172 __unwindfunclet$?cloneUnicodeString@icu_72@@YAXPATUElement@@0@Z$0
10FCE0 172 __ehhandler$?cloneUnicodeString@icu_72@@YAXPATUElement@@0@Z
10FD00 172 __unwindfunclet$?copyFrom@UnicodeSet@icu_72@@AAEAAV12@ABV12@C@Z$0
10FD0B 172 __unwindfunclet$?copyFrom@UnicodeSet@icu_72@@AAEAAV12@ABV12@C@Z$1
10FD1B 172 __ehhandler$?copyFrom@UnicodeSet@icu_72@@AAEAAV12@ABV12@C@Z
10FD40 172 __unwindfunclet$?freeze@UnicodeSet@icu_72@@QAEPAV12@XZ$0
10FD4B 172 __unwindfunclet$?freeze@UnicodeSet@icu_72@@QAEPAV12@XZ$1
10FD5B 172 __ehhandler$?freeze@UnicodeSet@icu_72@@QAEPAV12@XZ
10FD80 172 __unwindfunclet$?removeAll@UnicodeSet@icu_72@@QAEAAV12@ABVUnicodeString@2@@Z$0
10FD90 172 __ehhandler$?removeAll@UnicodeSet@icu_72@@QAEAAV12@ABVUnicodeString@2@@Z
10FDC0 172 __unwindfunclet$?span@UnicodeSet@icu_72@@QBEHPB_SHW4USetSpanCondition@@@Z$0
10FDCD 172 __ehhandler$?span@UnicodeSet@icu_72@@QBEHPB_SHW4USetSpanCondition@@@Z
10FE00 172 __unwindfunclet$?spanBackUTF8@UnicodeSet@icu_72@@QBEHPBDHW4USetSpanCondition@@@Z$0
10FE0D 172 __ehhandler$?spanBackUTF8@UnicodeSet@icu_72@@QBEHPBDHW4USetSpanCondition@@@Z
10FE40 172 __unwindfunclet$?spanUTF8@UnicodeSet@icu_72@@QBEHPBDHW4USetSpanCondition@@@Z$0
10FE4D 172 __ehhandler$?spanUTF8@UnicodeSet@icu_72@@QBEHPBDHW4USetSpanCondition@@@Z
10FE80 173 __unwindfunclet$??0UnicodeSet@icu_72@@QAE@ABVUnicodeString@1@AAW4UErrorCode@@@Z$0
10FE88 173 __unwindfunclet$??0UnicodeSet@icu_72@@QAE@ABVUnicodeString@1@AAW4UErrorCode@@@Z$3
10FE90 173 __unwindfunclet$??0UnicodeSet@icu_72@@QAE@ABVUnicodeString@1@AAW4UErrorCode@@@Z$4
10FE9D 173 __ehhandler$??0UnicodeSet@icu_72@@QAE@ABVUnicodeString@1@AAW4UErrorCode@@@Z
10FED0 173 __unwindfunclet$?applyPattern@UnicodeSet@icu_72@@AAEXAAVRuleCharacterIterator@2@PBVSymbolTable@2@AAVUnicodeString@2@IP812@AEAAV12@H@ZHAAW4UErrorCode@@@Z$0
10FEDB 173 __unwindfunclet$?applyPattern@UnicodeSet@icu_72@@AAEXAAVRuleCharacterIterator@2@PBVSymbolTable@2@AAVUnicodeString@2@IP812@AEAAV12@H@ZHAAW4UErrorCode@@@Z$1
10FEE6 173 __unwindfunclet$?applyPattern@UnicodeSet@icu_72@@AAEXAAVRuleCharacterIterator@2@PBVSymbolTable@2@AAVUnicodeString@2@IP812@AEAAV12@H@ZHAAW4UErrorCode@@@Z$2
10FEEE 173 __unwindfunclet$?applyPattern@UnicodeSet@icu_72@@AAEXAAVRuleCharacterIterator@2@PBVSymbolTable@2@AAVUnicodeString@2@IP812@AEAAV12@H@ZHAAW4UErrorCode@@@Z$4
10FEF9 173 __unwindfunclet$?applyPattern@UnicodeSet@icu_72@@AAEXAAVRuleCharacterIterator@2@PBVSymbolTable@2@AAVUnicodeString@2@IP812@AEAAV12@H@ZHAAW4UErrorCode@@@Z$5
10FF04 173 __unwindfunclet$?applyPattern@UnicodeSet@icu_72@@AAEXAAVRuleCharacterIterator@2@PBVSymbolTable@2@AAVUnicodeString@2@IP812@AEAAV12@H@ZHAAW4UErrorCode@@@Z$6
10FF0C 173 __unwindfunclet$?applyPattern@UnicodeSet@icu_72@@AAEXAAVRuleCharacterIterator@2@PBVSymbolTable@2@AAVUnicodeString@2@IP812@AEAAV12@H@ZHAAW4UErrorCode@@@Z$7
10FF17 173 __unwindfunclet$?applyPattern@UnicodeSet@icu_72@@AAEXAAVRuleCharacterIterator@2@PBVSymbolTable@2@AAVUnicodeString@2@IP812@AEAAV12@H@ZHAAW4UErrorCode@@@Z$8
10FF24 173 __ehhandler$?applyPattern@UnicodeSet@icu_72@@AAEXAAVRuleCharacterIterator@2@PBVSymbolTable@2@AAVUnicodeString@2@IP812@AEAAV12@H@ZHAAW4UErrorCode@@@Z
10FF60 173 __unwindfunclet$?applyPropertyAlias@UnicodeSet@icu_72@@QAEAAV12@ABVUnicodeString@2@0AAW4UErrorCode@@@Z$0
10FF68 173 __unwindfunclet$?applyPropertyAlias@UnicodeSet@icu_72@@QAEAAV12@ABVUnicodeString@2@0AAW4UErrorCode@@@Z$1
10FF75 173 __ehhandler$?applyPropertyAlias@UnicodeSet@icu_72@@QAEAAV12@ABVUnicodeString@2@0AAW4UErrorCode@@@Z
10FFA0 116 __unwindfunclet$??0CharString@icu_72@@QAE@PBDHAAW4UErrorCode@@@Z$0
10FFAD 116 __ehhandler$??0CharString@icu_72@@QAE@PBDHAAW4UErrorCode@@@Z
10FFD0 116 __unwindfunclet$??0Locale@icu_72@@QAE@PBD000@Z$0
10FFD8 116 __unwindfunclet$??0Locale@icu_72@@QAE@PBD000@Z$2
10FFE0 116 __unwindfunclet$??0Locale@icu_72@@QAE@PBD000@Z$1
10FFED 116 __ehhandler$??0Locale@icu_72@@QAE@PBD000@Z
110020 116 __unwindfunclet$??0Locale@icu_72@@QAE@XZ$0
11002D 116 __ehhandler$??0Locale@icu_72@@QAE@XZ
110050 381 __ehhandler$?type_case_s_compute_narrow_string_length@?$output_processor@_WV?$string_output_adapter@_W@__crt_stdio_output@@V?$standard_base@_WV?$string_output_adapter@_W@__crt_stdio_output@@@2@@__crt_stdio_output@@AAEHH_W@Z
110070 116 __unwindfunclet$?build@AliasDataBuilder@?A0x18b31117@icu_72@@QAEPAVAliasData@23@AAW4UErrorCode@@@Z$0
110078 116 __unwindfunclet$?build@AliasDataBuilder@?A0x18b31117@icu_72@@QAEPAVAliasData@23@AAW4UErrorCode@@@Z$1
110080 116 __unwindfunclet$?build@AliasDataBuilder@?A0x18b31117@icu_72@@QAEPAVAliasData@23@AAW4UErrorCode@@@Z$2
110088 116 __unwindfunclet$?build@AliasDataBuilder@?A0x18b31117@icu_72@@QAEPAVAliasData@23@AAW4UErrorCode@@@Z$3
110090 116 __unwindfunclet$?build@AliasDataBuilder@?A0x18b31117@icu_72@@QAEPAVAliasData@23@AAW4UErrorCode@@@Z$4
110098 116 __unwindfunclet$?build@AliasDataBuilder@?A0x18b31117@icu_72@@QAEPAVAliasData@23@AAW4UErrorCode@@@Z$5
1100A0 116 __unwindfunclet$?build@AliasDataBuilder@?A0x18b31117@icu_72@@QAEPAVAliasData@23@AAW4UErrorCode@@@Z$6
1100A8 116 __unwindfunclet$?build@AliasDataBuilder@?A0x18b31117@icu_72@@QAEPAVAliasData@23@AAW4UErrorCode@@@Z$7
1100B3 116 __unwindfunclet$?build@AliasDataBuilder@?A0x18b31117@icu_72@@QAEPAVAliasData@23@AAW4UErrorCode@@@Z$8
1100BB 116 __unwindfunclet$?build@AliasDataBuilder@?A0x18b31117@icu_72@@QAEPAVAliasData@23@AAW4UErrorCode@@@Z$9
1100C3 116 __unwindfunclet$?build@AliasDataBuilder@?A0x18b31117@icu_72@@QAEPAVAliasData@23@AAW4UErrorCode@@@Z$48
1100CB 116 __unwindfunclet$?build@AliasDataBuilder@?A0x18b31117@icu_72@@QAEPAVAliasData@23@AAW4UErrorCode@@@Z$49
1100D3 116 __unwindfunclet$?build@AliasDataBuilder@?A0x18b31117@icu_72@@QAEPAVAliasData@23@AAW4UErrorCode@@@Z$10
1100DB 116 __unwindfunclet$?build@AliasDataBuilder@?A0x18b31117@icu_72@@QAEPAVAliasData@23@AAW4UErrorCode@@@Z$11
1100E3 116 __unwindfunclet$?build@AliasDataBuilder@?A0x18b31117@icu_72@@QAEPAVAliasData@23@AAW4UErrorCode@@@Z$54
1100EB 116 __unwindfunclet$?build@AliasDataBuilder@?A0x18b31117@icu_72@@QAEPAVAliasData@23@AAW4UErrorCode@@@Z$55
1100F3 116 __unwindfunclet$?build@AliasDataBuilder@?A0x18b31117@icu_72@@QAEPAVAliasData@23@AAW4UErrorCode@@@Z$12
1100FB 116 __unwindfunclet$?build@AliasDataBuilder@?A0x18b31117@icu_72@@QAEPAVAliasData@23@AAW4UErrorCode@@@Z$13
110103 116 __unwindfunclet$?build@AliasDataBuilder@?A0x18b31117@icu_72@@QAEPAVAliasData@23@AAW4UErrorCode@@@Z$60
11010B 116 __unwindfunclet$?build@AliasDataBuilder@?A0x18b31117@icu_72@@QAEPAVAliasData@23@AAW4UErrorCode@@@Z$61
110113 116 __unwindfunclet$?build@AliasDataBuilder@?A0x18b31117@icu_72@@QAEPAVAliasData@23@AAW4UErrorCode@@@Z$14
11011B 116 __unwindfunclet$?build@AliasDataBuilder@?A0x18b31117@icu_72@@QAEPAVAliasData@23@AAW4UErrorCode@@@Z$15
110123 116 __unwindfunclet$?build@AliasDataBuilder@?A0x18b31117@icu_72@@QAEPAVAliasData@23@AAW4UErrorCode@@@Z$66
11012B 116 __unwindfunclet$?build@AliasDataBuilder@?A0x18b31117@icu_72@@QAEPAVAliasData@23@AAW4UErrorCode@@@Z$67
110133 116 __unwindfunclet$?build@AliasDataBuilder@?A0x18b31117@icu_72@@QAEPAVAliasData@23@AAW4UErrorCode@@@Z$16
11013B 116 __unwindfunclet$?build@AliasDataBuilder@?A0x18b31117@icu_72@@QAEPAVAliasData@23@AAW4UErrorCode@@@Z$17
110143 116 __unwindfunclet$?build@AliasDataBuilder@?A0x18b31117@icu_72@@QAEPAVAliasData@23@AAW4UErrorCode@@@Z$72
11014B 116 __unwindfunclet$?build@AliasDataBuilder@?A0x18b31117@icu_72@@QAEPAVAliasData@23@AAW4UErrorCode@@@Z$73
110158 116 __ehhandler$?build@AliasDataBuilder@?A0x18b31117@icu_72@@QAEPAVAliasData@23@AAW4UErrorCode@@@Z
110190 116 __unwindfunclet$?canonicalizeLocale@?A0x18b31117@icu_72@@YA_NABVLocale@2@AAVCharString@2@AAW4UErrorCode@@@Z$0
11019D 116 __ehhandler$?canonicalizeLocale@?A0x18b31117@icu_72@@YA_NABVLocale@2@AAVCharString@2@AAW4UErrorCode@@@Z
1101C0 116 __unwindfunclet$?createKeywords@Locale@icu_72@@QBEPAVStringEnumeration@2@AAW4UErrorCode@@@Z$0
1101C8 116 __unwindfunclet$?createKeywords@Locale@icu_72@@QBEPAVStringEnumeration@2@AAW4UErrorCode@@@Z$1
1101D0 116 __unwindfunclet$?createKeywords@Locale@icu_72@@QBEPAVStringEnumeration@2@AAW4UErrorCode@@@Z$2
1101E0 116 __ehhandler$?createKeywords@Locale@icu_72@@QBEPAVStringEnumeration@2@AAW4UErrorCode@@@Z
110210 116 __unwindfunclet$?forLanguageTag@Locale@icu_72@@SA?AV12@VStringPiece@2@AAW4UErrorCode@@@Z$0
110229 116 __unwindfunclet$?forLanguageTag@Locale@icu_72@@SA?AV12@VStringPiece@2@AAW4UErrorCode@@@Z$1
110236 116 __ehhandler$?forLanguageTag@Locale@icu_72@@SA?AV12@VStringPiece@2@AAW4UErrorCode@@@Z
110260 116 __unwindfunclet$?getKeywordValue@Locale@icu_72@@QBEXVStringPiece@2@AAVByteSink@2@AAW4UErrorCode@@@Z$1
11026D 116 __ehhandler$?getKeywordValue@Locale@icu_72@@QBEXVStringPiece@2@AAVByteSink@2@AAW4UErrorCode@@@Z
1102A0 116 __unwindfunclet$?init@Locale@icu_72@@AAEAAV12@PBDC@Z$0
1102AD 116 __ehhandler$?init@Locale@icu_72@@AAEAAV12@PBDC@Z
1102E0 116 __unwindfunclet$?locale_set_default_internal@icu_72@@YAPAVLocale@1@PBDAAW4UErrorCode@@@Z$0
1102E8 116 __unwindfunclet$?locale_set_default_internal@icu_72@@YAPAVLocale@1@PBDAAW4UErrorCode@@@Z$1
1102F5 116 __ehhandler$?locale_set_default_internal@icu_72@@YAPAVLocale@1@PBDAAW4UErrorCode@@@Z
110320 116 __unwindfunclet$?outputToString@AliasReplacer@?A0x18b31117@icu_72@@AAEAAVCharString@3@AAV43@W4UErrorCode@@@Z$2
11032B 116 __unwindfunclet$?outputToString@AliasReplacer@?A0x18b31117@icu_72@@AAEAAVCharString@3@AAV43@W4UErrorCode@@@Z$0
110336 116 __unwindfunclet$?outputToString@AliasReplacer@?A0x18b31117@icu_72@@AAEAAVCharString@3@AAV43@W4UErrorCode@@@Z$1
110343 116 __ehhandler$?outputToString@AliasReplacer@?A0x18b31117@icu_72@@AAEAAVCharString@3@AAV43@W4UErrorCode@@@Z
110370 116 __unwindfunclet$?parseLanguageReplacement@AliasReplacer@?A0x18b31117@icu_72@@AAEXPBDAAPBD1111AAVUVector@3@AAW4UErrorCode@@@Z$0
11037B 116 __unwindfunclet$?parseLanguageReplacement@AliasReplacer@?A0x18b31117@icu_72@@AAEXPBDAAPBD1111AAVUVector@3@AAW4UErrorCode@@@Z$1
110388 116 __ehhandler$?parseLanguageReplacement@AliasReplacer@?A0x18b31117@icu_72@@AAEXPBDAAPBD1111AAVUVector@3@AAW4UErrorCode@@@Z
1103B0 116 __unwindfunclet$?replace@AliasReplacer@?A0x18b31117@icu_72@@QAE_NABVLocale@3@AAVCharString@3@AAW4UErrorCode@@@Z$7
1103BB 116 __unwindfunclet$?replace@AliasReplacer@?A0x18b31117@icu_72@@QAE_NABVLocale@3@AAVCharString@3@AAW4UErrorCode@@@Z$0
1103C6 116 __unwindfunclet$?replace@AliasReplacer@?A0x18b31117@icu_72@@QAE_NABVLocale@3@AAVCharString@3@AAW4UErrorCode@@@Z$1
1103D1 116 __unwindfunclet$?replace@AliasReplacer@?A0x18b31117@icu_72@@QAE_NABVLocale@3@AAVCharString@3@AAW4UErrorCode@@@Z$2
1103DC 116 __unwindfunclet$?replace@AliasReplacer@?A0x18b31117@icu_72@@QAE_NABVLocale@3@AAVCharString@3@AAW4UErrorCode@@@Z$3
1103E7 116 __unwindfunclet$?replace@AliasReplacer@?A0x18b31117@icu_72@@QAE_NABVLocale@3@AAVCharString@3@AAW4UErrorCode@@@Z$4
