MINIMAP

FILES
0 *
1 <absolute>
2 <common>
3 <linker-defined>
4 LIBCMT:alloca16.obj
5 LIBCMT:argv_mode.obj
6 LIBCMT:checkcfg.obj
7 LIBCMT:chkstk.obj
8 LIBCMT:cpu_disp.obj
9 LIBCMT:default_local_stdio_options.obj
10 LIBCMT:delete_array.obj
11 LIBCMT:delete_scalar.obj
12 LIBCMT:delete_scalar_size.obj
13 LIBCMT:dll_dllmain.obj
14 LIBCMT:dll_dllmain_stub.obj
15 LIBCMT:dyn_tls_init.obj
16 LIBCMT:ehprolg3.obj
17 LIBCMT:ehvecctr.obj
18 LIBCMT:ehvecdtr.obj
19 LIBCMT:fltused.obj
20 LIBCMT:ftol2.obj
21 LIBCMT:gs_cookie.obj
22 LIBCMT:gs_report.obj
23 LIBCMT:gs_support.obj
24 LIBCMT:guard_support.obj
25 LIBCMT:initializers.obj
26 LIBCMT:initsect.obj
27 LIBCMT:loadcfg.obj
28 LIBCMT:new_array.obj
29 LIBCMT:new_scalar.obj
30 LIBCMT:pesect.obj
31 LIBCMT:secchk.obj
32 LIBCMT:sehprolg4.obj
33 LIBCMT:std_type_info_static.obj
34 LIBCMT:throw_bad_alloc.obj
35 LIBCMT:tncleanup.obj
36 LIBCMT:ucrt_detection.obj
37 LIBCMT:utility.obj
38 LIBCMT:utility_desktop.obj
39 LIBCMT:x86_exception_filter.obj
40 TmpCfg.obj
41 TmpClass.obj
42 TmpMix.obj
43 TmpPanel.exp
44 TmpPanel.obj
45 TmpPanel.res
46 advapi32:ADVAPI32.dll
47 headers.obj
48 kernel32:KERNEL32.dll
49 libcpmt:vector_algorithms.obj
50 libcpmt:xthrow.obj
51 libucrt:87disp.obj
52 libucrt:87except.obj
53 libucrt:87tran.obj
54 libucrt:_fenvutils.obj
55 libucrt:_file.obj
56 libucrt:_freebuf.obj
57 libucrt:_sftbuf.obj
58 libucrt:_strnicm.obj
59 libucrt:_wctype.obj
60 libucrt:abort.obj
61 libucrt:argv_data.obj
62 libucrt:argv_parsing.obj
63 libucrt:argv_wildcards.obj
64 libucrt:calloc.obj
65 libucrt:calloc_base.obj
66 libucrt:ceil.obj
67 libucrt:ceil_pentium4.obj
68 libucrt:close.obj
69 libucrt:closeall.obj
70 libucrt:commit.obj
71 libucrt:common.obj
72 libucrt:common_utf8.obj
73 libucrt:console_output_initializer.obj
74 libucrt:ctype.obj
75 libucrt:environment_initialization.obj
76 libucrt:errno.obj
77 libucrt:exception_filter.obj
78 libucrt:exit.obj
79 libucrt:fclose.obj
80 libucrt:fegetround.obj
81 libucrt:fflush.obj
82 libucrt:fileno.obj
83 libucrt:fp_flags.obj
84 libucrt:fpctrl.obj
85 libucrt:fpexcept.obj
86 libucrt:free.obj
87 libucrt:free_base.obj
88 libucrt:frnd.obj
89 libucrt:genexcep.obj
90 libucrt:get_environment_from_os.obj
91 libucrt:get_qualified_locale.obj
92 libucrt:getmodulefilenamea.obj
93 libucrt:getstringtypea.obj
94 libucrt:getstringtypew.obj
95 libucrt:glstatus.obj
96 libucrt:heap_handle.obj
97 libucrt:ieeemisc.obj
98 libucrt:initcon.obj
99 libucrt:initialization.obj
100 libucrt:initmon.obj
101 libucrt:initnum.obj
102 libucrt:initterm.obj
103 libucrt:inittime.obj
104 libucrt:invalid_parameter.obj
105 libucrt:ioinit.obj
106 libucrt:isatty.obj
107 libucrt:ismbbyte.obj
108 libucrt:iswctype.obj
109 libucrt:lcidtoname_downlevel.obj
110 libucrt:lcmapstringa.obj
111 libucrt:libm_error.obj
112 libucrt:locale_initializer.obj
113 libucrt:locale_refcounting.obj
114 libucrt:locale_update.obj
115 libucrt:localeconv.obj
116 libucrt:locks.obj
117 libucrt:log10_impl.obj
118 libucrt:log10_pentium4.obj
119 libucrt:log10_tables.obj
120 libucrt:lseek.obj
121 libucrt:malloc.obj
122 libucrt:malloc_base.obj
123 libucrt:matherr.obj
124 libucrt:mathfcns.obj
125 libucrt:mbctype.obj
126 libucrt:mbrtoc32.obj
127 libucrt:mbrtowc.obj
128 libucrt:mbsdec.obj
129 libucrt:mbtowc.obj
130 libucrt:msize.obj
131 libucrt:multibyte_initializer.obj
132 libucrt:multibytetowidechar.obj
133 libucrt:new_handler.obj
134 libucrt:new_mode.obj
135 libucrt:nlsdata.obj
136 libucrt:onexit.obj
137 libucrt:osfinfo.obj
138 libucrt:output.obj
139 libucrt:peb_access.obj
140 libucrt:per_thread_data.obj
141 libucrt:powhlp.obj
142 libucrt:putwch.obj
143 libucrt:qsort.obj
144 libucrt:read.obj
145 libucrt:realloc_base.obj
146 libucrt:recalloc.obj
147 libucrt:report_runtime_error.obj
148 libucrt:shared_initialization.obj
149 libucrt:signal.obj
150 libucrt:sse2_initializer.obj
151 libucrt:stdio_initializer.obj
152 libucrt:strcpy_s.obj
153 libucrt:stream.obj
154 libucrt:strncmp.obj
155 libucrt:strncnt.obj
156 libucrt:strncpy_s.obj
157 libucrt:strpbrk.obj
158 libucrt:terminate.obj
159 libucrt:util.obj
160 libucrt:wcsncmp.obj
161 libucrt:wcsnicmp.obj
162 libucrt:widechartomultibyte.obj
163 libucrt:win_policies.obj
164 libucrt:winapi_thunks.obj
165 libucrt:write.obj
166 libucrt:wsetlocale.obj
167 libvcruntime:chandler4.obj
168 libvcruntime:ehhelpers.obj
169 libvcruntime:ehstate.obj
170 libvcruntime:exsup.obj
171 libvcruntime:exsup4.obj
172 libvcruntime:frame.obj
173 libvcruntime:initialization.obj
174 libvcruntime:jbcxrval.obj
175 libvcruntime:locks.obj
176 libvcruntime:lowhelpr.obj
177 libvcruntime:memcpy.obj
178 libvcruntime:memset.obj
179 libvcruntime:per_thread_data.obj
180 libvcruntime:purevirt_data.obj
181 libvcruntime:std_exception.obj
182 libvcruntime:std_type_info.obj
183 libvcruntime:throw.obj
184 libvcruntime:trnsctrl.obj
185 libvcruntime:undname.obj
186 libvcruntime:unexpected.obj
187 libvcruntime:wcschr.obj
188 libvcruntime:winapi_downlevel.obj
189 shell32:SHELL32.dll
190 user32:USER32.dll
191 vc_crt_fix.obj
192 vc_crt_fix_impl.obj

SYMBOLS
0 1 ___AbsoluteZero
37 1 ___safe_se_handler_count
100 1 ___guard_flags
1000 44 ??__FOpt@@YAXXZ
1010 44 ??0?$basic_string@_WU?$char_traits@_W@std@@V?$allocator@_W@2@@std@@QAE@XZ
1030 44 ??1options_t@@QAE@XZ
1220 44 ?trim_left@inplace@@YAXAAV?$basic_string_view@_WU?$char_traits@_W@std@@@std@@@Z
12B0 44 ?trim@inplace@@YAXAAV?$basic_string_view@_WU?$char_traits@_W@std@@@std@@@Z
1350 44 ?ReadFileLines@@YA?AV?$vector@V?$basic_string@_WU?$char_traits@_W@std@@V?$allocator@_W@2@@std@@V?$allocator@V?$basic_string@_WU?$char_traits@_W@std@@V?$allocator@_W@2@@std@@@2@@std@@QAXK@Z
18A0 44 ?ReadFileList@@YA?AV?$vector@V?$basic_string@_WU?$char_traits@_W@std@@V?$allocator@_W@2@@std@@V?$allocator@V?$basic_string@_WU?$char_traits@_W@std@@V?$allocator@_W@2@@std@@@2@@std@@V?$basic_string_view@_WU?$char_traits@_W@std@@@2@@Z
1A90 44 ?ShowMenuFromList@@YAXABV?$basic_string@_WU?$char_traits@_W@std@@V?$allocator@_W@2@@std@@@Z
21D0 44 ?ProcessList@@YAXAAVTmpPanel@@V?$basic_string_view@_WU?$char_traits@_W@std@@@std@@_N@Z
22B0 44 ?run_command@@YA?AV?$basic_string@_WU?$char_traits@_W@std@@V?$allocator@_W@2@@std@@ABV12@@Z
2C40 44 ??$?H_W@@YA?A_PV?$basic_string_view@_WU?$char_traits@_W@std@@@std@@ABV?$basic_string@_WU?$char_traits@_W@std@@V?$allocator@_W@2@@1@@Z
2C80 44 ??$?H_W@@YA?A_PV?$basic_string_view@_WU?$char_traits@_W@std@@@std@@0@Z
2E00 44 ?OpenPanelFromOutput@@YA?AV?$unique_ptr@VTmpPanel@@U?$default_delete@VTmpPanel@@@std@@@std@@ABV?$basic_string@_WU?$char_traits@_W@std@@V?$allocator@_W@2@@2@@Z
2FA0 44 _GetGlobalInfoW@4
3030 44 _SetStartupInfoW@4
30F0 44 _OpenW@4
36E0 44 _AnalyseW@4
3740 44 _ClosePanelW@4
3760 44 _ExitFARW@4
37D0 44 _GetFindDataW@4
3800 44 _GetPluginInfoW@4
38D0 44 _GetOpenPanelInfoW@4
38F0 44 _SetDirectoryW@4
3940 44 _PutFilesW@4
3A80 44 _SetFindListW@4
3AB0 44 _ProcessPanelEventW@4
3AD0 44 _ProcessPanelInputW@4
3AF0 44 _ConfigureW@4
3B00 44 ??1?$scope_guard@$0A@V<lambda_1>@?1??OpenPanelFromOutput@@YA?AV?$unique_ptr@VTmpPanel@@U?$default_delete@VTmpPanel@@@std@@@std@@ABV?$basic_string@_WU?$char_traits@_W@std@@V?$allocator@_W@2@@4@@Z@@scope_exit@@QAE@XZ
3B20 44 ??1?$unique_ptr@VTmpPanel@@U?$default_delete@VTmpPanel@@@std@@@std@@QAE@XZ
3BE0 44 ??1?$scope_guard@$0A@V<lambda_2>@?1??run_command@@YA?AV?$basic_string@_WU?$char_traits@_W@std@@V?$allocator@_W@2@@std@@ABV34@@Z@@scope_exit@@QAE@XZ
3C00 41 ??1?$scope_guard@$0A@V<lambda_1>@?1??SaveListFile@TmpPanel@@AAEXABV?$basic_string@_WU?$char_traits@_W@std@@V?$allocator@_W@2@@std@@@Z@@scope_exit@@QAE@XZ
3C10 44 ??1?$vector@UFarMenuItem@@V?$allocator@UFarMenuItem@@@std@@@std@@QAE@XZ
3C70 44 ??1?$vector@V?$basic_string@_WU?$char_traits@_W@std@@V?$allocator@_W@2@@std@@V?$allocator@V?$basic_string@_WU?$char_traits@_W@std@@V?$allocator@_W@2@@std@@@2@@std@@QAE@XZ
3CE0 44 ?reserve@?$basic_string@_WU?$char_traits@_W@std@@V?$allocator@_W@2@@std@@QAEXI@Z
3DF0 44 ?resize@?$basic_string@_WU?$char_traits@_W@std@@V?$allocator@_W@2@@std@@QAEXI_W@Z
3E70 44 ??0?$basic_string@_WU?$char_traits@_W@std@@V?$allocator@_W@2@@std@@QAE@QB_W@Z
3EC0 44 ??0?$basic_string@_WU?$char_traits@_W@std@@V?$allocator@_W@2@@std@@QAE@ABV01@@Z
3F80 41 ?_Xlength@?$vector@PAUPluginPanelItem@@V?$allocator@PAUPluginPanelItem@@@std@@@std@@CAXXZ
3F90 44 ??1PluginPanel@@QAE@XZ
4020 44 ??1?$list@V?$basic_string@_WU?$char_traits@_W@std@@V?$allocator@_W@2@@std@@V?$allocator@V?$basic_string@_WU?$char_traits@_W@std@@V?$allocator@_W@2@@std@@@2@@std@@QAE@XZ
4040 44 ?deallocate@?$allocator@V?$basic_string@_WU?$char_traits@_W@std@@V?$allocator@_W@2@@std@@@std@@QAEXQAV?$basic_string@_WU?$char_traits@_W@std@@V?$allocator@_W@2@@2@I@Z
4080 44 ??1?$vector@UPluginPanelItem@@V?$allocator@UPluginPanelItem@@@std@@@std@@QAE@XZ
40E0 44 ?_Xran@?$basic_string_view@_WU?$char_traits@_W@std@@@std@@CAXXZ
40F0 44 ??$?8_WU?$char_traits@_W@std@@@std@@YA_NV?$basic_string_view@_WU?$char_traits@_W@std@@@0@0@Z
4140 44 ??0PluginPanel@@QAE@XZ
41E0 44 ??$_Reallocate@$0A@@?$vector@V?$basic_string@_WU?$char_traits@_W@std@@V?$allocator@_W@2@@std@@V?$allocator@V?$basic_string@_WU?$char_traits@_W@std@@V?$allocator@_W@2@@std@@@2@@std@@AAEXAAI@Z
4280 44 ??$_Free_non_head@V?$allocator@U?$_List_node@V?$basic_string@_WU?$char_traits@_W@std@@V?$allocator@_W@2@@std@@PAX@std@@@std@@@?$_List_node@V?$basic_string@_WU?$char_traits@_W@std@@V?$allocator@_W@2@@std@@PAX@std@@SAXAAV?$allocator@U?$_List_node@V?$basic_string@_WU?$char_traits@_W@std@@V?$allocator@_W@2@@std@@PAX@std@@@1@PAU01@@Z
4300 44 ??$_Reallocate_grow_by@V<lambda_1>@?1??append@?$basic_string@_WU?$char_traits@_W@std@@V?$allocator@_W@2@@std@@QAEAAV34@I_W@Z@I_W@?$basic_string@_WU?$char_traits@_W@std@@V?$allocator@_W@2@@std@@AAEAAV01@IV<lambda_1>@?1??append@01@QAEAAV01@I_W@Z@I_W@Z
4450 44 ??$_Traits_find_first_of@U?$char_traits@_W@std@@$00@std@@YAIQB_WII0I@Z
4590 44 ??$_Destroy_range@V?$allocator@V?$basic_string@_WU?$char_traits@_W@std@@V?$allocator@_W@2@@std@@@std@@@std@@YAXPAV?$basic_string@_WU?$char_traits@_W@std@@V?$allocator@_W@2@@0@QAV10@AAV?$allocator@V?$basic_string@_WU?$char_traits@_W@std@@V?$allocator@_W@2@@std@@@0@@Z
4600 44 ?_Change_array@?$vector@V?$basic_string@_WU?$char_traits@_W@std@@V?$allocator@_W@2@@std@@V?$allocator@V?$basic_string@_WU?$char_traits@_W@std@@V?$allocator@_W@2@@std@@@2@@std@@AAEXQAV?$basic_string@_WU?$char_traits@_W@std@@V?$allocator@_W@2@@2@II@Z
4680 44 ??$_Erase_remove@V?$basic_string@_WU?$char_traits@_W@std@@V?$allocator@_W@2@@std@@_W@std@@YAIAAV?$basic_string@_WU?$char_traits@_W@std@@V?$allocator@_W@2@@0@AB_W@Z
4760 44 ??$_Emplace_reallocate@V?$basic_string@_WU?$char_traits@_W@std@@V?$allocator@_W@2@@std@@@?$vector@V?$basic_string@_WU?$char_traits@_W@std@@V?$allocator@_W@2@@std@@V?$allocator@V?$basic_string@_WU?$char_traits@_W@std@@V?$allocator@_W@2@@std@@@2@@std@@AAEPAV?$basic_string@_WU?$char_traits@_W@std@@V?$allocator@_W@2@@1@QAV21@$$QAV21@@Z
48D0 44 ??$_Emplace_reallocate@$$CBV?$basic_string_view@_WU?$char_traits@_W@std@@@std@@@?$vector@V?$basic_string@_WU?$char_traits@_W@std@@V?$allocator@_W@2@@std@@V?$allocator@V?$basic_string@_WU?$char_traits@_W@std@@V?$allocator@_W@2@@std@@@2@@std@@AAEPAV?$basic_string@_WU?$char_traits@_W@std@@V?$allocator@_W@2@@1@QAV21@$$QBV?$basic_string_view@_WU?$char_traits@_W@std@@@1@@Z
4A5D 44 __catch$??$_Emplace_reallocate@$$CBV?$basic_string_view@_WU?$char_traits@_W@std@@@std@@@?$vector@V?$basic_string@_WU?$char_traits@_W@std@@V?$allocator@_W@2@@std@@V?$allocator@V?$basic_string@_WU?$char_traits@_W@std@@V?$allocator@_W@2@@std@@@2@@std@@AAEPAV?$basic_string@_WU?$char_traits@_W@std@@V?$allocator@_W@2@@1@QAV21@$$QBV?$basic_string_view@_WU?$char_traits@_W@std@@@1@@Z$0
4A90 44 ??$_Uninitialized_move@PAV?$basic_string@_WU?$char_traits@_W@std@@V?$allocator@_W@2@@std@@V?$allocator@V?$basic_string@_WU?$char_traits@_W@std@@V?$allocator@_W@2@@std@@@2@@std@@YAPAV?$basic_string@_WU?$char_traits@_W@std@@V?$allocator@_W@2@@0@QAV10@0PAV10@AAV?$allocator@V?$basic_string@_WU?$char_traits@_W@std@@V?$allocator@_W@2@@std@@@0@@Z
4B10 44 ??$_Freenode@V?$allocator@U?$_List_node@V?$basic_string@_WU?$char_traits@_W@std@@V?$allocator@_W@2@@std@@PAX@std@@@std@@@?$_List_node@V?$basic_string@_WU?$char_traits@_W@std@@V?$allocator@_W@2@@std@@PAX@std@@SAXAAV?$allocator@U?$_List_node@V?$basic_string@_WU?$char_traits@_W@std@@V?$allocator@_W@2@@std@@PAX@std@@@1@PAU01@@Z
4B70 44 ??$_Reallocate_grow_by@V<lambda_1>@?1??append@?$basic_string@_WU?$char_traits@_W@std@@V?$allocator@_W@2@@std@@QAEAAV34@QB_WI@Z@PB_WI@?$basic_string@_WU?$char_traits@_W@std@@V?$allocator@_W@2@@std@@AAEAAV01@IV<lambda_1>@?1??append@01@QAEAAV01@QB_WI@Z@PB_WI@Z
4CA0 44 ??$_Construct@$00PB_W@?$basic_string@_WU?$char_traits@_W@std@@V?$allocator@_W@2@@std@@AAEXQB_WI@Z
4D40 44 ??0?$basic_string@_WU?$char_traits@_W@std@@V?$allocator@_W@2@@std@@QAE@I_W@Z
4E20 44 ?_Xlen_string@std@@YAXXZ
4E30 44 ??0bad_array_new_length@std@@QAE@XZ
4E50 44 ??1bad_alloc@std@@UAE@XZ
4E70 0 ??_Ebad_alloc@std@@UAEPAXI@Z
4EA0 44 ??0bad_array_new_length@std@@QAE@ABV01@@Z
4EE0 44 ??0bad_alloc@std@@QAE@ABV01@@Z
4F20 44 ?_Throw_bad_array_new_length@std@@YAXXZ
4F40 44 ??$_Allocate_for_capacity@$0A@@?$basic_string@_WU?$char_traits@_W@std@@V?$allocator@_W@2@@std@@CAPA_WAAV?$allocator@_W@1@AAI@Z
4FA0 44 ?assign@?$basic_string@_WU?$char_traits@_W@std@@V?$allocator@_W@2@@std@@QAEAAV12@QB_WI@Z
50A0 44 ??0exception@std@@QAE@ABV01@@Z
50D0 44 ?what@exception@std@@UBEPBDXZ
50E0 44 ??1?$basic_string@_WU?$char_traits@_W@std@@V?$allocator@_W@2@@std@@QAE@XZ
5140 40 ?GetOptions@@YAXXZ
5510 40 ?Config@@YA_NXZ
6E08 40 $LN550
6E18 40 $LN549
6E24 40 $LN552
6E34 40 $LN551
6E40 40 ?Set@PluginSettings@@QAE_NIPB_WH@Z
6E90 40 ?Set@PluginSettings@@QAE_NIPB_W_N@Z
6EF0 40 ?ShowDialogEx@PluginDialogBuilder@@QAEHXZ
7164 40 $LN76
7174 40 $LN75
7180 40 ?AddButtons@PluginDialogBuilder@@QAEXHPBHHH@Z
7384 40 $LN52
7394 40 $LN51
73A0 0 ??_EPluginCheckBoxBinding@@UAEPAXI@Z
73C0 40 ?SaveValue@PluginEditFieldBinding@@UAEXPBUFarDialogItem@@H@Z
7420 40 ?AddEditField@PluginDialogBuilder@@QAEPAUFarDialogItem@@AAV?$basic_string@_WU?$char_traits@_W@std@@V?$allocator@_W@2@@std@@HPB_W_N@Z
74E0 40 ?EndColumns@PluginDialogBuilder@@QAEXXZ
7588 40 $LN33
7598 40 $LN32
75B0 40 ?SaveValue@PluginCheckBoxBinding@@UAEXPBUFarDialogItem@@H@Z
7600 40 ?AddCheckbox@PluginDialogBuilder@@QAEPAUFarDialogItem@@HPA_N@Z
76F0 40 $LN37
7700 40 $LN36
7710 40 ??1PluginDialogBuilder@@QAE@XZ
77A0 40 ?AddDialogItem@PluginDialogBuilder@@AAEPAUFarDialogItem@@W4FARDIALOGITEMTYPES@@PB_W@Z
78D0 40 ?Get@PluginSettings@@QAEHIPB_WH@Z
7940 40 ?Get@PluginSettings@@QAE_NIPB_W_N@Z
79C0 40 ??1PluginSettings@@QAE@XZ
7A10 40 ??0PluginSettings@@QAE@ABU_GUID@@P6GHPAXW4FAR_SETTINGS_CONTROL_COMMANDS@@H1@Z@Z
7A90 41 ?append_impl@detail@string_utils@@YAXAAV?$basic_string@_WU?$char_traits@_W@std@@V?$allocator@_W@2@@std@@ABV?$initializer_list@Vappend_arg@detail@string_utils@@@4@@Z
7B60 41 ?IsLinksDisplayed@@YA_NV?$basic_string_view@_WU?$char_traits@_W@std@@@std@@@Z
7C40 41 ?IsOwnersDisplayed@@YA_NV?$basic_string_view@_WU?$char_traits@_W@std@@@std@@@Z
7D20 41 ??0TmpPanel@@QAE@V?$basic_string_view@_WU?$char_traits@_W@std@@@std@@@Z
7DF0 41 ?GetFindData@TmpPanel@@QAEHAAPAUPluginPanelItem@@AAI_K@Z
8000 41 ?GetOpenPanelInfo@TmpPanel@@QAEXAAUOpenPanelInfo@@@Z
84C0 41 ?data@?$block_ptr@UPluginPanelItem@@$00@@QBE@XZ
8510 41 ??C?$block_ptr@UPluginPanelItem@@$00@@QBE@XZ
8570 41 ??1?$array_ptr@W4byte@std@@$00@@QAE@XZ
8590 41 ?BeginPutFiles@TmpPanel@@QAEPAXXZ
8620 41 ?PutDirectoryContents@TmpPanel@@QAE_NPB_W@Z
8900 41 ??$emplace_back@AAPB_W@?$list@V?$basic_string@_WU?$char_traits@_W@std@@V?$allocator@_W@2@@std@@V?$allocator@V?$basic_string@_WU?$char_traits@_W@std@@V?$allocator@_W@2@@std@@@2@@std@@QAE?A_TAAPB_W@Z
89D0 41 ?PutOneFile@TmpPanel@@QAE_NABV?$basic_string@_WU?$char_traits@_W@std@@V?$allocator@_W@2@@std@@ABUPluginPanelItem@@@Z
8C30 41 ?PutOneFile@TmpPanel@@QAE_NABV?$basic_string@_WU?$char_traits@_W@std@@V?$allocator@_W@2@@std@@@Z
8DC0 41 ?SetFindList@TmpPanel@@QAEHV?$span@$$CBUPluginPanelItem@@$0PPPPPPPP@@std@@@Z
90E0 41 ?RemoveDups@TmpPanel@@AAEXXZ
92C0 41 ??R<lambda_2>@?1??RemoveDups@TmpPanel@@AAEXXZ@QBE@PBUPluginPanelItem@@0@Z
93A0 41 ?RemoveEmptyItems@TmpPanel@@AAEXXZ
94E0 41 ?UpdateItems@TmpPanel@@AAEX_N0@Z
9FC0 41 ??1?$unordered_map@V?$basic_string_view@_WU?$char_traits@_W@std@@@std@@PAUPluginPanelItem@@U?$hash@V?$basic_string_view@_WU?$char_traits@_W@std@@@std@@@2@U?$equal_to@V?$basic_string_view@_WU?$char_traits@_W@std@@@std@@@2@V?$allocator@U?$pair@$$CBV?$basic_string_view@_WU?$char_traits@_W@std@@@std@@PAUPluginPanelItem@@@std@@@2@@std@@QAE@XZ
9FD0 41 ??1?$_Hash@V?$_Umap_traits@V?$basic_string_view@_WU?$char_traits@_W@std@@@std@@PAUPluginPanelItem@@V?$_Uhash_compare@V?$basic_string_view@_WU?$char_traits@_W@std@@@std@@U?$hash@V?$basic_string_view@_WU?$char_traits@_W@std@@@std@@@2@U?$equal_to@V?$basic_string_view@_WU?$char_traits@_W@std@@@std@@@2@@2@V?$allocator@U?$pair@$$CBV?$basic_string_view@_WU?$char_traits@_W@std@@@std@@PAUPluginPanelItem@@@std@@@2@$0A@@std@@@std@@QAE@XZ
A060 41 ?ProcessEvent@TmpPanel@@QAEHHPAX@Z
A1D0 41 ?IsCurrentFileCorrect@TmpPanel@@AAE?AV?$basic_string@_WU?$char_traits@_W@std@@V?$allocator@_W@2@@std@@XZ
A4E0 41 ?ProcessKey@TmpPanel@@QAE_NPBU_INPUT_RECORD@@@Z
A8E0 41 ?ProcessRemoveKey@TmpPanel@@AAEXXZ
AAA0 41 ?ProcessSaveListKey@TmpPanel@@AAEXXZ
B0D0 41 ?SaveListFile@TmpPanel@@AAEXABV?$basic_string@_WU?$char_traits@_W@std@@V?$allocator@_W@2@@std@@@Z
B4D0 41 ?SwitchToPanel@TmpPanel@@AAEXI@Z
B510 41 ?ProcessPanelSwitchMenu@TmpPanel@@AAEXXZ
BA70 41 ??1?$scope_guard@$0A@V<lambda_1>@?BJ@??UpdateItems@TmpPanel@@AAEX_N0@Z@@scope_exit@@QAE@XZ
BA80 41 ??1?$_Hash_vec@V?$allocator@V?$_List_unchecked_iterator@V?$_List_val@U?$_List_simple_types@U?$pair@$$CBV?$basic_string_view@_WU?$char_traits@_W@std@@@std@@PAUPluginPanelItem@@@std@@@std@@@std@@@std@@@std@@@std@@QAE@XZ
BAE0 41 ?clear@?$_Hash@V?$_Umap_traits@V?$basic_string_view@_WU?$char_traits@_W@std@@@std@@PAUPluginPanelItem@@V?$_Uhash_compare@V?$basic_string_view@_WU?$char_traits@_W@std@@@std@@U?$hash@V?$basic_string_view@_WU?$char_traits@_W@std@@@std@@@2@U?$equal_to@V?$basic_string_view@_WU?$char_traits@_W@std@@@std@@@2@@2@V?$allocator@U?$pair@$$CBV?$basic_string_view@_WU?$char_traits@_W@std@@@std@@PAUPluginPanelItem@@@std@@@2@$0A@@std@@@std@@QAEXXZ
BC70 41 ??1?$list@U?$pair@$$CBV?$basic_string_view@_WU?$char_traits@_W@std@@@std@@PAUPluginPanelItem@@@std@@V?$allocator@U?$pair@$$CBV?$basic_string_view@_WU?$char_traits@_W@std@@@std@@PAUPluginPanelItem@@@std@@@2@@std@@QAE@XZ
BCB0 41 ??1?$vector@PAUPluginPanelItem@@V?$allocator@PAUPluginPanelItem@@@std@@@std@@QAE@XZ
BD10 41 ??1?$scope_guard@$0A@V<lambda_1>@?1??PutDirectoryContents@TmpPanel@@QAE_NPB_W@Z@@scope_exit@@QAE@XZ
BD20 41 ??0?$array_ptr@W4byte@std@@$00@@QAE@I_N@Z
BDD0 41 ?get@?$enum_tokens_t@Vsimple_policy@detail@@@@ABE_N_NAAV?$basic_string_view@_WU?$char_traits@_W@std@@@std@@@Z
BED0 41 ??R?$_Conditionally_enabled_hash@V?$basic_string_view@_WU?$char_traits@_W@std@@@std@@$00@std@@QBEIABV?$basic_string_view@_WU?$char_traits@_W@std@@@1@@Z
BF10 41 ?push_back@?$basic_string@_WU?$char_traits@_W@std@@V?$allocator@_W@2@@std@@QAEX_W@Z
C040 41 ?starts_with@?$basic_string_view@_WU?$char_traits@_W@std@@@std@@QBE_NV12@@Z
C0A0 41 ?_Assign_grow@?$_Hash_vec@V?$allocator@V?$_List_unchecked_iterator@V?$_List_val@U?$_List_simple_types@U?$pair@$$CBV?$basic_string_view@_WU?$char_traits@_W@std@@@std@@PAUPluginPanelItem@@@std@@@std@@@std@@@std@@@std@@@std@@QAEXIV?$_List_unchecked_iterator@V?$_List_val@U?$_List_simple_types@U?$pair@$$CBV?$basic_string_view@_WU?$char_traits@_W@std@@@std@@PAUPluginPanelItem@@@std@@@std@@@std@@@2@@Z
C190 41 ?_Forced_rehash@?$_Hash@V?$_Umap_traits@V?$basic_string_view@_WU?$char_traits@_W@std@@@std@@PAUPluginPanelItem@@V?$_Uhash_compare@V?$basic_string_view@_WU?$char_traits@_W@std@@@std@@U?$hash@V?$basic_string_view@_WU?$char_traits@_W@std@@@std@@@2@U?$equal_to@V?$basic_string_view@_WU?$char_traits@_W@std@@@std@@@2@@2@V?$allocator@U?$pair@$$CBV?$basic_string_view@_WU?$char_traits@_W@std@@@std@@PAUPluginPanelItem@@@std@@@2@$0A@@std@@@std@@IAEXI@Z
C2E0 41 ??$contains@V?$enum_tokens_t@Vsimple_policy@detail@@@@V?$basic_string_view@_WU?$char_traits@_W@std@@@std@@@@YA_NABV?$enum_tokens_t@Vsimple_policy@detail@@@@ABV?$basic_string_view@_WU?$char_traits@_W@std@@@std@@@Z
C3E0 41 ??$append@V?$basic_string_view@_WU?$char_traits@_W@std@@@std@@V?$basic_string@_WU?$char_traits@_W@std@@V?$allocator@_W@2@@2@V12@@@YAXAAV?$basic_string@_WU?$char_traits@_W@std@@V?$allocator@_W@2@@std@@ABV?$basic_string_view@_WU?$char_traits@_W@std@@@1@ABV01@1@Z
C460 41 ??$try_emplace@PAUPluginPanelItem@@@?$unordered_map@V?$basic_string_view@_WU?$char_traits@_W@std@@@std@@PAUPluginPanelItem@@U?$hash@V?$basic_string_view@_WU?$char_traits@_W@std@@@std@@@2@U?$equal_to@V?$basic_string_view@_WU?$char_traits@_W@std@@@std@@@2@V?$allocator@U?$pair@$$CBV?$basic_string_view@_WU?$char_traits@_W@std@@@std@@PAUPluginPanelItem@@@std@@@2@@std@@QAE?AU?$pair@V?$_List_iterator@V?$_List_val@U?$_List_simple_types@U?$pair@$$CBV?$basic_string_view@_WU?$char_traits@_W@std@@@std@@PAUPluginPanelItem@@@std@@@std@@@std@@@std@@_N@1@$$QAV?$basic_string_view@_WU?$char_traits@_W@std@@@1@$$QAPAUPluginPanelItem@@@Z
C490 41 ??$append@_WV?$basic_string_view@_WU?$char_traits@_W@std@@@std@@@@YAXAAV?$basic_string@_WU?$char_traits@_W@std@@V?$allocator@_W@2@@std@@AB_WABV?$basic_string_view@_WU?$char_traits@_W@std@@@1@@Z
C4D0 41 ??$_Reallocate@$0A@@?$vector@PAUPluginPanelItem@@V?$allocator@PAUPluginPanelItem@@@std@@@std@@AAEXAAI@Z
C5A0 41 ??$_Reallocate_grow_by@V<lambda_1>@?1??append@?$basic_string@DU?$char_traits@D@std@@V?$allocator@D@2@@std@@QAEAAV34@ID@Z@ID@?$basic_string@DU?$char_traits@D@std@@V?$allocator@D@2@@std@@AAEAAV01@IV<lambda_1>@?1??append@01@QAEAAV01@ID@Z@ID@Z
C6F0 41 ??$uninitialized_fill@PAV?$_List_unchecked_iterator@V?$_List_val@U?$_List_simple_types@U?$pair@$$CBV?$basic_string_view@_WU?$char_traits@_W@std@@@std@@PAUPluginPanelItem@@@std@@@std@@@std@@@std@@V12@@std@@YAXQAV?$_List_unchecked_iterator@V?$_List_val@U?$_List_simple_types@U?$pair@$$CBV?$basic_string_view@_WU?$char_traits@_W@std@@@std@@PAUPluginPanelItem@@@std@@@std@@@std@@@0@0ABV10@@Z
C710 41 ??R?$equal_to@V?$basic_string_view@_WU?$char_traits@_W@std@@@std@@@std@@QBE_NABV?$basic_string_view@_WU?$char_traits@_W@std@@@1@0@Z
C760 41 ??1?$_Alloc_construct_ptr@V?$allocator@U?$_List_node@V?$basic_string@_WU?$char_traits@_W@std@@V?$allocator@_W@2@@std@@PAX@std@@@std@@@std@@QAE@XZ
C780 41 ??$_Emplace_reallocate@ABUPluginPanelItem@@@?$vector@UPluginPanelItem@@V?$allocator@UPluginPanelItem@@@std@@@std@@AAEPAUPluginPanelItem@@QAU2@ABU2@@Z
C8D0 41 ??$_Emplace_reallocate@$$V@?$vector@UPluginPanelItem@@V?$allocator@UPluginPanelItem@@@std@@@std@@AAEPAUPluginPanelItem@@QAU2@@Z
CA10 41 ??$_Sort_unchecked@PAPAUPluginPanelItem@@V<lambda_2>@?1??RemoveDups@TmpPanel@@AAEXXZ@@std@@YAXPAPAUPluginPanelItem@@0HV<lambda_2>@?1??RemoveDups@TmpPanel@@AAEXXZ@@Z
CB00 41 ??$_Try_emplace@V?$basic_string_view@_WU?$char_traits@_W@std@@@std@@PAUPluginPanelItem@@@?$_Hash@V?$_Umap_traits@V?$basic_string_view@_WU?$char_traits@_W@std@@@std@@PAUPluginPanelItem@@V?$_Uhash_compare@V?$basic_string_view@_WU?$char_traits@_W@std@@@std@@U?$hash@V?$basic_string_view@_WU?$char_traits@_W@std@@@std@@@2@U?$equal_to@V?$basic_string_view@_WU?$char_traits@_W@std@@@std@@@2@@2@V?$allocator@U?$pair@$$CBV?$basic_string_view@_WU?$char_traits@_W@std@@@std@@PAUPluginPanelItem@@@std@@@2@$0A@@std@@@std@@IAE?AU?$pair@PAU?$_List_node@U?$pair@$$CBV?$basic_string_view@_WU?$char_traits@_W@std@@@std@@PAUPluginPanelItem@@@std@@PAX@std@@_N@1@$$QAV?$basic_string_view@_WU?$char_traits@_W@std@@@1@$$QAPAUPluginPanelItem@@@Z
CCB0 41 ??$_Find@V?$basic_string_view@_WU?$char_traits@_W@std@@@std@@@?$_Hash@V?$_Umap_traits@V?$basic_string_view@_WU?$char_traits@_W@std@@@std@@PAUPluginPanelItem@@V?$_Uhash_compare@V?$basic_string_view@_WU?$char_traits@_W@std@@@std@@U?$hash@V?$basic_string_view@_WU?$char_traits@_W@std@@@std@@@2@U?$equal_to@V?$basic_string_view@_WU?$char_traits@_W@std@@@std@@@2@@2@V?$allocator@U?$pair@$$CBV?$basic_string_view@_WU?$char_traits@_W@std@@@std@@PAUPluginPanelItem@@@std@@@2@$0A@@std@@@std@@ABEPAU?$_List_node@U?$pair@$$CBV?$basic_string_view@_WU?$char_traits@_W@std@@@std@@PAUPluginPanelItem@@@std@@PAX@1@ABV?$basic_string_view@_WU?$char_traits@_W@std@@@1@I@Z
CCE0 41 ??$_Resize_reallocate@U_Value_init_tag@std@@@?$vector@UPluginPanelItem@@V?$allocator@UPluginPanelItem@@@std@@@std@@AAEXIABU_Value_init_tag@1@@Z
CDE0 41 ??1?$_Alloc_construct_ptr@V?$allocator@U?$_List_node@U?$pair@$$CBV?$basic_string_view@_WU?$char_traits@_W@std@@@std@@PAUPluginPanelItem@@@std@@PAX@std@@@std@@@std@@QAE@XZ
CE00 41 ?_Change_array@?$vector@UPluginPanelItem@@V?$allocator@UPluginPanelItem@@@std@@@std@@AAEXQAUPluginPanelItem@@II@Z
CE70 41 ??$_Insertion_sort_unchecked@PAPAUPluginPanelItem@@V<lambda_2>@?1??RemoveDups@TmpPanel@@AAEXXZ@@std@@YAPAPAUPluginPanelItem@@QAPAU1@0V<lambda_2>@?1??RemoveDups@TmpPanel@@AAEXXZ@@Z
D040 41 ??$_Make_heap_unchecked@PAPAUPluginPanelItem@@V<lambda_2>@?1??RemoveDups@TmpPanel@@AAEXXZ@@std@@YAXPAPAUPluginPanelItem@@0V<lambda_2>@?1??RemoveDups@TmpPanel@@AAEXXZ@@Z
D280 41 ??$_Partition_by_median_guess_unchecked@PAPAUPluginPanelItem@@V<lambda_2>@?1??RemoveDups@TmpPanel@@AAEXXZ@@std@@YA?AU?$pair@PAPAUPluginPanelItem@@PAPAU1@@0@PAPAUPluginPanelItem@@0V<lambda_2>@?1??RemoveDups@TmpPanel@@AAEXXZ@@Z
D920 41 ??$_Find_last@V?$basic_string_view@_WU?$char_traits@_W@std@@@std@@@?$_Hash@V?$_Umap_traits@V?$basic_string_view@_WU?$char_traits@_W@std@@@std@@PAUPluginPanelItem@@V?$_Uhash_compare@V?$basic_string_view@_WU?$char_traits@_W@std@@@std@@U?$hash@V?$basic_string_view@_WU?$char_traits@_W@std@@@std@@@2@U?$equal_to@V?$basic_string_view@_WU?$char_traits@_W@std@@@std@@@2@@2@V?$allocator@U?$pair@$$CBV?$basic_string_view@_WU?$char_traits@_W@std@@@std@@PAUPluginPanelItem@@@std@@@2@$0A@@std@@@std@@IBE?AU?$_Hash_find_last_result@PAU?$_List_node@U?$pair@$$CBV?$basic_string_view@_WU?$char_traits@_W@std@@@std@@PAUPluginPanelItem@@@std@@PAX@std@@@1@ABV?$basic_string_view@_WU?$char_traits@_W@std@@@1@I@Z
D9A0 41 ??$_Emplace_reallocate@PAUPluginPanelItem@@@?$vector@PAUPluginPanelItem@@V?$allocator@PAUPluginPanelItem@@@std@@@std@@AAEPAPAUPluginPanelItem@@QAPAU2@$$QAPAU2@@Z
DB00 41 ??$_Pop_heap_hole_by_index@PAPAUPluginPanelItem@@PAU1@V<lambda_2>@?1??RemoveDups@TmpPanel@@AAEXXZ@@std@@YAXPAPAUPluginPanelItem@@HH$$QAPAU1@V<lambda_2>@?1??RemoveDups@TmpPanel@@AAEXXZ@@Z
DD40 41 ??$_Guess_median_unchecked@PAPAUPluginPanelItem@@V<lambda_2>@?1??RemoveDups@TmpPanel@@AAEXXZ@@std@@YAXPAPAUPluginPanelItem@@00V<lambda_2>@?1??RemoveDups@TmpPanel@@AAEXXZ@@Z
DF40 41 ??$_Dispatch2@PAW4byte@std@@U?$overload@V<lambda_1>@?1??get_data@?$array_ptr@W4byte@std@@$00@@ABEPAW4byte@std@@XZ@V<lambda_2>@?1??23@ABEPAW445@XZ@@@AAV?$variant@V?$array@W4byte@std@@$03@std@@V?$unique_ptr@$$BY0A@W4byte@std@@U?$default_delete@$$BY0A@W4byte@std@@@2@@2@@2@$00@?$_Variant_dispatcher@U?$integer_sequence@I$0A@@std@@@std@@SAPAW4byte@1@$$QAU?$overload@V<lambda_1>@?1??get_data@?$array_ptr@W4byte@std@@$00@@ABEPAW4byte@std@@XZ@V<lambda_2>@?1??23@ABEPAW445@XZ@@@AAV?$variant@V?$array@W4byte@std@@$03@std@@V?$unique_ptr@$$BY0A@W4byte@std@@U?$default_delete@$$BY0A@W4byte@std@@@2@@2@@1@@Z
DF50 41 ??0bad_variant_access@std@@QAE@XZ
DF70 41 ?what@bad_variant_access@std@@UBEPBDXZ
DF80 41 ??0bad_variant_access@std@@QAE@ABV01@@Z
DFC0 41 ?_Throw_bad_variant_access@std@@YAXXZ
DFF0 41 _ceilf
E020 41 ?to_wstring@std@@YA?AV?$basic_string@_WU?$char_traits@_W@std@@V?$allocator@_W@2@@1@I@Z
E150 41 ??1?$basic_string@DU?$char_traits@D@std@@V?$allocator@D@2@@std@@QAE@XZ
E1A0 42 ?ParseParam@@YA?AU?$pair@V?$basic_string_view@_WU?$char_traits@_W@std@@@std@@V12@@std@@V?$basic_string_view@_WU?$char_traits@_W@std@@@2@@Z
E2A0 42 ?GoToFile@@YAXABV?$basic_string@_WU?$char_traits@_W@std@@V?$allocator@_W@2@@std@@_N@Z
E700 42 ?WFD2FFD@@YAXABU_WIN32_FIND_DATAW@@AAUPluginPanelItem@@PAV?$basic_string@_WU?$char_traits@_W@std@@V?$allocator@_W@2@@std@@@Z
E770 42 ?FormNtPath@@YA?AV?$basic_string@_WU?$char_traits@_W@std@@V?$allocator@_W@2@@std@@V?$basic_string_view@_WU?$char_traits@_W@std@@@2@@Z
E9A0 42 ?ExpandEnvStrs@@YA?AV?$basic_string@_WU?$char_traits@_W@std@@V?$allocator@_W@2@@std@@V?$basic_string_view@_WU?$char_traits@_W@std@@@2@@Z
EBE0 42 $LN444
EBF0 42 ??1?$null_terminated_t@_W@@QAE@XZ
EC00 42 ?search_path@@YA?AV?$basic_string@_WU?$char_traits@_W@std@@V?$allocator@_W@2@@std@@ABV12@0@Z
EDE0 42 ?FindListFile@@YA?AV?$basic_string@_WU?$char_traits@_W@std@@V?$allocator@_W@2@@std@@ABV12@@Z
F620 42 ??E?$iterator_t@V?$basic_string_view@_WU?$char_traits@_W@std@@@std@@PAV?$enum_tokens_t@V?$custom_policy@Vquotes_overrider@detail@@@detail@@@@@?$enumerator@V?$enum_tokens_t@V?$custom_policy@Vquotes_overrider@detail@@@detail@@@@V?$basic_string_view@_WU?$char_traits@_W@std@@@std@@$0A@@@QAE@XZ
F6B0 42 ??1?$enum_tokens_t@V?$custom_policy@Vquotes_overrider@detail@@@detail@@@@QAE@XZ
F750 42 ?GetFullPath@@YA?AV?$basic_string@_WU?$char_traits@_W@std@@V?$allocator@_W@2@@std@@V?$basic_string_view@_WU?$char_traits@_W@std@@@2@@Z
F994 42 $LN444
F9B0 42 ?isDevice@@YA_NV?$basic_string_view@_WU?$char_traits@_W@std@@@std@@0@Z
FA70 42 ?GetFileInfoAndValidate@@YA_NV?$basic_string_view@_WU?$char_traits@_W@std@@@std@@AAUPluginPanelItem@@AAV?$basic_string@_WU?$char_traits@_W@std@@V?$allocator@_W@2@@2@_N@Z
FE80 42 ??0?$null_terminated_t@_W@@QAE@V?$basic_string_view@_WU?$char_traits@_W@std@@@std@@@Z
FFA0 42 ?starts_with@?$basic_string_view@_WU?$char_traits@_W@std@@@std@@QBE_NQB_W@Z
FFC0 42 ?extract@?$custom_policy@Vquotes_overrider@detail@@@detail@@QBE?AV?$basic_string_view@_WU?$char_traits@_W@std@@@std@@V34@0AAV34@@Z
10130 42 ?_Destroy@?$_Variant_base@V?$basic_string_view@_WU?$char_traits@_W@std@@@std@@V?$array@_W$0BAE@@2@V?$basic_string@_WU?$char_traits@_W@std@@V?$allocator@_W@2@@2@@std@@QAEXXZ
10194 42 $LN70
101B0 192 _Wrapper_EncodePointer@4
10200 192 ?impl@implementation@?1??Wrapper_DecodePointer@@YGPAXPAX@Z@SGPAX0@Z
10270 192 _Wrapper_DecodePointer@4
102C0 192 _Wrapper_GetModuleHandleExW@12
10310 192 ?impl@implementation@?1??Wrapper_GetModuleHandleExW@@YGHKPB_WPAPAUHINSTANCE__@@@Z@SGHK01@Z
103E0 192 _Wrapper_InitializeSListHead@4
10430 192 ?impl@implementation@?1??Wrapper_InitializeSListHead@@YGXPAT_SLIST_HEADER@@@Z@SGX0@Z
10450 192 _Wrapper_InterlockedFlushSList@4
104A0 192 ?impl@implementation@?1??Wrapper_InterlockedFlushSList@@YGPAU_SINGLE_LIST_ENTRY@@PAT_SLIST_HEADER@@@Z@SGPAU3@0@Z
10510 192 _Wrapper_InterlockedPushEntrySList@8
10560 192 ?impl@implementation@?1??Wrapper_InterlockedPushEntrySList@@YGPAU_SINGLE_LIST_ENTRY@@PAT_SLIST_HEADER@@PAU3@@Z@SGPAU3@01@Z
105C0 192 _Wrapper_GetNumaHighestNodeNumber@4
10610 192 ?impl@implementation@?1??Wrapper_GetNumaHighestNodeNumber@@YGHPAK@Z@SGH0@Z
10630 192 _Wrapper_GetLogicalProcessorInformation@8
10680 192 ?impl@implementation@?1??Wrapper_GetLogicalProcessorInformation@@YGHPAU_SYSTEM_LOGICAL_PROCESSOR_INFORMATION@@PAK@Z@SGH01@Z
10690 192 _Wrapper_SetThreadStackGuarantee@4
106E0 192 ?impl@implementation@?1??Wrapper_SetThreadStackGuarantee@@YGHPAK@Z@SGH0@Z
106F0 192 _Wrapper_InitializeCriticalSectionEx@12
10740 192 ?impl@implementation@?1??Wrapper_InitializeCriticalSectionEx@@YGHPAU_RTL_CRITICAL_SECTION@@KK@Z@SGH0KK@Z
10770 192 _Wrapper_CompareStringEx@36
107C0 192 ?impl@implementation@?1??Wrapper_CompareStringEx@@YGHPB_WK0H0HPAU_nlsversioninfo@@PAXJ@Z@SGH0K0H0H12J@Z
10820 192 _Wrapper_LCMapStringEx@36
10870 192 ?impl@implementation@?1??Wrapper_LCMapStringEx@@YGHPB_WK0HPA_WHPAU_nlsversioninfo@@PAXJ@Z@SGH0K0H1H23J@Z
108D0 192 _Wrapper_SleepConditionVariableSRW@16
10920 192 ?impl@implementation@?1??Wrapper_SleepConditionVariableSRW@@YGHPAU_RTL_CONDITION_VARIABLE@@PAU_RTL_SRWLOCK@@KK@Z@SGH01KK@Z
10930 192 _Wrapper_WakeAllConditionVariable@4
10980 192 ?impl@implementation@?1??Wrapper_AcquireSRWLockExclusive@@YGXPAU_RTL_SRWLOCK@@@Z@SGX0@Z
10990 192 _Wrapper_AcquireSRWLockExclusive@4
109E0 192 _Wrapper_ReleaseSRWLockExclusive@4
10A30 192 _Wrapper_TryAcquireSRWLockExclusive@4
10A80 192 ?impl@implementation@?1??Wrapper_TryAcquireSRWLockExclusive@@YGEPAU_RTL_SRWLOCK@@@Z@SGE0@Z
10A90 192 _Wrapper_InitializeSRWLock@4
10AE0 192 ?impl@implementation@?1??Wrapper_InitializeSRWLock@@YGXPAU_RTL_SRWLOCK@@@Z@SGX0@Z
10AF0 192 _Wrapper_FlsAlloc@4
10B40 192 ?impl@implementation@?1??Wrapper_FlsAlloc@@YGKP6GXPAX@Z@Z@SGK1@Z
10B50 192 _Wrapper_FlsGetValue@4
10BA0 192 ?impl@implementation@?1??Wrapper_FlsGetValue@@YGPAXK@Z@SGPAXK@Z
10BB0 192 _Wrapper_FlsSetValue@8
10C00 192 ?impl@implementation@?1??Wrapper_FlsSetValue@@YGHKPAX@Z@SGHK0@Z
10C10 192 _Wrapper_FlsFree@4
10C60 192 ?impl@implementation@?1??Wrapper_FlsFree@@YGHK@Z@SGHK@Z
10C70 50 ??0bad_alloc@std@@QAE@XZ
10C88 50 ??0exception@std@@QAE@QBD@Z
10CBD 50 ??0length_error@std@@QAE@ABV01@@Z
10CD8 50 ??0length_error@std@@QAE@PBD@Z
10CF7 50 ??0logic_error@std@@QAE@ABV01@@Z
10D12 50 ??0out_of_range@std@@QAE@ABV01@@Z
10D2D 50 ??0out_of_range@std@@QAE@PBD@Z
10D4C 172 ??_Ebad_exception@std@@UAEPAXI@Z
10D79 50 ?_Xlength_error@std@@YAXPBD@Z
10D99 50 ?_Xout_of_range@std@@YAXPBD@Z
10DC0 49 ??$_Impl_pcmpestri@G@__std_find_first_of@?A0x8417fefe@@YGPBXPBXQBX11@Z
11040 49 ??$__std_find_trivial_impl@U_Find_traits_2@?A0x8417fefe@@G@?A0x8417fefe@@YGPBXPBX0G@Z
11160 49 ___std_find_first_of_trivial_2@16
11170 49 ___std_find_trivial_2@12
11179 31 @__security_check_cookie@4
11187 12 ??3@YAXPAXI@Z
11195 11 ??3@YAXPAX@Z
1119A 37 ?find_pe_section@@YAPAU_IMAGE_SECTION_HEADER@@QAEI@Z
111DE 37 ___scrt_acquire_startup_lock
11210 37 ___scrt_dllmain_after_initialize_c
1123B 37 ___scrt_dllmain_before_initialize_c
11249 37 ___scrt_dllmain_crt_thread_attach
11268 37 ___scrt_dllmain_crt_thread_detach
11275 37 ___scrt_dllmain_exception_filter
112A9 37 ___scrt_dllmain_uninitialize_c
112CC 37 ___scrt_dllmain_uninitialize_critical
112D9 37 ___scrt_initialize_crt
11312 37 ___scrt_initialize_onexit_tables
11399 37 ___scrt_is_nonwritable_in_current_image
1142D 37 ___scrt_release_startup_lock
1144A 37 ___scrt_uninitialize_crt
11472 37 __onexit
1149F 37 _atexit
114B4 33 ??_Etype_info@@UAEPAXI@Z
114D7 29 ??2@YAPAXI@Z
11507 18 ??_M@YGXPAXIIP6EX0@Z@Z
1158C 18 ?__ArrayUnwind@@YGXPAXIIP6EX0@Z@Z
1161C 17 ??_L@YGXPAXIIP6EX0@Z1@Z
11690 10 ??_V@YAXPAX@Z
11695 28 ??_U@YAPAXI@Z
1169E 13 ?dllmain_crt_dispatch@@YGHQAUHINSTANCE__@@KQAX@Z
116F1 13 ?dllmain_crt_process_attach@@YAHQAUHINSTANCE__@@QAX@Z
117F8 13 ?dllmain_crt_process_detach@@YAH_N@Z
118A8 13 ?dllmain_dispatch@@YAHQAUHINSTANCE__@@KQAX@Z
119B3 13 ?dllmain_raw@@YGHQAUHINSTANCE__@@KQAX@Z
119DE 13 __DllMainCRTStartup@12
11A01 8 ___isa_available_init
11D2E 22 ___raise_securityfailure
11D56 22 ___report_gsfailure
11E51 5 __get_startup_argv_mode
11E55 36 ___scrt_is_ucrt_dll_in_use
11E61 38 ___scrt_fastfail
11F76 38 __crt_debugger_hook
11F80 32 __SEH_prolog4
11FC5 24 @_guard_check_icall_nop@4
11FC8 34 ?__scrt_throw_std_bad_alloc@@YAXXZ
11FE5 23 ___get_entropy
12032 23 ___security_init_cookie
1207D 14 _DllMain@12
12083 35 ?__scrt_initialize_type_info@@YAXXZ
1208F 35 ?__scrt_uninitialize_type_info@@YAXXZ
1209B 9 ___local_stdio_printf_options
120A1 9 ___local_stdio_scanf_options
120A7 9 ___scrt_initialize_default_local_stdio_options
120C4 15 ___scrt_get_dyn_tls_init_callback
120CA 26 __RTC_Initialize
120F6 26 __RTC_Terminate
12122 184 ?GetRangeOfTrysToCheck@__FrameHandler3@@SA?AU?$pair@Viterator@TryBlockMap@__FrameHandler3@@V123@@std@@AAVTryBlockMap@1@HPAXPBU_s_FuncInfo@@H@Z
12191 184 ?_CallCatchBlock2@@YAPAXPAUEHRegistrationNode@@PBU_s_FuncInfo@@PAXHK@Z
121EE 184 ?_CallSETranslator@@YAHPAUEHExceptionRecord@@PAUEHRegistrationNode@@PAX2PBU_s_FuncInfo@@H1@Z
122DE 184 ?_JumpToContinuation@@YGXPAXPAUEHRegistrationNode@@@Z
1230E 184 ?_UnwindNestedFrames@@YGXPAUEHRegistrationNode@@PAUEHExceptionRecord@@@Z
12362 184 __CatchGuardHandler
12393 184 __CreateFrameInfo
123B7 184 __FindAndUnlinkFrame
123FF 184 __TranslatorGuardHandler
1249E 184 ___CxxFrameHandler3
124D4 168 ___DestructExceptionObject
12575 168 ?_CallMemberFunction0@@YGXQAX0@Z
12582 168 ?_FilterSetCurrentException@@YAKPAU_EXCEPTION_POINTERS@@E@Z
125DA 168 __IsExceptionObjectToBeDestroyed
12600 168 ___AdjustPointer
12625 168 ___FrameUnwindFilter
1267B 168 ___current_exception
12684 168 ___current_exception_context
1268D 168 ___std_terminate
12692 181 ___std_exception_copy
126F5 181 ___std_exception_destroy
12714 187 _wcschr
127B5 183 __CxxThrowException@8
12830 177 _memcpy
12850 177 CopyUp
12874 177 CopyUpLargeMov
12887 177 CopyUpSSE2Check
128A0 177 AtomChk
128C6 177 PalignHead4
128D9 177 PalignHead8
128F0 177 PalignLoop
12902 177 MovPalign12
1290C 177 PalignLoop12
1295D 177 MovPalign8
12968 177 PalignLoop8
129B6 177 MovPalign4
129C0 177 PalignLoop4
12A0C 177 PalignTail
12A24 177 PalignTail4
12A37 177 PalignTail8
12A4E 177 PalignTailLE3
12A57 177 Dword_align
12A5F 177 Dword_up_align_loop
12A72 177 Dword_align_Ok
12A8C 177 ByteCopyUp
12A94 177 TrailingUpVec
12AA4 177 TrailingUp0
12AAC 177 TrailingUp1
12AB8 177 TrailingUp2
12ACC 177 TrailingUp3
12AE4 177 CopyDown
12B09 177 CopyDownNotAligned
12B10 177 CopyDownAlignLoop
12B1D 177 CopyDownAligned
12B40 177 TrailingDownVec
12B50 177 TrailingDown0
12B58 177 TrailingDown1
12B68 177 TrailingDown2
12B7C 177 TrailingDown3
12B95 177 XmmMovLargeAlignTest
12B9D 177 XmmMovAlignLoop
12BAC 177 XmmMovLargeLoop
12C1C 177 XmmMovSmallTest
12C21 177 XmmMovSmallLoop
12C44 177 CopyDownSmall
12C4C 177 CopyDownDwordLoop
12C61 177 CopyDownByteTest
12C65 177 CopyDownByteLoop
12C74 177 CopyDownReturn
12C80 177 XmmCopy
12C8D 177 XmmCopyAligned
12CA0 177 XmmCopyLargeLoop
12CFD 177 XmmCopySmallTest
12D10 177 XmmCopySmallLoop
12D2B 177 CopyUpDwordMov
12D30 177 CopyUpDwordTest
12D37 177 CopyUpDwordLoop
12D46 177 CopyUpByteTest
12D4D 177 CopyUpByteLoop
12D60 177 CopyUpReturn
12D70 177 XmmCopyUnaligned
12D83 177 XmmAlignByte
12D8C 177 XmmAlignDwordTest
12D91 177 XmmAlignDwordLoop
12D9E 177 XmmAlignAdjustCnt
12DA4 173 ___vcrt_initialize
12DC3 173 ___vcrt_thread_attach
12DCE 173 ___vcrt_thread_detach
12DD6 173 ___vcrt_uninitialize
12DED 173 ___vcrt_uninitialize_critical
12E00 167 _ValidateLocalCookies
12E40 167 __except_handler4
12FA0 178 _memset
12FE5 178 XMMMov
13020 178 LargeRangeBytes
1305D 178 XmmMovSmall
13070 178 XmmSmallLoop
13075 178 MidRangeBytes
13091 178 XMMTrailingBytes
130A5 178 SmallMov
130AD 178 ByteLoop
130BB 178 DwordTest
130CB 178 QwordTest
130E0 178 QwordLoop
130F3 178 toend
130FA 182 ___std_type_info_compare
13136 182 ___std_type_info_destroy_list
13159 179 ___vcrt_freefls@4
13175 179 ___vcrt_freeptd_for_this_thread
131A0 179 ___vcrt_getptd
131AE 179 ___vcrt_getptd_noexit
13240 179 ___vcrt_initialize_ptd
13273 179 ___vcrt_uninitialize_ptd
1328E 172 ??$BuildCatchObjectHelperInternal@V__FrameHandler3@@@@YAHPAUEHExceptionRecord@@PAXPBU_s_HandlerType@@PBU_s_CatchableType@@@Z
133CC 172 ??$BuildCatchObjectInternal@V__FrameHandler3@@@@YAXPAUEHExceptionRecord@@PAXPBU_s_HandlerType@@PBU_s_CatchableType@@@Z
13465 172 ??$CatchIt@V__FrameHandler3@@@@YAXPAUEHExceptionRecord@@PAUEHRegistrationNode@@PAU_CONTEXT@@PAXPBU_s_FuncInfo@@PBU_s_HandlerType@@PBU_s_CatchableType@@PBU_s_TryBlockMapEntry@@H1EE@Z
134E5 172 ??$FindHandler@V__FrameHandler3@@@@YAXPAUEHExceptionRecord@@PAUEHRegistrationNode@@PAU_CONTEXT@@PAXPBU_s_FuncInfo@@EH1@Z
1388A 172 ??$FindHandlerForForeignException@V__FrameHandler3@@@@YAXPAUEHExceptionRecord@@PAUEHRegistrationNode@@PAU_CONTEXT@@PAXPBU_s_FuncInfo@@HH1@Z
139C0 172 ??$TypeMatchHelper@V__FrameHandler3@@@@YAHPBU_s_HandlerType@@PBU_s_CatchableType@@PBU_s_ThrowInfo@@@Z
13A4E 172 ??$__InternalCxxFrameHandler@V__FrameHandler3@@@@YA?AW4_EXCEPTION_DISPOSITION@@PAUEHExceptionRecord@@PAUEHRegistrationNode@@PAU_CONTEXT@@PAXPBU_s_FuncInfo@@H1E@Z
13B50 172 ??$__InternalCxxFrameHandlerWrapper@V__FrameHandler3@@@@YA?AW4_EXCEPTION_DISPOSITION@@PAUEHExceptionRecord@@PAUEHRegistrationNode@@PAU_CONTEXT@@PAXPBU_s_FuncInfo@@H1E@Z
13B59 172 ??0bad_exception@std@@QAE@ABV01@@Z
13B74 172 ??0bad_exception@std@@QAE@XZ
13B8C 172 ??8type_info@@QBE_NABV0@@Z
13BAB 172 ?CallCatchBlock@@YAPAXPAUEHExceptionRecord@@PAUEHRegistrationNode@@PAU_CONTEXT@@PBU_s_FuncInfo@@PAXHK@Z
13D7A 172 ?CallUnexpected@@YAXPBU_s_ESTypeList@@@Z
13D9A 172 __catch$?CallUnexpected@@YAXPBU_s_ESTypeList@@@Z$0
13DB9 172 ?ExFilterRethrow@@YAHPAU_EXCEPTION_POINTERS@@@Z
13E03 172 ?FrameUnwindToEmptyState@__FrameHandler3@@SAXPAUEHRegistrationNode@@PAXPBU_s_FuncInfo@@@Z
13E1B 172 ?FrameUnwindToState@__FrameHandler3@@SAXPAUEHRegistrationNode@@PAXPBU_s_FuncInfo@@H@Z
13F03 172 ?IsInExceptionSpec@@YAEPAUEHExceptionRecord@@PBU_s_ESTypeList@@@Z
13F9D 172 ?_CallMemberFunction1@@YGXQAX00@Z
13FAD 172 ?_CallMemberFunction2@@YGXQAX00H@Z
13FC0 172 ?getESTypes@__FrameHandler3@@SAPBU_s_ESTypeList@@PBU_s_FuncInfo@@@Z
13FD0 176 __CallSettingFrame@12
13FF7 176 __NLG_Return
1400F 176 _NLG_Continue
1401C 174 ___except_validate_context_record
1404C 175 ___vcrt_initialize_locks
14088 175 ___vcrt_uninitialize_locks
140C0 171 __local_unwind4
140F2 171 _lu_top
14151 171 _lu_done
14160 171 $$000000
141B0 171 @_EH4_CallFilterFunc@8
141D0 171 @_EH4_TransferToHandler@8
141F0 171 @_EH4_GlobalUnwind2@8
14205 171 ReturnPoint
14210 171 @_EH4_LocalUnwind@16
14227 188 ?try_get_function@@YAPAXW4function_id@?A0x14174aea@@QBDQBW4module_id@2@2@Z
142C7 188 ?try_load_library_from_system_directory@@YAPAUHINSTANCE__@@QB_W@Z
14312 188 ___vcrt_FlsAlloc
1434D 188 ___vcrt_FlsFree
14388 188 ___vcrt_FlsGetValue
143C3 188 ___vcrt_FlsSetValue
14401 188 ___vcrt_InitializeCriticalSectionEx
14448 186 _unexpected
14465 169 ?GetCurrentState@__FrameHandler3@@SAHPAUEHRegistrationNode@@PAXPBU_s_FuncInfo@@@Z
14482 169 ?SetState@__FrameHandler3@@SAXPAUEHRegistrationNode@@PBU_s_FuncInfo@@H@Z
14490 170 __NLG_Notify1
144A0 170 __NLG_Notify
144AB 170 __NLG_Go
144B7 170 __NLG_Dispatch
144C0 170 __NLG_Call
144C2 170 __NLG_Return2
144C3 104 ??0__crt_cached_ptd_host@@QAE@QAU__crt_locale_pointers@@@Z
1450B 104 ??1__crt_cached_ptd_host@@QAE@XZ
14547 104 ?check_synchronize_global_state_index@__crt_cached_ptd_host@@AAEIXZ
14570 104 ?force_synchronize_per_thread_data@__crt_cached_ptd_host@@AAEPAU__acrt_ptd@@XZ
145B6 104 ?get_raw_ptd@__crt_cached_ptd_host@@QAEPAU__acrt_ptd@@XZ
145D3 104 ___acrt_call_reportfault
1470C 104 ___acrt_initialize_invalid_parameter_handler
1471B 104 __invalid_parameter
14752 104 __invalid_parameter_internal
147CF 104 __invalid_parameter_noinfo
147DF 104 __invalid_parameter_noinfo_noreturn
147FC 104 __invoke_watson
14830 59 ??0_LocaleUpdate@@QAE@QAU__crt_locale_pointers@@@Z
148B2 59 _iswdigit
148C5 59 _iswspace
148D8 86 _free
148F3 77 __seh_filter_dll
14913 77 __seh_filter_exe
14A59 78 ??$?RV<lambda_03b1d95aef87969028cfba75ccab2455>@@AAV<lambda_6e4b09c48022b2350581041d5f6b0c4c>@@V<lambda_22bdf7517842c4b3e53723af5aa32b9e>@@@?$__crt_seh_guarded_call@X@@QAEX$$QAV<lambda_03b1d95aef87969028cfba75ccab2455>@@AAV<lambda_6e4b09c48022b2350581041d5f6b0c4c>@@$$QAV<lambda_22bdf7517842c4b3e53723af5aa32b9e>@@@Z
14AA6 133 ??$__crt_fast_decode_pointer@P6AHI@Z@@YAP6AHI@ZQ6AHI@Z@Z
14AC1 78 ??R<lambda_6e4b09c48022b2350581041d5f6b0c4c>@@QBE@XZ
14BA9 78 ?common_exit@@YAXHW4_crt_exit_cleanup_mode@@W4_crt_exit_return_mode@@@Z
14C40 78 ?exit_or_terminate_process@@YAXI@Z
14C71 78 ?is_managed_app@@YA_NXZ
14CB3 78 ?should_call_terminate_process@@YA_NXZ
14CCC 78 ?try_cor_exit_process@@YAXI@Z
14D4E 78 ___acrt_initialize_thread_local_exit_callback
14D5D 78 __cexit
14D6C 78 __exit
14D82 78 __is_c_termination_complete
14D89 62 ??$common_configure_argv@D@@YAHW4_crt_argv_mode@@@Z
14EC6 62 ??$parse_command_line@D@@YAXPADPAPAD0PAI2@Z
1503A 62 ___acrt_allocate_buffer_for_argv
15089 62 __configure_narrow_argv
15094 75 ??$common_initialize_environment_nolock@D@@YAHXZ
150EE 75 ??$create_environment@D@@YAQAPADQAD@Z
151D0 75 ??$free_environment@D@@YAXQAPAD@Z
151FF 75 ??$uninitialize_environment_internal@D@@YAXAAPAPAD@Z
1521A 75 ??$uninitialize_environment_internal@_W@@YAXAAPAPA_W@Z
15235 75 ___dcrt_uninitialize_environments_nolock
15286 75 __initialize_narrow_environment
1528B 136 ??$?RV<lambda_69a2805e680e0e292e8ba93315fe43a8>@@AAV<lambda_f03950bc5685219e0bcd2087efbe011e>@@V<lambda_03fcd07e894ec930e3f35da366ca99d6>@@@?$__crt_seh_guarded_call@H@@QAEH$$QAV<lambda_69a2805e680e0e292e8ba93315fe43a8>@@AAV<lambda_f03950bc5685219e0bcd2087efbe011e>@@$$QAV<lambda_03fcd07e894ec930e3f35da366ca99d6>@@@Z
152E6 136 ??$?RV<lambda_8e746cf0007f6ed984d6f78af1fec997>@@AAV<lambda_22ebabd17bc4fa466a2aca6d8deb888d>@@V<lambda_18ed0c0b38a6dc0daf1e7ac6d6adf05e>@@@?$__crt_seh_guarded_call@H@@QAEH$$QAV<lambda_8e746cf0007f6ed984d6f78af1fec997>@@AAV<lambda_22ebabd17bc4fa466a2aca6d8deb888d>@@$$QAV<lambda_18ed0c0b38a6dc0daf1e7ac6d6adf05e>@@@Z
15341 136 ??$__crt_fast_encode_pointer@P6AHXZ@@YAP6AHXZQ6AHXZ@Z
15360 136 ??R<lambda_22ebabd17bc4fa466a2aca6d8deb888d>@@QBE@XZ
15462 136 ??R<lambda_f03950bc5685219e0bcd2087efbe011e>@@QBE@XZ
1553C 136 __crt_atexit
15552 136 __execute_onexit_table
15590 136 __initialize_onexit_table
155B9 136 __register_onexit_function
155EC 99 _initialize_global_variables
155F9 99 _initialize_c
15613 61 ___acrt_uninitialize_command_line
15616 99 _uninitialize_environment
1561E 99 _initialize_pointers
1564C 99 _uninitialize_vcruntime
15655 99 _uninitialize_allocated_memory
1566C 99 _uninitialize_allocated_io_buffers
156BC 99 ??R<lambda_af42a3ee9806e9a7305d451646e05244>@@QBE@AAPAU__crt_multibyte_data@@@Z
156EA 99 ___acrt_initialize
156FC 99 ___acrt_thread_attach
15707 99 ___acrt_thread_detach
1570F 99 ___acrt_uninitialize
1573F 99 ___acrt_uninitialize_critical
15751 133 ___acrt_initialize_new_handler
15760 133 __callnewh
1578C 133 __query_new_handler
157E3 121 _malloc
157EE 158 _terminate
1582A 102 __initterm
15855 102 __initterm_e
15883 60 _abort
158C7 152 _strcpy_s
15921 64 _calloc
15930 138 ?update_locale_slow@__crt_cached_ptd_host@@AAEXXZ
15990 154 _strncmp
15A08 160 _wcsncmp
15A42 140 ??$?RV<lambda_15ade71b0218206bbe3333a0c9b79046>@@AAV<lambda_da44e0f8b0f19ba52fefafb335991732>@@V<lambda_207f2d024fc103971653565357d6cd41>@@@?$__crt_seh_guarded_call@X@@QAEX$$QAV<lambda_15ade71b0218206bbe3333a0c9b79046>@@AAV<lambda_da44e0f8b0f19ba52fefafb335991732>@@$$QAV<lambda_207f2d024fc103971653565357d6cd41>@@@Z
15A94 140 ??$?RV<lambda_38edbb1296d33220d7e4dd0ed76b244a>@@AAV<lambda_5ce1d447e08cb34b2473517608e21441>@@V<lambda_fb385d3da700c9147fc39e65dd577a8c>@@@?$__crt_seh_guarded_call@X@@QAEX$$QAV<lambda_38edbb1296d33220d7e4dd0ed76b244a>@@AAV<lambda_5ce1d447e08cb34b2473517608e21441>@@$$QAV<lambda_fb385d3da700c9147fc39e65dd577a8c>@@@Z
15AFF 140 ??$?RV<lambda_6affb1475c98b40b75cdec977db92e3c>@@AAV<lambda_b8d4b9c228a6ecc3f80208dbb4b4a104>@@V<lambda_608742c3c92a14382c1684fc64f96c88>@@@?$__crt_seh_guarded_call@X@@QAEX$$QAV<lambda_6affb1475c98b40b75cdec977db92e3c>@@AAV<lambda_b8d4b9c228a6ecc3f80208dbb4b4a104>@@$$QAV<lambda_608742c3c92a14382c1684fc64f96c88>@@@Z
15B54 140 ??$?RV<lambda_a7e850c220f1c8d1e6efeecdedd162c6>@@AAV<lambda_46720907175c18b6c9d2717bc0d2d362>@@V<lambda_9048902d66e8d99359bc9897bbb930a8>@@@?$__crt_seh_guarded_call@X@@QAEX$$QAV<lambda_a7e850c220f1c8d1e6efeecdedd162c6>@@AAV<lambda_46720907175c18b6c9d2717bc0d2d362>@@$$QAV<lambda_9048902d66e8d99359bc9897bbb930a8>@@@Z
15BAE 140 ?construct_ptd@@YAXQAU__acrt_ptd@@QAPAU__crt_locale_data@@@Z
15C47 140 ?destroy_fls@@YGXPAX@Z
15C68 140 ?destroy_ptd@@YAXQAU__acrt_ptd@@@Z
15D35 140 ?replace_current_thread_locale_nolock@@YAXQAU__acrt_ptd@@QAU__crt_locale_data@@@Z
15D80 140 ___acrt_freeptd
15DAC 140 ___acrt_getptd
15E67 140 ___acrt_getptd_head
15EFD 140 ___acrt_getptd_noexit
15FAE 140 ___acrt_getptd_noexit_explicit
16051 140 ___acrt_initialize_ptd
1607D 140 ___acrt_uninitialize_ptd
16097 166 ??$?RV<lambda_e5124f882df8998aaf41531e079ba474>@@AAV<lambda_3e16ef9562a7dcce91392c22ab16ea36>@@V<lambda_e25ca0880e6ef98be67edffd8c599615>@@@?$__crt_seh_guarded_call@X@@QAEX$$QAV<lambda_e5124f882df8998aaf41531e079ba474>@@AAV<lambda_3e16ef9562a7dcce91392c22ab16ea36>@@$$QAV<lambda_e25ca0880e6ef98be67edffd8c599615>@@@Z
16105 166 ___acrt_set_locale_changed
16110 166 ___acrt_uninitialize_locale
16137 108 _iswctype
161A0 114 ___acrt_update_locale_info
161CD 114 ___acrt_update_locale_info_explicit
161FE 114 ___acrt_update_multibyte_info
1622B 114 ___acrt_update_multibyte_info_explicit
1625C 87 __free_base
16296 116 ___acrt_initialize_locks
162D7 116 ___acrt_lock
162EE 116 ___acrt_uninitialize_locks
1631F 116 ___acrt_unlock
16336 139 ___acrt_app_verifier_enabled
16348 139 ___acrt_is_secure_process
1635B 163 ___acrt_get_process_end_policy
16382 76 ___acrt_errno_from_os_error
163C5 76 ___acrt_errno_map_os_error
163E8 76 ___acrt_errno_map_os_error_ptd
1640C 76 ___doserrno
1641F 76 __errno
16432 65 __calloc_base
1648F 63 ?<lambda_invoker_cdecl>@<lambda_838c7f62c73c983481e27c09e84b0b5d>@@CAHPBX0@Z
164A7 63 ??$__acrt_convert_wcs_mbs_cp@D_WV<lambda_62f6974d9771e494a5ea317cc32e971c>@@U__crt_win32_buffer_internal_dynamic_resizing@@@@YAHQBDAAV?$__crt_win32_buffer@_WU__crt_win32_buffer_internal_dynamic_resizing@@@@ABV<lambda_62f6974d9771e494a5ea317cc32e971c>@@I@Z
16559 63 ??$__acrt_convert_wcs_mbs_cp@_WDV<lambda_28bda7af82a03b66c1cb3803a755f95d>@@U__crt_win32_buffer_internal_dynamic_resizing@@@@YAHQB_WAAV?$__crt_win32_buffer@DU__crt_win32_buffer_internal_dynamic_resizing@@@@ABV<lambda_28bda7af82a03b66c1cb3803a755f95d>@@I@Z
1661F 63 ??$__acrt_mbs_to_wcs_cp@U__crt_win32_buffer_internal_dynamic_resizing@@@@YAHQBDAAV?$__crt_win32_buffer@_WU__crt_win32_buffer_internal_dynamic_resizing@@@@I@Z
1663C 63 ??$common_expand_argv_wildcards@D@@YAHQAPADQAPAPAD@Z
167B9 63 ??$copy_and_add_argument_to_buffer@D@@YAHQBD0IAAV?$argument_list@D@?A0x5f5c8891@@@Z
1686A 63 ??$expand_argument_wildcards@D@@YAHQAD0AAV?$argument_list@D@?A0x5f5c8891@@@Z
16AEF 63 ??1?$argument_list@D@?A0x5f5c8891@@QAE@XZ
16B14 92 ??R<lambda_0fec1a7b3f42a53036604e18c2d5e07e>@@QBE@IQB_WQADI@Z
16B38 63 ?__acrt_get_utf8_acp_compatibility_codepage@@YAIXZ
16B77 63 ?_deallocate@?$__crt_win32_buffer@DU__crt_win32_buffer_internal_dynamic_resizing@@@@AAEXXZ
16B91 63 ?allocate@?$__crt_win32_buffer@DU__crt_win32_buffer_internal_dynamic_resizing@@@@QAEHI@Z
16BCD 63 ?allocate@?$__crt_win32_buffer@_WU__crt_win32_buffer_internal_dynamic_resizing@@@@QAEHI@Z
16C0C 63 ?allocate@__crt_win32_buffer_internal_dynamic_resizing@@SAHQAPAXIABV__crt_win32_buffer_empty_debug_info@@@Z
16C2B 63 ?expand_if_necessary@?$argument_list@D@?A0x5f5c8891@@AAEHXZ
16CB2 63 ___acrt_expand_narrow_argv_wildcards
16CBD 92 ??$__acrt_convert_wcs_mbs_cp@_WDV<lambda_0fec1a7b3f42a53036604e18c2d5e07e>@@U__crt_win32_buffer_no_resizing@@@@YAHQB_WAAV?$__crt_win32_buffer@DU__crt_win32_buffer_no_resizing@@@@ABV<lambda_0fec1a7b3f42a53036604e18c2d5e07e>@@I@Z
16D7F 92 ?allocate@?$__crt_win32_buffer@DU__crt_win32_buffer_no_resizing@@@@QAEHI@Z
16DA6 92 ?set_to_nullptr@?$__crt_win32_buffer@DU__crt_win32_buffer_no_resizing@@@@QAEXXZ
16DBA 92 ___acrt_GetModuleFileNameA
16E5B 125 ??$?RV<lambda_ceb1ee4838e85a9d631eb091e2fbe199>@@AAV<lambda_ae742caa10f662c28703da3d2ea5e57e>@@V<lambda_cd08b5d6af4937fe54fc07d0c9bf6b37>@@@?$__crt_seh_guarded_call@X@@QAEX$$QAV<lambda_ceb1ee4838e85a9d631eb091e2fbe199>@@AAV<lambda_ae742caa10f662c28703da3d2ea5e57e>@@$$QAV<lambda_cd08b5d6af4937fe54fc07d0c9bf6b37>@@@Z
16EA8 125 ??R<lambda_ae742caa10f662c28703da3d2ea5e57e>@@QBE@XZ
16F2B 125 ?CPtoLocaleName@@YAPB_WH@Z
16F69 125 ?getSystemCP@@YAHH@Z
16FDA 125 ?setSBCS@@YAXPAU__crt_multibyte_data@@@Z
1703D 125 ?setSBUpLow@@YAXPAU__crt_multibyte_data@@@Z
171E2 125 ?setmbcp_internal@@YAHH_NQAU__acrt_ptd@@QAPAU__crt_multibyte_data@@@Z
17337 125 ?update_thread_multibyte_data_internal@@YAPAU__crt_multibyte_data@@QAU__acrt_ptd@@QAPAU1@@Z
173D7 125 ___acrt_initialize_multibyte
1741F 125 ___acrt_update_thread_multibyte_data
17432 125 __setmbcp_nolock
17637 125 _memcpy_s
176B8 107 ?x_ismbbtype_l@@YAHPAU__crt_locale_pointers@@IHH@Z
17708 107 __ismbblead
17720 61 ___acrt_initialize_command_line
17739 132 ?filter_mbtowcs_flags@@YAKIK@Z
177D1 132 ___acrt_MultiByteToWideChar
177FB 162 ?filter_wcstomb_flags@@YAKIK@Z
1788B 162 ___acrt_WideCharToMultiByte
178F7 90 ?find_end_of_double_null_terminated_sequence@@YAPB_WQB_W@Z
1792E 90 ___dcrt_get_narrow_environment_from_os
179CE 146 __recalloc_base
17A3B 164 ?try_get_AreFileApisANSI@@YAP6GHXZXZ
17A55 164 ?try_get_LCMapStringEx@@YAP6GHPB_WK0HPA_WHPAU_nlsversioninfo@@PAXJ@ZXZ
17A6F 164 ?try_get_LocaleNameToLCID@@YAP6GKPB_WK@ZXZ
17A89 164 ?try_get_first_available_module@@YAPAUHINSTANCE__@@QBW4module_id@?A0x391cf84c@@0@Z
17B54 164 ?try_get_function@@YAPAXW4function_id@?A0x391cf84c@@QBDQBW4module_id@2@2@Z
17BD9 164 ___acrt_AppPolicyGetProcessTerminationMethodInternal@4
17C19 164 ___acrt_AreFileApisANSI@0
17C38 164 ___acrt_FlsAlloc@4
17C77 164 ___acrt_FlsFree@4
17CB6 164 ___acrt_FlsGetValue@4
17CF5 164 ___acrt_FlsSetValue@8
17D37 164 ___acrt_InitializeCriticalSectionEx@12
17D82 164 ___acrt_LCMapStringEx@36
17DDF 164 ___acrt_LocaleNameToLCID@8
17E10 164 ___acrt_initialize_winapi_thunks
17E24 164 ___acrt_uninitialize_winapi_thunks
17E5A 96 ___acrt_initialize_heap
17E6B 96 ___acrt_uninitialize_heap
17E75 105 ?initialize_inherited_file_handles_nolock@@YAXXZ
17F2B 105 ?initialize_stdio_handles_nolock@@YAXXZ
17FDB 105 ___acrt_initialize_lowio
1803B 105 ___acrt_uninitialize_lowio
18067 148 ___acrt_execute_initializers
180CF 148 ___acrt_execute_uninitializers
18100 149 ??$?RV<lambda_cbab9ec6f41b0180b23cc171c22676b0>@@AAV<lambda_44731a7d0e6d81c3e6aa82d741081786>@@V<lambda_4b292cb8dd18144e164572427af410ab>@@@?$__crt_seh_guarded_call@P6AXH@Z@@QAEP6AXH@Z$$QAV<lambda_cbab9ec6f41b0180b23cc171c22676b0>@@AAV<lambda_44731a7d0e6d81c3e6aa82d741081786>@@$$QAV<lambda_4b292cb8dd18144e164572427af410ab>@@@Z
18168 149 ?get_global_action_nolock@@YAPAP6AXH@ZH@Z
181AA 149 ?siglookup@@YAPAU__crt_signal_action_t@@HQAU1@@Z
181D2 149 ___acrt_get_sigabrt_handler
181F9 149 ___acrt_initialize_signal_handlers
18217 149 _raise
18409 123 ___acrt_has_user_matherr
18426 123 ___acrt_initialize_user_matherr
18435 123 ___acrt_invoke_user_matherr
1846B 81 ??$?RV<lambda_2866be3712abc81a800a822484c830d8>@@AAV<lambda_39ca0ed439415581b5b15c265174cece>@@V<lambda_2b24c74d71094a6cd0cb82e44167d71b>@@@?$__crt_seh_guarded_call@X@@QAEX$$QAV<lambda_2866be3712abc81a800a822484c830d8>@@AAV<lambda_39ca0ed439415581b5b15c265174cece>@@$$QAV<lambda_2b24c74d71094a6cd0cb82e44167d71b>@@@Z
184F7 81 ??$?RV<lambda_2cc53f568c5a2bb6f192f930a45d44ea>@@AAV<lambda_ab61a845afdef5b7c387490eaf3616ee>@@V<lambda_c2ffc0b7726aa6be21d5f0026187e748>@@@?$__crt_seh_guarded_call@X@@QAEX$$QAV<lambda_2cc53f568c5a2bb6f192f930a45d44ea>@@AAV<lambda_ab61a845afdef5b7c387490eaf3616ee>@@$$QAV<lambda_c2ffc0b7726aa6be21d5f0026187e748>@@@Z
185A3 81 ?common_flush_all@@YAH_N@Z
185F0 81 ?common_flush_all_should_try_to_flush_stream@@YA_NV__crt_stdio_stream@@QAH@Z
18621 81 ?is_stream_flushable_or_commitable@@YA_NJ@Z
18644 81 ___acrt_stdio_flush_nolock
186AD 81 __fflush_nolock
18712 81 __flushall
1871B 55 ___acrt_initialize_stdio
187E3 55 ___acrt_uninitialize_stdio
1882F 55 __lock_file
18843 55 __unlock_file
18857 122 __malloc_base
188A5 129 __mbtowc_internal
189D8 82 __fileno
189FF 113 ___acrt_add_locale_ref
18A7C 113 ___acrt_free_locale
18BC4 113 ___acrt_locale_add_lc_time_reference
18BED 113 ___acrt_locale_free_lc_time_if_unreferenced
18C1E 113 ___acrt_locale_release_lc_time_reference
18C47 113 ___acrt_release_locale_ref
18CC8 113 ___acrt_update_thread_locale_data
18D49 113 __updatetlocinfoEx_nolock
18D99 100 ___acrt_locale_free_monetary
18E97 101 ___acrt_locale_free_numeric
18F00 103 ?free_crt_array_internal@@YAXQAPBXI@Z
18F25 103 ___acrt_locale_free_time
19009 93 ___acrt_GetStringTypeA
1910A 93 __freea_crt
1912A 94 ___acrt_GetStringTypeW
19143 134 __query_new_mode
19150 143 _qsort
1963E 156 ??$common_tcsncpy_s@D@@YAHQADIQBDI@Z
196F5 156 _strncpy_s
19700 157 _strpbrk
19740 128 __mbsdec
19757 128 __mbsdec_l
197E4 110 ?__acrt_LCMapStringA_stat@@YAHPAU__crt_locale_pointers@@PB_WKPBDHPADHHH@Z
199D3 110 ___acrt_LCMapStringA
19A1C 131 ?initialize_multibyte@@YAHXZ
19A2B 130 __msize_base
19A5E 145 __realloc_base
19AC7 109 ?GetTableIndexFromLocaleName@@YAHPB_W@Z
19B17 109 ___acrt_DownlevelLocaleNameToLCID
19B43 137 ___acrt_lowio_create_handle_array
19BBE 137 ___acrt_lowio_destroy_handle_array
19BF3 137 ___acrt_lowio_ensure_fh_exists
19C91 137 ___acrt_lowio_lock_fh
19CB4 137 ___acrt_lowio_unlock_fh
19CD7 137 __free_osfhnd
19D68 137 __get_osfhandle
19DD2 70 ??$?RV<lambda_9e9de3de5fa147e2223d7db92bc10aa6>@@AAV<lambda_38ce7e780aa69e748d6df282ebc68efe>@@V<lambda_8ca6da459f0f6780f1cff60fdc3d00e5>@@@?$__crt_seh_guarded_call@H@@QAEH$$QAV<lambda_9e9de3de5fa147e2223d7db92bc10aa6>@@AAV<lambda_38ce7e780aa69e748d6df282ebc68efe>@@$$QAV<lambda_8ca6da459f0f6780f1cff60fdc3d00e5>@@@Z
19E74 70 __commit
19EF1 165 ?write_double_translated_ansi_nolock@@YA?AUwrite_result@?A0x17268360@@HQBDIAAV__crt_cached_ptd_host@@@Z
1A2B8 165 ?write_double_translated_unicode_nolock@@YA?AUwrite_result@?A0x17268360@@QBDI@Z
1A320 165 ?write_requires_double_translation_nolock@@YA_NHAAV__crt_cached_ptd_host@@@Z
1A39D 165 ?write_text_ansi_nolock@@YA?AUwrite_result@?A0x17268360@@HQBDI@Z
1A478 165 ?write_text_utf16le_nolock@@YA?AUwrite_result@?A0x17268360@@HQBDI@Z
1A561 165 ?write_text_utf8_nolock@@YA?AUwrite_result@?A0x17268360@@HQBDI@Z
1A693 165 __write_internal
1A7A4 165 __write_nolock
1A9C0 69 __fcloseall
1AA6B 56 ___acrt_stdio_free_buffer_nolock
1AAAB 106 __isatty
1AB01 80 _fegetround
1AB0E 127 ??R<lambda_e96123212306c92459f955e8e4eac55d>@@QBEIPBD@Z
1AB3A 127 ?__mbrtowc_utf8@__crt_mbstring@@YAIPA_WPBDIPAU_Mbstatet@@AAV__crt_cached_ptd_host@@@Z
1AB7D 127 ?__mbsrtowcs_utf8@__crt_mbstring@@YAIPA_WPAPBDIPAU_Mbstatet@@AAV__crt_cached_ptd_host@@@Z
1AC85 161 ___ascii_wcsnicmp
1ACD4 155 ___strncnt
1ACF0 147 __query_app_type
1ACF6 120 ??$common_lseek_nolock@_J@@YA_JH_JHAAV__crt_cached_ptd_host@@@Z
1AD79 120 __lseeki64_nolock_internal
1AD97 142 __putwch_nolock
1ADC9 79 ?_fclose_internal@@YAHQAU_iobuf@@AAV__crt_cached_ptd_host@@@Z
1AE60 79 ?_fclose_nolock_internal@@YAHQAU_iobuf@@AAV__crt_cached_ptd_host@@@Z
1AEEE 79 _fclose
1AF20 117 __CIlog10
1AF5B 117 __CIlog10_default
1AF6F 117 __log10_default
1B030 67 _ceil
1B070 67 __ceil_pentium4
1B14D 54 ?to_abstract_control@@YA?AW4__acrt_fenv_abstract_control@@W4__acrt_fenv_machine_sse_control@@@Z
1B1FD 54 ?to_abstract_control@@YA?AW4__acrt_fenv_abstract_control@@W4__acrt_fenv_machine_x87_control@@@Z
1B2AA 54 ___acrt_fenv_get_common_round_control
1B2CC 54 ___acrt_fenv_get_control
1B34C 72 ?reset_and_return@__crt_mbstring@@YAIIPAU_Mbstatet@@@Z
1B360 72 ?return_illegal_sequence@__crt_mbstring@@YAIPAU_Mbstatet@@AAV__crt_cached_ptd_host@@@Z
1B382 126 ?__mbrtoc32_utf8@__crt_mbstring@@YAIPA_UPBDIPAU_Mbstatet@@AAV__crt_cached_ptd_host@@@Z
1B540 58 ___ascii_strnicmp
1B5A1 98 ?__dcrt_lowio_initialize_console_output@@YAXXZ
1B5C0 98 ___dcrt_lowio_ensure_console_output_initialized
1B5DF 98 ___dcrt_terminate_console_output
1B5F6 98 ___dcrt_write_console
1B64B 68 ??$?RV<lambda_d422a76eb4c3bf3ad751449ab71a6ea4>@@AAV<lambda_c9ba49e555ba839a7b07aa3fbecb7617>@@V<lambda_9476263c8ee91a25d21c55370bdb50de>@@@?$__crt_seh_guarded_call@H@@QAEH$$QAV<lambda_d422a76eb4c3bf3ad751449ab71a6ea4>@@AAV<lambda_c9ba49e555ba839a7b07aa3fbecb7617>@@$$QAV<lambda_9476263c8ee91a25d21c55370bdb50de>@@@Z
1B6DC 68 __close_internal
1B77F 68 __close_nolock_internal
1B81F 153 ?__acrt_stdio_free_stream@@YAXV__crt_stdio_stream@@@Z
1B85A 124 ___acrt_initialize_sse2
1B870 118 __CIlog10_pentium4
1B888 118 __log10_pentium4
1BB00 53 $$000000
1BB20 53 __fFEXP
1BB77 53 __rtinfpopse
1BB79 53 __rtinfnpopse
1BB89 53 __fFLN
1BC3E 53 __rtinfpop
1BC40 53 __rtinfnpop
1BC50 53 __rtforexpinf
1BC5D 53 __ffexpm1
1BD10 51 __trandisp1
1BD85 51 __trandisp2
1BE1F 51 __rttospopde
1BE24 51 __rttospop
1BE30 51 __rtnospop
1BE40 51 __rttosnpop
1BE41 51 __rtnospopde
1BE48 51 __rtzeropop
1BE4A 51 __rtzeronpop
1BE50 51 __rtzerospop
1BE5D 51 __rtonepop
1BE60 51 __rtonenpop
1BE70 51 __tosnan1
1BEA0 51 __nosnan2
1BEB0 51 __tosnan2
1BEE0 51 __nan2
1BF20 51 __rtindfpop
1BF22 51 __rtindfnpop
1BF33 51 __rttosnpopde
1BF40 51 __rtatan2inf
1BF5D 51 __rtchsifneg
1BF70 71 __twoToTOS
1BF85 71 __load_CW
1BF9C 71 __convertTOStoQNaN
1BFB5 71 __fload_withFB
1BFF8 71 __checkTOS_withFB
1C00E 71 __fast_exit
1C01B 71 __math_exit
1C045 71 __check_overflow_exit
1C059 71 __check_range_exit
1C100 89 __startTwoArgErrorHandling
1C117 89 __startOneArgErrorHandling
1C153 111 ___libm_error_support
1C347 66 __ceil_default
1C405 84 __clrfp
1C416 84 __ctrlfp
1C440 84 __set_statfp
1C499 84 __statfp
1C4A9 141 __d_inttype
1C511 141 __powhlp
1C63C 52 __87except
1C74C 88 __frnd
1C760 85 __errcode
1C794 85 __except1
1C862 85 __handle_exc
1CAE2 85 __raise_exc
1CB05 85 __raise_exc_ex
1CDF6 85 __set_errno_from_matherr
1CE27 85 __umatherr
1CEC7 159 __decomp
1CF99 159 __set_exp
1CFC6 159 __sptype
1D029 97 __fpclass
1D0CD 6 @_guard_check_icall@4
1D0E0 30 __FindPESection
1D130 30 __IsNonwritableInCurrentImage
1D1F0 30 __ValidateImageBase
1D221 16 __EH_epilog3
1D235 16 __EH_prolog3
1D268 16 __EH_prolog3_catch
1D2A0 4 __alloca_probe_16
1D2B6 4 __alloca_probe_8
1D2D0 7 __alloca_probe
1D2E4 7 cs10
1D2F2 7 cs20
1D300 20 __ftol2
1D31E 20 L51
1D363 20 L52
1D377 20 L53
1D379 20 L55
1D383 20 L56
1D39C 20 L57
1D3B0 39 __filter_x86_sse2_floating_point_exception
1D430 44 __ehhandler$?trim_left@inplace@@YAXAAV?$basic_string_view@_WU?$char_traits@_W@std@@@std@@@Z
1D450 44 __ehhandler$?trim@inplace@@YAXAAV?$basic_string_view@_WU?$char_traits@_W@std@@@std@@@Z
1D470 44 __unwindfunclet$?ReadFileLines@@YA?AV?$vector@V?$basic_string@_WU?$char_traits@_W@std@@V?$allocator@_W@2@@std@@V?$allocator@V?$basic_string@_WU?$char_traits@_W@std@@V?$allocator@_W@2@@std@@@2@@std@@QAXK@Z$1
1D478 44 __unwindfunclet$?ReadFileLines@@YA?AV?$vector@V?$basic_string@_WU?$char_traits@_W@std@@V?$allocator@_W@2@@std@@V?$allocator@V?$basic_string@_WU?$char_traits@_W@std@@V?$allocator@_W@2@@std@@@2@@std@@QAXK@Z$2
1D485 44 __ehhandler$?ReadFileLines@@YA?AV?$vector@V?$basic_string@_WU?$char_traits@_W@std@@V?$allocator@_W@2@@std@@V?$allocator@V?$basic_string@_WU?$char_traits@_W@std@@V?$allocator@_W@2@@std@@@2@@std@@QAXK@Z
1D4B0 44 __unwindfunclet$?ReadFileList@@YA?AV?$vector@V?$basic_string@_WU?$char_traits@_W@std@@V?$allocator@_W@2@@std@@V?$allocator@V?$basic_string@_WU?$char_traits@_W@std@@V?$allocator@_W@2@@std@@@2@@std@@V?$basic_string_view@_WU?$char_traits@_W@std@@@2@@Z$0
1D4B8 44 __unwindfunclet$?ReadFileList@@YA?AV?$vector@V?$basic_string@_WU?$char_traits@_W@std@@V?$allocator@_W@2@@std@@V?$allocator@V?$basic_string@_WU?$char_traits@_W@std@@V?$allocator@_W@2@@std@@@2@@std@@V?$basic_string_view@_WU?$char_traits@_W@std@@@2@@Z$1
1D4C0 44 __unwindfunclet$?ReadFileList@@YA?AV?$vector@V?$basic_string@_WU?$char_traits@_W@std@@V?$allocator@_W@2@@std@@V?$allocator@V?$basic_string@_WU?$char_traits@_W@std@@V?$allocator@_W@2@@std@@@2@@std@@V?$basic_string_view@_WU?$char_traits@_W@std@@@2@@Z$3
1D4C8 44 __unwindfunclet$?ReadFileList@@YA?AV?$vector@V?$basic_string@_WU?$char_traits@_W@std@@V?$allocator@_W@2@@std@@V?$allocator@V?$basic_string@_WU?$char_traits@_W@std@@V?$allocator@_W@2@@std@@@2@@std@@V?$basic_string_view@_WU?$char_traits@_W@std@@@2@@Z$4
1D4D5 44 __ehhandler$?ReadFileList@@YA?AV?$vector@V?$basic_string@_WU?$char_traits@_W@std@@V?$allocator@_W@2@@std@@V?$allocator@V?$basic_string@_WU?$char_traits@_W@std@@V?$allocator@_W@2@@std@@@2@@std@@V?$basic_string_view@_WU?$char_traits@_W@std@@@2@@Z
1D500 44 __unwindfunclet$?ShowMenuFromList@@YAXABV?$basic_string@_WU?$char_traits@_W@std@@V?$allocator@_W@2@@std@@@Z$0
1D50B 44 __unwindfunclet$?ShowMenuFromList@@YAXABV?$basic_string@_WU?$char_traits@_W@std@@V?$allocator@_W@2@@std@@@Z$1
1D516 44 __unwindfunclet$?ShowMenuFromList@@YAXABV?$basic_string@_WU?$char_traits@_W@std@@V?$allocator@_W@2@@std@@@Z$2
1D521 44 __unwindfunclet$?ShowMenuFromList@@YAXABV?$basic_string@_WU?$char_traits@_W@std@@V?$allocator@_W@2@@std@@@Z$3
1D52C 44 __unwindfunclet$?ShowMenuFromList@@YAXABV?$basic_string@_WU?$char_traits@_W@std@@V?$allocator@_W@2@@std@@@Z$4
1D534 44 __unwindfunclet$?ShowMenuFromList@@YAXABV?$basic_string@_WU?$char_traits@_W@std@@V?$allocator@_W@2@@std@@@Z$5
1D53C 44 __unwindfunclet$?ShowMenuFromList@@YAXABV?$basic_string@_WU?$char_traits@_W@std@@V?$allocator@_W@2@@std@@@Z$6
1D549 44 __ehhandler$?ShowMenuFromList@@YAXABV?$basic_string@_WU?$char_traits@_W@std@@V?$allocator@_W@2@@std@@@Z
1D580 44 __unwindfunclet$?ProcessList@@YAXAAVTmpPanel@@V?$basic_string_view@_WU?$char_traits@_W@std@@@std@@_N@Z$0
1D58D 44 __ehhandler$?ProcessList@@YAXAAVTmpPanel@@V?$basic_string_view@_WU?$char_traits@_W@std@@@std@@_N@Z
1D5B0 44 __unwindfunclet$?run_command@@YA?AV?$basic_string@_WU?$char_traits@_W@std@@V?$allocator@_W@2@@std@@ABV12@@Z$0
1D5B8 44 __unwindfunclet$?run_command@@YA?AV?$basic_string@_WU?$char_traits@_W@std@@V?$allocator@_W@2@@std@@ABV12@@Z$2
1D5C3 44 __unwindfunclet$?run_command@@YA?AV?$basic_string@_WU?$char_traits@_W@std@@V?$allocator@_W@2@@std@@ABV12@@Z$3
1D5CB 44 __unwindfunclet$?run_command@@YA?AV?$basic_string@_WU?$char_traits@_W@std@@V?$allocator@_W@2@@std@@ABV12@@Z$5
1D5D3 44 __unwindfunclet$?run_command@@YA?AV?$basic_string@_WU?$char_traits@_W@std@@V?$allocator@_W@2@@std@@ABV12@@Z$6
1D5DB 44 __unwindfunclet$?run_command@@YA?AV?$basic_string@_WU?$char_traits@_W@std@@V?$allocator@_W@2@@std@@ABV12@@Z$7
1D5EB 44 __ehhandler$?run_command@@YA?AV?$basic_string@_WU?$char_traits@_W@std@@V?$allocator@_W@2@@std@@ABV12@@Z
1D620 41 __unwindfunclet$?GetFindData@TmpPanel@@QAEHAAPAUPluginPanelItem@@AAI_K@Z$0
1D62D 41 __ehhandler$?GetFindData@TmpPanel@@QAEHAAPAUPluginPanelItem@@AAI_K@Z
1D660 44 __unwindfunclet$?OpenPanelFromOutput@@YA?AV?$unique_ptr@VTmpPanel@@U?$default_delete@VTmpPanel@@@std@@@std@@ABV?$basic_string@_WU?$char_traits@_W@std@@V?$allocator@_W@2@@2@@Z$0
1D668 44 __unwindfunclet$?OpenPanelFromOutput@@YA?AV?$unique_ptr@VTmpPanel@@U?$default_delete@VTmpPanel@@@std@@@std@@ABV?$basic_string@_WU?$char_traits@_W@std@@V?$allocator@_W@2@@2@@Z$2
1D670 44 __unwindfunclet$?OpenPanelFromOutput@@YA?AV?$unique_ptr@VTmpPanel@@U?$default_delete@VTmpPanel@@@std@@@std@@ABV?$basic_string@_WU?$char_traits@_W@std@@V?$allocator@_W@2@@2@@Z$6
1D67F 44 __unwindfunclet$?OpenPanelFromOutput@@YA?AV?$unique_ptr@VTmpPanel@@U?$default_delete@VTmpPanel@@@std@@@std@@ABV?$basic_string@_WU?$char_traits@_W@std@@V?$allocator@_W@2@@2@@Z$3
1D68C 44 __ehhandler$?OpenPanelFromOutput@@YA?AV?$unique_ptr@VTmpPanel@@U?$default_delete@VTmpPanel@@@std@@@std@@ABV?$basic_string@_WU?$char_traits@_W@std@@V?$allocator@_W@2@@2@@Z
1D6C0 44 __ehhandler$_SetStartupInfoW@4
1D6E0 44 __ehhandler$_OpenW@4
1D710 44 __ehhandler$_ExitFARW@4
1D730 44 __unwindfunclet$??0PluginPanel@@QAE@XZ$0
1D738 44 __unwindfunclet$??0PluginPanel@@QAE@XZ$1
1D748 44 __ehhandler$??0PluginPanel@@QAE@XZ
1D770 44 __ehhandler$??$_Emplace_reallocate@$$CBV?$basic_string_view@_WU?$char_traits@_W@std@@@std@@@?$vector@V?$basic_string@_WU?$char_traits@_W@std@@V?$allocator@_W@2@@std@@V?$allocator@V?$basic_string@_WU?$char_traits@_W@std@@V?$allocator@_W@2@@std@@@2@@std@@AAEPAV?$basic_string@_WU?$char_traits@_W@std@@V?$allocator@_W@2@@1@QAV21@$$QBV?$basic_string_view@_WU?$char_traits@_W@std@@@1@@Z
1D790 40 __unwindfunclet$?GetOptions@@YAXXZ$0
1D79D 40 __ehhandler$?GetOptions@@YAXXZ
1D7D0 40 __unwindfunclet$?Config@@YA_NXZ$0
1D7DB 40 __unwindfunclet$?Config@@YA_NXZ$1
1D7EB 40 __ehhandler$?Config@@YA_NXZ
1D820 40 __ehhandler$??1PluginDialogBuilder@@QAE@XZ
1D840 40 __ehhandler$??1PluginSettings@@QAE@XZ
1D860 41 __unwindfunclet$??0TmpPanel@@QAE@V?$basic_string_view@_WU?$char_traits@_W@std@@@std@@@Z$0
1D86D 41 __ehhandler$??0TmpPanel@@QAE@V?$basic_string_view@_WU?$char_traits@_W@std@@@std@@@Z
1D890 41 __unwindfunclet$?GetOpenPanelInfo@TmpPanel@@QAEXAAUOpenPanelInfo@@@Z$0
1D898 41 __unwindfunclet$?GetOpenPanelInfo@TmpPanel@@QAEXAAUOpenPanelInfo@@@Z$3
1D8B1 41 __unwindfunclet$?GetOpenPanelInfo@TmpPanel@@QAEXAAUOpenPanelInfo@@@Z$2
1D8BE 41 __ehhandler$?GetOpenPanelInfo@TmpPanel@@QAEXAAUOpenPanelInfo@@@Z
1D8F0 41 __ehhandler$??C?$block_ptr@UPluginPanelItem@@$00@@QBE@XZ
1D910 41 __unwindfunclet$?PutDirectoryContents@TmpPanel@@QAE_NPB_W@Z$0
1D918 41 __unwindfunclet$?PutDirectoryContents@TmpPanel@@QAE_NPB_W@Z$2
1D920 41 __unwindfunclet$?PutDirectoryContents@TmpPanel@@QAE_NPB_W@Z$8
1D92D 41 __ehhandler$?PutDirectoryContents@TmpPanel@@QAE_NPB_W@Z
1D950 41 __unwindfunclet$??$emplace_back@AAPB_W@?$list@V?$basic_string@_WU?$char_traits@_W@std@@V?$allocator@_W@2@@std@@V?$allocator@V?$basic_string@_WU?$char_traits@_W@std@@V?$allocator@_W@2@@std@@@2@@std@@QAE?A_TAAPB_W@Z$1
1D95D 41 __ehhandler$??$emplace_back@AAPB_W@?$list@V?$basic_string@_WU?$char_traits@_W@std@@V?$allocator@_W@2@@std@@V?$allocator@V?$basic_string@_WU?$char_traits@_W@std@@V?$allocator@_W@2@@std@@@2@@std@@QAE?A_TAAPB_W@Z
1D980 41 __unwindfunclet$?PutOneFile@TmpPanel@@QAE_NABV?$basic_string@_WU?$char_traits@_W@std@@V?$allocator@_W@2@@std@@ABUPluginPanelItem@@@Z$1
1D99E 41 __ehhandler$?PutOneFile@TmpPanel@@QAE_NABV?$basic_string@_WU?$char_traits@_W@std@@V?$allocator@_W@2@@std@@ABUPluginPanelItem@@@Z
1D9D0 41 __unwindfunclet$?PutOneFile@TmpPanel@@QAE_NABV?$basic_string@_WU?$char_traits@_W@std@@V?$allocator@_W@2@@std@@@Z$1
1D9DD 41 __ehhandler$?PutOneFile@TmpPanel@@QAE_NABV?$basic_string@_WU?$char_traits@_W@std@@V?$allocator@_W@2@@std@@@Z
1DA00 41 __unwindfunclet$?SetFindList@TmpPanel@@QAEHV?$span@$$CBUPluginPanelItem@@$0PPPPPPPP@@std@@@Z$1
1DA08 41 __unwindfunclet$?SetFindList@TmpPanel@@QAEHV?$span@$$CBUPluginPanelItem@@$0PPPPPPPP@@std@@@Z$7
1DA15 41 __ehhandler$?SetFindList@TmpPanel@@QAEHV?$span@$$CBUPluginPanelItem@@$0PPPPPPPP@@std@@@Z
1DA40 41 __unwindfunclet$?RemoveDups@TmpPanel@@AAEXXZ$0
1DA4D 41 __ehhandler$?RemoveDups@TmpPanel@@AAEXXZ
1DA70 41 __unwindfunclet$?UpdateItems@TmpPanel@@AAEX_N0@Z$8
1DA7B 41 __unwindfunclet$?UpdateItems@TmpPanel@@AAEX_N0@Z$9
1DA86 41 __unwindfunclet$?UpdateItems@TmpPanel@@AAEX_N0@Z$0
1DA91 41 __unwindfunclet$?UpdateItems@TmpPanel@@AAEX_N0@Z$1
1DA99 41 __unwindfunclet$?UpdateItems@TmpPanel@@AAEX_N0@Z$2
1DAA1 41 __unwindfunclet$?UpdateItems@TmpPanel@@AAEX_N0@Z$3
1DAB1 41 __ehhandler$?UpdateItems@TmpPanel@@AAEX_N0@Z
1DAE0 41 __unwindfunclet$?ProcessEvent@TmpPanel@@QAEHHPAX@Z$0
1DAED 41 __ehhandler$?ProcessEvent@TmpPanel@@QAEHHPAX@Z
1DB20 41 __unwindfunclet$?IsCurrentFileCorrect@TmpPanel@@AAE?AV?$basic_string@_WU?$char_traits@_W@std@@V?$allocator@_W@2@@std@@XZ$1
1DB2B 41 __unwindfunclet$?IsCurrentFileCorrect@TmpPanel@@AAE?AV?$basic_string@_WU?$char_traits@_W@std@@V?$allocator@_W@2@@std@@XZ$2
1DB38 41 __ehhandler$?IsCurrentFileCorrect@TmpPanel@@AAE?AV?$basic_string@_WU?$char_traits@_W@std@@V?$allocator@_W@2@@std@@XZ
1DB70 41 __unwindfunclet$?ProcessKey@TmpPanel@@QAE_NPBU_INPUT_RECORD@@@Z$0
1DB78 41 __unwindfunclet$?ProcessKey@TmpPanel@@QAE_NPBU_INPUT_RECORD@@@Z$1
1DB80 41 __unwindfunclet$?ProcessKey@TmpPanel@@QAE_NPBU_INPUT_RECORD@@@Z$3
1DB88 41 __unwindfunclet$?ProcessKey@TmpPanel@@QAE_NPBU_INPUT_RECORD@@@Z$4
1DB95 41 __ehhandler$?ProcessKey@TmpPanel@@QAE_NPBU_INPUT_RECORD@@@Z
1DBC0 41 __unwindfunclet$?ProcessRemoveKey@TmpPanel@@AAEXXZ$0
1DBCD 41 __ehhandler$?ProcessRemoveKey@TmpPanel@@AAEXXZ
1DC00 41 __unwindfunclet$?ProcessSaveListKey@TmpPanel@@AAEXXZ$0
1DC08 41 __unwindfunclet$?ProcessSaveListKey@TmpPanel@@AAEXXZ$1
1DC10 41 __unwindfunclet$?ProcessSaveListKey@TmpPanel@@AAEXXZ$2
1DC18 41 __unwindfunclet$?ProcessSaveListKey@TmpPanel@@AAEXXZ$3
1DC25 41 __ehhandler$?ProcessSaveListKey@TmpPanel@@AAEXXZ
1DC50 41 __unwindfunclet$?SaveListFile@TmpPanel@@AAEXABV?$basic_string@_WU?$char_traits@_W@std@@V?$allocator@_W@2@@std@@@Z$0
1DC58 41 __unwindfunclet$?SaveListFile@TmpPanel@@AAEXABV?$basic_string@_WU?$char_traits@_W@std@@V?$allocator@_W@2@@std@@@Z$1
1DC60 41 __unwindfunclet$?SaveListFile@TmpPanel@@AAEXABV?$basic_string@_WU?$char_traits@_W@std@@V?$allocator@_W@2@@std@@@Z$2
1DC68 41 __unwindfunclet$?SaveListFile@TmpPanel@@AAEXABV?$basic_string@_WU?$char_traits@_W@std@@V?$allocator@_W@2@@std@@@Z$3
1DC75 41 __ehhandler$?SaveListFile@TmpPanel@@AAEXABV?$basic_string@_WU?$char_traits@_W@std@@V?$allocator@_W@2@@std@@@Z
1DCA0 41 __unwindfunclet$?ProcessPanelSwitchMenu@TmpPanel@@AAEXXZ$0
1DCB6 41 __unwindfunclet$?ProcessPanelSwitchMenu@TmpPanel@@AAEXXZ$1
1DCC1 41 __unwindfunclet$?ProcessPanelSwitchMenu@TmpPanel@@AAEXXZ$7
1DCE8 41 __ehhandler$?ProcessPanelSwitchMenu@TmpPanel@@AAEXXZ
1DD20 41 __unwindfunclet$??0?$array_ptr@W4byte@std@@$00@@QAE@I_N@Z$0
1DD2D 41 __ehhandler$??0?$array_ptr@W4byte@std@@$00@@QAE@I_N@Z
1DD50 41 __unwindfunclet$??$_Try_emplace@V?$basic_string_view@_WU?$char_traits@_W@std@@@std@@PAUPluginPanelItem@@@?$_Hash@V?$_Umap_traits@V?$basic_string_view@_WU?$char_traits@_W@std@@@std@@PAUPluginPanelItem@@V?$_Uhash_compare@V?$basic_string_view@_WU?$char_traits@_W@std@@@std@@U?$hash@V?$basic_string_view@_WU?$char_traits@_W@std@@@std@@@2@U?$equal_to@V?$basic_string_view@_WU?$char_traits@_W@std@@@std@@@2@@2@V?$allocator@U?$pair@$$CBV?$basic_string_view@_WU?$char_traits@_W@std@@@std@@PAUPluginPanelItem@@@std@@@2@$0A@@std@@@std@@IAE?AU?$pair@PAU?$_List_node@U?$pair@$$CBV?$basic_string_view@_WU?$char_traits@_W@std@@@std@@PAUPluginPanelItem@@@std@@PAX@std@@_N@1@$$QAV?$basic_string_view@_WU?$char_traits@_W@std@@@1@$$QAPAUPluginPanelItem@@@Z$1
1DD58 41 __unwindfunclet$??$_Try_emplace@V?$basic_string_view@_WU?$char_traits@_W@std@@@std@@PAUPluginPanelItem@@@?$_Hash@V?$_Umap_traits@V?$basic_string_view@_WU?$char_traits@_W@std@@@std@@PAUPluginPanelItem@@V?$_Uhash_compare@V?$basic_string_view@_WU?$char_traits@_W@std@@@std@@U?$hash@V?$basic_string_view@_WU?$char_traits@_W@std@@@std@@@2@U?$equal_to@V?$basic_string_view@_WU?$char_traits@_W@std@@@std@@@2@@2@V?$allocator@U?$pair@$$CBV?$basic_string_view@_WU?$char_traits@_W@std@@@std@@PAUPluginPanelItem@@@std@@@2@$0A@@std@@@std@@IAE?AU?$pair@PAU?$_List_node@U?$pair@$$CBV?$basic_string_view@_WU?$char_traits@_W@std@@@std@@PAUPluginPanelItem@@@std@@PAX@std@@_N@1@$$QAV?$basic_string_view@_WU?$char_traits@_W@std@@@1@$$QAPAUPluginPanelItem@@@Z$0
1DD65 41 __ehhandler$??$_Try_emplace@V?$basic_string_view@_WU?$char_traits@_W@std@@@std@@PAUPluginPanelItem@@@?$_Hash@V?$_Umap_traits@V?$basic_string_view@_WU?$char_traits@_W@std@@@std@@PAUPluginPanelItem@@V?$_Uhash_compare@V?$basic_string_view@_WU?$char_traits@_W@std@@@std@@U?$hash@V?$basic_string_view@_WU?$char_traits@_W@std@@@std@@@2@U?$equal_to@V?$basic_string_view@_WU?$char_traits@_W@std@@@std@@@2@@2@V?$allocator@U?$pair@$$CBV?$basic_string_view@_WU?$char_traits@_W@std@@@std@@PAUPluginPanelItem@@@std@@@2@$0A@@std@@@std@@IAE?AU?$pair@PAU?$_List_node@U?$pair@$$CBV?$basic_string_view@_WU?$char_traits@_W@std@@@std@@PAUPluginPanelItem@@@std@@PAX@std@@_N@1@$$QAV?$basic_string_view@_WU?$char_traits@_W@std@@@1@$$QAPAUPluginPanelItem@@@Z
1DD90 42 __unwindfunclet$?GoToFile@@YAXABV?$basic_string@_WU?$char_traits@_W@std@@V?$allocator@_W@2@@std@@_N@Z$0
1DD98 42 __unwindfunclet$?GoToFile@@YAXABV?$basic_string@_WU?$char_traits@_W@std@@V?$allocator@_W@2@@std@@_N@Z$1
1DDA0 42 __unwindfunclet$?GoToFile@@YAXABV?$basic_string@_WU?$char_traits@_W@std@@V?$allocator@_W@2@@std@@_N@Z$2
1DDA8 42 __unwindfunclet$?GoToFile@@YAXABV?$basic_string@_WU?$char_traits@_W@std@@V?$allocator@_W@2@@std@@_N@Z$3
1DDB8 42 __ehhandler$?GoToFile@@YAXABV?$basic_string@_WU?$char_traits@_W@std@@V?$allocator@_W@2@@std@@_N@Z
1DDF0 42 __unwindfunclet$?FormNtPath@@YA?AV?$basic_string@_WU?$char_traits@_W@std@@V?$allocator@_W@2@@std@@V?$basic_string_view@_WU?$char_traits@_W@std@@@2@@Z$1
1DDF8 42 __unwindfunclet$?FormNtPath@@YA?AV?$basic_string@_WU?$char_traits@_W@std@@V?$allocator@_W@2@@std@@V?$basic_string_view@_WU?$char_traits@_W@std@@@2@@Z$2
1DE05 42 __ehhandler$?FormNtPath@@YA?AV?$basic_string@_WU?$char_traits@_W@std@@V?$allocator@_W@2@@std@@V?$basic_string_view@_WU?$char_traits@_W@std@@@2@@Z
1DE30 42 __unwindfunclet$?ExpandEnvStrs@@YA?AV?$basic_string@_WU?$char_traits@_W@std@@V?$allocator@_W@2@@std@@V?$basic_string_view@_WU?$char_traits@_W@std@@@2@@Z$0
1DE38 42 __unwindfunclet$?ExpandEnvStrs@@YA?AV?$basic_string@_WU?$char_traits@_W@std@@V?$allocator@_W@2@@std@@V?$basic_string_view@_WU?$char_traits@_W@std@@@2@@Z$1
1DE48 42 __ehhandler$?ExpandEnvStrs@@YA?AV?$basic_string@_WU?$char_traits@_W@std@@V?$allocator@_W@2@@std@@V?$basic_string_view@_WU?$char_traits@_W@std@@@2@@Z
1DE80 42 __unwindfunclet$?search_path@@YA?AV?$basic_string@_WU?$char_traits@_W@std@@V?$allocator@_W@2@@std@@ABV12@0@Z$0
1DE8D 42 __ehhandler$?search_path@@YA?AV?$basic_string@_WU?$char_traits@_W@std@@V?$allocator@_W@2@@std@@ABV12@0@Z
1DEC0 42 __unwindfunclet$?FindListFile@@YA?AV?$basic_string@_WU?$char_traits@_W@std@@V?$allocator@_W@2@@std@@ABV12@@Z$0
1DECB 42 __unwindfunclet$?FindListFile@@YA?AV?$basic_string@_WU?$char_traits@_W@std@@V?$allocator@_W@2@@std@@ABV12@@Z$1
1DED3 42 __unwindfunclet$?FindListFile@@YA?AV?$basic_string@_WU?$char_traits@_W@std@@V?$allocator@_W@2@@std@@ABV12@@Z$3
1DEDB 42 __unwindfunclet$?FindListFile@@YA?AV?$basic_string@_WU?$char_traits@_W@std@@V?$allocator@_W@2@@std@@ABV12@@Z$6
1DEE6 42 __unwindfunclet$?FindListFile@@YA?AV?$basic_string@_WU?$char_traits@_W@std@@V?$allocator@_W@2@@std@@ABV12@@Z$7
1DEF3 42 __ehhandler$?FindListFile@@YA?AV?$basic_string@_WU?$char_traits@_W@std@@V?$allocator@_W@2@@std@@ABV12@@Z
1DF20 42 __ehhandler$?isDevice@@YA_NV?$basic_string_view@_WU?$char_traits@_W@std@@@std@@0@Z
1DF40 42 __unwindfunclet$?GetFileInfoAndValidate@@YA_NV?$basic_string_view@_WU?$char_traits@_W@std@@@std@@AAUPluginPanelItem@@AAV?$basic_string@_WU?$char_traits@_W@std@@V?$allocator@_W@2@@2@_N@Z$0
1DF48 42 __unwindfunclet$?GetFileInfoAndValidate@@YA_NV?$basic_string_view@_WU?$char_traits@_W@std@@@std@@AAUPluginPanelItem@@AAV?$basic_string@_WU?$char_traits@_W@std@@V?$allocator@_W@2@@2@_N@Z$1
1DF50 42 __unwindfunclet$?GetFileInfoAndValidate@@YA_NV?$basic_string_view@_WU?$char_traits@_W@std@@@std@@AAUPluginPanelItem@@AAV?$basic_string@_WU?$char_traits@_W@std@@V?$allocator@_W@2@@2@_N@Z$2
1DF58 42 __unwindfunclet$?GetFileInfoAndValidate@@YA_NV?$basic_string_view@_WU?$char_traits@_W@std@@@std@@AAUPluginPanelItem@@AAV?$basic_string@_WU?$char_traits@_W@std@@V?$allocator@_W@2@@2@_N@Z$3
1DF68 42 __ehhandler$?GetFileInfoAndValidate@@YA_NV?$basic_string_view@_WU?$char_traits@_W@std@@@std@@AAUPluginPanelItem@@AAV?$basic_string@_WU?$char_traits@_W@std@@V?$allocator@_W@2@@2@_N@Z
1DFA0 42 __unwindfunclet$??0?$null_terminated_t@_W@@QAE@V?$basic_string_view@_WU?$char_traits@_W@std@@@std@@@Z$0
1DFAD 42 __ehhandler$??0?$null_terminated_t@_W@@QAE@V?$basic_string_view@_WU?$char_traits@_W@std@@@std@@@Z
1DFCA 172 __ehhandler$?CallUnexpected@@YAXPBU_s_ESTypeList@@@Z
1DFE7 78 __ehhandler$?common_exit@@YAXHW4_crt_exit_cleanup_mode@@W4_crt_exit_return_mode@@@Z
1E004 78 __ehhandler$?try_cor_exit_process@@YAXI@Z
1E021 75 __ehhandler$___dcrt_uninitialize_environments_nolock
1E03E 136 __ehhandler$__execute_onexit_table
1E05B 165 __ehhandler$?write_double_translated_ansi_nolock@@YA?AUwrite_result@?A0x17268360@@HQBDIAAV__crt_cached_ptd_host@@@Z
1E090 44 ??__FOpt@@YAXXZ
1F000 46 __imp__IsTextUnicode@12
1F004 46 \177ADVAPI32_NULL_THUNK_DATA
1F008 48 __imp__MapViewOfFile@20
1F00C 48 __imp__MultiByteToWideChar@24
1F010 48 __imp__UnmapViewOfFile@4
1F014 48 __imp__CloseHandle@4
1F018 48 __imp__CreateFileW@28
1F01C 48 __imp__CreateFileMappingW@24
1F020 48 __imp__GetFileSize@8
1F024 48 __imp__SetConsoleTitleW@4
1F028 48 __imp__GetStdHandle@4
1F02C 48 __imp__CreateProcessW@40
1F030 48 __imp__WaitForSingleObject@8
1F034 48 __imp__DeleteFileW@4
1F038 48 __imp__lstrlenW@4
1F03C 48 __imp__lstrcpynW@12
1F040 48 __imp__lstrcmpW@8
1F044 48 __imp__FindClose@4
1F048 48 __imp__FindFirstFileW@8
1F04C 48 __imp__FindNextFileW@8
1F050 48 __imp__WriteFile@20
1F054 48 __imp__GetLastError@0
1F058 48 __imp__ExpandEnvironmentStringsW@12
1F05C 48 __imp__SearchPathW@24
1F060 48 __imp__GetFileAttributesW@4
1F064 48 __imp__GetFileTime@16
1F068 48 __imp__CompareStringW@24
1F06C 48 __imp__TlsSetValue@8
1F070 48 __imp__SetLastError@4
1F074 48 __imp__GetModuleFileNameW@12
1F078 48 __imp__InitializeCriticalSection@4
1F07C 48 __imp__GetCurrentThread@0
1F080 48 __imp__TlsAlloc@0
1F084 48 __imp__LoadLibraryW@4
1F088 48 __imp__GetProcAddress@8
1F08C 48 __imp__LCMapStringW@24
1F090 48 __imp__GetModuleHandleW@4
1F094 48 __imp__TlsGetValue@4
1F098 48 __imp__GetThreadTimes@20
1F09C 48 __imp__TlsFree@4
1F0A0 48 __imp__VirtualQuery@12
1F0A4 48 __imp__WideCharToMultiByte@32
1F0A8 48 __imp__GetConsoleWindow@0
1F0AC 48 __imp__SetFilePointerEx@20
1F0B0 48 __imp__GetConsoleMode@8
1F0B4 48 __imp__IsProcessorFeaturePresent@4
1F0B8 48 __imp__UnhandledExceptionFilter@4
1F0BC 48 __imp__SetUnhandledExceptionFilter@4
1F0C0 48 __imp__GetCurrentProcess@0
1F0C4 48 __imp__TerminateProcess@8
1F0C8 48 __imp__IsDebuggerPresent@0
1F0CC 48 __imp__GetStartupInfoW@4
1F0D0 48 __imp__QueryPerformanceCounter@4
1F0D4 48 __imp__GetCurrentProcessId@0
1F0D8 48 __imp__GetCurrentThreadId@0
1F0DC 48 __imp__GetSystemTimeAsFileTime@4
1F0E0 48 __imp__RtlUnwind@16
1F0E4 48 __imp__RaiseException@16
1F0E8 48 __imp__EnterCriticalSection@4
1F0EC 48 __imp__LeaveCriticalSection@4
1F0F0 48 __imp__DeleteCriticalSection@4
1F0F4 48 __imp__InitializeCriticalSectionAndSpinCount@8
1F0F8 48 __imp__FreeLibrary@4
1F0FC 48 __imp__LoadLibraryExW@12
1F100 48 __imp__ExitProcess@4
1F104 48 __imp__HeapFree@12
1F108 48 __imp__HeapAlloc@12
1F10C 48 __imp__FindFirstFileExW@24
1F110 48 __imp__IsValidCodePage@4
1F114 48 __imp__GetACP@0
1F118 48 __imp__GetOEMCP@0
1F11C 48 __imp__GetCPInfo@8
1F120 48 __imp__GetCommandLineA@0
1F124 48 __imp__GetCommandLineW@0
1F128 48 __imp__GetEnvironmentStringsW@0
1F12C 48 __imp__FreeEnvironmentStringsW@4
1F130 48 __imp__GetProcessHeap@0
1F134 48 __imp__GetFileType@4
1F138 48 __imp__GetStringTypeW@16
1F13C 48 __imp__HeapSize@12
1F140 48 __imp__HeapReAlloc@16
1F144 48 __imp__SetStdHandle@8
1F148 48 __imp__FlushFileBuffers@4
1F14C 48 __imp__GetConsoleOutputCP@0
1F150 48 __imp__WriteConsoleW@20
1F154 48 \177KERNEL32_NULL_THUNK_DATA
1F158 189 __imp__ShellExecuteW@24
1F15C 189 \177SHELL32_NULL_THUNK_DATA
1F160 190 __imp__GetWindowTextLengthW@4
1F164 190 __imp__GetWindowTextW@12
1F168 190 \177USER32_NULL_THUNK_DATA
1F16C 24 ___guard_check_icall_fptr
1F170 24 ___castguard_check_failure_os_handled_fptr
1F174 25 ___xc_a
1F178 44 ?Opt$initializer$@@3P6AXXZA
1F17C 25 ___xc_z
1F180 25 ___xi_a
1F184 131 ___acrt_multibyte_initializer
1F188 151 ___acrt_stdio_initializer
1F18C 150 ___acrt_tran_sse2_initializer
1F190 25 ___xi_z
1F194 25 ___xp_a
1F198 112 ___acrt_locale_terminator
1F19C 73 ___dcrt_console_output_terminator
1F1A0 151 ___acrt_stdio_terminator
1F1A4 25 ___xp_z
1F1A8 25 ___xt_a
1F1AC 25 ___xt_z
1F1C0 191 __imp__EncodePointer@4
1F1C8 191 __imp__DecodePointer@4
1F1D0 191 __imp__GetModuleHandleExW@12
1F1D8 191 __imp__InitializeSListHead@4
1F1E0 191 __imp__InterlockedFlushSList@4
1F1E8 191 __imp__InterlockedPushEntrySList@8
1F1F0 191 __imp__GetNumaHighestNodeNumber@4
1F1F8 191 __imp__GetLogicalProcessorInformation@8
1F200 191 __imp__SetThreadStackGuarantee@4
1F208 191 __imp__FlsAlloc@4
1F210 191 __imp__FlsGetValue@4
1F218 191 __imp__FlsSetValue@8
1F220 191 __imp__FlsFree@4
1F228 191 __imp__InitializeCriticalSectionEx@12
1F230 191 __imp__CompareStringEx@36
1F238 191 __imp__LCMapStringEx@36
1F240 191 __imp__AcquireSRWLockExclusive@4
1F248 191 __imp__ReleaseSRWLockExclusive@4
1F250 191 __imp__SleepConditionVariableSRW@16
1F258 191 __imp__WakeAllConditionVariable@4
1F260 191 __imp__TryAcquireSRWLockExclusive@4
1F268 191 __imp__InitializeSRWLock@4
1F274 50 ??_7exception@std@@6B@
1F280 50 ??_7bad_alloc@std@@6B@
1F288 50 ??_C@_0P@GHFPNOJB@bad?5allocation@
1F29C 50 ??_7logic_error@std@@6B@
1F2A8 50 ??_7length_error@std@@6B@
1F2B4 50 ??_7out_of_range@std@@6B@
1F2C0 49 ?_Tail_masks@?1??_Avx2_tail_mask_32@?A0x8417fefe@@YA?AT__m256i@@I@Z@4QBIB
1F304 33 ??_7type_info@@6B@
1F308 13 __pDefaultRawDllMain
1F30C 22 _GS_ExceptionPointers
1F318 34 ??_7bad_array_new_length@std@@6B@
1F320 168 __pDestructExceptionObject
1F330 187 __xmm@00000000000000000000000000000000
1F344 172 ??_7bad_exception@std@@6B@
1F34C 172 ??_C@_0O@DPKOEFFH@bad?5exception@
1F360 185 ?tokenTable@@3QBUStringLiteral@@B
1F3E8 185 ?nameTable@@3QBUStringLiteral@@B
1F680 185 ?rttiTable@@3QBUStringLiteral@@B
1F6A8 185 ?IndirectionName@@3QBUStringLiteral@@B
1F6D8 185 ?PrefixName@@3QBUStringLiteral@@B
1F6E8 185 ??_C@_08EHJDFFNH@__based?$CI@
1F6F4 185 ??_C@_07KOLFKCDI@__cdecl@
1F6FC 185 ??_C@_08GHMPAG@__pascal@
1F708 185 ??_C@_09IFJBGAPI@__stdcall@
1F714 185 ??_C@_0L@NPHFGOKO@__thiscall@
1F720 185 ??_C@_0L@JMKHOMEK@__fastcall@
1F72C 185 ??_C@_0N@BCKKPABJ@__vectorcall@
1F73C 185 ??_C@_09HIJEGCPM@__clrcall@
1F748 185 ??_C@_06GHPCKEAG@__eabi@
1F750 185 ??_C@_09IOPIDJLG@__swift_1@
1F75C 185 ??_C@_09KFNFGKHF@__swift_2@
1F768 185 ??_C@_09LMMOFLDE@__swift_3@
1F774 185 ??_C@_07JOMMBBKO@__ptr64@
1F77C 185 ??_C@_0L@PILCLIHE@__restrict@
1F788 185 ??_C@_0M@GFIIJFMG@__unaligned@
1F794 185 ??_C@_09DHDLOLLB@restrict?$CI@
1F79E 185 ??_C@_00CNPNBAHC@@
1F7A0 185 ??_C@_04NIHEBCM@?5new@
1F7A8 185 ??_C@_07FPCDHGMM@?5delete@
1F7B0 185 ??_C@_01NEMOKFLO@?$DN@
1F7B4 185 ??_C@_02GPIOPFAK@?$DO?$DO@
1F7B8 185 ??_C@_02FODMEDOG@?$DM?$DM@
1F7BC 185 ??_C@_01DCLJPIOD@?$CB@
1F7C0 185 ??_C@_02EGOFBIJA@?$DN?$DN@
1F7C4 185 ??_C@_02FDNJECIE@?$CB?$DN@
1F7C8 185 ??_C@_02GPECMEKF@?$FL?$FN@
1F7CC 185 ??_C@_08LHJFAFGD@operator@
1F7D8 185 ??_C@_02HBOOOICD@?9?$DO@
1F7DC 185 ??_C@_01NBENCBCI@?$CK@
1F7E0 185 ??_C@_02ECNGHCIF@?$CL?$CL@
1F7E4 185 ??_C@_02BAABKJLB@?9?9@
1F7E8 185 ??_C@_01JOAMLHOP@?9@
1F7EC 185 ??_C@_01MIFGBAGJ@?$CL@
1F7F0 185 ??_C@_01HNPIGOCE@?$CG@
1F7F4 185 ??_C@_03MNHNFDLC@?9?$DO?$CK@
1F7F8 185 ??_C@_01KMDKNFGN@?1@
1F7FC 185 ??_C@_01FGNFDNOH@?$CF@
1F800 185 ??_C@_01MNNFJEPP@?$DM@
1F804 185 ??_C@_02EHCHHCKH@?$DM?$DN@
1F808 185 ??_C@_01PPODPGHN@?$DO@
1F80C 185 ??_C@_02EEKDKGMJ@?$DO?$DN@
1F810 185 ??_C@_01IHBHIGKO@?0@
1F814 185 ??_C@_02HCKGKOFO@?$CI?$CJ@
1F818 185 ??_C@_01PJKLJHI@?$HO@
1F81C 185 ??_C@_01JKBOJNNK@?$FO@
1F820 185 ??_C@_01DNKMNLPK@?$HM@
1F824 185 ??_C@_02PPKAJPJL@?$CG?$CG@
1F828 185 ??_C@_02NONPIBCD@?$HM?$HM@
1F82C 185 ??_C@_02FPIMKNGF@?$CK?$DN@
1F830 185 ??_C@_02FOEOMHFC@?$CL?$DN@
1F834 185 ??_C@_02FKMDLLOA@?9?$DN@
1F838 185 ??_C@_02FJEHGPIO@?1?$DN@
1F83C 185 ??_C@_02FENAOKFI@?$CF?$DN@
1F840 185 ??_C@_03IKFCCPFF@?$DO?$DO?$DN@
1F844 185 ??_C@_03CDNPDDLA@?$DM?$DM?$DN@
1F848 185 ??_C@_02FGJGFEAB@?$CG?$DN@
1F84C 185 ??_C@_02DHLNPPGH@?$HM?$DN@
1F850 185 ??_C@_02MHEGNOJ@?$FO?$DN@
1F854 185 ??_C@_09IFPLHPGF@?$GAvftable?8@
1F860 185 ??_C@_09BLBHBJP@?$GAvbtable?8@
1F86C 185 ??_C@_07FEEIOKP@?$GAvcall?8@
1F874 185 ??_C@_08LLFFHHDJ@?$GAtypeof?8@
1F880 185 ??_C@_0BF@KDPPACIK@?$GAlocal?5static?5guard?8@
1F898 185 ??_C@_08OBABFOLI@?$GAstring?8@
1F8A4 185 ??_C@_0BD@JDLKDPAB@?$GAvbase?5destructor?8@
1F8B8 185 ??_C@_0BN@DEGPLNFK@?$GAvector?5deleting?5destructor?8@
1F8D8 185 ??_C@_0BO@OBMKPJIG@?$GAdefault?5constructor?5closure?8@
1F8F8 185 ??_C@_0BN@IMDCHIKM@?$GAscalar?5deleting?5destructor?8@
1F918 185 ??_C@_0BO@PFGOCPJJ@?$GAvector?5constructor?5iterator?8@
1F938 185 ??_C@_0BN@LFPFMEDL@?$GAvector?5destructor?5iterator?8@
1F958 185 ??_C@_0CE@IKBNEHA@?$GAvector?5vbase?5constructor?5itera@
1F97C 185 ??_C@_0BL@NILFHHPC@?$GAvirtual?5displacement?5map?8@
1F998 185 ??_C@_0CB@JONCMFFK@?$GAeh?5vector?5constructor?5iterator@
1F9BC 185 ??_C@_0CA@GCEOPDGL@?$GAeh?5vector?5destructor?5iterator?8@
1F9DC 185 ??_C@_0CH@OOJPLCPH@?$GAeh?5vector?5vbase?5constructor?5it@
1FA04 185 ??_C@_0BL@LLKPOHJI@?$GAcopy?5constructor?5closure?8@
1FA20 185 ??_C@_0BA@KBCDOMBN@?$GAudt?5returning?8@
1FA30 185 ??_C@_03KLGMFNMG@?$GAEH@
1FA34 185 ??_C@_05KHLCHHI@?$GARTTI@
1FA3C 185 ??_C@_0BA@KKLDJDLB@?$GAlocal?5vftable?8@
1FA4C 185 ??_C@_0CE@IIHCMGGL@?$GAlocal?5vftable?5constructor?5clos@
1FA70 185 ??_C@_06FHBGPFGH@?5new?$FL?$FN@
1FA78 185 ??_C@_09LBNFPBCA@?5delete?$FL?$FN@
1FA84 185 ??_C@_0P@HJKNJFNN@?$GAomni?5callsig?8@
1FA94 185 ??_C@_0BL@CNOONJFP@?$GAplacement?5delete?5closure?8@
1FAB0 185 ??_C@_0BN@CKNJLHMB@?$GAplacement?5delete?$FL?$FN?5closure?8@
1FAD0 185 ??_C@_0CG@CFDHKGGD@?$GAmanaged?5vector?5constructor?5ite@
1FAF8 185 ??_C@_0CF@IMGKMJNO@?$GAmanaged?5vector?5destructor?5iter@
1FB20 185 ??_C@_0CG@HLDDJMAG@?$GAeh?5vector?5copy?5constructor?5ite@
1FB48 185 ??_C@_0CM@FCBBDIGB@?$GAeh?5vector?5vbase?5copy?5construct@
1FB74 185 ??_C@_0BL@CLIPGLGB@?$GAdynamic?5initializer?5for?5?8@
1FB90 185 ??_C@_0CB@PDBIFEP@?$GAdynamic?5atexit?5destructor?5for?5@
1FBB4 185 ??_C@_0CD@CGAJBKEJ@?$GAvector?5copy?5constructor?5iterat@
1FBD8 185 ??_C@_0CJ@GJELGAMM@?$GAvector?5vbase?5copy?5constructor?5@
1FC04 185 ??_C@_0CL@FGIJHLCE@?$GAmanaged?5vector?5copy?5constructo@
1FC30 185 ??_C@_0BM@PMGGMLDN@?$GAlocal?5static?5thread?5guard?8@
1FC4C 185 ??_C@_0N@BDNMDMOL@operator?5?$CC?$CC?5@
1FC5C 185 ??_C@_0BC@GGEBGALA@operator?5co_await@
1FC70 185 ??_C@_0M@GAAIMMOH@operator?$DM?$DN?$DO@
1FC7C 185 ??_C@_0BC@DAFEJGAK@?5Type?5Descriptor?8@
1FC90 185 ??_C@_0BM@LDKODKLH@?5Base?5Class?5Descriptor?5at?5?$CI@
1FCAC 185 ??_C@_0BD@LGICGFMM@?5Base?5Class?5Array?8@
1FCC0 185 ??_C@_0BN@MECKDCOJ@?5Class?5Hierarchy?5Descriptor?8@
1FCE0 185 ??_C@_0BK@CFCOFLF@?5Complete?5Object?5Locator?8@
1FCFC 185 ??_C@_0BG@JNJLAMPM@?$GAanonymous?5namespace?8@
1FD14 188 ?module_names@?A0x14174aea@@3QBQB_WB
1FD20 188 ??_C@_1DM@KHCHBNEB@?$AAa?$AAp?$AAi?$AA?9?$AAm?$AAs?$AA?9?$AAw?$AAi?$AAn?$AA?9?$AAc?$AAo?$AAr?$AAe@
1FD5C 188 ??_C@_1DK@LPPGFMPP@?$AAa?$AAp?$AAi?$AA?9?$AAm?$AAs?$AA?9?$AAw?$AAi?$AAn?$AA?9?$AAc?$AAo?$AAr?$AAe@
1FD98 188 ??_C@_1BC@GDMECMAK@?$AAk?$AAe?$AAr?$AAn?$AAe?$AAl?$AA3?$AA2@
1FDAC 188 ??_C@_1BA@PFFKHIOG@?$AAa?$AAp?$AAi?$AA?9?$AAm?$AAs?$AA?9@
1FDBC 188 ?candidate_modules@?1??try_get_FlsAlloc@@YAP6GKP6GXPAX@Z@ZXZ@4QBW4module_id@?A0x14174aea@@B
1FDC4 188 ??_C@_08KNHFBNJ@FlsAlloc@
1FDD0 188 ?candidate_modules@?1??try_get_FlsFree@@YAP6GHK@ZXZ@4QBW4module_id@?A0x14174aea@@B
1FDD8 188 ??_C@_07PEJMOBNF@FlsFree@
1FDE0 188 ?candidate_modules@?1??try_get_FlsGetValue@@YAP6GPAXK@ZXZ@4QBW4module_id@?A0x14174aea@@B
1FDE8 188 ??_C@_0M@GDNOONDI@FlsGetValue@
1FDF4 188 ?candidate_modules@?1??try_get_FlsSetValue@@YAP6GHKPAX@ZXZ@4QBW4module_id@?A0x14174aea@@B
1FDFC 188 ??_C@_0M@JCPCPOEF@FlsSetValue@
1FE08 188 ?candidate_modules@?1??try_get_InitializeCriticalSectionEx@@YAP6GHPAU_RTL_CRITICAL_SECTION@@KK@ZXZ@4QBW4module_id@?A0x14174aea@@B
1FE10 188 ??_C@_0BM@HCFOFFN@InitializeCriticalSectionEx@
1FE30 77 ___acrt_exception_action_table
1FEC0 77 ___acrt_signal_action_table_count
1FEC4 77 ___acrt_signal_action_first_fpe_index
1FEC8 77 ___acrt_signal_action_fpe_count
1FECC 78 ??_C@_1BI@BGOHAHKC@?$AAm?$AAs?$AAc?$AAo?$AAr?$AAe?$AAe?$AA?4?$AAd?$AAl?$AAl@
1FEE4 78 ??_C@_0P@MIGLKIOC@CorExitProcess@
1FEF8 99 ___acrt_initializers
1FF78 135 ___lc_time_c
200DC 135 ??_C@_03KOEHGMDN@Sun@
200E0 135 ??_C@_03PDAGKDH@Mon@
200E4 135 ??_C@_03NAGEINEP@Tue@
200E8 135 ??_C@_03MHOMLAJA@Wed@
200EC 135 ??_C@_03IOFIKPDN@Thu@
200F0 135 ??_C@_03IDIOELNC@Fri@
200F4 135 ??_C@_03FEFJNEK@Sat@
200F8 135 ??_C@_06OOPIFAJ@Sunday@
20100 135 ??_C@_06JLEDEDGH@Monday@
20108 135 ??_C@_07BAAGCFCM@Tuesday@
20110 135 ??_C@_09DLIGFAKA@Wednesday@
2011C 135 ??_C@_08HACCIKIA@Thursday@
20128 135 ??_C@_06JECMNKMI@Friday@
20130 135 ??_C@_08INBOOONO@Saturday@
2013C 135 ??_C@_03JIHJHPIE@Jan@
20140 135 ??_C@_03HJBDCHOM@Feb@
20144 135 ??_C@_03ODNJBKGA@Mar@
20148 135 ??_C@_03LEOLGMJP@Apr@
2014C 135 ??_C@_03CNMDKL@May@
20150 135 ??_C@_03IDFGHECI@Jun@
20154 135 ??_C@_03LBGABGKK@Jul@
20158 135 ??_C@_03IFJFEIGA@Aug@
2015C 135 ??_C@_03GGCAPAJC@Sep@
20160 135 ??_C@_03BMAOKBAD@Oct@
20164 135 ??_C@_03JPJOFNIA@Nov@
20168 135 ??_C@_03MKABNOCG@Dec@
2016C 135 ??_C@_07CGJPFGJA@January@
20174 135 ??_C@_08GNJGEPFN@February@
20180 135 ??_C@_05HPCKOFNC@March@
20188 135 ??_C@_05DMJDNLEJ@April@
20190 135 ??_C@_04CNLMGBGM@June@
20198 135 ??_C@_04MIEPOIFP@July@
201A0 135 ??_C@_06LBBHFDDG@August@
201A8 135 ??_C@_09BHHEALKD@September@
201B4 135 ??_C@_07JJNFCEND@October@
201BC 135 ??_C@_08HCHEGEOA@November@
201C8 135 ??_C@_08EDHMEBNP@December@
201D4 135 ??_C@_02DEDBPAFC@AM@
201D8 135 ??_C@_02CJNFDJBF@PM@
201DC 135 ??_C@_08BPBNCDIB@MM?1dd?1yy@
201E8 135 ??_C@_0BE@CKGJFCPC@dddd?0?5MMMM?5dd?0?5yyyy@
201FC 135 ??_C@_08JCCMCCIL@HH?3mm?3ss@
20208 135 ??_C@_17MBGCMIPB@?$AAS?$AAu?$AAn@
20210 135 ??_C@_17KBOMKBF@?$AAM?$AAo?$AAn@
20218 135 ??_C@_17BMKGEGOJ@?$AAT?$AAu?$AAe@
20220 135 ??_C@_17CJEDCEPE@?$AAW?$AAe?$AAd@
20228 135 ??_C@_17PDPHAADD@?$AAT?$AAh?$AAu@
20230 135 ??_C@_17HFOLPPLP@?$AAF?$AAr?$AAi@
20238 135 ??_C@_17GGIBDPIH@?$AAS?$AAa?$AAt@
20240 135 ??_C@_1O@IHNHDHPB@?$AAS?$AAu?$AAn?$AAd?$AAa?$AAy@
20250 135 ??_C@_1O@MMNBFLIA@?$AAM?$AAo?$AAn?$AAd?$AAa?$AAy@
20260 135 ??_C@_1BA@ENFBFFEK@?$AAT?$AAu?$AAe?$AAs?$AAd?$AAa?$AAy@
20270 135 ??_C@_1BE@EBOGMDOH@?$AAW?$AAe?$AAd?$AAn?$AAe?$AAs?$AAd?$AAa?$AAy@
20284 135 ??_C@_1BC@HHMNLIHE@?$AAT?$AAh?$AAu?$AAr?$AAs?$AAd?$AAa?$AAy@
20298 135 ??_C@_1O@PDICJHAG@?$AAF?$AAr?$AAi?$AAd?$AAa?$AAy@
202A8 135 ??_C@_1BC@ENMNNPAJ@?$AAS?$AAa?$AAt?$AAu?$AAr?$AAd?$AAa?$AAy@
202BC 135 ??_C@_17DKNBKCHM@?$AAJ?$AAa?$AAn@
202C4 135 ??_C@_17LMDJEKJN@?$AAF?$AAe?$AAb@
202CC 135 ??_C@_17CKNLEDEC@?$AAM?$AAa?$AAr@
202D4 135 ??_C@_17LFPOIHDD@?$AAA?$AAp?$AAr@
202DC 135 ??_C@_17PNNKMEED@?$AAM?$AAa?$AAy@
202E4 135 ??_C@_17KCJGOCPB@?$AAJ?$AAu?$AAn@
202EC 135 ??_C@_17IJPCKHK@?$AAJ?$AAu?$AAl@
202F4 135 ??_C@_17ICPELBCN@?$AAA?$AAu?$AAg@
202FC 135 ??_C@_17HCHCOKMG@?$AAS?$AAe?$AAp@
20304 135 ??_C@_17FNLKOI@?$AAO?$AAc?$AAt@
2030C 135 ??_C@_17BBDMLCIG@?$AAN?$AAo?$AAv@
20314 135 ??_C@_17EGKACKIF@?$AAD?$AAe?$AAc@
2031C 135 ??_C@_1BA@EFMEIEBA@?$AAJ?$AAa?$AAn?$AAu?$AAa?$AAr?$AAy@
2032C 135 ??_C@_1BC@JGDDFFAM@?$AAF?$AAe?$AAb?$AAr?$AAu?$AAa?$AAr?$AAy@
20340 135 ??_C@_1M@IKEENEDF@?$AAM?$AAa?$AAr?$AAc?$AAh@
2034C 135 ??_C@_1M@GJNLMHFD@?$AAA?$AAp?$AAr?$AAi?$AAl@
20358 135 ??_C@_19EPFLPGAP@?$AAJ?$AAu?$AAn?$AAe@
20364 135 ??_C@_19BIFMLPCD@?$AAJ?$AAu?$AAl?$AAy@
20370 135 ??_C@_1O@PAHLKOAC@?$AAA?$AAu?$AAg?$AAu?$AAs?$AAt@
20380 135 ??_C@_1BE@DKAAMBJL@?$AAS?$AAe?$AAp?$AAt?$AAe?$AAm?$AAb?$AAe?$AAr@
20394 135 ??_C@_1BA@EPANDLNG@?$AAO?$AAc?$AAt?$AAo?$AAb?$AAe?$AAr@
203A4 135 ??_C@_1BC@BGLIFPF@?$AAN?$AAo?$AAv?$AAe?$AAm?$AAb?$AAe?$AAr@
203B8 135 ??_C@_1BC@FEMKIFH@?$AAD?$AAe?$AAc?$AAe?$AAm?$AAb?$AAe?$AAr@
203CC 135 ??_C@_15ODEHAHHF@?$AAA?$AAM@
203D4 135 ??_C@_15CLMNNGEL@?$AAP?$AAM@
203DC 135 ??_C@_1BC@IEBCMHCM@?$AAM?$AAM?$AA?1?$AAd?$AAd?$AA?1?$AAy?$AAy@
203F0 135 ??_C@_1CI@KNAKOEBC@?$AAd?$AAd?$AAd?$AAd?$AA?0?$AA?5?$AAM?$AAM?$AAM?$AAM?$AA?5?$AAd?$AAd?$AA?0?$AA?5@
20418 135 ??_C@_1BC@GDGBMEMK@?$AAH?$AAH?$AA?3?$AAm?$AAm?$AA?3?$AAs?$AAs@
2042C 135 ??_C@_1M@BMHNFIME@?$AAe?$AAn?$AA?9?$AAU?$AAS@
20438 76 ?errtable@@3QBUerrentry@?A0x31fdb9ec@@B
205A0 125 ?_mb_locale_names@@3QBQB_WB
205B0 125 ??_C@_1M@HPNHIDJI@?$AAj?$AAa?$AA?9?$AAJ?$AAP@
205BC 125 ??_C@_1M@BIBDDEMK@?$AAz?$AAh?$AA?9?$AAC?$AAN@
205C8 125 ??_C@_1M@JLOOOEGK@?$AAk?$AAo?$AA?9?$AAK?$AAR@
205D4 125 ??_C@_1M@CLNBBOPM@?$AAz?$AAh?$AA?9?$AAT?$AAW@
205E0 164 ?module_names@?A0x391cf84c@@3QBQB_WB
20638 164 ??_C@_1EA@JGEFHKEI@?$AAa?$AAp?$AAi?$AA?9?$AAm?$AAs?$AA?9?$AAw?$AAi?$AAn?$AA?9?$AAc?$AAo?$AAr?$AAe@
20678 164 ??_C@_1DI@KMEPCBPN@?$AAa?$AAp?$AAi?$AA?9?$AAm?$AAs?$AA?9?$AAw?$AAi?$AAn?$AA?9?$AAc?$AAo?$AAr?$AAe@
206B0 164 ??_C@_1DI@IJCEHOCB@?$AAa?$AAp?$AAi?$AA?9?$AAm?$AAs?$AA?9?$AAw?$AAi?$AAn?$AA?9?$AAc?$AAo?$AAr?$AAe@
206E8 164 ??_C@_1EI@MPIAOHOC@?$AAa?$AAp?$AAi?$AA?9?$AAm?$AAs?$AA?9?$AAw?$AAi?$AAn?$AA?9?$AAc?$AAo?$AAr?$AAe@
20730 164 ??_C@_1FK@FPHCKFIE@?$AAa?$AAp?$AAi?$AA?9?$AAm?$AAs?$AA?9?$AAw?$AAi?$AAn?$AA?9?$AAc?$AAo?$AAr?$AAe@
20790 164 ??_C@_1EM@DILCGIIO@?$AAa?$AAp?$AAi?$AA?9?$AAm?$AAs?$AA?9?$AAw?$AAi?$AAn?$AA?9?$AAc?$AAo?$AAr?$AAe@
207DC 164 ??_C@_1DM@LNCGDDPN@?$AAa?$AAp?$AAi?$AA?9?$AAm?$AAs?$AA?9?$AAw?$AAi?$AAn?$AA?9?$AAc?$AAo?$AAr?$AAe@
20818 164 ??_C@_1DO@FPAPJEMD@?$AAa?$AAp?$AAi?$AA?9?$AAm?$AAs?$AA?9?$AAw?$AAi?$AAn?$AA?9?$AAc?$AAo?$AAr?$AAe@
20858 164 ??_C@_1DK@NDHNAHIO@?$AAa?$AAp?$AAi?$AA?9?$AAm?$AAs?$AA?9?$AAw?$AAi?$AAn?$AA?9?$AAc?$AAo?$AAr?$AAe@
20894 164 ??_C@_1DM@KGHDGBCM@?$AAa?$AAp?$AAi?$AA?9?$AAm?$AAs?$AA?9?$AAw?$AAi?$AAn?$AA?9?$AAc?$AAo?$AAr?$AAe@
208D0 164 ??_C@_1EO@IJIOEFOH@?$AAa?$AAp?$AAi?$AA?9?$AAm?$AAs?$AA?9?$AAw?$AAi?$AAn?$AA?9?$AAr?$AAt?$AAc?$AAo@
20920 164 ??_C@_1FG@HHGEKANL@?$AAa?$AAp?$AAi?$AA?9?$AAm?$AAs?$AA?9?$AAw?$AAi?$AAn?$AA?9?$AAs?$AAe?$AAc?$AAu@
20978 164 ??_C@_1EG@DBIOJECG@?$AAe?$AAx?$AAt?$AA?9?$AAm?$AAs?$AA?9?$AAw?$AAi?$AAn?$AA?9?$AAn?$AAt?$AAu?$AAs@
209C0 164 ??_C@_1EO@FIHMJCLF@?$AAe?$AAx?$AAt?$AA?9?$AAm?$AAs?$AA?9?$AAw?$AAi?$AAn?$AA?9?$AAn?$AAt?$AAu?$AAs@
20A10 164 ??_C@_1BC@DNHGCMLG@?$AAa?$AAd?$AAv?$AAa?$AAp?$AAi?$AA3?$AA2@
20A24 164 ??_C@_1BG@CJPGBMEF@?$AAk?$AAe?$AAr?$AAn?$AAe?$AAl?$AAb?$AAa?$AAs?$AAe@
20A3C 164 ??_C@_1M@OAIMIKLP@?$AAn?$AAt?$AAd?$AAl?$AAl@
20A48 164 ??_C@_1EG@DPGNFKGC@?$AAa?$AAp?$AAi?$AA?9?$AAm?$AAs?$AA?9?$AAw?$AAi?$AAn?$AA?9?$AAa?$AAp?$AAp?$AAm@
20A90 164 ??_C@_1O@BCCLBEOE@?$AAu?$AAs?$AAe?$AAr?$AA3?$AA2@
20AA0 164 ??_C@_1DM@BPJLHKCE@?$AAa?$AAp?$AAi?$AA?9?$AAm?$AAs?$AA?9?$AAw?$AAi?$AAn?$AA?9?$AAc?$AAo?$AAr?$AAe@
20ADC 164 ??_C@_1BA@IAIFMGEF@?$AAe?$AAx?$AAt?$AA?9?$AAm?$AAs?$AA?9@
20AEC 164 ?candidate_modules@?1??try_get_AreFileApisANSI@@YAP6GHXZXZ@4QBW4module_id@?A0x391cf84c@@B
20AF0 164 ??_C@_0BA@FHFNEAED@AreFileApisANSI@
20B00 164 ?candidate_modules@?1??try_get_InitializeCriticalSectionEx@@YAP6GHPAU_RTL_CRITICAL_SECTION@@KK@ZXZ@4QBW4module_id@?A0x391cf84c@@B
20B08 164 ?candidate_modules@?1??try_get_LCMapStringEx@@YAP6GHPB_WK0HPA_WHPAU_nlsversioninfo@@PAXJ@ZXZ@4QBW4module_id@?A0x391cf84c@@B
20B10 164 ??_C@_0O@KKBNKAPF@LCMapStringEx@
20B20 164 ?candidate_modules@?1??try_get_LocaleNameToLCID@@YAP6GKPB_WK@ZXZ@4QBW4module_id@?A0x391cf84c@@B
20B28 164 ??_C@_0BB@HBDEELFH@LocaleNameToLCID@
20B3C 164 ?candidate_modules@?1??try_get_AppPolicyGetProcessTerminationMethod@@YAP6GJPAXPAW4AppPolicyProcessTerminationMethod@@@ZXZ@4QBW4module_id@?A0x391cf84c@@B
20B40 164 ??_C@_0CF@OJOFEIGO@AppPolicyGetProcessTerminationM@
20B68 164 ?candidate_modules@?1??try_get_FlsAlloc@@YAP6GKP6GXPAX@Z@ZXZ@4QBW4module_id@?A0x391cf84c@@B
20B70 164 ?candidate_modules@?1??try_get_FlsFree@@YAP6GHK@ZXZ@4QBW4module_id@?A0x391cf84c@@B
20B78 164 ?candidate_modules@?1??try_get_FlsGetValue@@YAP6GPAXK@ZXZ@4QBW4module_id@?A0x391cf84c@@B
20B80 164 ?candidate_modules@?1??try_get_FlsSetValue@@YAP6GHKPAX@ZXZ@4QBW4module_id@?A0x391cf84c@@B
20B88 74 ___newctype
20E88 74 ___newclmap
21008 74 ___newcumap
21188 74 __wctype
2138C 91 ??_C@_15PJPFLCCM@?$AAu?$AAk@
21398 109 ?LcidToLocaleNameTable@?A0x881e4c05@@3QBULcidToLocaleName@1@B
21AB8 109 ??_C@_15EMKDOKLE@?$AAa?$AAr@
21AC0 109 ??_C@_15KNPADPLH@?$AAb?$AAg@
21AC8 109 ??_C@_15EDMHLDMO@?$AAc?$AAa@
21AD0 109 ??_C@_1O@BPEAJADD@?$AAz?$AAh?$AA?9?$AAC?$AAH?$AAS@
21AE0 109 ??_C@_15LJNHCMNK@?$AAc?$AAs@
21AE8 109 ??_C@_15FOMCIDHG@?$AAd?$AAa@
21AF0 109 ??_C@_15NBKABECB@?$AAd?$AAe@
21AF8 109 ??_C@_15GHPEIIAO@?$AAe?$AAl@
21B00 109 ??_C@_15MNPNEAIF@?$AAe?$AAn@
21B08 109 ??_C@_15GPIOMPMH@?$AAe?$AAs@
21B10 109 ??_C@_15NGLOAKJC@?$AAf?$AAi@
21B18 109 ??_C@_15FBKGNKAM@?$AAf?$AAr@
21B20 109 ??_C@_15KGGCNEFK@?$AAh?$AAe@
21B28 109 ??_C@_15PGHLIDMF@?$AAh?$AAu@
21B30 109 ??_C@_15BIEMAPLM@?$AAi?$AAs@
21B38 109 ??_C@_15IFJLDHAF@?$AAi?$AAt@
21B40 109 ??_C@_15GEMIOCAG@?$AAj?$AAa@
21B48 109 ??_C@_15EPELEGJA@?$AAk?$AAo@
21B50 109 ??_C@_15NDDHIMN@?$AAn?$AAl@
21B58 109 ??_C@_15BPIGNHCD@?$AAn?$AAo@
21B60 109 ??_C@_15DEOPBLCG@?$AAp?$AAl@
21B68 109 ??_C@_15KBECGEFG@?$AAp?$AAt@
21B70 109 ??_C@_15GLJCBFMD@?$AAr?$AAo@
21B78 109 ??_C@_15FEDGKCDI@?$AAr?$AAu@
21B80 109 ??_C@_15GLKMLLHM@?$AAh?$AAr@
21B88 109 ??_C@_15CPKMFBDB@?$AAs?$AAk@
21B90 109 ??_C@_15BAAIOGMK@?$AAs?$AAq@
21B98 109 ??_C@_15INNPNOHD@?$AAs?$AAv@
21BA0 109 ??_C@_15CABMMOGH@?$AAt?$AAh@
21BA8 109 ??_C@_15BPLIHJJM@?$AAt?$AAr@
21BB0 109 ??_C@_15NEOEKKDJ@?$AAu?$AAr@
21BB8 109 ??_C@_15NFICGAJK@?$AAi?$AAd@
21BC0 109 ??_C@_15HPJPHDM@?$AAb?$AAe@
21BC8 109 ??_C@_15LCHLGJII@?$AAs?$AAl@
21BD0 109 ??_C@_15PCFJPHHO@?$AAe?$AAt@
21BD8 109 ??_C@_15HPFPGODN@?$AAl?$AAv@
21BE0 109 ??_C@_15NFFGKGLG@?$AAl?$AAt@
21BE8 109 ??_C@_15BDAKCCHN@?$AAf?$AAa@
21BF0 109 ??_C@_15NFGIAIAJ@?$AAv?$AAi@
21BF8 109 ??_C@_15LMKNDMHN@?$AAh?$AAy@
21C00 109 ??_C@_15IJBHMCFL@?$AAa?$AAz@
21C08 109 ??_C@_15EKOFJABL@?$AAe?$AAu@
21C10 109 ??_C@_15BGHADCNK@?$AAm?$AAk@
21C18 109 ??_C@_15JDNICKHM@?$AAa?$AAf@
21C20 109 ??_C@_15KPJEDBKD@?$AAk?$AAa@
21C28 109 ??_C@_15PDNFFFEO@?$AAf?$AAo@
21C30 109 ??_C@_15OMLEGLOC@?$AAh?$AAi@
21C38 109 ??_C@_15IDNNENKK@?$AAm?$AAs@
21C40 109 ??_C@_15MACJNBMH@?$AAk?$AAk@
21C48 109 ??_C@_15DKDJEOND@?$AAk?$AAy@
21C50 109 ??_C@_15DFGDLJBG@?$AAs?$AAw@
21C58 109 ??_C@_15BBFAICNG@?$AAu?$AAz@
21C60 109 ??_C@_15DKNDCGEA@?$AAt?$AAt@
21C68 109 ??_C@_15MGIFMDPL@?$AAp?$AAa@
21C70 109 ??_C@_15HCNDBBA@?$AAg?$AAu@
21C78 109 ??_C@_15FNBEIBON@?$AAt?$AAa@
21C80 109 ??_C@_15NCHGBGLK@?$AAt?$AAe@
21C88 109 ??_C@_15PHPHCBPF@?$AAk?$AAn@
21C90 109 ??_C@_15DLGBCKMP@?$AAm?$AAr@
21C98 109 ??_C@_15EABBLBFF@?$AAs?$AAa@
21CA0 109 ??_C@_15CBKOMCOI@?$AAm?$AAn@
21CA8 109 ??_C@_15CKDMCJAF@?$AAg?$AAl@
21CB0 109 ??_C@_17CNJFBPG@?$AAk?$AAo?$AAk@
21CB8 109 ??_C@_17FFBJICPL@?$AAs?$AAy?$AAr@
21CC0 109 ??_C@_17KPNDCPAF@?$AAd?$AAi?$AAv@
21CC8 109 ??_C@_1M@OKAHONE@?$AAa?$AAr?$AA?9?$AAS?$AAA@
21CD4 109 ??_C@_1M@FFFIGIGK@?$AAb?$AAg?$AA?9?$AAB?$AAG@
21CE0 109 ??_C@_1M@BJNKEDC@?$AAc?$AAa?$AA?9?$AAE?$AAS@
21CEC 109 ??_C@_1M@IJJHFJHA@?$AAc?$AAs?$AA?9?$AAC?$AAZ@
21CF8 109 ??_C@_1M@CLPEOBGI@?$AAd?$AAa?$AA?9?$AAD?$AAK@
21D04 109 ??_C@_1M@MCMADGCB@?$AAd?$AAe?$AA?9?$AAD?$AAE@
21D10 109 ??_C@_1M@OOCKEMAM@?$AAe?$AAl?$AA?9?$AAG?$AAR@
21D1C 109 ??_C@_1M@DDNJFGID@?$AAf?$AAi?$AA?9?$AAF?$AAI@
21D28 109 ??_C@_1M@GLIPPMAC@?$AAf?$AAr?$AA?9?$AAF?$AAR@
21D34 109 ??_C@_1M@GFMCHPE@?$AAh?$AAe?$AA?9?$AAI?$AAL@
21D40 109 ??_C@_1M@MHLPGNKM@?$AAh?$AAu?$AA?9?$AAH?$AAU@
21D4C 109 ??_C@_1M@LPDDNNPN@?$AAi?$AAs?$AA?9?$AAI?$AAS@
21D58 109 ??_C@_1M@MADIPODN@?$AAi?$AAt?$AA?9?$AAI?$AAT@
21D64 109 ??_C@_1M@IHBJJGG@?$AAn?$AAl?$AA?9?$AAN?$AAL@
21D70 109 ??_C@_1M@EANAGDL@?$AAn?$AAb?$AA?9?$AAN?$AAO@
21D7C 109 ??_C@_1M@NEIEMEGP@?$AAp?$AAl?$AA?9?$AAP?$AAL@
21D88 109 ??_C@_1M@BOCFIGEP@?$AAp?$AAt?$AA?9?$AAB?$AAR@
21D94 109 ??_C@_1M@IMPFOPBG@?$AAr?$AAo?$AA?9?$AAR?$AAO@
21DA0 109 ??_C@_1M@IDNNEJMM@?$AAr?$AAu?$AA?9?$AAR?$AAU@
21DAC 109 ??_C@_1M@LILEEOGM@?$AAh?$AAr?$AA?9?$AAH?$AAR@
21DB8 109 ??_C@_1M@FKIFEHPB@?$AAs?$AAk?$AA?9?$AAS?$AAK@
21DC4 109 ??_C@_1M@LJMAMNPJ@?$AAs?$AAq?$AA?9?$AAA?$AAL@
21DD0 109 ??_C@_1M@GIAKDKJK@?$AAs?$AAv?$AA?9?$AAS?$AAE@
21DDC 109 ??_C@_1M@MKJKIKCL@?$AAt?$AAh?$AA?9?$AAT?$AAH@
21DE8 109 ??_C@_1M@MFLCCMPB@?$AAt?$AAr?$AA?9?$AAT?$AAR@
21DF4 109 ??_C@_1M@OIJHDKJN@?$AAu?$AAr?$AA?9?$AAP?$AAK@
21E00 109 ??_C@_1M@LHIPCIEK@?$AAi?$AAd?$AA?9?$AAI?$AAD@
21E0C 109 ??_C@_1M@MFMOBGI@?$AAu?$AAk?$AA?9?$AAU?$AAA@
21E18 109 ??_C@_1M@OBGLJIPL@?$AAb?$AAe?$AA?9?$AAB?$AAY@
21E24 109 ??_C@_1M@BCFAJEAD@?$AAs?$AAl?$AA?9?$AAS?$AAI@
21E30 109 ??_C@_1M@FKFFEDDN@?$AAe?$AAt?$AA?9?$AAE?$AAE@
21E3C 109 ??_C@_1M@KGKKAACI@?$AAl?$AAv?$AA?9?$AAL?$AAV@
21E48 109 ??_C@_1M@IFGBIJO@?$AAl?$AAt?$AA?9?$AAL?$AAT@
21E54 109 ??_C@_1M@FGEAHEDM@?$AAf?$AAa?$AA?9?$AAI?$AAR@
21E60 109 ??_C@_1M@KBMAIBFN@?$AAv?$AAi?$AA?9?$AAV?$AAN@
21E6C 109 ??_C@_1M@GPCBKDJK@?$AAh?$AAy?$AA?9?$AAA?$AAM@
21E78 109 ??_C@_1BG@BECMDDJB@?$AAa?$AAz?$AA?9?$AAA?$AAZ?$AA?9?$AAL?$AAa?$AAt?$AAn@
21E90 109 ??_C@_1M@MAOFCAEA@?$AAe?$AAu?$AA?9?$AAE?$AAS@
21E9C 109 ??_C@_1M@IGHABKPI@?$AAm?$AAk?$AA?9?$AAM?$AAK@
21EA8 109 ??_C@_1M@IAIGNEJG@?$AAt?$AAn?$AA?9?$AAZ?$AAA@
21EB4 109 ??_C@_1M@IIJCOJFA@?$AAx?$AAh?$AA?9?$AAZ?$AAA@
21EC0 109 ??_C@_1M@LGPJHNJH@?$AAz?$AAu?$AA?9?$AAZ?$AAA@
21ECC 109 ??_C@_1M@HOKAOIO@?$AAa?$AAf?$AA?9?$AAZ?$AAA@
21ED8 109 ??_C@_1M@DPCLHLIE@?$AAk?$AAa?$AA?9?$AAG?$AAE@
21EE4 109 ??_C@_1M@BLKMHJBI@?$AAf?$AAo?$AA?9?$AAF?$AAO@
21EF0 109 ??_C@_1M@LGGJAPPB@?$AAh?$AAi?$AA?9?$AAI?$AAN@
21EFC 109 ??_C@_1M@FIKPIHFE@?$AAm?$AAt?$AA?9?$AAM?$AAT@
21F08 109 ??_C@_1M@HEGGPBFA@?$AAs?$AAe?$AA?9?$AAN?$AAO@
21F14 109 ??_C@_1M@EIBJEEPA@?$AAm?$AAs?$AA?9?$AAM?$AAY@
21F20 109 ??_C@_1M@FHLBGMPP@?$AAk?$AAk?$AA?9?$AAK?$AAZ@
21F2C 109 ??_C@_1M@NGJJLCGI@?$AAk?$AAy?$AA?9?$AAK?$AAG@
21F38 109 ??_C@_1M@GIENNBFC@?$AAs?$AAw?$AA?9?$AAK?$AAE@
21F44 109 ??_C@_1BG@NDGMJIMJ@?$AAu?$AAz?$AA?9?$AAU?$AAZ?$AA?9?$AAL?$AAa?$AAt?$AAn@
21F5C 109 ??_C@_1M@IDCCIHBC@?$AAt?$AAt?$AA?9?$AAR?$AAU@
21F68 109 ??_C@_1M@LOICPMOJ@?$AAb?$AAn?$AA?9?$AAI?$AAN@
21F74 109 ??_C@_1M@KPKKNEAH@?$AAp?$AAa?$AA?9?$AAI?$AAN@
21F80 109 ??_C@_1M@PJGPPBOG@?$AAg?$AAu?$AA?9?$AAI?$AAN@
21F8C 109 ??_C@_1M@KMKMOPHI@?$AAt?$AAa?$AA?9?$AAI?$AAN@
21F98 109 ??_C@_1M@KFEHEPAC@?$AAt?$AAe?$AA?9?$AAI?$AAN@
21FA4 109 ??_C@_1M@CDCLMGHI@?$AAk?$AAn?$AA?9?$AAI?$AAN@
21FB0 109 ??_C@_1M@MIODLDKF@?$AAm?$AAl?$AA?9?$AAI?$AAN@
21FBC 109 ??_C@_1M@PBIEACPO@?$AAm?$AAr?$AA?9?$AAI?$AAN@
21FC8 109 ??_C@_1M@NIDEAGPH@?$AAs?$AAa?$AA?9?$AAI?$AAN@
21FD4 109 ??_C@_1M@FHIHCBIO@?$AAm?$AAn?$AA?9?$AAM?$AAN@
21FE0 109 ??_C@_1M@JAIJPENP@?$AAc?$AAy?$AA?9?$AAG?$AAB@
21FEC 109 ??_C@_1M@PHGFBEPN@?$AAg?$AAl?$AA?9?$AAE?$AAS@
21FF8 109 ??_C@_1O@KPIPDNCP@?$AAk?$AAo?$AAk?$AA?9?$AAI?$AAN@
22008 109 ??_C@_1O@KNHJLDJA@?$AAs?$AAy?$AAr?$AA?9?$AAS?$AAY@
22018 109 ??_C@_1O@MKEKBLAH@?$AAd?$AAi?$AAv?$AA?9?$AAM?$AAV@
22028 109 ??_C@_1O@OHDCKDDF@?$AAq?$AAu?$AAz?$AA?9?$AAB?$AAO@
22038 109 ??_C@_1M@LEPJNLFD@?$AAn?$AAs?$AA?9?$AAZ?$AAA@
22044 109 ??_C@_1M@OMLEIIJB@?$AAm?$AAi?$AA?9?$AAN?$AAZ@
22050 109 ??_C@_1M@PMPEAILG@?$AAa?$AAr?$AA?9?$AAI?$AAQ@
2205C 109 ??_C@_1M@CNKPNOEE@?$AAd?$AAe?$AA?9?$AAC?$AAH@
22068 109 ??_C@_1M@LKMGMLKO@?$AAe?$AAn?$AA?9?$AAG?$AAB@
22074 109 ??_C@_1M@PGKJFFGL@?$AAe?$AAs?$AA?9?$AAM?$AAX@
22080 109 ??_C@_1M@DNNANBDC@?$AAf?$AAr?$AA?9?$AAB?$AAE@
2208C 109 ??_C@_1M@HLGMDFHM@?$AAi?$AAt?$AA?9?$AAC?$AAH@
22098 109 ??_C@_1M@CLLBGJH@?$AAn?$AAl?$AA?9?$AAB?$AAE@
220A4 109 ??_C@_1M@BODBOGLF@?$AAn?$AAn?$AA?9?$AAN?$AAO@
220B0 109 ??_C@_1M@HFFAHKAD@?$AAp?$AAt?$AA?9?$AAP?$AAT@
220BC 109 ??_C@_1BG@LNOAKHIE@?$AAs?$AAr?$AA?9?$AAS?$AAP?$AA?9?$AAL?$AAa?$AAt?$AAn@
220D4 109 ??_C@_1M@HBMHBGAK@?$AAs?$AAv?$AA?9?$AAF?$AAI@
220E0 109 ??_C@_1BG@DGCJGJBE@?$AAa?$AAz?$AA?9?$AAA?$AAZ?$AA?9?$AAC?$AAy?$AAr?$AAl@
220F8 109 ??_C@_1M@KEJDAAHB@?$AAs?$AAe?$AA?9?$AAS?$AAE@
22104 109 ??_C@_1M@HEIBJJAD@?$AAm?$AAs?$AA?9?$AAB?$AAN@
22110 109 ??_C@_1BG@PBGJMCEM@?$AAu?$AAz?$AA?9?$AAU?$AAZ?$AA?9?$AAC?$AAy?$AAr?$AAl@
22128 109 ??_C@_1O@LAOBCMDF@?$AAq?$AAu?$AAz?$AA?9?$AAE?$AAC@
22138 109 ??_C@_1M@POEEMAIO@?$AAa?$AAr?$AA?9?$AAE?$AAG@
22144 109 ??_C@_1M@EFAKDEDL@?$AAz?$AAh?$AA?9?$AAH?$AAK@
22150 109 ??_C@_1M@HKKIJHGI@?$AAd?$AAe?$AA?9?$AAA?$AAT@
2215C 109 ??_C@_1M@KBFBEHJF@?$AAe?$AAn?$AA?9?$AAA?$AAU@
22168 109 ??_C@_1M@MNPLFAAH@?$AAe?$AAs?$AA?9?$AAE?$AAS@
22174 109 ??_C@_1M@HJOOJFMA@?$AAf?$AAr?$AA?9?$AAC?$AAA@
22180 109 ??_C@_1BG@JPOFPNAB@?$AAs?$AAr?$AA?9?$AAS?$AAP?$AA?9?$AAC?$AAy?$AAr?$AAl@
22198 109 ??_C@_1M@LNFOCMOB@?$AAs?$AAe?$AA?9?$AAF?$AAI@
221A4 109 ??_C@_1O@MGJBOAMB@?$AAq?$AAu?$AAz?$AA?9?$AAP?$AAE@
221B4 109 ??_C@_1M@GJINLBOK@?$AAa?$AAr?$AA?9?$AAL?$AAY@
221C0 109 ??_C@_1M@GGMNHJNL@?$AAz?$AAh?$AA?9?$AAS?$AAG@
221CC 109 ??_C@_1M@HOIKODND@?$AAd?$AAe?$AA?9?$AAL?$AAU@
221D8 109 ??_C@_1M@DDOCCGFG@?$AAe?$AAn?$AA?9?$AAC?$AAA@
221E4 109 ??_C@_1M@BNOEMJLF@?$AAe?$AAs?$AA?9?$AAG?$AAT@
221F0 109 ??_C@_1M@EOGNKEK@?$AAf?$AAr?$AA?9?$AAC?$AAH@
221FC 109 ??_C@_1M@FLIDJFHL@?$AAh?$AAr?$AA?9?$AAB?$AAA@
22208 109 ??_C@_1O@FMCELNAJ@?$AAs?$AAm?$AAj?$AA?9?$AAN?$AAO@
22218 109 ??_C@_1M@JHGLJMGJ@?$AAa?$AAr?$AA?9?$AAD?$AAZ@
22224 109 ??_C@_1M@JKKFDCNP@?$AAz?$AAh?$AA?9?$AAM?$AAO@
22230 109 ??_C@_1M@GEEFALPE@?$AAd?$AAe?$AA?9?$AAL?$AAI@
2223C 109 ??_C@_1M@IGEOFBG@?$AAe?$AAn?$AA?9?$AAN?$AAZ@
22248 109 ??_C@_1M@KDBONEHP@?$AAe?$AAs?$AA?9?$AAC?$AAR@
22254 109 ??_C@_1M@FHMDOHNN@?$AAf?$AAr?$AA?9?$AAL?$AAU@
22260 109 ??_C@_1BG@NFKKMAFG@?$AAb?$AAs?$AA?9?$AAB?$AAA?$AA?9?$AAL?$AAa?$AAt?$AAn@
22278 109 ??_C@_1O@IMNBEMCI@?$AAs?$AAm?$AAj?$AA?9?$AAS?$AAE@
22288 109 ??_C@_1M@DHHMBNDP@?$AAa?$AAr?$AA?9?$AAM?$AAA@
22294 109 ??_C@_1M@BNBLJCGH@?$AAe?$AAn?$AA?9?$AAI?$AAE@
222A0 109 ??_C@_1M@GEPAFMDL@?$AAe?$AAs?$AA?9?$AAP?$AAA@
222AC 109 ??_C@_1M@OJONDMDL@?$AAf?$AAr?$AA?9?$AAM?$AAC@
222B8 109 ??_C@_1BG@OBCNFJB@?$AAs?$AAr?$AA?9?$AAB?$AAA?$AA?9?$AAL?$AAa?$AAt?$AAn@
222D0 109 ??_C@_1O@KEMEEGPO@?$AAs?$AAm?$AAa?$AA?9?$AAN?$AAO@
222E0 109 ??_C@_1M@ELMGFODK@?$AAa?$AAr?$AA?9?$AAT?$AAN@
222EC 109 ??_C@_1M@BHDLHFAF@?$AAe?$AAn?$AA?9?$AAZ?$AAA@
222F8 109 ??_C@_1M@BMGIGLIF@?$AAe?$AAs?$AA?9?$AAD?$AAO@
22304 109 ??_C@_1BG@CMBHIPBE@?$AAs?$AAr?$AA?9?$AAB?$AAA?$AA?9?$AAC?$AAy?$AAr?$AAl@
2231C 109 ??_C@_1O@HEDBLHNP@?$AAs?$AAm?$AAa?$AA?9?$AAS?$AAE@
2232C 109 ??_C@_1M@DAGCADIM@?$AAa?$AAr?$AA?9?$AAO?$AAM@
22338 109 ??_C@_1M@FODLMICG@?$AAe?$AAn?$AA?9?$AAJ?$AAM@
22344 109 ??_C@_1M@DNMLCIHB@?$AAe?$AAs?$AA?9?$AAV?$AAE@
22350 109 ??_C@_1O@EOKHMKJK@?$AAs?$AAm?$AAs?$AA?9?$AAF?$AAI@
22360 109 ??_C@_1M@CAFJMKOF@?$AAa?$AAr?$AA?9?$AAY?$AAE@
2236C 109 ??_C@_1M@CBFHIJLI@?$AAe?$AAn?$AA?9?$AAC?$AAB@
22378 109 ??_C@_1M@BGNFLDN@?$AAe?$AAs?$AA?9?$AAC?$AAO@
22384 109 ??_C@_1O@JMPHMAMC@?$AAs?$AAm?$AAn?$AA?9?$AAF?$AAI@
22394 109 ??_C@_1M@JLANABKE@?$AAa?$AAr?$AA?9?$AAS?$AAY@
223A0 109 ??_C@_1M@HPKGCFGN@?$AAe?$AAn?$AA?9?$AAB?$AAZ@
223AC 109 ??_C@_1M@OLJCMLGM@?$AAe?$AAs?$AA?9?$AAP?$AAE@
223B8 109 ??_C@_1M@MKKGFKLE@?$AAa?$AAr?$AA?9?$AAJ?$AAO@
223C4 109 ??_C@_1M@EKPGLDNI@?$AAe?$AAn?$AA?9?$AAT?$AAT@
223D0 109 ??_C@_1M@OONGHFHE@?$AAe?$AAs?$AA?9?$AAA?$AAR@
223DC 109 ??_C@_1M@OOJFGBHE@?$AAa?$AAr?$AA?9?$AAL?$AAB@
223E8 109 ??_C@_1M@GCEJHNEG@?$AAe?$AAn?$AA?9?$AAZ?$AAW@
223F4 109 ??_C@_1M@JNOCAHJI@?$AAe?$AAs?$AA?9?$AAE?$AAC@
22400 109 ??_C@_1M@JEFHPGGB@?$AAa?$AAr?$AA?9?$AAK?$AAW@
2240C 109 ??_C@_1M@MLKIBJOJ@?$AAe?$AAn?$AA?9?$AAP?$AAH@
22418 109 ??_C@_1M@BDNIPEND@?$AAe?$AAs?$AA?9?$AAC?$AAL@
22424 109 ??_C@_1M@MPNMEKBD@?$AAa?$AAr?$AA?9?$AAA?$AAE@
22430 109 ??_C@_1M@KBJALCPI@?$AAe?$AAs?$AA?9?$AAU?$AAY@
2243C 109 ??_C@_1M@LLCCOAGA@?$AAa?$AAr?$AA?9?$AAB?$AAH@
22448 109 ??_C@_1M@PBFNCDEL@?$AAe?$AAs?$AA?9?$AAP?$AAY@
22454 109 ??_C@_1M@EDGINPNP@?$AAa?$AAr?$AA?9?$AAQ?$AAA@
22460 109 ??_C@_1M@MKDBIIJI@?$AAe?$AAs?$AA?9?$AAB?$AAO@
2246C 109 ??_C@_1M@CPKKEBLD@?$AAe?$AAs?$AA?9?$AAS?$AAV@
22478 109 ??_C@_1M@NDBGMMJL@?$AAe?$AAs?$AA?9?$AAH?$AAN@
22484 109 ??_C@_1M@JIJIBHDP@?$AAe?$AAs?$AA?9?$AAN?$AAI@
22490 109 ??_C@_1M@CGFMKEEK@?$AAe?$AAs?$AA?9?$AAP?$AAR@
2249C 109 ??_C@_1O@ICJHKIIK@?$AAz?$AAh?$AA?9?$AAC?$AAH?$AAT@
224AC 109 ??_C@_15CLNEJCE@?$AAs?$AAr@
224B8 109 ?LocaleNameToIndexTable@?A0x881e4c05@@3QBULocaleNameIndex@1@B
22BD8 109 ??_C@_1M@KAHEKEIG@?$AAa?$AAf?$AA?9?$AAz?$AAa@
22BE4 109 ??_C@_1M@GIECOABL@?$AAa?$AAr?$AA?9?$AAa?$AAe@
22BF0 109 ??_C@_1M@BMLMEKGI@?$AAa?$AAr?$AA?9?$AAb?$AAh@
22BFC 109 ??_C@_1M@DAPFDGGB@?$AAa?$AAr?$AA?9?$AAd?$AAz@
22C08 109 ??_C@_1M@FJNKGKIG@?$AAa?$AAr?$AA?9?$AAe?$AAg@
22C14 109 ??_C@_1M@FLGKKCLO@?$AAa?$AAr?$AA?9?$AAi?$AAq@
22C20 109 ??_C@_1M@GNDIPALM@?$AAa?$AAr?$AA?9?$AAj?$AAo@
22C2C 109 ??_C@_1M@DDMJFMGJ@?$AAa?$AAr?$AA?9?$AAk?$AAw@
22C38 109 ??_C@_1M@EJALMLHM@?$AAa?$AAr?$AA?9?$AAl?$AAb@
22C44 109 ??_C@_1M@MOBDBLOC@?$AAa?$AAr?$AA?9?$AAl?$AAy@
22C50 109 ??_C@_1M@JAOCLHDH@?$AAa?$AAr?$AA?9?$AAm?$AAa@
22C5C 109 ??_C@_1M@JHPMKJIE@?$AAa?$AAr?$AA?9?$AAo?$AAm@
22C68 109 ??_C@_1M@OEPGHFNH@?$AAa?$AAr?$AA?9?$AAq?$AAa@
22C74 109 ??_C@_1M@KJDONENM@?$AAa?$AAr?$AA?9?$AAs?$AAa@
22C80 109 ??_C@_1M@DMJDKLKM@?$AAa?$AAr?$AA?9?$AAs?$AAy@
22C8C 109 ??_C@_1M@OMFIPEDC@?$AAa?$AAr?$AA?9?$AAt?$AAn@
22C98 109 ??_C@_1M@IHMHGAON@?$AAa?$AAr?$AA?9?$AAy?$AAe@
22CA4 109 ??_C@_1BG@KDCPGJGB@?$AAa?$AAz?$AA?9?$AAa?$AAz?$AA?9?$AAc?$AAy?$AAr?$AAl@
22CBC 109 ??_C@_1BG@IBCKDDOE@?$AAa?$AAz?$AA?9?$AAa?$AAz?$AA?9?$AAl?$AAa?$AAt?$AAn@
22CD4 109 ??_C@_1M@EGPFDCPD@?$AAb?$AAe?$AA?9?$AAb?$AAy@
22CE0 109 ??_C@_1M@PCMGMCGC@?$AAb?$AAg?$AA?9?$AAb?$AAg@
22CEC 109 ??_C@_1M@BJBMFGOB@?$AAb?$AAn?$AA?9?$AAi?$AAn@
22CF8 109 ??_C@_1BG@EAKMMACD@?$AAb?$AAs?$AA?9?$AAb?$AAa?$AA?9?$AAl?$AAa?$AAt?$AAn@
22D10 109 ??_C@_1M@KGADAODK@?$AAc?$AAa?$AA?9?$AAe?$AAs@
22D1C 109 ??_C@_1M@COAJPDHI@?$AAc?$AAs?$AA?9?$AAc?$AAz@
22D28 109 ??_C@_1M@DHBHFONH@?$AAc?$AAy?$AA?9?$AAg?$AAb@
22D34 109 ??_C@_1M@IMGKELGA@?$AAd?$AAa?$AA?9?$AAd?$AAk@
22D40 109 ??_C@_1M@NNDGDNGA@?$AAd?$AAe?$AA?9?$AAa?$AAt@
22D4C 109 ??_C@_1M@IKDBHEEM@?$AAd?$AAe?$AA?9?$AAc?$AAh@
22D58 109 ??_C@_1M@GFFOJMCJ@?$AAd?$AAe?$AA?9?$AAd?$AAe@
22D64 109 ??_C@_1M@MDNLKBPM@?$AAd?$AAe?$AA?9?$AAl?$AAi@
22D70 109 ??_C@_1M@NJBEEJNL@?$AAd?$AAe?$AA?9?$AAl?$AAu@
22D7C 109 ??_C@_1O@GNNELBAP@?$AAd?$AAi?$AAv?$AA?9?$AAm?$AAv@
22D8C 109 ??_C@_1M@EJLEOGAE@?$AAe?$AAl?$AA?9?$AAg?$AAr@
22D98 109 ??_C@_1M@GMPONJN@?$AAe?$AAn?$AA?9?$AAa?$AAu@
22DA4 109 ??_C@_1M@NIDIIPGF@?$AAe?$AAn?$AA?9?$AAb?$AAz@
22DB0 109 ??_C@_1M@JEHMIMFO@?$AAe?$AAn?$AA?9?$AAc?$AAa@
22DBC 109 ??_C@_1M@IGMJCDLA@?$AAe?$AAn?$AA?9?$AAc?$AAb@
22DC8 109 ??_C@_1M@BNFIGBKG@?$AAe?$AAn?$AA?9?$AAg?$AAb@
22DD4 109 ??_C@_1M@LKIFDIGP@?$AAe?$AAn?$AA?9?$AAi?$AAe@
22DE0 109 ??_C@_1M@PJKFGCCO@?$AAe?$AAn?$AA?9?$AAj?$AAm@
22DEC 109 ??_C@_1M@KPPKEPBO@?$AAe?$AAn?$AA?9?$AAn?$AAz@
22DF8 109 ??_C@_1M@GMDGLDOB@?$AAe?$AAn?$AA?9?$AAp?$AAh@
22E04 109 ??_C@_1M@ONGIBJNA@?$AAe?$AAn?$AA?9?$AAt?$AAt@
22E10 109 ??_C@_1M@LLODPCMM@?$AAe?$AAn?$AA?9?$AAu?$AAs@
22E1C 109 ??_C@_1M@LAKFNPAN@?$AAe?$AAn?$AA?9?$AAz?$AAa@
22E28 109 ??_C@_1M@MFNHNHEO@?$AAe?$AAn?$AA?9?$AAz?$AAw@
22E34 109 ??_C@_1M@EJEINPHM@?$AAe?$AAs?$AA?9?$AAa?$AAr@
22E40 109 ??_C@_1M@GNKPCCJA@?$AAe?$AAs?$AA?9?$AAb?$AAo@
22E4C 109 ??_C@_1M@LEEGFONL@?$AAe?$AAs?$AA?9?$AAc?$AAl@
22E58 109 ??_C@_1M@KGPDPBDF@?$AAe?$AAs?$AA?9?$AAc?$AAo@
22E64 109 ??_C@_1M@EIAHOHH@?$AAe?$AAs?$AA?9?$AAc?$AAr@
22E70 109 ??_C@_1M@LLPGMBIN@?$AAe?$AAs?$AA?9?$AAd?$AAo@
22E7C 109 ??_C@_1M@DKHMKNJA@?$AAe?$AAs?$AA?9?$AAe?$AAc@
22E88 109 ??_C@_1M@GKGFPKAP@?$AAe?$AAs?$AA?9?$AAe?$AAs@
22E94 109 ??_C@_1M@LKHKGDLN@?$AAe?$AAs?$AA?9?$AAg?$AAt@
22EA0 109 ??_C@_1M@HEIIGGJD@?$AAe?$AAs?$AA?9?$AAh?$AAn@
22EAC 109 ??_C@_1M@FBDHPPGD@?$AAe?$AAs?$AA?9?$AAm?$AAx@
22EB8 109 ??_C@_1M@DPAGLNDH@?$AAe?$AAs?$AA?9?$AAn?$AAi@
22EC4 109 ??_C@_1M@MDGOPGDD@?$AAe?$AAs?$AA?9?$AAp?$AAa@
22ED0 109 ??_C@_1M@EMAMGBGE@?$AAe?$AAs?$AA?9?$AAp?$AAe@
22EDC 109 ??_C@_1M@IBMCAOEC@?$AAe?$AAs?$AA?9?$AAp?$AAr@
22EE8 109 ??_C@_1M@FGMDIJED@?$AAe?$AAs?$AA?9?$AAp?$AAy@
22EF4 109 ??_C@_1M@IIDEOLLL@?$AAe?$AAs?$AA?9?$AAs?$AAv@
22F00 109 ??_C@_1M@GAOBIPA@?$AAe?$AAs?$AA?9?$AAu?$AAy@
22F0C 109 ??_C@_1M@JKFFICHJ@?$AAe?$AAs?$AA?9?$AAv?$AAe@
22F18 109 ??_C@_1M@PNMLOJDF@?$AAe?$AAt?$AA?9?$AAe?$AAe@
22F24 109 ??_C@_1M@GHHLIKEI@?$AAe?$AAu?$AA?9?$AAe?$AAs@
22F30 109 ??_C@_1M@PBNONODE@?$AAf?$AAa?$AA?9?$AAi?$AAr@
22F3C 109 ??_C@_1M@JEEHPMIL@?$AAf?$AAi?$AA?9?$AAf?$AAi@
22F48 109 ??_C@_1M@LMDCNDBA@?$AAf?$AAo?$AA?9?$AAf?$AAo@
22F54 109 ??_C@_1M@JKEOHLDK@?$AAf?$AAr?$AA?9?$AAb?$AAe@
22F60 109 ??_C@_1M@NOHADPMI@?$AAf?$AAr?$AA?9?$AAc?$AAa@
22F6C 109 ??_C@_1M@KDHIHAEC@?$AAf?$AAr?$AA?9?$AAc?$AAh@
22F78 109 ??_C@_1M@MMBBFGAK@?$AAf?$AAr?$AA?9?$AAf?$AAr@
22F84 109 ??_C@_1M@PAFNENNF@?$AAf?$AAr?$AA?9?$AAl?$AAu@
22F90 109 ??_C@_1M@EOHDJGDD@?$AAf?$AAr?$AA?9?$AAm?$AAc@
22F9C 109 ??_C@_1M@FAPLLOPF@?$AAg?$AAl?$AA?9?$AAe?$AAs@
22FA8 109 ??_C@_1M@FOPBFLOO@?$AAg?$AAu?$AA?9?$AAi?$AAn@
22FB4 109 ??_C@_1M@KBMCINPM@?$AAh?$AAe?$AA?9?$AAi?$AAl@
22FC0 109 ??_C@_1M@BBPHKFPJ@?$AAh?$AAi?$AA?9?$AAi?$AAn@
22FCC 109 ??_C@_1M@PMBNDPHD@?$AAh?$AAr?$AA?9?$AAb?$AAa@
22FD8 109 ??_C@_1M@BPCKOEGE@?$AAh?$AAr?$AA?9?$AAh?$AAr@
22FE4 109 ??_C@_1M@GACBMHKE@?$AAh?$AAu?$AA?9?$AAh?$AAu@
22FF0 109 ??_C@_1M@MILPAJJC@?$AAh?$AAy?$AA?9?$AAa?$AAm@
22FFC 109 ??_C@_1M@BABBICEC@?$AAi?$AAd?$AA?9?$AAi?$AAd@
23008 109 ??_C@_1M@BIKNHHPF@?$AAi?$AAs?$AA?9?$AAi?$AAs@
23014 109 ??_C@_1M@NMPCJPHE@?$AAi?$AAt?$AA?9?$AAc?$AAh@
23020 109 ??_C@_1M@GHKGFEDF@?$AAi?$AAt?$AA?9?$AAi?$AAt@
2302C 109 ??_C@_1M@NIEJCJJA@?$AAj?$AAa?$AA?9?$AAj?$AAp@
23038 109 ??_C@_1M@JILFNBIM@?$AAk?$AAa?$AA?9?$AAg?$AAe@
23044 109 ??_C@_1M@PACPMGPH@?$AAk?$AAk?$AA?9?$AAk?$AAz@
23050 109 ??_C@_1M@IELFGMHA@?$AAk?$AAn?$AA?9?$AAi?$AAn@
2305C 109 ??_C@_1O@IBBJHCH@?$AAk?$AAo?$AAk?$AA?9?$AAi?$AAn@
2306C 109 ??_C@_1M@DMHAEOGC@?$AAk?$AAo?$AA?9?$AAk?$AAr@
23078 109 ??_C@_1M@HBAHBIGA@?$AAk?$AAy?$AA?9?$AAk?$AAg@
23084 109 ??_C@_1M@KPMILCJG@?$AAl?$AAt?$AA?9?$AAl?$AAt@
23090 109 ??_C@_1M@BDEKKCA@?$AAl?$AAv?$AA?9?$AAl?$AAv@
2309C 109 ??_C@_1M@ELCKCCJJ@?$AAm?$AAi?$AA?9?$AAn?$AAz@
230A8 109 ??_C@_1M@CBOOLAPA@?$AAm?$AAk?$AA?9?$AAm?$AAk@
230B4 109 ??_C@_1M@GPHNBJKN@?$AAm?$AAl?$AA?9?$AAi?$AAn@
230C0 109 ??_C@_1M@PABJILIG@?$AAm?$AAn?$AA?9?$AAm?$AAn@
230CC 109 ??_C@_1M@FGBKKIPG@?$AAm?$AAr?$AA?9?$AAi?$AAn@
230D8 109 ??_C@_1M@NDBPDDAL@?$AAm?$AAs?$AA?9?$AAb?$AAn@
230E4 109 ??_C@_1M@OPIHOOPI@?$AAm?$AAs?$AA?9?$AAm?$AAy@
230F0 109 ??_C@_1M@PPDBCNFM@?$AAm?$AAt?$AA?9?$AAm?$AAt@
230FC 109 ??_C@_1M@KDJDKMDD@?$AAn?$AAb?$AA?9?$AAn?$AAo@
23108 109 ??_C@_1M@KFCFLMJP@?$AAn?$AAl?$AA?9?$AAb?$AAe@
23114 109 ??_C@_1M@KPOPDDGO@?$AAn?$AAl?$AA?9?$AAn?$AAl@
23120 109 ??_C@_1M@LJKPEMLN@?$AAn?$AAn?$AA?9?$AAn?$AAo@
2312C 109 ??_C@_1M@BDGHHBFL@?$AAn?$AAs?$AA?9?$AAz?$AAa@
23138 109 ??_C@_1M@IDEHOAP@?$AAp?$AAa?$AA?9?$AAi?$AAn@
23144 109 ??_C@_1M@HDBKGOGH@?$AAp?$AAl?$AA?9?$AAp?$AAl@
23150 109 ??_C@_1M@LJLLCMEH@?$AAp?$AAt?$AA?9?$AAb?$AAr@
2315C 109 ??_C@_1M@NCMONAAL@?$AAp?$AAt?$AA?9?$AAp?$AAt@
23168 109 ??_C@_1O@EAKMAJDN@?$AAq?$AAu?$AAz?$AA?9?$AAb?$AAo@
23178 109 ??_C@_1O@BHHPIGDN@?$AAq?$AAu?$AAz?$AA?9?$AAe?$AAc@
23188 109 ??_C@_1O@GBAPEKMJ@?$AAq?$AAu?$AAz?$AA?9?$AAp?$AAe@
23198 109 ??_C@_1M@CLGLEFBO@?$AAr?$AAo?$AA?9?$AAr?$AAo@
231A4 109 ??_C@_1M@CEEDODME@?$AAr?$AAu?$AA?9?$AAr?$AAu@
231B0 109 ??_C@_1M@HPKKKMPP@?$AAs?$AAa?$AA?9?$AAi?$AAn@
231BC 109 ??_C@_1M@BKMAIGOJ@?$AAs?$AAe?$AA?9?$AAf?$AAi@
231C8 109 ??_C@_1M@NDPIFLFI@?$AAs?$AAe?$AA?9?$AAn?$AAo@
231D4 109 ??_C@_1M@DANKKHJ@?$AAs?$AAe?$AA?9?$AAs?$AAe@
231E0 109 ??_C@_1M@PNBLONPJ@?$AAs?$AAk?$AA?9?$AAs?$AAk@
231EC 109 ??_C@_1M@LFMODOAL@?$AAs?$AAl?$AA?9?$AAs?$AAi@
231F8 109 ??_C@_1O@DFKOMPG@?$AAs?$AAm?$AAa?$AA?9?$AAn?$AAo@
23208 109 ??_C@_1O@NDKPBNNH@?$AAs?$AAm?$AAa?$AA?9?$AAs?$AAe@
23218 109 ??_C@_1O@PLLKBHAB@?$AAs?$AAm?$AAj?$AA?9?$AAn?$AAo@
23228 109 ??_C@_1O@CLEPOGCA@?$AAs?$AAm?$AAj?$AA?9?$AAs?$AAe@
23238 109 ??_C@_1O@DLGJGKMK@?$AAs?$AAm?$AAn?$AA?9?$AAf?$AAi@
23248 109 ??_C@_1O@OJDJGAJC@?$AAs?$AAm?$AAs?$AA?9?$AAf?$AAi@
23258 109 ??_C@_1M@BOFOGHPB@?$AAs?$AAq?$AA?9?$AAa?$AAl@
23264 109 ??_C@_1BG@LJBBIPGB@?$AAs?$AAr?$AA?9?$AAb?$AAa?$AA?9?$AAc?$AAy?$AAr?$AAl@
2327C 109 ??_C@_1BG@JLBENFOE@?$AAs?$AAr?$AA?9?$AAb?$AAa?$AA?9?$AAl?$AAa?$AAt?$AAn@
23294 109 ??_C@_1BG@KODPNHE@?$AAs?$AAr?$AA?9?$AAs?$AAp?$AA?9?$AAc?$AAy?$AAr?$AAl@
232AC 109 ??_C@_1BG@CIOGKHPB@?$AAs?$AAr?$AA?9?$AAs?$AAp?$AA?9?$AAl?$AAa?$AAt?$AAn@
232C4 109 ??_C@_1M@NGFJLMAC@?$AAs?$AAv?$AA?9?$AAf?$AAi@
232D0 109 ??_C@_1M@MPJEJAJC@?$AAs?$AAv?$AA?9?$AAs?$AAe@
232DC 109 ??_C@_1M@MPNDHLFK@?$AAs?$AAw?$AA?9?$AAk?$AAe@
232E8 109 ??_C@_1O@KOHBJJI@?$AAs?$AAy?$AAr?$AA?9?$AAs?$AAy@
232F8 109 ??_C@_1M@LDCEFHA@?$AAt?$AAa?$AA?9?$AAi?$AAn@
23304 109 ??_C@_1M@CNJOFAK@?$AAt?$AAe?$AA?9?$AAi?$AAn@
23310 109 ??_C@_1M@GNAECACD@?$AAt?$AAh?$AA?9?$AAt?$AAh@
2331C 109 ??_C@_1M@CHBIHOJO@?$AAt?$AAn?$AA?9?$AAz?$AAa@
23328 109 ??_C@_1M@GCCMIGPJ@?$AAt?$AAr?$AA?9?$AAt?$AAr@
23334 109 ??_C@_1M@CELMCNBK@?$AAt?$AAt?$AA?9?$AAr?$AAu@
23340 109 ??_C@_1M@KLMCELGA@?$AAu?$AAk?$AA?9?$AAu?$AAa@
2334C 109 ??_C@_1M@EPAJJAJF@?$AAu?$AAr?$AA?9?$AAp?$AAk@
23358 109 ??_C@_1BG@GEGPMCDJ@?$AAu?$AAz?$AA?9?$AAu?$AAz?$AA?9?$AAc?$AAy?$AAr?$AAl@
23370 109 ??_C@_1BG@EGGKJILM@?$AAu?$AAz?$AA?9?$AAu?$AAz?$AA?9?$AAl?$AAa?$AAt?$AAn@
23388 109 ??_C@_1M@GFOCLFF@?$AAv?$AAi?$AA?9?$AAv?$AAn@
23394 109 ??_C@_1M@CPAMEDFI@?$AAx?$AAh?$AA?9?$AAz?$AAa@
233A0 109 ??_C@_1O@EBKIFIGN@?$AAz?$AAh?$AA?9?$AAc?$AAh?$AAs@
233B0 109 ??_C@_1O@NMHPGANE@?$AAz?$AAh?$AA?9?$AAc?$AAh?$AAt@
233C0 109 ??_C@_1M@LPINJOMC@?$AAz?$AAh?$AA?9?$AAc?$AAn@
233CC 109 ??_C@_1M@OCJEJODD@?$AAz?$AAh?$AA?9?$AAh?$AAk@
233D8 109 ??_C@_1M@DNDLJINH@?$AAz?$AAh?$AA?9?$AAm?$AAo@
233E4 109 ??_C@_1M@MBFDNDND@?$AAz?$AAh?$AA?9?$AAs?$AAg@
233F0 109 ??_C@_1M@IMEPLEPE@?$AAz?$AAh?$AA?9?$AAt?$AAw@
233FC 109 ??_C@_1M@BBGHNHJP@?$AAz?$AAu?$AA?9?$AAz?$AAa@
23410 117 LOG_name
23420 67 _One
23430 67 _Bns
23440 67 _Zero
23450 67 _S
23460 67 _NegZero
23468 98 ??_C@_1BA@BALFACEM@?$AAC?$AAO?$AAN?$AAO?$AAU?$AAT?$AA$@
23480 118 emask
23490 118 CC
234A0 118 Magic
234B0 118 hi_mask
234C0 118 LOG10_2
234D0 118 place_L
234F0 118 One
23500 118 Zero
23510 118 Two52
23520 118 Infs
23530 118 NaN
23540 118 coeff
23580 53 __infinity
2358A 53 __minfinity
23594 53 __logemax
2359E 53 _log2max
235A8 53 _smallarg
235B2 53 _half
235BA 53 __OP_EXPjmptab
235E0 51 __indefinite
235EA 51 __piby2
235F4 51 __piby4
235FE 51 One
23606 51 Three
2360E 51 XAMtoTagTab
23620 71 One
23628 71 __DEFAULT_CW_in_mem
2362A 71 __pi_by_2_to_61
23634 71 DblMax
2363C 71 DblMin
23644 71 IeeeAdjO
2364C 71 IeeeAdjU
23654 71 _infinity
2365C 71 _zero
23664 111 ??_C@_03MGHMBJCF@log@
23668 111 ??_C@_05HGHHAHAP@log10@
23670 111 ??_C@_03KHJOGHMM@exp@
23674 111 ??_C@_03JGHBODFD@pow@
23678 111 ??_C@_04FIHNOPOL@asin@
23680 111 ??_C@_04PDIFKINK@acos@
23688 111 ??_C@_04EIAKFFMI@sqrt@
23690 111 __real@3ff0000000000000
23698 84 _over
236A4 84 _under
236B0 119 ___acrt_log10_table_t
23AC0 119 ___acrt_log10_table_cb
23ED0 141 __real@3fe0000000000000
23ED8 85 ?_names@?1??_get_fname@@9@4QBU<unnamed-type-_names>@?1??1@YAPADI@Z@B
23FC0 85 ??_C@_04COOMCNPB@sinh@
23FC8 85 ??_C@_04HPJJNFIM@cosh@
23FD0 85 ??_C@_04FJHINJAO@tanh@
23FD8 85 ??_C@_04MLLJIGOK@atan@
23FE0 85 ??_C@_05KNGEOGJB@atan2@
23FE8 85 ??_C@_03BLEJJJBH@sin@
23FEC 85 ??_C@_03LALBNOCG@cos@
23FF0 85 ??_C@_03IIINPABG@tan@
23FF4 85 ??_C@_04GFPJNGEK@ceil@
23FFC 85 ??_C@_05PBJFFIGL@floor@
24004 85 ??_C@_04ODHECPBC@fabs@
2400C 85 ??_C@_04EHEDPDJG@modf@
24014 85 ??_C@_05CEJMAHNP@ldexp@
2401C 85 ??_C@_05KBKMEMPO@_cabs@
24024 85 ??_C@_06MEIMCGCF@_hypot@
2402C 85 ??_C@_04KEPJIHGP@fmod@
24034 85 ??_C@_05GKKHEGJL@frexp@
2403C 85 ??_C@_03MJLDFKDL@_y0@
24040 85 ??_C@_03NAKIGLHK@_y1@
24044 85 ??_C@_03ONILCKOB@_yn@
24048 85 ??_C@_05JGDBENOH@_logb@
24050 85 ??_C@_0L@KDOEJCKC@_nextafter@
24060 159 __d_inf
24068 159 __d_max
24070 159 __d_mzero
24080 20 two32
24084 20 two63
24088 20 _NaN
2408C 44 ??_C@_13IMODFHAA@?$AA?9@
24090 44 ??_C@_1BC@ENICKDH@?$AAC?$AAo?$AAn?$AAt?$AAe?$AAn?$AAt?$AAs@
240A4 44 ??_C@_19BDAJEHDN@?$AAo?$AAp?$AAe?$AAn@
240B0 44 ??_C@_1BM@MDBPDFDA@?$AA?$CF?$AAC?$AAO?$AAM?$AAS?$AAP?$AAE?$AAC?$AA?$CF?$AA?5?$AA?1?$AAc?$AA?5@
240CC 44 ??_C@_1BC@DDPAOGMO@?$AAT?$AAm?$AAp?$AAP?$AAa?$AAn?$AAe?$AAl@
240E0 44 ??_C@_1EA@PHBPOOLI@?$AAT?$AAe?$AAm?$AAp?$AAo?$AAr?$AAa?$AAr?$AAy?$AA?5?$AAP?$AAa?$AAn?$AAe?$AAl@
24120 44 ??_C@_1DE@BGKMIKPD@?$AAE?$AAu?$AAg?$AAe?$AAn?$AAe?$AA?5?$AAR?$AAo?$AAs?$AAh?$AAa?$AAl?$AA?5?$AA?$CG@
24154 44 ??_C@_19MPBPOCEB@?$AAs?$AAa?$AAf?$AAe@
24160 44 ??_C@_17KCFFABIP@?$AAa?$AAn?$AAy@
24168 44 ??_C@_1BA@DCLEHMHO@?$AAr?$AAe?$AAp?$AAl?$AAa?$AAc?$AAe@
24178 44 ??_C@_19MOHIIIBC@?$AAm?$AAe?$AAn?$AAu@
24184 44 ??_C@_19CKPKPLNA@?$AAf?$AAu?$AAl?$AAl@
24190 44 ??_C@_15PDGMBMHD@?$AA?5?$AA?$DM@
24198 44 ??_C@_0BA@FOIKENOD@vector?5too?5long@
241A8 44 ??_C@_0BN@OFDOGPDL@invalid?5string_view?5position@
241C8 44 ??_C@_11LOCGONAA@@
241CC 44 ??_C@_0BA@JFNIOLAK@string?5too?5long@
241DC 44 ??_C@_0BF@KINCDENJ@bad?5array?5new?5length@
241F4 44 _SaveListDialogGuid
24204 44 _ConfigDialogGuid
24214 44 _MenuGuid
24224 44 _MainGuid
24234 44 ??_C@_0BC@EOODALEL@Unknown?5exception@
24248 40 ??_C@_1BO@NGDOFANC@?$AAA?$AAd?$AAd?$AAT?$AAo?$AAD?$AAi?$AAs?$AAk?$AAs?$AAM?$AAe?$AAn?$AAu@
24268 40 ??_C@_1CC@PNNAOHJC@?$AAA?$AAd?$AAd?$AAT?$AAo?$AAP?$AAl?$AAu?$AAg?$AAi?$AAn?$AAs?$AAM?$AAe?$AAn@
2428C 40 ??_C@_1BI@CPJJFPIA@?$AAC?$AAo?$AAm?$AAm?$AAo?$AAn?$AAP?$AAa?$AAn?$AAe?$AAl@
242A4 40 ??_C@_1BM@FPOJMDKB@?$AAS?$AAa?$AAf?$AAe?$AAM?$AAo?$AAd?$AAe?$AAP?$AAa?$AAn?$AAe?$AAl@
242C0 40 ??_C@_1BG@NHJCENND@?$AAA?$AAn?$AAy?$AAI?$AAn?$AAP?$AAa?$AAn?$AAe?$AAl@
242D8 40 ??_C@_1BK@BNOFJDBM@?$AAC?$AAo?$AAp?$AAy?$AAC?$AAo?$AAn?$AAt?$AAe?$AAn?$AAt?$AAs@
242F4 40 ??_C@_19OBGHODPD@?$AAM?$AAo?$AAd?$AAe@
24300 40 ??_C@_1CA@JNAJBENN@?$AAM?$AAe?$AAn?$AAu?$AAF?$AAo?$AAr?$AAF?$AAi?$AAl?$AAe?$AAl?$AAi?$AAs?$AAt@
24320 40 ??_C@_1DC@BNKDLIA@?$AAN?$AAe?$AAw?$AAP?$AAa?$AAn?$AAe?$AAl?$AAF?$AAo?$AAr?$AAS?$AAe?$AAa?$AAr@
24354 40 ??_C@_1CA@GMFGCAGE@?$AAF?$AAu?$AAl?$AAl?$AAS?$AAc?$AAr?$AAe?$AAe?$AAn?$AAP?$AAa?$AAn?$AAe?$AAl@
24374 40 ??_C@_1BC@JCHBPJL@?$AAL?$AAi?$AAs?$AAt?$AAU?$AAT?$AAF?$AA8@
24388 40 ??_C@_17PBMJFEI@?$AAN?$AA?0?$AAS@
24390 40 ??_C@_1BI@KCJICNAC@?$AAC?$AAo?$AAl?$AAu?$AAm?$AAn?$AAT?$AAy?$AAp?$AAe?$AAs@
243A8 40 ??_C@_17FKOBGGOI@?$AA0?$AA?0?$AA8@
243B0 40 ??_C@_1BK@IJFPLJEF@?$AAC?$AAo?$AAl?$AAu?$AAm?$AAn?$AAW?$AAi?$AAd?$AAt?$AAh?$AAs@
243CC 40 ??_C@_1BE@CNONJJPK@?$AAN?$AAR?$AA?0?$AAS?$AAC?$AA?0?$AAD?$AA?0?$AAT@
243E0 40 ??_C@_1CE@CFCOMBOO@?$AAS?$AAt?$AAa?$AAt?$AAu?$AAs?$AAC?$AAo?$AAl?$AAu?$AAm?$AAn?$AAT?$AAy?$AAp@
24404 40 ??_C@_1BA@HANPCFLL@?$AA0?$AA?0?$AA8?$AA?0?$AA0?$AA?0?$AA5@
24414 40 ??_C@_1CG@NCCICMEA@?$AAS?$AAt?$AAa?$AAt?$AAu?$AAs?$AAC?$AAo?$AAl?$AAu?$AAm?$AAn?$AAW?$AAi?$AAd@
2443C 40 ??_C@_1O@HIOLBLLI@?$AA?$CK?$AA?4?$AAt?$AAe?$AAm?$AAp@
2444C 40 ??_C@_19KOBLENB@?$AAM?$AAa?$AAs?$AAk@
24458 40 ??_C@_17GNJCADOE@?$AAt?$AAm?$AAp@
24460 40 ??_C@_1O@GBAEOCCH@?$AAP?$AAr?$AAe?$AAf?$AAi?$AAx@
24470 40 ??_C@_1O@BJPKKLLM@?$AAC?$AAo?$AAn?$AAf?$AAi?$AAg@
24480 40 ??_C@_1CM@OOGBEAGB@?$AAT?$AAe?$AAm?$AAp?$AAP?$AAa?$AAn?$AAe?$AAl?$AA?4?$AAC?$AAo?$AAl?$AAu?$AAm@
244AC 40 ??_C@_1CO@PEIMNADN@?$AAT?$AAe?$AAm?$AAp?$AAP?$AAa?$AAn?$AAe?$AAl?$AA?4?$AAC?$AAo?$AAl?$AAu?$AAm@
244DC 40 ??_C@_1DI@DFFNPDGJ@?$AAT?$AAe?$AAm?$AAp?$AAP?$AAa?$AAn?$AAe?$AAl?$AA?4?$AAS?$AAt?$AAa?$AAt?$AAu@
24514 40 ??_C@_1DK@GODNGDDP@?$AAT?$AAe?$AAm?$AAp?$AAP?$AAa?$AAn?$AAe?$AAl?$AA?4?$AAS?$AAt?$AAa?$AAt?$AAu@
24550 40 ??_C@_1BO@JLKBMGBC@?$AAT?$AAe?$AAm?$AAp?$AAP?$AAa?$AAn?$AAe?$AAl?$AA?4?$AAM?$AAa?$AAs?$AAk@
24570 40 ??_C@_1CC@CFPIPDCG@?$AAT?$AAe?$AAm?$AAp?$AAP?$AAa?$AAn?$AAe?$AAl?$AA?4?$AAP?$AAr?$AAe?$AAf?$AAi@
24598 40 ??_7PluginEditFieldBinding@@6B@
245A4 40 ??_7PluginCheckBoxBinding@@6B@
245AC 41 ??_C@_15ENGMLLEF@?$AAL?$AAN@
245B4 41 ??_C@_13DEFPDAGF@?$AA?0@
245B8 41 ??_C@_13BNMMGIII@?$AAO@
245BC 41 ??_C@_15DDHGOCBH@?$AA?4?$AA?4@
245C4 41 ??_C@_19NHGNNLNG@?$AA?$CI?$AAR?$AA?$CJ?$AA?5@
245D0 41 ??_C@_13OHNMPHJM@?$AA?$FN@
245D4 41 ??_C@_15FFJNNDMJ@?$AA?5?$AA?$FL@
245DC 41 ??_C@_13FPGAJAPJ@?$AA?2@
245E0 41 ??_C@_13BBDEGPLJ@?$AA?$CK@
245E4 41 ??_C@_13JOFGPIOO@?$AA?4@
245E8 41 ??_C@_1M@HCONLDPB@?$AAp?$AAa?$AAn?$AAe?$AAl@
245F4 41 ??_C@_15EAECJAPL@?$AA?$CK?$AA?$DP@
245FC 41 ??_C@_1CE@FHMHDLFC@?$AAT?$AAm?$AAp?$AAP?$AAa?$AAn?$AAe?$AAl?$AA?4?$AAS?$AAa?$AAv?$AAe?$AAL?$AAi@
24620 41 ??_C@_15JNBOKNOG@?$AA?$AN?$AA?6@
24628 41 ??_C@_02PCIJFNDE@?$AN?6@
2462C 41 ??_C@_0BK@OGNNAFAB@invalid?5hash?5bucket?5count@
24648 41 ??_C@_0O@NKNMEGII@list?5too?5long@
24658 41 ??_C@_0BL@GOIGLPKN@unordered_map?1set?5too?5long@
24674 41 ??_C@_0BD@FGIAGBIG@bad?5variant?5access@
2468C 41 ??_7bad_variant_access@std@@6B@
24694 41 ?bom@?M@??SaveListFile@TmpPanel@@AAEXABV?$basic_string@_WU?$char_traits@_W@std@@V?$allocator@_W@2@@std@@@Z@4GB
24696 41 ?bomhi@?9??SaveListFile@TmpPanel@@AAEXABV?$basic_string@_WU?$char_traits@_W@std@@V?$allocator@_W@2@@std@@@Z@4EB
24698 41 ?bomlo@?9??SaveListFile@TmpPanel@@AAEXABV?$basic_string@_WU?$char_traits@_W@std@@V?$allocator@_W@2@@std@@@Z@4GB
246A0 41 ?FKeys@?1??GetOpenPanelInfo@TmpPanel@@QAEXAAUOpenPanelInfo@@@Z@4PAGA
246B8 42 ??_C@_1BC@NAEGMMKI@?$AA?2?$AA?2?$AA?$DP?$AA?2?$AAU?$AAN?$AAC?$AA?2@
246CC 42 ??_C@_19MJCDBCKE@?$AA?2?$AA?2?$AA?$DP?$AA?2@
246D8 42 ??_C@_13PJJBFPED@?$AA?$DL@
246DC 42 ??_C@_1CC@OPFFOEHP@?$AA?$CF?$AAF?$AAA?$AAR?$AAH?$AAO?$AAM?$AAE?$AA?$CF?$AA?$DL?$AA?$CF?$AAP?$AAA?$AAT?$AAH@
24700 42 ??_C@_19BKJMDJK@?$AA?2?$AA?2?$AA?4?$AA?2@
2470C 42 ??_C@_1CE@JKDBMIKG@?$AA?2?$AA?2?$AA?4?$AA?2?$AAP?$AAh?$AAy?$AAs?$AAi?$AAc?$AAa?$AAl?$AAD?$AAr?$AAi@
24730 42 ??_C@_1BE@BNONMOPA@?$AA?2?$AA?2?$AA?4?$AA?2?$AAc?$AAd?$AAr?$AAo?$AAm@
24744 192 ??_C@_0BG@JGJIBIIG@Wrapper_EncodePointer@
2475C 192 ??_C@_0BG@OMFOEGFD@Wrapper_DecodePointer@
24774 192 ??_C@_0BL@BBEHGDBL@Wrapper_GetModuleHandleExW@
24790 192 ??_C@_0BM@EDOCFJPK@Wrapper_InitializeSListHead@
247AC 192 ??_C@_0BO@MMMKJFKC@Wrapper_InterlockedFlushSList@
247CC 192 ??_C@_0CC@NAEDINGB@Wrapper_InterlockedPushEntrySLi@
247F0 192 ??_C@_0CB@CBAMEEON@Wrapper_GetNumaHighestNodeNumbe@
24814 192 ??_C@_0CH@OPPPOLHC@Wrapper_GetLogicalProcessorInfo@
2483C 192 ??_C@_0CA@MMHMBOOA@Wrapper_SetThreadStackGuarantee@
2485C 192 ??_C@_0CE@LIGPHONN@Wrapper_InitializeCriticalSecti@
24880 192 ??_C@_1CM@BFAMBNFD@?$AA?$CB?$AAx?$AA?9?$AAs?$AAy?$AAs?$AA?9?$AAd?$AAe?$AAf?$AAa?$AAu?$AAl?$AAt?$AA?9@
248AC 192 ??_C@_0BI@OMKKJAOO@Wrapper_CompareStringEx@
248C4 192 ??_C@_0BG@OHLPLANO@Wrapper_LCMapStringEx@
248DC 192 ??_C@_0CC@PDCHIDAD@Wrapper_SleepConditionVariableS@
24900 192 ??_C@_0CB@MCGLLAP@Wrapper_WakeAllConditionVariabl@
24924 192 ??_C@_0CA@DKBCMHCP@Wrapper_AcquireSRWLockExclusive@
24944 192 ??_C@_0CA@KKENLMMH@Wrapper_ReleaseSRWLockExclusive@
24964 192 ??_C@_0CD@HMIPNKOD@Wrapper_TryAcquireSRWLockExclus@
24988 192 ??_C@_0BK@DDPOCJPI@Wrapper_InitializeSRWLock@
249A4 192 ??_C@_0BB@OCIMNOFH@Wrapper_FlsAlloc@
249B8 192 ??_C@_0BE@MINHNHKC@Wrapper_FlsGetValue@
249CC 192 ??_C@_0BE@DJPLMENP@Wrapper_FlsSetValue@
249E0 192 ??_C@_0BA@BHMHFMJC@Wrapper_FlsFree@
249F0 192 ?kernel32@modules@@3QB_WB
24A04 41 __real@4f800000
24A08 27 __load_config_used
24B40 50 ??_R4logic_error@std@@6B@
24B54 50 ??_R3logic_error@std@@8
24B64 50 ??_R2logic_error@std@@8
24B70 50 ??_R1A@?0A@EA@logic_error@std@@8
24B8C 50 ??_R4length_error@std@@6B@
24BA0 50 ??_R3length_error@std@@8
24BB0 50 ??_R2length_error@std@@8
24BC0 50 ??_R1A@?0A@EA@length_error@std@@8
24BDC 50 ??_R4out_of_range@std@@6B@
24BF0 50 ??_R3out_of_range@std@@8
24C00 50 ??_R2out_of_range@std@@8
24C10 50 ??_R1A@?0A@EA@out_of_range@std@@8
24C2C 33 ??_R4type_info@@6B@
24C40 33 ??_R3type_info@@8
24C50 33 ??_R2type_info@@8
24C58 33 ??_R1A@?0A@EA@type_info@@8
24C74 172 ??_R4bad_exception@std@@6B@
24C88 172 ??_R3bad_exception@std@@8
24C98 172 ??_R2bad_exception@std@@8
24CA4 172 ??_R1A@?0A@EA@bad_exception@std@@8
24CC0 44 ??_R1A@?0A@EA@bad_array_new_length@std@@8
24CDC 44 ??_R2bad_array_new_length@std@@8
24CEC 44 ??_R3bad_array_new_length@std@@8
24CFC 44 ??_R4bad_array_new_length@std@@6B@
24D10 44 ??_R1A@?0A@EA@bad_alloc@std@@8
24D2C 44 ??_R2bad_alloc@std@@8
24D38 44 ??_R3bad_alloc@std@@8
24D48 44 ??_R4bad_alloc@std@@6B@
24D5C 44 ??_R1A@?0A@EA@exception@std@@8
24D78 44 ??_R2exception@std@@8
24D80 44 ??_R3exception@std@@8
24D90 44 ??_R4exception@std@@6B@
24DA4 40 ??_R1A@?0A@EA@PluginEditFieldBinding@@8
24DC0 40 ??_R2PluginEditFieldBinding@@8
24DCC 40 ??_R3PluginEditFieldBinding@@8
24DDC 40 ??_R4PluginEditFieldBinding@@6B@
24DF0 40 ??_R1A@?0A@EA@PluginCheckBoxBinding@@8
24E0C 40 ??_R2DialogAPIBinding@@8
24E14 40 ??_R3DialogAPIBinding@@8
24E24 40 ??_R1A@?0A@EA@DialogAPIBinding@@8
24E40 40 ??_R2PluginCheckBoxBinding@@8
24E4C 40 ??_R3PluginCheckBoxBinding@@8
24E5C 40 ??_R4PluginCheckBoxBinding@@6B@
24E70 41 ??_R1A@?0A@EA@bad_variant_access@std@@8
24E8C 41 ??_R2bad_variant_access@std@@8
24E98 41 ??_R3bad_variant_access@std@@8
24EA8 41 ??_R4bad_variant_access@std@@6B@
24EBC 3 ___safe_se_handler_table
24F98 3 ___volatile_metadata
253A4 26 ___rtc_iaa
253A8 26 ___rtc_izz
253AC 26 ___rtc_taa
253B0 26 ___rtc_tzz
253B8 41 __ehfuncinfo$??C?$block_ptr@UPluginPanelItem@@$00@@QBE@XZ
253DC 41 __unwindtable$??C?$block_ptr@UPluginPanelItem@@$00@@QBE@XZ
253E4 44 __ehfuncinfo$?ReadFileLines@@YA?AV?$vector@V?$basic_string@_WU?$char_traits@_W@std@@V?$allocator@_W@2@@std@@V?$allocator@V?$basic_string@_WU?$char_traits@_W@std@@V?$allocator@_W@2@@std@@@2@@std@@QAXK@Z
25408 44 __unwindtable$?ReadFileLines@@YA?AV?$vector@V?$basic_string@_WU?$char_traits@_W@std@@V?$allocator@_W@2@@std@@V?$allocator@V?$basic_string@_WU?$char_traits@_W@std@@V?$allocator@_W@2@@std@@@2@@std@@QAXK@Z
25418 44 __ehfuncinfo$?ReadFileList@@YA?AV?$vector@V?$basic_string@_WU?$char_traits@_W@std@@V?$allocator@_W@2@@std@@V?$allocator@V?$basic_string@_WU?$char_traits@_W@std@@V?$allocator@_W@2@@std@@@2@@std@@V?$basic_string_view@_WU?$char_traits@_W@std@@@2@@Z
2543C 44 __unwindtable$?ReadFileList@@YA?AV?$vector@V?$basic_string@_WU?$char_traits@_W@std@@V?$allocator@_W@2@@std@@V?$allocator@V?$basic_string@_WU?$char_traits@_W@std@@V?$allocator@_W@2@@std@@@2@@std@@V?$basic_string_view@_WU?$char_traits@_W@std@@@2@@Z
25464 44 __ehfuncinfo$?ShowMenuFromList@@YAXABV?$basic_string@_WU?$char_traits@_W@std@@V?$allocator@_W@2@@std@@@Z
25488 44 __unwindtable$?ShowMenuFromList@@YAXABV?$basic_string@_WU?$char_traits@_W@std@@V?$allocator@_W@2@@std@@@Z
254C0 44 __ehfuncinfo$?ProcessList@@YAXAAVTmpPanel@@V?$basic_string_view@_WU?$char_traits@_W@std@@@std@@_N@Z
254E4 44 __unwindtable$?ProcessList@@YAXAAVTmpPanel@@V?$basic_string_view@_WU?$char_traits@_W@std@@@std@@_N@Z
254EC 44 __ehfuncinfo$?run_command@@YA?AV?$basic_string@_WU?$char_traits@_W@std@@V?$allocator@_W@2@@std@@ABV12@@Z
25510 44 __unwindtable$?run_command@@YA?AV?$basic_string@_WU?$char_traits@_W@std@@V?$allocator@_W@2@@std@@ABV12@@Z
25540 41 __ehfuncinfo$?GetFindData@TmpPanel@@QAEHAAPAUPluginPanelItem@@AAI_K@Z
25564 41 __unwindtable$?GetFindData@TmpPanel@@QAEHAAPAUPluginPanelItem@@AAI_K@Z
2556C 44 __ehfuncinfo$?OpenPanelFromOutput@@YA?AV?$unique_ptr@VTmpPanel@@U?$default_delete@VTmpPanel@@@std@@@std@@ABV?$basic_string@_WU?$char_traits@_W@std@@V?$allocator@_W@2@@2@@Z
25590 44 __unwindtable$?OpenPanelFromOutput@@YA?AV?$unique_ptr@VTmpPanel@@U?$default_delete@VTmpPanel@@@std@@@std@@ABV?$basic_string@_WU?$char_traits@_W@std@@V?$allocator@_W@2@@2@@Z
255B0 44 __ehfuncinfo$_SetStartupInfoW@4
255D4 44 __unwindtable$_SetStartupInfoW@4
255DC 42 __ehfuncinfo$?isDevice@@YA_NV?$basic_string_view@_WU?$char_traits@_W@std@@@std@@0@Z
25600 42 __unwindtable$?isDevice@@YA_NV?$basic_string_view@_WU?$char_traits@_W@std@@@std@@0@Z
25608 44 __ehfuncinfo$??0PluginPanel@@QAE@XZ
2562C 44 __unwindtable$??0PluginPanel@@QAE@XZ
2563C 44 __ehfuncinfo$??$_Emplace_reallocate@$$CBV?$basic_string_view@_WU?$char_traits@_W@std@@@std@@@?$vector@V?$basic_string@_WU?$char_traits@_W@std@@V?$allocator@_W@2@@std@@V?$allocator@V?$basic_string@_WU?$char_traits@_W@std@@V?$allocator@_W@2@@std@@@2@@std@@AAEPAV?$basic_string@_WU?$char_traits@_W@std@@V?$allocator@_W@2@@1@QAV21@$$QBV?$basic_string_view@_WU?$char_traits@_W@std@@@1@@Z
25660 44 __unwindtable$??$_Emplace_reallocate@$$CBV?$basic_string_view@_WU?$char_traits@_W@std@@@std@@@?$vector@V?$basic_string@_WU?$char_traits@_W@std@@V?$allocator@_W@2@@std@@V?$allocator@V?$basic_string@_WU?$char_traits@_W@std@@V?$allocator@_W@2@@std@@@2@@std@@AAEPAV?$basic_string@_WU?$char_traits@_W@std@@V?$allocator@_W@2@@1@QAV21@$$QBV?$basic_string_view@_WU?$char_traits@_W@std@@@1@@Z
25670 44 __tryblocktable$??$_Emplace_reallocate@$$CBV?$basic_string_view@_WU?$char_traits@_W@std@@@std@@@?$vector@V?$basic_string@_WU?$char_traits@_W@std@@V?$allocator@_W@2@@std@@V?$allocator@V?$basic_string@_WU?$char_traits@_W@std@@V?$allocator@_W@2@@std@@@2@@std@@AAEPAV?$basic_string@_WU?$char_traits@_W@std@@V?$allocator@_W@2@@1@QAV21@$$QBV?$basic_string_view@_WU?$char_traits@_W@std@@@1@@Z
25684 44 __catchsym$??$_Emplace_reallocate@$$CBV?$basic_string_view@_WU?$char_traits@_W@std@@@std@@@?$vector@V?$basic_string@_WU?$char_traits@_W@std@@V?$allocator@_W@2@@std@@V?$allocator@V?$basic_string@_WU?$char_traits@_W@std@@V?$allocator@_W@2@@std@@@2@@std@@AAEPAV?$basic_string@_WU?$char_traits@_W@std@@V?$allocator@_W@2@@1@QAV21@$$QBV?$basic_string_view@_WU?$char_traits@_W@std@@@1@@Z$4
25694 40 __ehfuncinfo$?GetOptions@@YAXXZ
256B8 40 __unwindtable$?GetOptions@@YAXXZ
256C8 40 __ehfuncinfo$?Config@@YA_NXZ
256EC 40 __unwindtable$?Config@@YA_NXZ
2570C 40 __ehfuncinfo$??1PluginDialogBuilder@@QAE@XZ
25730 41 __ehfuncinfo$??0TmpPanel@@QAE@V?$basic_string_view@_WU?$char_traits@_W@std@@@std@@@Z
25754 41 __unwindtable$??0TmpPanel@@QAE@V?$basic_string_view@_WU?$char_traits@_W@std@@@std@@@Z
2575C 41 __ehfuncinfo$?GetOpenPanelInfo@TmpPanel@@QAEXAAUOpenPanelInfo@@@Z
25780 41 __unwindtable$?GetOpenPanelInfo@TmpPanel@@QAEXAAUOpenPanelInfo@@@Z
257A8 41 __ehfuncinfo$?PutDirectoryContents@TmpPanel@@QAE_NPB_W@Z
257CC 41 __unwindtable$?PutDirectoryContents@TmpPanel@@QAE_NPB_W@Z
257E4 41 __ehfuncinfo$??$emplace_back@AAPB_W@?$list@V?$basic_string@_WU?$char_traits@_W@std@@V?$allocator@_W@2@@std@@V?$allocator@V?$basic_string@_WU?$char_traits@_W@std@@V?$allocator@_W@2@@std@@@2@@std@@QAE?A_TAAPB_W@Z
25808 41 __unwindtable$??$emplace_back@AAPB_W@?$list@V?$basic_string@_WU?$char_traits@_W@std@@V?$allocator@_W@2@@std@@V?$allocator@V?$basic_string@_WU?$char_traits@_W@std@@V?$allocator@_W@2@@std@@@2@@std@@QAE?A_TAAPB_W@Z
25810 41 __ehfuncinfo$?PutOneFile@TmpPanel@@QAE_NABV?$basic_string@_WU?$char_traits@_W@std@@V?$allocator@_W@2@@std@@ABUPluginPanelItem@@@Z
25834 41 __unwindtable$?PutOneFile@TmpPanel@@QAE_NABV?$basic_string@_WU?$char_traits@_W@std@@V?$allocator@_W@2@@std@@ABUPluginPanelItem@@@Z
2583C 41 __ehfuncinfo$?PutOneFile@TmpPanel@@QAE_NABV?$basic_string@_WU?$char_traits@_W@std@@V?$allocator@_W@2@@std@@@Z
25860 41 __unwindtable$?PutOneFile@TmpPanel@@QAE_NABV?$basic_string@_WU?$char_traits@_W@std@@V?$allocator@_W@2@@std@@@Z
25868 41 __ehfuncinfo$?SetFindList@TmpPanel@@QAEHV?$span@$$CBUPluginPanelItem@@$0PPPPPPPP@@std@@@Z
2588C 41 __unwindtable$?SetFindList@TmpPanel@@QAEHV?$span@$$CBUPluginPanelItem@@$0PPPPPPPP@@std@@@Z
2589C 41 __ehfuncinfo$?RemoveDups@TmpPanel@@AAEXXZ
258C0 41 __unwindtable$?RemoveDups@TmpPanel@@AAEXXZ
258C8 41 __ehfuncinfo$?UpdateItems@TmpPanel@@AAEX_N0@Z
258EC 41 __unwindtable$?UpdateItems@TmpPanel@@AAEX_N0@Z
2591C 41 __ehfuncinfo$?ProcessEvent@TmpPanel@@QAEHHPAX@Z
25940 41 __unwindtable$?ProcessEvent@TmpPanel@@QAEHHPAX@Z
25948 41 __ehfuncinfo$?IsCurrentFileCorrect@TmpPanel@@AAE?AV?$basic_string@_WU?$char_traits@_W@std@@V?$allocator@_W@2@@std@@XZ
2596C 41 __unwindtable$?IsCurrentFileCorrect@TmpPanel@@AAE?AV?$basic_string@_WU?$char_traits@_W@std@@V?$allocator@_W@2@@std@@XZ
2599C 41 __ehfuncinfo$?ProcessKey@TmpPanel@@QAE_NPBU_INPUT_RECORD@@@Z
259C0 41 __unwindtable$?ProcessKey@TmpPanel@@QAE_NPBU_INPUT_RECORD@@@Z
259E0 41 __ehfuncinfo$?ProcessRemoveKey@TmpPanel@@AAEXXZ
25A04 41 __unwindtable$?ProcessRemoveKey@TmpPanel@@AAEXXZ
25A20 41 __ehfuncinfo$?ProcessSaveListKey@TmpPanel@@AAEXXZ
25A48 41 __unwindtable$?ProcessSaveListKey@TmpPanel@@AAEXXZ
25A88 41 __ehfuncinfo$?SaveListFile@TmpPanel@@AAEXABV?$basic_string@_WU?$char_traits@_W@std@@V?$allocator@_W@2@@std@@@Z
25AAC 41 __unwindtable$?SaveListFile@TmpPanel@@AAEXABV?$basic_string@_WU?$char_traits@_W@std@@V?$allocator@_W@2@@std@@@Z
25AD4 41 __ehfuncinfo$?ProcessPanelSwitchMenu@TmpPanel@@AAEXXZ
25AF8 41 __unwindtable$?ProcessPanelSwitchMenu@TmpPanel@@AAEXXZ
25B10 41 __ehfuncinfo$??0?$array_ptr@W4byte@std@@$00@@QAE@I_N@Z
25B34 41 __unwindtable$??0?$array_ptr@W4byte@std@@$00@@QAE@I_N@Z
25B3C 41 __ehfuncinfo$??$_Try_emplace@V?$basic_string_view@_WU?$char_traits@_W@std@@@std@@PAUPluginPanelItem@@@?$_Hash@V?$_Umap_traits@V?$basic_string_view@_WU?$char_traits@_W@std@@@std@@PAUPluginPanelItem@@V?$_Uhash_compare@V?$basic_string_view@_WU?$char_traits@_W@std@@@std@@U?$hash@V?$basic_string_view@_WU?$char_traits@_W@std@@@std@@@2@U?$equal_to@V?$basic_string_view@_WU?$char_traits@_W@std@@@std@@@2@@2@V?$allocator@U?$pair@$$CBV?$basic_string_view@_WU?$char_traits@_W@std@@@std@@PAUPluginPanelItem@@@std@@@2@$0A@@std@@@std@@IAE?AU?$pair@PAU?$_List_node@U?$pair@$$CBV?$basic_string_view@_WU?$char_traits@_W@std@@@std@@PAUPluginPanelItem@@@std@@PAX@std@@_N@1@$$QAV?$basic_string_view@_WU?$char_traits@_W@std@@@1@$$QAPAUPluginPanelItem@@@Z
25B60 41 __unwindtable$??$_Try_emplace@V?$basic_string_view@_WU?$char_traits@_W@std@@@std@@PAUPluginPanelItem@@@?$_Hash@V?$_Umap_traits@V?$basic_string_view@_WU?$char_traits@_W@std@@@std@@PAUPluginPanelItem@@V?$_Uhash_compare@V?$basic_string_view@_WU?$char_traits@_W@std@@@std@@U?$hash@V?$basic_string_view@_WU?$char_traits@_W@std@@@std@@@2@U?$equal_to@V?$basic_string_view@_WU?$char_traits@_W@std@@@std@@@2@@2@V?$allocator@U?$pair@$$CBV?$basic_string_view@_WU?$char_traits@_W@std@@@std@@PAUPluginPanelItem@@@std@@@2@$0A@@std@@@std@@IAE?AU?$pair@PAU?$_List_node@U?$pair@$$CBV?$basic_string_view@_WU?$char_traits@_W@std@@@std@@PAUPluginPanelItem@@@std@@PAX@std@@_N@1@$$QAV?$basic_string_view@_WU?$char_traits@_W@std@@@1@$$QAPAUPluginPanelItem@@@Z
25B70 42 __ehfuncinfo$?GoToFile@@YAXABV?$basic_string@_WU?$char_traits@_W@std@@V?$allocator@_W@2@@std@@_N@Z
25B94 42 __unwindtable$?GoToFile@@YAXABV?$basic_string@_WU?$char_traits@_W@std@@V?$allocator@_W@2@@std@@_N@Z
25BC4 42 __ehfuncinfo$?FormNtPath@@YA?AV?$basic_string@_WU?$char_traits@_W@std@@V?$allocator@_W@2@@std@@V?$basic_string_view@_WU?$char_traits@_W@std@@@2@@Z
25BE8 42 __unwindtable$?FormNtPath@@YA?AV?$basic_string@_WU?$char_traits@_W@std@@V?$allocator@_W@2@@std@@V?$basic_string_view@_WU?$char_traits@_W@std@@@2@@Z
25BF8 42 __ehfuncinfo$?ExpandEnvStrs@@YA?AV?$basic_string@_WU?$char_traits@_W@std@@V?$allocator@_W@2@@std@@V?$basic_string_view@_WU?$char_traits@_W@std@@@2@@Z
25C1C 42 __unwindtable$?ExpandEnvStrs@@YA?AV?$basic_string@_WU?$char_traits@_W@std@@V?$allocator@_W@2@@std@@V?$basic_string_view@_WU?$char_traits@_W@std@@@2@@Z
25C34 42 __ehfuncinfo$?search_path@@YA?AV?$basic_string@_WU?$char_traits@_W@std@@V?$allocator@_W@2@@std@@ABV12@0@Z
25C58 42 __unwindtable$?search_path@@YA?AV?$basic_string@_WU?$char_traits@_W@std@@V?$allocator@_W@2@@std@@ABV12@0@Z
25C60 42 __ehfuncinfo$?FindListFile@@YA?AV?$basic_string@_WU?$char_traits@_W@std@@V?$allocator@_W@2@@std@@ABV12@@Z
25C84 42 __unwindtable$?FindListFile@@YA?AV?$basic_string@_WU?$char_traits@_W@std@@V?$allocator@_W@2@@std@@ABV12@@Z
25CAC 42 __ehfuncinfo$?GetFileInfoAndValidate@@YA_NV?$basic_string_view@_WU?$char_traits@_W@std@@@std@@AAUPluginPanelItem@@AAV?$basic_string@_WU?$char_traits@_W@std@@V?$allocator@_W@2@@2@_N@Z
25CD0 42 __unwindtable$?GetFileInfoAndValidate@@YA_NV?$basic_string_view@_WU?$char_traits@_W@std@@@std@@AAUPluginPanelItem@@AAV?$basic_string@_WU?$char_traits@_W@std@@V?$allocator@_W@2@@2@_N@Z
25CF0 42 __ehfuncinfo$??0?$null_terminated_t@_W@@QAE@V?$basic_string_view@_WU?$char_traits@_W@std@@@std@@@Z
25D14 42 __unwindtable$??0?$null_terminated_t@_W@@QAE@V?$basic_string_view@_WU?$char_traits@_W@std@@@std@@@Z
25D1C 50 __TI2?AVbad_alloc@std@@
25D2C 50 __CTA2?AVbad_alloc@std@@
25D38 50 __CT??_R0?AVlogic_error@std@@@8??0logic_error@std@@QAE@ABV01@@Z12
25D54 50 __TI3?AVlength_error@std@@
25D64 50 __CTA3?AVlength_error@std@@
25D74 50 __CT??_R0?AVlength_error@std@@@8??0length_error@std@@QAE@ABV01@@Z12
25D90 50 __TI3?AVout_of_range@std@@
25DA0 50 __CTA3?AVout_of_range@std@@
25DB0 50 __CT??_R0?AVout_of_range@std@@@8??0out_of_range@std@@QAE@ABV01@@Z12
25DD0 37 __sehtable$___scrt_is_nonwritable_in_current_image
25DF0 18 __sehtable$??_M@YGXPAXIIP6EX0@Z@Z
25E10 18 __sehtable$?__ArrayUnwind@@YGXPAXIIP6EX0@Z@Z
25E30 17 __sehtable$??_L@YGXPAXIIP6EX0@Z1@Z
25E50 13 __sehtable$?dllmain_crt_process_attach@@YAHQAUHINSTANCE__@@QAX@Z
25E70 13 __sehtable$?dllmain_crt_process_detach@@YAH_N@Z
25E98 13 __sehtable$?dllmain_dispatch@@YAHQAUHINSTANCE__@@KQAX@Z
25EB8 168 __sehtable$___DestructExceptionObject
25ED8 172 __sehtable$?FrameUnwindToState@__FrameHandler3@@SAXPAUEHRegistrationNode@@PAXPBU_s_FuncInfo@@H@Z
25F00 172 __sehtable$?CallCatchBlock@@YAPAXPAUEHExceptionRecord@@PAUEHRegistrationNode@@PAU_CONTEXT@@PBU_s_FuncInfo@@PAXHK@Z
25F28 172 __catchsym$?CallUnexpected@@YAXPBU_s_ESTypeList@@@Z$2
25F38 172 __unwindtable$?CallUnexpected@@YAXPBU_s_ESTypeList@@@Z
25F48 172 __tryblocktable$?CallUnexpected@@YAXPBU_s_ESTypeList@@@Z
25F5C 172 __ehfuncinfo$?CallUnexpected@@YAXPBU_s_ESTypeList@@@Z
25F80 172 __sehtable$??$BuildCatchObjectHelperInternal@V__FrameHandler3@@@@YAHPAUEHExceptionRecord@@PAXPBU_s_HandlerType@@PBU_s_CatchableType@@@Z
25FA0 172 __sehtable$??$BuildCatchObjectInternal@V__FrameHandler3@@@@YAXPAUEHExceptionRecord@@PAXPBU_s_HandlerType@@PBU_s_CatchableType@@@Z
25FBC 172 __TI2?AVbad_exception@std@@
25FCC 172 __CTA2?AVbad_exception@std@@
25FD8 172 __CT??_R0?AVbad_exception@std@@@8??0bad_exception@std@@QAE@ABV01@@Z12
25FF4 78 __unwindtable$?common_exit@@YAXHW4_crt_exit_cleanup_mode@@W4_crt_exit_return_mode@@@Z
25FFC 78 __ehfuncinfo$?common_exit@@YAXHW4_crt_exit_cleanup_mode@@W4_crt_exit_return_mode@@@Z
26020 78 __sehtable$??R<lambda_6e4b09c48022b2350581041d5f6b0c4c>@@QBE@XZ
26040 78 __sehtable$??$?RV<lambda_03b1d95aef87969028cfba75ccab2455>@@AAV<lambda_6e4b09c48022b2350581041d5f6b0c4c>@@V<lambda_22bdf7517842c4b3e53723af5aa32b9e>@@@?$__crt_seh_guarded_call@X@@QAEX$$QAV<lambda_03b1d95aef87969028cfba75ccab2455>@@AAV<lambda_6e4b09c48022b2350581041d5f6b0c4c>@@$$QAV<lambda_22bdf7517842c4b3e53723af5aa32b9e>@@@Z
2605C 75 __unwindtable$___dcrt_uninitialize_environments_nolock
2606C 75 __ehfuncinfo$___dcrt_uninitialize_environments_nolock
26090 136 __unwindtable$__execute_onexit_table
26098 136 __ehfuncinfo$__execute_onexit_table
260C0 136 __sehtable$??$?RV<lambda_8e746cf0007f6ed984d6f78af1fec997>@@AAV<lambda_22ebabd17bc4fa466a2aca6d8deb888d>@@V<lambda_18ed0c0b38a6dc0daf1e7ac6d6adf05e>@@@?$__crt_seh_guarded_call@H@@QAEH$$QAV<lambda_8e746cf0007f6ed984d6f78af1fec997>@@AAV<lambda_22ebabd17bc4fa466a2aca6d8deb888d>@@$$QAV<lambda_18ed0c0b38a6dc0daf1e7ac6d6adf05e>@@@Z
260E0 136 __sehtable$??$?RV<lambda_69a2805e680e0e292e8ba93315fe43a8>@@AAV<lambda_f03950bc5685219e0bcd2087efbe011e>@@V<lambda_03fcd07e894ec930e3f35da366ca99d6>@@@?$__crt_seh_guarded_call@H@@QAEH$$QAV<lambda_69a2805e680e0e292e8ba93315fe43a8>@@AAV<lambda_f03950bc5685219e0bcd2087efbe011e>@@$$QAV<lambda_03fcd07e894ec930e3f35da366ca99d6>@@@Z
26100 133 __sehtable$__query_new_handler
26120 158 __sehtable$_terminate
26140 140 __sehtable$??$?RV<lambda_15ade71b0218206bbe3333a0c9b79046>@@AAV<lambda_da44e0f8b0f19ba52fefafb335991732>@@V<lambda_207f2d024fc103971653565357d6cd41>@@@?$__crt_seh_guarded_call@X@@QAEX$$QAV<lambda_15ade71b0218206bbe3333a0c9b79046>@@AAV<lambda_da44e0f8b0f19ba52fefafb335991732>@@$$QAV<lambda_207f2d024fc103971653565357d6cd41>@@@Z
26160 140 __sehtable$??$?RV<lambda_a7e850c220f1c8d1e6efeecdedd162c6>@@AAV<lambda_46720907175c18b6c9d2717bc0d2d362>@@V<lambda_9048902d66e8d99359bc9897bbb930a8>@@@?$__crt_seh_guarded_call@X@@QAEX$$QAV<lambda_a7e850c220f1c8d1e6efeecdedd162c6>@@AAV<lambda_46720907175c18b6c9d2717bc0d2d362>@@$$QAV<lambda_9048902d66e8d99359bc9897bbb930a8>@@@Z
26180 140 __sehtable$??$?RV<lambda_38edbb1296d33220d7e4dd0ed76b244a>@@AAV<lambda_5ce1d447e08cb34b2473517608e21441>@@V<lambda_fb385d3da700c9147fc39e65dd577a8c>@@@?$__crt_seh_guarded_call@X@@QAEX$$QAV<lambda_38edbb1296d33220d7e4dd0ed76b244a>@@AAV<lambda_5ce1d447e08cb34b2473517608e21441>@@$$QAV<lambda_fb385d3da700c9147fc39e65dd577a8c>@@@Z
261A0 140 __sehtable$??$?RV<lambda_6affb1475c98b40b75cdec977db92e3c>@@AAV<lambda_b8d4b9c228a6ecc3f80208dbb4b4a104>@@V<lambda_608742c3c92a14382c1684fc64f96c88>@@@?$__crt_seh_guarded_call@X@@QAEX$$QAV<lambda_6affb1475c98b40b75cdec977db92e3c>@@AAV<lambda_b8d4b9c228a6ecc3f80208dbb4b4a104>@@$$QAV<lambda_608742c3c92a14382c1684fc64f96c88>@@@Z
261C0 166 __sehtable$??$?RV<lambda_e5124f882df8998aaf41531e079ba474>@@AAV<lambda_3e16ef9562a7dcce91392c22ab16ea36>@@V<lambda_e25ca0880e6ef98be67edffd8c599615>@@@?$__crt_seh_guarded_call@X@@QAEX$$QAV<lambda_e5124f882df8998aaf41531e079ba474>@@AAV<lambda_3e16ef9562a7dcce91392c22ab16ea36>@@$$QAV<lambda_e25ca0880e6ef98be67edffd8c599615>@@@Z
261E0 125 __sehtable$?update_thread_multibyte_data_internal@@YAPAU__crt_multibyte_data@@QAU__acrt_ptd@@QAPAU1@@Z
26200 125 __sehtable$??$?RV<lambda_ceb1ee4838e85a9d631eb091e2fbe199>@@AAV<lambda_ae742caa10f662c28703da3d2ea5e57e>@@V<lambda_cd08b5d6af4937fe54fc07d0c9bf6b37>@@@?$__crt_seh_guarded_call@X@@QAEX$$QAV<lambda_ceb1ee4838e85a9d631eb091e2fbe199>@@AAV<lambda_ae742caa10f662c28703da3d2ea5e57e>@@$$QAV<lambda_cd08b5d6af4937fe54fc07d0c9bf6b37>@@@Z
26220 105 __sehtable$___acrt_initialize_lowio
26240 149 __sehtable$_raise
26260 149 __sehtable$??$?RV<lambda_cbab9ec6f41b0180b23cc171c22676b0>@@AAV<lambda_44731a7d0e6d81c3e6aa82d741081786>@@V<lambda_4b292cb8dd18144e164572427af410ab>@@@?$__crt_seh_guarded_call@P6AXH@Z@@QAEP6AXH@Z$$QAV<lambda_cbab9ec6f41b0180b23cc171c22676b0>@@AAV<lambda_44731a7d0e6d81c3e6aa82d741081786>@@$$QAV<lambda_4b292cb8dd18144e164572427af410ab>@@@Z
26280 81 __sehtable$??$?RV<lambda_2866be3712abc81a800a822484c830d8>@@AAV<lambda_39ca0ed439415581b5b15c265174cece>@@V<lambda_2b24c74d71094a6cd0cb82e44167d71b>@@@?$__crt_seh_guarded_call@X@@QAEX$$QAV<lambda_2866be3712abc81a800a822484c830d8>@@AAV<lambda_39ca0ed439415581b5b15c265174cece>@@$$QAV<lambda_2b24c74d71094a6cd0cb82e44167d71b>@@@Z
262A0 81 __sehtable$??$?RV<lambda_2cc53f568c5a2bb6f192f930a45d44ea>@@AAV<lambda_ab61a845afdef5b7c387490eaf3616ee>@@V<lambda_c2ffc0b7726aa6be21d5f0026187e748>@@@?$__crt_seh_guarded_call@X@@QAEX$$QAV<lambda_2cc53f568c5a2bb6f192f930a45d44ea>@@AAV<lambda_ab61a845afdef5b7c387490eaf3616ee>@@$$QAV<lambda_c2ffc0b7726aa6be21d5f0026187e748>@@@Z
262C0 113 __sehtable$___acrt_update_thread_locale_data
262E0 137 __sehtable$___acrt_lowio_ensure_fh_exists
26300 70 __sehtable$??$?RV<lambda_9e9de3de5fa147e2223d7db92bc10aa6>@@AAV<lambda_38ce7e780aa69e748d6df282ebc68efe>@@V<lambda_8ca6da459f0f6780f1cff60fdc3d00e5>@@@?$__crt_seh_guarded_call@H@@QAEH$$QAV<lambda_9e9de3de5fa147e2223d7db92bc10aa6>@@AAV<lambda_38ce7e780aa69e748d6df282ebc68efe>@@$$QAV<lambda_8ca6da459f0f6780f1cff60fdc3d00e5>@@@Z
26320 165 __sehtable$__write_internal
26340 69 __sehtable$__fcloseall
26360 79 __sehtable$?_fclose_internal@@YAHQAU_iobuf@@AAV__crt_cached_ptd_host@@@Z
26380 68 __sehtable$??$?RV<lambda_d422a76eb4c3bf3ad751449ab71a6ea4>@@AAV<lambda_c9ba49e555ba839a7b07aa3fbecb7617>@@V<lambda_9476263c8ee91a25d21c55370bdb50de>@@@?$__crt_seh_guarded_call@H@@QAEH$$QAV<lambda_d422a76eb4c3bf3ad751449ab71a6ea4>@@AAV<lambda_c9ba49e555ba839a7b07aa3fbecb7617>@@$$QAV<lambda_9476263c8ee91a25d21c55370bdb50de>@@@Z
263A0 30 __sehtable$__IsNonwritableInCurrentImage
263BC 44 __CT??_R0?AVbad_array_new_length@std@@@8??0bad_array_new_length@std@@QAE@ABV01@@Z12
263D8 44 __CT??_R0?AVbad_alloc@std@@@8??0bad_alloc@std@@QAE@ABV01@@Z12
263F4 44 __CTA3?AVbad_array_new_length@std@@
26404 44 __TI3?AVbad_array_new_length@std@@
26414 44 __CT??_R0?AVexception@std@@@8??0exception@std@@QAE@ABV01@@Z12
26430 41 __CT??_R0?AVbad_variant_access@std@@@8??0bad_variant_access@std@@QAE@ABV01@@Z12
2644C 41 __CTA2?AVbad_variant_access@std@@
26458 41 __TI2?AVbad_variant_access@std@@
26470 43 .edata
26498 43 rgpv
264D4 43 rgszName
26510 43 rgwOrd
2652E 43 szName
2653B 43 $N00001
26544 43 $N00002
26550 43 $N00003
2655B 43 $N00004
26564 43 $N00005
26571 43 $N00006
26580 43 $N00007
26592 43 $N00008
265A1 43 $N00009
265A7 43 $N00010
265BA 43 $N00011
265CD 43 $N00012
265D7 43 $N00013
265E5 43 $N00014
265F2 43 $N00015
26604 48 __IMPORT_DESCRIPTOR_KERNEL32
26618 46 __IMPORT_DESCRIPTOR_ADVAPI32
2662C 190 __IMPORT_DESCRIPTOR_USER32
26640 189 __IMPORT_DESCRIPTOR_SHELL32
26654 48 __NULL_IMPORT_DESCRIPTOR
26A8E 48 .idata$6
26AAC 46 .idata$6
26AE4 190 .idata$6
26B00 189 .idata$6
27000 37 ___scrt_native_dllmain_reason
27008 8 ___isa_inverted
27010 8 ___isa_enabled
27040 21 ___security_cookie
27080 21 ___security_cookie_complement
27084 19 __fltused
27090 179 ?__vcrt_flsindex@@3KA
270A0 170 __NLG_Destination
270B0 60 ___abort_behavior
270C0 140 ?__acrt_flsindex@@3KA
270C8 135 ___acrt_initial_locale_data
27180 135 ___acrt_initial_locale_pointers
27188 135 ___acrt_wide_c_locale_string
2718C 76 ?errno_no_memory@@3HA
27190 76 ?doserrno_no_memory@@3KA
27198 125 ___acrt_initial_multibyte_data
273B8 125 __mbctypes
274C0 125 __mbcasemaps
275C0 125 ?__rgctypeflag@@3PADA
275C8 125 ?__rgcode_page_info@@3PAUcode_page_info@@A
276B8 55 __iob
27760 74 __pwctype
27768 115 ___acrt_lconv_c
277B8 115 ___acrt_lconv_static_decimal
277BC 115 ___acrt_lconv_static_W_decimal
277C0 95 ___globallocalestatus
277D0 144 __lookuptrailbytes
278D0 98 ?__dcrt_lowio_console_output_handle@@3PAXA
278E0 41 ?kbt@?1??GetOpenPanelInfo@TmpPanel@@QAEXAAUOpenPanelInfo@@@Z@4UKeyBarTitles@@A
278F0 44 ?Opt@@3Uoptions_t@@A
2799C 50 ??_R0?AVlogic_error@std@@@8
279BC 50 ??_R0?AVlength_error@std@@@8
279DC 50 ??_R0?AVout_of_range@std@@@8
279FC 172 ??_R0?AVbad_exception@std@@@8
27A1C 44 ??_R0?AVbad_array_new_length@std@@@8
27A44 44 ??_R0?AVbad_alloc@std@@@8
27A60 44 ??_R0?AVexception@std@@@8
27A7C 41 ??_R0?AVbad_variant_access@std@@@8
27AA4 33 ??_R0?AVtype_info@@@8
27ABC 40 ??_R0?AVPluginEditFieldBinding@@@8
27AE4 40 ??_R0?AVPluginCheckBoxBinding@@@8
27B08 40 ??_R0?AVDialogAPIBinding@@@8
27B30 37 ___scrt_current_native_startup_state
27B34 37 ___scrt_native_startup_lock
27B38 37 ?is_initialized_as_dll@@3_NA
27B39 37 ?module_local_atexit_table_initialized@@3_NA
27B3C 37 ?module_local_atexit_table@@3U_onexit_table_t@@A
27B48 37 ?module_local_at_quick_exit_table@@3U_onexit_table_t@@A
27B54 13 ?__proc_attached@@3HA
27B58 8 ___avx10_version
27B5C 8 ___isa_available
27B60 8 ___favor
27B68 22 _GS_ExceptionRecord
27BB8 22 _GS_ContextRecord
27E84 38 ___scrt_debugger_hook_flag
27E88 35 ?__type_info_root_node@@3U__type_info_node@@A
27E90 9 ?_OptionsStorage@?1??__local_stdio_printf_options@@9@4_KA
27E98 9 ?_OptionsStorage@?1??__local_stdio_scanf_options@@9@4_KA
27EA0 168 ?__WinRTOutOfMemoryExceptionCallback@@3P6GPAXXZA
27EA4 179 ?__vcrt_startup_thread_ptd@@3U__vcrt_ptd@@A
27ECC 180 ___pPurecall
27ED0 175 ___vcrt_lock_table
27EE8 175 ___vcrt_locks_initialized
27EEC 185 ?pArgList@UnDecorator@@0PAVReplicator@@A
27EF0 185 ?pZNameList@UnDecorator@@0PAVReplicator@@A
27EF4 185 ?pTemplateArgList@UnDecorator@@0PAVReplicator@@A
27EF8 185 ?gName@UnDecorator@@0PBDB
27EFC 185 ?name@UnDecorator@@0PBDB
27F00 185 ?disableFlags@UnDecorator@@0KA
27F04 185 ?fExplicitTemplateParams@UnDecorator@@0_NA
27F05 185 ?fGetTemplateArgumentList@UnDecorator@@0_NA
27F08 185 ?m_pGetParameter@UnDecorator@@0P6APADJ@ZA
27F0C 185 ?m_CHPENameOffset@UnDecorator@@0KA
27F10 185 ?m_recursionLevel@UnDecorator@@0KA
27F14 185 ?heap@@3V_HeapManager@@A
27F28 188 ?module_handles@@3PAPAUHINSTANCE__@@A
27F34 188 ?function_pointers@@3PAPAXA
27F48 104 ?__acrt_invalid_parameter_handler@@3V?$dual_state_global@P6AXPB_W00II@Z@__crt_state_management@@A
27F4C 78 ?c_termination_complete@@3JA
27F50 78 ?thread_local_exit_callback_func@@3P6GXPAXK0@ZA
27F54 78 ?c_exit_complete@?1???R<lambda_6e4b09c48022b2350581041d5f6b0c4c>@@QBE@XZ@4_NA
27F58 62 ?program_name@?1???$common_configure_argv@D@@YAHW4_crt_argv_mode@@@Z@4PADA
28060 75 __environ_table
28064 75 __wenviron_table
28068 75 ___dcrt_initial_wide_environment
2806C 75 ___dcrt_initial_narrow_environment
28070 136 ___acrt_atexit_table
2807C 136 ___acrt_at_quick_exit_table
28088 133 ?__acrt_new_handler@@3V?$dual_state_global@P6AHI@Z@__crt_state_management@@A
2808C 166 ___acrt_locale_changed_data
28090 135 ___acrt_current_locale_data
28098 116 ?__acrt_lock_table@@3PAU_RTL_CRITICAL_SECTION@@A
281E8 116 ?__acrt_locks_initialized@@3IA
281EC 125 __mbctype
281F0 125 __mbcasemap
281F4 125 ___acrt_current_multibyte_data
281F8 125 ?fSystemSet@@3HA
281FC 125 ?initialized@?1??__acrt_initialize_multibyte@@9@4_NA
28200 61 __pgmptr
28204 61 ___argc
28208 61 ___argv
2820C 61 ___wargv
28210 61 __acmdln
28214 61 __wcmdln
28218 164 ?module_handles@@3PAPAUHINSTANCE__@@A
28270 164 ?encoded_function_pointers@@3PAPAXA
282FC 96 ___acrt_heap
28300 105 ___pioinfo
28500 105 __nhandle
28504 149 ?ctrlc_action@@3V?$dual_state_global@P6AXH@Z@__crt_state_management@@A
28508 149 ?ctrlbreak_action@@3V?$dual_state_global@P6AXH@Z@__crt_state_management@@A
2850C 149 ?abort_action@@3V?$dual_state_global@P6AXH@Z@__crt_state_management@@A
28510 149 ?term_action@@3V?$dual_state_global@P6AXH@Z@__crt_state_management@@A
28514 123 ?user_matherr@@3V?$dual_state_global@P6AHPAU_exception@@@Z@__crt_state_management@@A
28518 55 __nstream
2851C 55 ___piob
28520 57 ___acrt_stdout_buffer
28524 57 ___acrt_stderr_buffer
28528 129 ?internal_state@?1??_mbtowc_internal@@9@4U_Mbstatet@@A
28530 115 ___acrt_lconv_static_null
28534 115 ___acrt_lconv_static_W_null
28538 134 ?__acrt_global_new_mode@@3V?$dual_state_global@J@__crt_state_management@@A
2853C 147 ?__acrt_app_type@@3W4_crt_app_type@@A
28540 126 ?internal_pst@?1??__mbrtoc32_utf8@__crt_mbstring@@YAIPA_UPBDIPAU_Mbstatet@@AAV__crt_cached_ptd_host@@@Z@4U3@A
28548 83 ___fastflag
2854C 111 __pmatherr_set
28550 47 ___@@_PchSym_@00@UhixUkoftrmhUgnkkzmvoUivovzhvODCOexUlyqUsvzwvihOlyq@4B2008FD98C1DD4
28558 44 ?FSF@@3UFarStandardFunctions@@A
28620 44 ?PsInfo@@3UPluginStartupInfo@@A
286AC 44 ?SharedData@@3PAUshared_data@@A
286B0 41 ?kbl@?1??GetOpenPanelInfo@TmpPanel@@QAEXAAUOpenPanelInfo@@@Z@4PAUKeyBarLabel@@A
286F0 44 ?DiskMenuStrings@?4??GetPluginInfoW@@9@4@4PAPB_WA
286F4 44 ?PluginMenuStrings@?7??GetPluginInfoW@@9@4@4PAPB_WA
286F8 44 ?PluginCfgStrings@?1??GetPluginInfoW@@9@4@4PAPB_WA
28700 41 ?PanelModesArray@?1??GetOpenPanelInfo@TmpPanel@@QAEXAAUOpenPanelInfo@@@Z@4PAUPanelMode@@A
28840 192 ?FunctionPointer@?1??Wrapper_FlsAlloc@@9@4@4Q6GKP6GXPAX@Z@ZA
28844 192 ?FunctionPointer@?1??Wrapper_CompareStringEx@@9@36@4Q6GHPB_WK0H0HPAU_nlsversioninfo@@PAXJ@ZA
28848 192 ?FunctionPointer@?1??Wrapper_InitializeSListHead@@9@4@4Q6GXPAT_SLIST_HEADER@@@ZA
2884C 192 ?$S11@?1??Wrapper_InitializeCriticalSectionEx@@9@12@4IA
28850 192 ?$S6@?1??Wrapper_InterlockedFlushSList@@9@4@4IA
28854 192 ?FunctionPointer@?1??Wrapper_WakeAllConditionVariable@@9@4@4Q6GXPAU_RTL_CONDITION_VARIABLE@@@ZA
28858 192 ?$S4@?1??Wrapper_GetModuleHandleExW@@9@12@4IA
2885C 192 ?Cookie@?1??XorPointer@@YAPAXPAX@Z@4IB
28860 192 ?FunctionPointer@?1??Wrapper_GetLogicalProcessorInformation@@9@8@4Q6GHPAU_SYSTEM_LOGICAL_PROCESSOR_INFORMATION@@PAK@ZA
28864 192 ?$S1@?1??XorPointer@@YAPAXPAX@Z@4IA
28868 192 ?FunctionPointer@?1??Wrapper_SleepConditionVariableSRW@@9@16@4Q6GHPAU_RTL_CONDITION_VARIABLE@@PAU_RTL_SRWLOCK@@KK@ZA
2886C 192 ?$S13@?1??Wrapper_LCMapStringEx@@9@36@4IA
28870 192 ?$S10@?1??Wrapper_SetThreadStackGuarantee@@9@4@4IA
28874 192 ?FunctionPointer@?1??Wrapper_TryAcquireSRWLockExclusive@@9@4@4Q6GEPAU_RTL_SRWLOCK@@@ZA
28878 192 ?$S12@?1??Wrapper_CompareStringEx@@9@36@4IA
2887C 192 ?$S16@?1??Wrapper_AcquireSRWLockExclusive@@9@4@4IA
28880 192 ?FunctionPointer@?1??Wrapper_GetModuleHandleExW@@9@12@4Q6GHKPB_WPAPAUHINSTANCE__@@@ZA
28884 192 ?$S7@?1??Wrapper_InterlockedPushEntrySList@@9@8@4IA
28888 192 ?$S9@?1??Wrapper_GetLogicalProcessorInformation@@9@8@4IA
2888C 192 ?$S23@?1??Wrapper_FlsFree@@9@4@4IA
28890 192 ?$S8@?1??Wrapper_GetNumaHighestNodeNumber@@9@4@4IA
28894 192 ?$S5@?1??Wrapper_InitializeSListHead@@9@4@4IA
28898 192 ?FunctionPointer@?1??Wrapper_FlsGetValue@@9@4@4Q6GPAXK@ZA
2889C 192 ?FunctionPointer@?1??Wrapper_DecodePointer@@9@4@4Q6GPAXPAX@ZA
288A0 192 ?FunctionPointer@?1??Wrapper_SetThreadStackGuarantee@@9@4@4Q6GHPAK@ZA
288A4 192 ?$S14@?1??Wrapper_SleepConditionVariableSRW@@9@16@4IA
288A8 192 ?$S21@?1??Wrapper_FlsGetValue@@9@4@4IA
288AC 192 ?$S18@?1??Wrapper_TryAcquireSRWLockExclusive@@9@4@4IA
288B0 192 ?$S15@?1??Wrapper_WakeAllConditionVariable@@9@4@4IA
288B4 192 ?FunctionPointer@?1??Wrapper_FlsFree@@9@4@4Q6GHK@ZA
288B8 192 ?$S3@?1??Wrapper_DecodePointer@@9@4@4IA
288BC 192 ?$S20@?1??Wrapper_FlsAlloc@@9@4@4IA
288C0 192 ?$S19@?1??Wrapper_InitializeSRWLock@@9@4@4IA
288C4 192 ?FunctionPointer@?1??Wrapper_InterlockedFlushSList@@9@4@4Q6GPAU_SINGLE_LIST_ENTRY@@PAT_SLIST_HEADER@@@ZA
288C8 192 ?FunctionPointer@?1??Wrapper_InterlockedPushEntrySList@@9@8@4Q6GPAU_SINGLE_LIST_ENTRY@@PAT_SLIST_HEADER@@PAU2@@ZA
288CC 192 ?$S17@?1??Wrapper_ReleaseSRWLockExclusive@@9@4@4IA
288D0 192 ?$S2@?1??Wrapper_EncodePointer@@9@4@4IA
288D4 192 ?FunctionPointer@?1??Wrapper_InitializeSRWLock@@9@4@4Q6GXPAU_RTL_SRWLOCK@@@ZA
288D8 192 ?Ptr@?1???R<lambda_1>@?1??XorPointer@@YAPAXPAX@Z@QBE@XZ@4PAXA
288DC 192 ?FunctionPointer@?1??Wrapper_EncodePointer@@9@4@4Q6GPAXPAX@ZA
288E0 192 ?$S22@?1??Wrapper_FlsSetValue@@9@8@4IA
288E4 192 ?FunctionPointer@?1??Wrapper_InitializeCriticalSectionEx@@9@12@4Q6GHPAU_RTL_CRITICAL_SECTION@@KK@ZA
288E8 192 ?FunctionPointer@?1??Wrapper_ReleaseSRWLockExclusive@@9@4@4Q6GXPAU_RTL_SRWLOCK@@@ZA
288EC 192 ?FunctionPointer@?1??Wrapper_LCMapStringEx@@9@36@4Q6GHPB_WK0HPA_WHPAU_nlsversioninfo@@PAXJ@ZA
288F0 192 ?FunctionPointer@?1??Wrapper_GetNumaHighestNodeNumber@@9@4@4Q6GHPAK@ZA
288F4 192 ?FunctionPointer@?1??Wrapper_AcquireSRWLockExclusive@@9@4@4Q6GXPAU_RTL_SRWLOCK@@@ZA
288F8 192 ?FunctionPointer@?1??Wrapper_FlsSetValue@@9@8@4Q6GHKPAX@ZA
288FC 2 ___dyn_tls_init_callback
28900 2 ___scrt_ucrt_dll_is_in_use
28904 2 __pmatherr
28908 2 ___use_sse2_mathfcns
29060 45 $R000000
