MINIMAP

FILES
0 *
1 <absolute>
2 <common>
3 <linker-defined>
4 LIBCMT:alloca16.obj
5 LIBCMT:checkcfg.obj
6 LIBCMT:chkstk.obj
7 LIBCMT:cpu_disp.obj
8 LIBCMT:default_local_stdio_options.obj
9 LIBCMT:delete_array.obj
10 LIBCMT:delete_scalar.obj
11 LIBCMT:delete_scalar_size.obj
12 LIBCMT:dll_dllmain.obj
13 LIBCMT:dll_dllmain_stub.obj
14 LIBCMT:dyn_tls_init.obj
15 LIBCMT:ehprolg3.obj
16 LIBCMT:ehvecdtr.obj
17 LIBCMT:fltused.obj
18 LIBCMT:ftol2.obj
19 LIBCMT:gs_cookie.obj
20 LIBCMT:gs_report.obj
21 LIBCMT:gs_support.obj
22 LIBCMT:guard_support.obj
23 LIBCMT:initializers.obj
24 LIBCMT:initsect.obj
25 LIBCMT:lconv_unsigned_char.obj
26 LIBCMT:lldiv.obj
27 LIBCMT:llmul.obj
28 LIBCMT:llrem.obj
29 LIBCMT:llshl.obj
30 LIBCMT:loadcfg.obj
31 LIBCMT:new_array.obj
32 LIBCMT:new_scalar.obj
33 LIBCMT:pesect.obj
34 LIBCMT:secchk.obj
35 LIBCMT:sehprolg4.obj
36 LIBCMT:std_type_info_static.obj
37 LIBCMT:tncleanup.obj
38 LIBCMT:ucrt_detection.obj
39 LIBCMT:ulldiv.obj
40 LIBCMT:ulldvrm.obj
41 LIBCMT:ullrem.obj
42 LIBCMT:ullshr.obj
43 LIBCMT:utility.obj
44 LIBCMT:utility_desktop.obj
45 LIBCMT:x86_exception_filter.obj
46 Patch7zCP.obj
47 SimpleXML.obj
48 advapi32:ADVAPI32.dll
49 archive.obj
50 arclite.exp
51 arclite.res
52 attr.obj
53 cmdline.obj
54 common.obj
55 delete.obj
56 extract.obj
57 farutils.obj
58 headers.obj
59 kernel32:KERNEL32.dll
60 libcpmt:StlLCMapStringA.obj
61 libcpmt:StlLCMapStringW.obj
62 libcpmt:_tolower.obj
63 libcpmt:asan_noop.obj
64 libcpmt:iomanip.obj
65 libcpmt:ios.obj
66 libcpmt:iosptrs.obj
67 libcpmt:locale.obj
68 libcpmt:locale0.obj
69 libcpmt:syserror.obj
70 libcpmt:syserror_import_lib.obj
71 libcpmt:uncaught_exceptions.obj
72 libcpmt:vector_algorithms.obj
73 libcpmt:wlocale.obj
74 libcpmt:xgetwctype.obj
75 libcpmt:xlocale.obj
76 libcpmt:xlock.obj
77 libcpmt:xmbtowc.obj
78 libcpmt:xmtx.obj
79 libcpmt:xstoul.obj
80 libcpmt:xstoull.obj
81 libcpmt:xthrow.obj
82 libcpmt:xtowlower.obj
83 libcpmt:xtowupper.obj
84 libcpmt:xwctomb.obj
85 libucrt:87disp.obj
86 libucrt:87except.obj
87 libucrt:87tran.obj
88 libucrt:_ctype.obj
89 libucrt:_fenvutils.obj
90 libucrt:_file.obj
91 libucrt:_fptostr.obj
92 libucrt:_freebuf.obj
93 libucrt:_memicmp.obj
94 libucrt:_sftbuf.obj
95 libucrt:_strnicm.obj
96 libucrt:_test.obj
97 libucrt:abort.obj
98 libucrt:argv_data.obj
99 libucrt:argv_parsing.obj
100 libucrt:argv_wildcards.obj
101 libucrt:atox.obj
102 libucrt:c16rtomb.obj
103 libucrt:c32rtomb.obj
104 libucrt:calloc.obj
105 libucrt:calloc_base.obj
106 libucrt:ceil.obj
107 libucrt:ceil_pentium4.obj
108 libucrt:cfout.obj
109 libucrt:close.obj
110 libucrt:closeall.obj
111 libucrt:commit.obj
112 libucrt:common.obj
113 libucrt:common_utf8.obj
114 libucrt:console_output_initializer.obj
115 libucrt:contrlfp.obj
116 libucrt:ctype.obj
117 libucrt:cvt.obj
118 libucrt:environment_initialization.obj
119 libucrt:errno.obj
120 libucrt:exception_filter.obj
121 libucrt:exit.obj
122 libucrt:fclose.obj
123 libucrt:fegetenv.obj
124 libucrt:fegetround.obj
125 libucrt:feholdexcept.obj
126 libucrt:fesetenv.obj
127 libucrt:fflush.obj
128 libucrt:fileno.obj
129 libucrt:fp_flags.obj
130 libucrt:fpctrl.obj
131 libucrt:fpexcept.obj
132 libucrt:free.obj
133 libucrt:free_base.obj
134 libucrt:frexp.obj
135 libucrt:frnd.obj
136 libucrt:genexcep.obj
137 libucrt:get_environment_from_os.obj
138 libucrt:get_qualified_locale.obj
139 libucrt:getlocaleinfoa.obj
140 libucrt:getmodulefilenamea.obj
141 libucrt:getqloc_downlevel.obj
142 libucrt:getstringtypea.obj
143 libucrt:getstringtypew.obj
144 libucrt:glstatus.obj
145 libucrt:heap_handle.obj
146 libucrt:ieee87.obj
147 libucrt:ieeemisc.obj
148 libucrt:initcon.obj
149 libucrt:initctype.obj
150 libucrt:initialization.obj
151 libucrt:initmon.obj
152 libucrt:initnum.obj
153 libucrt:initterm.obj
154 libucrt:inittime.obj
155 libucrt:invalid_parameter.obj
156 libucrt:ioinit.obj
157 libucrt:isatty.obj
158 libucrt:isctype.obj
159 libucrt:ismbbyte.obj
160 libucrt:iswctype.obj
161 libucrt:lcidtoname_downlevel.obj
162 libucrt:lcmapstringa.obj
163 libucrt:lcmapstringw.obj
164 libucrt:lconv_unsigned_char_initialization.obj
165 libucrt:libm_error.obj
166 libucrt:locale_initializer.obj
167 libucrt:locale_refcounting.obj
168 libucrt:locale_update.obj
169 libucrt:localeconv.obj
170 libucrt:locks.obj
171 libucrt:log10_impl.obj
172 libucrt:log10_pentium4.obj
173 libucrt:log10_tables.obj
174 libucrt:lseek.obj
175 libucrt:malloc.obj
176 libucrt:malloc_base.obj
177 libucrt:matherr.obj
178 libucrt:mathfcns.obj
179 libucrt:mbctype.obj
180 libucrt:mbrtoc32.obj
181 libucrt:mbrtowc.obj
182 libucrt:mbsdec.obj
183 libucrt:mbstowcs.obj
184 libucrt:mbtowc.obj
185 libucrt:memicmp.obj
186 libucrt:msize.obj
187 libucrt:multibyte_initializer.obj
188 libucrt:multibytetowidechar.obj
189 libucrt:nan.obj
190 libucrt:nanl.obj
191 libucrt:new_handler.obj
192 libucrt:new_mode.obj
193 libucrt:nlsdata.obj
194 libucrt:onexit.obj
195 libucrt:osfinfo.obj
196 libucrt:output.obj
197 libucrt:peb_access.obj
198 libucrt:per_thread_data.obj
199 libucrt:powhlp.obj
200 libucrt:printf_count_output.obj
201 libucrt:putwch.obj
202 libucrt:qsort.obj
203 libucrt:read.obj
204 libucrt:realloc_base.obj
205 libucrt:recalloc.obj
206 libucrt:report_runtime_error.obj
207 libucrt:setlocale.obj
208 libucrt:shared_initialization.obj
209 libucrt:signal.obj
210 libucrt:sse2_initializer.obj
211 libucrt:stdio_initializer.obj
212 libucrt:strcpy_s.obj
213 libucrt:strcspn.obj
214 libucrt:stream.obj
215 libucrt:strftime.obj
216 libucrt:strncmp.obj
217 libucrt:strncnt.obj
218 libucrt:strncpy_s.obj
219 libucrt:strnlen.obj
220 libucrt:strpbrk.obj
221 libucrt:strtod.obj
222 libucrt:strtox.obj
223 libucrt:terminate.obj
224 libucrt:timeset.obj
225 libucrt:timeset_initializer.obj
226 libucrt:tolower_toupper.obj
227 libucrt:towlower.obj
228 libucrt:tzset.obj
229 libucrt:util.obj
230 libucrt:wcrtomb.obj
231 libucrt:wcscat_s.obj
232 libucrt:wcscpy_s.obj
233 libucrt:wcscspn.obj
234 libucrt:wcsdup.obj
235 libucrt:wcsicmp.obj
236 libucrt:wcsncat_s.obj
237 libucrt:wcsncmp.obj
238 libucrt:wcsncpy_s.obj
239 libucrt:wcsnicmp.obj
240 libucrt:wcspbrk.obj
241 libucrt:wcstombs.obj
242 libucrt:wctomb.obj
243 libucrt:widechartomultibyte.obj
244 libucrt:win_policies.obj
245 libucrt:winapi_thunks.obj
246 libucrt:write.obj
247 libucrt:wsetlocale.obj
248 libucrt:xtoa.obj
249 libvcruntime:chandler4.obj
250 libvcruntime:ehhelpers.obj
251 libvcruntime:ehstate.obj
252 libvcruntime:exsup.obj
253 libvcruntime:exsup4.obj
254 libvcruntime:frame.obj
255 libvcruntime:initialization.obj
256 libvcruntime:jbcxrval.obj
257 libvcruntime:locks.obj
258 libvcruntime:lowhelpr.obj
259 libvcruntime:memcmp.obj
260 libvcruntime:memcpy.obj
261 libvcruntime:memset.obj
262 libvcruntime:per_thread_data.obj
263 libvcruntime:purevirt.obj
264 libvcruntime:purevirt_data.obj
265 libvcruntime:rtti.obj
266 libvcruntime:std_exception.obj
267 libvcruntime:std_type_info.obj
268 libvcruntime:strrchr.obj
269 libvcruntime:throw.obj
270 libvcruntime:trnsctrl.obj
271 libvcruntime:uncaught_exceptions.obj
272 libvcruntime:undname.obj
273 libvcruntime:unexpected.obj
274 libvcruntime:wcschr.obj
275 libvcruntime:wcsrchr.obj
276 libvcruntime:winapi_downlevel.obj
277 msearch.obj
278 ole32:ole32.dll
279 oleaut32:OLEAUT32.dll
280 open.obj
281 options.obj
282 pathutils.obj
283 plugin.obj
284 rsrc.obj
285 sfx.obj
286 strutils.obj
287 sysutils.obj
288 test.obj
289 ui.obj
290 update.obj
291 user32:USER32.dll
292 uuid:unknwn_i.obj
293 vc_crt_fix.obj
294 vc_crt_fix_impl.obj
295 version:VERSION.dll

SYMBOLS
0 1 ___AbsoluteZero
100 1 ___guard_flags
1B6 1 ___safe_se_handler_count
1000 49 ??__Ec_7z@@YAXXZ
1050 49 ??__Ec_zip@@YAXXZ
10A0 49 ??__Ec_bzip2@@YAXXZ
10F0 49 ??__Ec_gzip@@YAXXZ
1140 49 ??__Ec_xz@@YAXXZ
1190 49 ??__Ec_iso@@YAXXZ
11E0 49 ??__Ec_udf@@YAXXZ
1230 49 ??__Ec_rar@@YAXXZ
1280 49 ??__Ec_split@@YAXXZ
12D0 49 ??__Ec_wim@@YAXXZ
1320 49 ??__Ec_tar@@YAXXZ
1370 49 ??__Ec_SWFc@@YAXXZ
13C0 49 ??__Ec_dmg@@YAXXZ
1410 49 ??__Ec_hfs@@YAXXZ
1460 49 ??__Ec_fat@@YAXXZ
14B0 49 ??__Ec_ntfs@@YAXXZ
1500 49 ??__Ec_ext4@@YAXXZ
1550 49 ??__Ec_apfs@@YAXXZ
15A0 49 ??__Ec_mbr@@YAXXZ
15F0 49 ??__Ec_gpt@@YAXXZ
1640 49 ??__Ec_xfat@@YAXXZ
1690 54 ??__Eg_com_error@@YAXXZ
16B0 281 ??__Eg_options@@YAXXZ
16D0 281 ??__Fg_profiles@@YAXXZ
16E0 283 ??__Fg_plugin_prefix@@YAXXZ
16EC 68 ??__Eclassic_locale@std@@YAXXZ
16F8 68 ??__F_Fac_tidy_reg@std@@YAXXZ
1704 76 ??__Einitlocks@std@@YAXXZ
171A 66 ??__Einitlocks@std@@YAXXZ
1730 66 ??__Finit_atexit@@YAXXZ
1740 49 ??0Error@@QAE@JPBDH@Z
1800 49 ??0Error@@QAE@ABV?$basic_string@_WU?$char_traits@_W@std@@V?$allocator@_W@2@@std@@PBDH@Z
18F0 49 ??1ComBase@@UAE@XZ
1900 0 ??_EComBase@@UAEPAXI@Z
1930 49 ??1PropVariant@@QAE@XZ
19A0 49 ?ref@PropVariant@@QAEPAUtagPROPVARIANT@@XZ
19E0 49 ??4PropVariant@@QAEAAV0@_N@Z
1A40 49 ?is_uint@PropVariant@@QBE_NXZ
1A70 49 ?get_uint@PropVariant@@QBE_KXZ
1AD4 49 $LN11
1AF0 49 ?get_size@PropVariant@@QBE_KXZ
1B50 49 $LN13
1B60 49 $LN12
1B80 49 ?get_str@PropVariant@@QBE?AV?$basic_string@_WU?$char_traits@_W@std@@V?$allocator@_W@2@@std@@XZ
1C40 49 ?get_bool@PropVariant@@QBE_NXZ
1C80 49 ?get_filetime@PropVariant@@QBE?AU_FILETIME@@XZ
1CD0 49 ??1Error@@QAE@XZ
1D10 49 ??0Error@@QAE@ABU0@@Z
1DA0 49 ?arc_name@Archive@@QBE?AV?$basic_string@_WU?$char_traits@_W@std@@V?$allocator@_W@2@@std@@XZ
1E50 49 ?_Buy_raw@?$vector@EV?$allocator@E@std@@@std@@AAEXI@Z
1ED0 49 ??$_Allocate_at_least_helper@V?$allocator@E@std@@@std@@YAPAEAAV?$allocator@E@0@AAI@Z
1F20 49 ??1?$_Tidy_guard@V?$vector@EV?$allocator@E@std@@@std@@@std@@QAE@XZ
1F80 49 ?get_bool_prop@ArcLib@@QBEJIKAA_N@Z
2050 49 ?get_uint_prop@ArcLib@@QBEJIKAAI@Z
2140 49 ?get_string_prop@ArcLib@@QBEJIKAAV?$basic_string@_WU?$char_traits@_W@std@@V?$allocator@_W@2@@std@@@Z
2240 49 ?get_bytes_prop@ArcLib@@QBEJIKAAV?$vector@EV?$allocator@E@std@@@std@@@Z
2320 49 ?default_extension@ArcFormat@@QBE?AV?$basic_string@_WU?$char_traits@_W@std@@V?$allocator@_W@2@@std@@XZ
2370 49 ?get_arc_types@ArcFormats@@QBE?AV?$list@V?$vector@EV?$allocator@E@std@@@std@@V?$allocator@V?$vector@EV?$allocator@E@std@@@std@@@2@@std@@XZ
2470 49 ?find_by_name@ArcFormats@@QBE?AV?$list@V?$vector@EV?$allocator@E@std@@@std@@V?$allocator@V?$vector@EV?$allocator@E@std@@@std@@@2@@std@@ABV?$basic_string@_WU?$char_traits@_W@std@@V?$allocator@_W@2@@3@@Z
2670 49 ?find_by_ext@ArcFormats@@QBE?AV?$list@V?$vector@EV?$allocator@E@std@@@std@@V?$allocator@V?$vector@EV?$allocator@E@std@@@std@@@2@@std@@ABV?$basic_string@_WU?$char_traits@_W@std@@V?$allocator@_W@2@@3@@Z
2920 49 ?find_by_name@SfxModules@@QBEIABV?$basic_string@_WU?$char_traits@_W@std@@V?$allocator@_W@2@@std@@@Z
2B00 49 ?to_string@ArcChain@@QBE?AV?$basic_string@_WU?$char_traits@_W@std@@V?$allocator@_W@2@@std@@XZ
2BE0 49 ?GetCoderInfo@@YA_NP6GJIKPAUtagPROPVARIANT@@@ZIAAUCDllCodecInfo@@@Z
2E50 49 ??0MyCompressCodecsInfo@@QAE@ABV?$vector@UArcLib@@V?$allocator@UArcLib@@@std@@@std@@ABV?$vector@UCDllCodecInfo@@V?$allocator@UCDllCodecInfo@@@std@@@2@ABV?$vector@UCDllHasherInfo@@V?$allocator@UCDllHasherInfo@@@std@@@2@I@Z
3130 49 ?QueryInterface@MyCompressCodecsInfo@@UAGJABU_GUID@@PAPAX@Z
31E0 56 ?AddRef@ArchiveExtractor@@UAGKXZ
3200 56 ?Release@ArchiveExtractor@@UAGKXZ
3230 49 ?GetNumHashers@MyCompressCodecsInfo@@UAGIXZ
3250 49 ?GetHasherProp@MyCompressCodecsInfo@@UAGJIKPAUtagPROPVARIANT@@@Z
3280 49 ?CreateHasher@MyCompressCodecsInfo@@UAGJIPAPAUIHasher@@@Z
32B0 49 ?GetNumMethods@MyCompressCodecsInfo@@UAGJPAI@Z
32D0 49 ?GetProperty@MyCompressCodecsInfo@@UAGJIKPAUtagPROPVARIANT@@@Z
33E0 49 ?CreateDecoder@MyCompressCodecsInfo@@UAGJIPBU_GUID@@PAPAX@Z
3480 49 ?CreateEncoder@MyCompressCodecsInfo@@UAGJIPBU_GUID@@PAPAX@Z
3520 0 ??_EMyCompressCodecsInfo@@UAEPAXI@Z
35A0 49 ??1CDllCodecInfo@@QAE@XZ
3600 49 ?get@ArcAPI@@CAPAV1@XZ
3720 49 ?load_libs@ArcAPI@@AAEXABV?$basic_string@_WU?$char_traits@_W@std@@V?$allocator@_W@2@@std@@@Z
3D00 49 ??1ArcLib@@QAE@XZ
3DB0 49 ?load_codecs@ArcAPI@@AAEXABV?$basic_string@_WU?$char_traits@_W@std@@V?$allocator@_W@2@@std@@@Z
45E0 49 ??R<lambda_1>@?1??load_codecs@ArcAPI@@AAEXABV?$basic_string@_WU?$char_traits@_W@std@@V?$allocator@_W@2@@std@@@Z@QBE@AAUArcLib@@I@Z
47F0 49 ?find@@YAPBUSfxModuleInfo@@ABV?$basic_string@_WU?$char_traits@_W@std@@V?$allocator@_W@2@@std@@@Z
4B30 49 ?description@SfxModule@@QBE?AV?$basic_string@_WU?$char_traits@_W@std@@V?$allocator@_W@2@@std@@XZ
4EC0 49 ?find_sfx_modules@ArcAPI@@AAEXABV?$basic_string@_WU?$char_traits@_W@std@@V?$allocator@_W@2@@std@@@Z
5330 49 ??$destroy_at@V?$basic_string@_WU?$char_traits@_W@std@@V?$allocator@_W@2@@std@@@std@@YAXQAV?$basic_string@_WU?$char_traits@_W@std@@V?$allocator@_W@2@@0@@Z
5390 49 ?ParseSignatures@@YA_NPBEIAAV?$vector@V?$vector@EV?$allocator@E@std@@@std@@V?$allocator@V?$vector@EV?$allocator@E@std@@@std@@@2@@std@@@Z
55B0 49 ?load@ArcAPI@@AAEXXZ
597C 49 __catch$?load@ArcAPI@@AAEXXZ$0
65E0 49 ??0ArcFormat@@QAE@XZ
66E0 49 ??1?$map@V?$basic_string@_WU?$char_traits@_W@std@@V?$allocator@_W@2@@std@@V12@U?$less@V?$basic_string@_WU?$char_traits@_W@std@@V?$allocator@_W@2@@std@@@2@V?$allocator@U?$pair@$$CBV?$basic_string@_WU?$char_traits@_W@std@@V?$allocator@_W@2@@std@@V12@@std@@@2@@std@@QAE@XZ
6700 49 ??1ArcFormat@@QAE@XZ
67E0 49 ??_GArcAPI@@AAEPAXI@Z
6910 49 ?get_default_name@Archive@@ABE?AV?$basic_string@_WU?$char_traits@_W@std@@V?$allocator@_W@2@@std@@XZ
6BA0 49 ?get_temp_file_name@Archive@@ABE?AV?$basic_string@_WU?$char_traits@_W@std@@V?$allocator@_W@2@@std@@XZ
6D00 49 ?make_index@Archive@@QAEXXZ
7C70 289 ??1?$map@HIU?$less@H@std@@V?$allocator@U?$pair@$$CBHI@std@@@2@@std@@QAE@XZ
7C80 49 ??1?$set@UDirInfo@?1??make_index@Archive@@QAEXXZ@U?$less@UDirInfo@?1??make_index@Archive@@QAEXXZ@@std@@V?$allocator@UDirInfo@?1??make_index@Archive@@QAEXXZ@@5@@std@@QAE@XZ
7CA0 49 ??1DirInfo@?1??make_index@Archive@@QAEXXZ@QAE@XZ
7D00 49 ??1ArcFileInfo@@QAE@XZ
7D60 49 ??1?$stack@IV?$deque@IV?$allocator@I@std@@@std@@@std@@QAE@XZ
7D70 49 ?find_dir@Archive@@QAEIABV?$basic_string@_WU?$char_traits@_W@std@@V?$allocator@_W@2@@std@@@Z
7FE0 49 ??R<lambda_1>@?9??find_dir@Archive@@QAEIABV?$basic_string@_WU?$char_traits@_W@std@@V?$allocator@_W@2@@std@@@Z@QBE_NII@Z
8060 49 ?get_dir_list@Archive@@QAE?AU?$pair@V?$_Vector_const_iterator@V?$_Vector_val@U?$_Simple_types@I@std@@@std@@@std@@V12@@std@@I@Z
8110 49 ?get_path@Archive@@QAE?AV?$basic_string@_WU?$char_traits@_W@std@@V?$allocator@_W@2@@std@@I@Z
8310 49 ?get_file_info@Archive@@QAE?AUFindData@@I@Z
83E0 49 ?get_main_file@Archive@@QBE_NAAI@Z
8490 49 ?get_attr@Archive@@QBEKI@Z
8590 49 ?get_size@Archive@@QBE_KI@Z
8680 49 ?get_psize@Archive@@QBE_KI@Z
8770 49 ?get_offset@Archive@@QBE_KI@Z
8850 49 ?get_ctime@Archive@@QBE?AU_FILETIME@@I@Z
8950 49 ?get_mtime@Archive@@QBE?AU_FILETIME@@I@Z
8A60 49 ?get_atime@Archive@@QBE?AU_FILETIME@@I@Z
8B60 49 ?get_anti@Archive@@QBE_NI@Z
8C20 49 ?read_open_results@Archive@@QAEXXZ
8F40 49 ?flags2texts@@YA?AV?$list@V?$basic_string@_WU?$char_traits@_W@std@@V?$allocator@_W@2@@std@@V?$allocator@V?$basic_string@_WU?$char_traits@_W@std@@V?$allocator@_W@2@@std@@@2@@std@@I@Z
9750 49 ??$emplace_back@V?$basic_string@_WU?$char_traits@_W@std@@V?$allocator@_W@2@@std@@@?$list@V?$basic_string@_WU?$char_traits@_W@std@@V?$allocator@_W@2@@std@@V?$allocator@V?$basic_string@_WU?$char_traits@_W@std@@V?$allocator@_W@2@@std@@@2@@std@@QAE?A_T$$QAV?$basic_string@_WU?$char_traits@_W@std@@V?$allocator@_W@2@@1@@Z
9830 49 ??1?$deque@IV?$allocator@I@std@@@std@@QAE@XZ
98E0 49 ??A?$map@IIU?$less@I@std@@V?$allocator@U?$pair@$$CBII@std@@@2@@std@@QAEAAIABI@Z
99A0 289 ??1?$_Tree@V?$_Tmap_traits@HIU?$less@H@std@@V?$allocator@U?$pair@$$CBHI@std@@@2@$0A@@std@@@std@@QAE@XZ
99E0 49 ??1?$Buffer@D@@QAE@XZ
99F0 49 ?reserve@?$vector@IV?$allocator@I@std@@@std@@QAEXI@Z
9A20 49 ??1?$vector@UCDllHasherInfo@@V?$allocator@UCDllHasherInfo@@@std@@@std@@QAE@XZ
9A80 49 ??1?$vector@UCDllCodecInfo@@V?$allocator@UCDllCodecInfo@@@std@@@std@@QAE@XZ
9AF0 49 ??1?$vector@UArcLib@@V?$allocator@UArcLib@@@std@@@std@@QAE@XZ
9B70 49 ??1?$vector@USfxModule@@V?$allocator@USfxModule@@@std@@@std@@QAE@XZ
9BE0 49 ?at@?$map@V?$vector@EV?$allocator@E@std@@@std@@UArcFormat@@U?$less@V?$vector@EV?$allocator@E@std@@@std@@@2@V?$allocator@U?$pair@$$CBV?$vector@EV?$allocator@E@std@@@std@@UArcFormat@@@std@@@2@@std@@QBEABUArcFormat@@ABV?$vector@EV?$allocator@E@std@@@2@@Z
9C30 49 ??A?$map@V?$vector@EV?$allocator@E@std@@@std@@UArcFormat@@U?$less@V?$vector@EV?$allocator@E@std@@@std@@@2@V?$allocator@U?$pair@$$CBV?$vector@EV?$allocator@E@std@@@std@@UArcFormat@@@std@@@2@@std@@QAEAAUArcFormat@@ABV?$vector@EV?$allocator@E@std@@@1@@Z
9D30 49 ??1?$vector@V?$vector@EV?$allocator@E@std@@@std@@V?$allocator@V?$vector@EV?$allocator@E@std@@@std@@@2@@std@@QAE@XZ
9D40 49 ??A?$map@V?$basic_string@_WU?$char_traits@_W@std@@V?$allocator@_W@2@@std@@V12@U?$less@V?$basic_string@_WU?$char_traits@_W@std@@V?$allocator@_W@2@@std@@@2@V?$allocator@U?$pair@$$CBV?$basic_string@_WU?$char_traits@_W@std@@V?$allocator@_W@2@@std@@V12@@std@@@2@@std@@QAEAAV?$basic_string@_WU?$char_traits@_W@std@@V?$allocator@_W@2@@1@$$QAV21@@Z
9E60 49 ?_Xlength@?$vector@EV?$allocator@E@std@@@std@@CAXXZ
9E70 49 ??4?$vector@EV?$allocator@E@std@@@std@@QAEAAV01@ABV01@@Z
9EA0 49 ??1?$vector@EV?$allocator@E@std@@@std@@QAE@XZ
9EF0 49 ??0?$vector@EV?$allocator@E@std@@@std@@QAE@ABV01@@Z
9F60 49 ?push_back@?$list@V?$vector@EV?$allocator@E@std@@@std@@V?$allocator@V?$vector@EV?$allocator@E@std@@@std@@@2@@std@@QAEXABV?$vector@EV?$allocator@E@std@@@2@@Z
9FF0 49 ??1?$list@V?$vector@EV?$allocator@E@std@@@std@@V?$allocator@V?$vector@EV?$allocator@E@std@@@std@@@2@@std@@QAE@XZ
A010 49 ??4?$list@V?$basic_string@_WU?$char_traits@_W@std@@V?$allocator@_W@2@@std@@V?$allocator@V?$basic_string@_WU?$char_traits@_W@std@@V?$allocator@_W@2@@std@@@2@@std@@QAEAAV01@ABV01@@Z
A0F0 49 ??1?$list@V?$basic_string@_WU?$char_traits@_W@std@@V?$allocator@_W@2@@std@@V?$allocator@V?$basic_string@_WU?$char_traits@_W@std@@V?$allocator@_W@2@@std@@@2@@std@@QAE@XZ
A110 49 ??0?$list@V?$basic_string@_WU?$char_traits@_W@std@@V?$allocator@_W@2@@std@@V?$allocator@V?$basic_string@_WU?$char_traits@_W@std@@V?$allocator@_W@2@@std@@@2@@std@@QAE@V?$initializer_list@V?$basic_string@_WU?$char_traits@_W@std@@V?$allocator@_W@2@@std@@@1@@Z
A1D0 49 ??0?$list@V?$basic_string@_WU?$char_traits@_W@std@@V?$allocator@_W@2@@std@@V?$allocator@V?$basic_string@_WU?$char_traits@_W@std@@V?$allocator@_W@2@@std@@@2@@std@@QAE@ABV01@@Z
A290 49 ?substr@?$basic_string@_WU?$char_traits@_W@std@@V?$allocator@_W@2@@std@@QGBE?AV12@II@Z
A2F0 49 ?empty@?$basic_string@_WU?$char_traits@_W@std@@V?$allocator@_W@2@@std@@QBE_NXZ
A300 49 ?clear@?$basic_string@_WU?$char_traits@_W@std@@V?$allocator@_W@2@@std@@QAEXXZ
A320 49 ?erase@?$basic_string@_WU?$char_traits@_W@std@@V?$allocator@_W@2@@std@@QAEAAV12@II@Z
A380 49 ?insert@?$basic_string@_WU?$char_traits@_W@std@@V?$allocator@_W@2@@std@@QAEAAV12@II_W@Z
A500 49 ??R<lambda_1>@?1??insert@?$basic_string@_WU?$char_traits@_W@std@@V?$allocator@_W@2@@std@@QAEAAV23@II_W@Z@QBE@QA_WQB_WIII0@Z
A570 49 ?assign@?$basic_string@_WU?$char_traits@_W@std@@V?$allocator@_W@2@@std@@QAEAAV12@QB_WI@Z
A670 49 ?append@?$basic_string@_WU?$char_traits@_W@std@@V?$allocator@_W@2@@std@@QAEAAV12@QB_W@Z
A6F0 49 ??4?$basic_string@_WU?$char_traits@_W@std@@V?$allocator@_W@2@@std@@QAEAAV01@ABV01@@Z
A720 49 ??4?$basic_string@_WU?$char_traits@_W@std@@V?$allocator@_W@2@@std@@QAEAAV01@$$QAV01@@Z
A770 49 ??0?$basic_string@_WU?$char_traits@_W@std@@V?$allocator@_W@2@@std@@QAE@QB_W@Z
A7C0 49 ??0?$basic_string@_WU?$char_traits@_W@std@@V?$allocator@_W@2@@std@@QAE@ABV01@@Z
A880 290 ??E?$_Tree_unchecked_const_iterator@V?$_Tree_val@U?$_Tree_simple_types@U?$pair@$$CBIUFileIndexInfo@@@std@@@std@@@std@@U_Iterator_base0@2@@std@@QAEAAV01@XZ
A8E0 49 ?_Tidy@?$vector@V?$vector@EV?$allocator@E@std@@@std@@V?$allocator@V?$vector@EV?$allocator@E@std@@@std@@@2@@std@@AAEXXZ
A950 49 ?_Getal@?$_Tree@V?$_Tmap_traits@V?$basic_string@_WU?$char_traits@_W@std@@V?$allocator@_W@2@@std@@V12@U?$less@V?$basic_string@_WU?$char_traits@_W@std@@V?$allocator@_W@2@@std@@@2@V?$allocator@U?$pair@$$CBV?$basic_string@_WU?$char_traits@_W@std@@V?$allocator@_W@2@@std@@V12@@std@@@2@$0A@@std@@@std@@IAEAAV?$allocator@U?$_Tree_node@U?$pair@$$CBV?$basic_string@_WU?$char_traits@_W@std@@V?$allocator@_W@2@@std@@V12@@std@@PAX@std@@@2@XZ
A960 49 ?replace@?$basic_string@_WU?$char_traits@_W@std@@V?$allocator@_W@2@@std@@QAEAAV12@IIQB_WI@Z
AB00 49 ?insert@?$basic_string@_WU?$char_traits@_W@std@@V?$allocator@_W@2@@std@@QAEAAV12@IQB_WI@Z
ACC0 49 ?append@?$basic_string@_WU?$char_traits@_W@std@@V?$allocator@_W@2@@std@@QAEAAV12@ABV12@@Z
AD30 49 ?deallocate@?$allocator@UArcFileInfo@@@std@@QAEXQAUArcFileInfo@@I@Z
AD70 49 ?deallocate@?$allocator@I@std@@QAEXQAII@Z
ADB0 49 ?deallocate@?$allocator@UCDllCodecInfo@@@std@@QAEXQAUCDllCodecInfo@@I@Z
ADF0 49 ?deallocate@?$allocator@UArcLib@@@std@@QAEXQAUArcLib@@I@Z
AE30 49 ?deallocate@?$allocator@USfxModule@@@std@@QAEXQAUSfxModule@@I@Z
AE70 49 ?deallocate@?$allocator@V?$vector@EV?$allocator@E@std@@@std@@@std@@QAEXQAV?$vector@EV?$allocator@E@std@@@2@I@Z
AEB0 49 ?_Xran@?$_String_val@U?$_Simple_types@_W@std@@@std@@SAXXZ
AEC0 49 ??$_Emplace@ABV?$basic_string@_WU?$char_traits@_W@std@@V?$allocator@_W@2@@std@@@?$list@V?$basic_string@_WU?$char_traits@_W@std@@V?$allocator@_W@2@@std@@V?$allocator@V?$basic_string@_WU?$char_traits@_W@std@@V?$allocator@_W@2@@std@@@2@@std@@QAEPAU?$_List_node@V?$basic_string@_WU?$char_traits@_W@std@@V?$allocator@_W@2@@std@@PAX@1@QAU21@ABV?$basic_string@_WU?$char_traits@_W@std@@V?$allocator@_W@2@@1@@Z
AF50 49 ??$?8_WU?$char_traits@_W@std@@V?$allocator@_W@1@@std@@YA_NABV?$basic_string@_WU?$char_traits@_W@std@@V?$allocator@_W@2@@0@0@Z
AFA0 49 ??$?H_WU?$char_traits@_W@std@@V?$allocator@_W@1@@std@@YA?AV?$basic_string@_WU?$char_traits@_W@std@@V?$allocator@_W@2@@0@ABV10@QB_W@Z
B010 49 ??$?H_WU?$char_traits@_W@std@@V?$allocator@_W@1@@std@@YA?AV?$basic_string@_WU?$char_traits@_W@std@@V?$allocator@_W@2@@0@$$QAV10@QB_W@Z
B080 49 ??$?8_WU?$char_traits@_W@std@@V?$allocator@_W@1@@std@@YA_NABV?$basic_string@_WU?$char_traits@_W@std@@V?$allocator@_W@2@@0@QB_W@Z
B0E0 49 ??$insert@$0A@$0A@@?$_Tree@V?$_Tset_traits@UDirInfo@?1??make_index@Archive@@QAEXXZ@U?$less@UDirInfo@?1??make_index@Archive@@QAEXXZ@@std@@V?$allocator@UDirInfo@?1??make_index@Archive@@QAEXXZ@@5@$0A@@std@@@std@@QAE?AU?$pair@V?$_Tree_const_iterator@V?$_Tree_val@U?$_Tree_simple_types@UDirInfo@?1??make_index@Archive@@QAEXXZ@@std@@@std@@@std@@_N@1@ABUDirInfo@?1??make_index@Archive@@QAEXXZ@@Z
B110 49 ??$equal_range@V?$_Vector_iterator@V?$_Vector_val@U?$_Simple_types@I@std@@@std@@@std@@HV<lambda_1>@?9??find_dir@Archive@@QAEIABV?$basic_string@_WU?$char_traits@_W@std@@V?$allocator@_W@2@@2@@Z@@std@@YA?AU?$pair@V?$_Vector_iterator@V?$_Vector_val@U?$_Simple_types@I@std@@@std@@@std@@V12@@0@V?$_Vector_iterator@V?$_Vector_val@U?$_Simple_types@I@std@@@std@@@0@0ABHV<lambda_1>@?9??find_dir@Archive@@QAEIABV?$basic_string@_WU?$char_traits@_W@std@@V?$allocator@_W@2@@0@@Z@@Z
B300 49 ??$equal_range@V?$_Vector_iterator@V?$_Vector_val@U?$_Simple_types@I@std@@@std@@@std@@HV<lambda_1>@?1??get_dir_list@Archive@@QAE?AU?$pair@V?$_Vector_const_iterator@V?$_Vector_val@U?$_Simple_types@I@std@@@std@@@std@@V12@@2@I@Z@@std@@YA?AU?$pair@V?$_Vector_iterator@V?$_Vector_val@U?$_Simple_types@I@std@@@std@@@std@@V12@@0@V?$_Vector_iterator@V?$_Vector_val@U?$_Simple_types@I@std@@@std@@@0@0ABHV<lambda_1>@?1??get_dir_list@Archive@@QAE?AU?$pair@V?$_Vector_const_iterator@V?$_Vector_val@U?$_Simple_types@I@std@@@std@@@std@@V12@@0@I@Z@@Z
B4D0 49 ??$_Find_lower_bound@I@?$_Tree@V?$_Tmap_traits@IIU?$less@I@std@@V?$allocator@U?$pair@$$CBII@std@@@2@$0A@@std@@@std@@IBE?AU?$_Tree_find_result@PAU?$_Tree_node@U?$pair@$$CBII@std@@PAX@std@@@1@ABI@Z
B520 49 ??$_Destroy_range@V?$allocator@UArcFileInfo@@@std@@@std@@YAXPAUArcFileInfo@@QAU1@AAV?$allocator@UArcFileInfo@@@0@@Z
B590 49 ??$_Reallocate@$0A@@?$vector@UArcFileInfo@@V?$allocator@UArcFileInfo@@@std@@@std@@AAEXAAI@Z
B620 56 ??$_Reallocate@$00@?$vector@IV?$allocator@I@std@@@std@@AAEXAAI@Z
B6F0 49 ??$_Find_lower_bound@V?$vector@EV?$allocator@E@std@@@std@@@?$_Tree@V?$_Tmap_traits@V?$vector@EV?$allocator@E@std@@@std@@UArcFormat@@U?$less@V?$vector@EV?$allocator@E@std@@@std@@@2@V?$allocator@U?$pair@$$CBV?$vector@EV?$allocator@E@std@@@std@@UArcFormat@@@std@@@2@$0A@@std@@@std@@IBE?AU?$_Tree_find_result@PAU?$_Tree_node@U?$pair@$$CBV?$vector@EV?$allocator@E@std@@@std@@UArcFormat@@@std@@PAX@std@@@1@ABV?$vector@EV?$allocator@E@std@@@1@@Z
B790 49 ??$_Destroy_range@V?$allocator@V?$vector@EV?$allocator@E@std@@@std@@@std@@@std@@YAXPAV?$vector@EV?$allocator@E@std@@@0@QAV10@AAV?$allocator@V?$vector@EV?$allocator@E@std@@@std@@@0@@Z
B800 49 ??$_Assign_counted_range@PAV?$vector@EV?$allocator@E@std@@@std@@@?$vector@V?$vector@EV?$allocator@E@std@@@std@@V?$allocator@V?$vector@EV?$allocator@E@std@@@std@@@2@@std@@AAEXPAV?$vector@EV?$allocator@E@std@@@1@I@Z
BA00 49 ??$_Assign_counted_range@PAE@?$vector@EV?$allocator@E@std@@@std@@AAEXPAEI@Z
BAB0 49 ??$_Destroy_range@V?$allocator@UCDllCodecInfo@@@std@@@std@@YAXPAUCDllCodecInfo@@QAU1@AAV?$allocator@UCDllCodecInfo@@@0@@Z
BB20 49 ??$_Destroy_range@V?$allocator@UArcLib@@@std@@@std@@YAXPAUArcLib@@QAU1@AAV?$allocator@UArcLib@@@0@@Z
BB50 49 ??$_Destroy_range@V?$allocator@USfxModule@@@std@@@std@@YAXPAUSfxModule@@QAU1@AAV?$allocator@USfxModule@@@0@@Z
BBC0 49 ??$_Copy@$0A@@?$_Tree@V?$_Tmap_traits@V?$basic_string@_WU?$char_traits@_W@std@@V?$allocator@_W@2@@std@@V12@U?$less@V?$basic_string@_WU?$char_traits@_W@std@@V?$allocator@_W@2@@std@@@2@V?$allocator@U?$pair@$$CBV?$basic_string@_WU?$char_traits@_W@std@@V?$allocator@_W@2@@std@@V12@@std@@@2@$0A@@std@@@std@@IAEXABV01@@Z
BC40 49 ??$_Free_non_head@V?$allocator@U?$_List_node@V?$vector@EV?$allocator@E@std@@@std@@PAX@std@@@std@@@?$_List_node@V?$vector@EV?$allocator@E@std@@@std@@PAX@std@@SAXAAV?$allocator@U?$_List_node@V?$vector@EV?$allocator@E@std@@@std@@PAX@std@@@1@PAU01@@Z
BCC0 49 ??$_Free_non_head@V?$allocator@U?$_List_node@V?$basic_string@_WU?$char_traits@_W@std@@V?$allocator@_W@2@@std@@PAX@std@@@std@@@?$_List_node@V?$basic_string@_WU?$char_traits@_W@std@@V?$allocator@_W@2@@std@@PAX@std@@SAXAAV?$allocator@U?$_List_node@V?$basic_string@_WU?$char_traits@_W@std@@V?$allocator@_W@2@@std@@PAX@std@@@1@PAU01@@Z
BD40 49 ??$_Reallocate_grow_by@V<lambda_1>@?1??replace@?$basic_string@_WU?$char_traits@_W@std@@V?$allocator@_W@2@@std@@QAEAAV34@IIQB_WI@Z@IIPB_WI@?$basic_string@_WU?$char_traits@_W@std@@V?$allocator@_W@2@@std@@AAEAAV01@IV<lambda_1>@?1??replace@01@QAEAAV01@IIQB_WI@Z@IIPB_WI@Z
BEB0 49 ??$_Reallocate_grow_by@V<lambda_1>@?1??append@?$basic_string@_WU?$char_traits@_W@std@@V?$allocator@_W@2@@std@@QAEAAV34@QB_WI@Z@PB_WI@?$basic_string@_WU?$char_traits@_W@std@@V?$allocator@_W@2@@std@@AAEAAV01@IV<lambda_1>@?1??append@01@QAEAAV01@QB_WI@Z@PB_WI@Z
BFE0 49 ??$_Erase_tree@V?$allocator@U?$_Tree_node@U?$pair@$$CBV?$basic_string@_WU?$char_traits@_W@std@@V?$allocator@_W@2@@std@@V12@@std@@PAX@std@@@std@@@?$_Tree_val@U?$_Tree_simple_types@U?$pair@$$CBV?$basic_string@_WU?$char_traits@_W@std@@V?$allocator@_W@2@@std@@V12@@std@@@std@@@std@@QAEXAAV?$allocator@U?$_Tree_node@U?$pair@$$CBV?$basic_string@_WU?$char_traits@_W@std@@V?$allocator@_W@2@@std@@V12@@std@@PAX@std@@@1@PAU?$_Tree_node@U?$pair@$$CBV?$basic_string@_WU?$char_traits@_W@std@@V?$allocator@_W@2@@std@@V12@@std@@PAX@1@@Z
C030 49 ??1?$_List_node_insert_op2@V?$allocator@U?$_List_node@V?$basic_string@_WU?$char_traits@_W@std@@V?$allocator@_W@2@@std@@PAX@std@@@std@@@std@@QAE@XZ
C0C0 49 ?_Growmap@?$deque@IV?$allocator@I@std@@@std@@AAEXI@Z
C270 56 ?_Insert_node@?$_Tree_val@U?$_Tree_simple_types@I@std@@@std@@QAEPAU?$_Tree_node@IPAX@2@U?$_Tree_id@PAU?$_Tree_node@IPAX@std@@@2@QAU32@@Z
C460 49 ?_Change_array@?$vector@UArcFileInfo@@V?$allocator@UArcFileInfo@@@std@@@std@@AAEXQAUArcFileInfo@@II@Z
C4D0 49 ?_Change_array@?$vector@IV?$allocator@I@std@@@std@@AAEXQAIII@Z
C530 49 ??R?$less@V?$vector@EV?$allocator@E@std@@@std@@@std@@QBE_NABV?$vector@EV?$allocator@E@std@@@1@0@Z
C590 49 ?_Clear_and_reserve_geometric@?$vector@EV?$allocator@E@std@@@std@@AAEXI@Z
C620 49 ??0?$basic_string@_WU?$char_traits@_W@std@@V?$allocator@_W@2@@std@@QAE@U_String_constructor_concat_tag@1@AAV01@1@Z
C800 49 ??0?$basic_string@_WU?$char_traits@_W@std@@V?$allocator@_W@2@@std@@QAE@U_String_constructor_concat_tag@1@ABV01@QB_WI2I@Z
C8B0 49 ??1?$_Alloc_construct_ptr@V?$allocator@U?$_Tree_node@U?$pair@$$CBV?$vector@EV?$allocator@E@std@@@std@@UArcFormat@@@std@@PAX@std@@@std@@@std@@QAE@XZ
C8D0 49 ??1?$_Alloc_construct_ptr@V?$allocator@U?$_List_node@V?$vector@EV?$allocator@E@std@@@std@@PAX@std@@@std@@@std@@QAE@XZ
C8F0 49 ??1?$_Alloc_construct_ptr@V?$allocator@U?$_Tree_node@U?$pair@$$CBV?$basic_string@_WU?$char_traits@_W@std@@V?$allocator@_W@2@@std@@V12@@std@@PAX@std@@@std@@@std@@QAE@XZ
C910 280 ??1?$_Alloc_construct_ptr@V?$allocator@U?$_List_node@UArcEntry@@PAX@std@@@std@@@std@@QAE@XZ
C930 284 ??1?$_Alloc_construct_ptr@V?$allocator@U?$_List_node@UIconImageRsrc@@PAX@std@@@std@@@std@@QAE@XZ
C950 49 ?_Xlen@?$deque@IV?$allocator@I@std@@@std@@CAXXZ
C960 49 ?_Buy_raw@?$vector@V?$vector@EV?$allocator@E@std@@@std@@V?$allocator@V?$vector@EV?$allocator@E@std@@@std@@@2@@std@@AAEXI@Z
C9F0 49 ??$_Sort_unchecked@PAUCDllCodecInfo@@V<lambda_3>@?BG@??load_codecs@ArcAPI@@AAEXABV?$basic_string@_WU?$char_traits@_W@std@@V?$allocator@_W@2@@std@@@Z@@std@@YAXPAUCDllCodecInfo@@0HV<lambda_3>@?BG@??load_codecs@ArcAPI@@AAEXABV?$basic_string@_WU?$char_traits@_W@std@@V?$allocator@_W@2@@0@@Z@@Z
CC70 49 ??$_Emplace@ABUDirInfo@?1??make_index@Archive@@QAEXXZ@@?$_Tree@V?$_Tset_traits@UDirInfo@?1??make_index@Archive@@QAEXXZ@U?$less@UDirInfo@?1??make_index@Archive@@QAEXXZ@@std@@V?$allocator@UDirInfo@?1??make_index@Archive@@QAEXXZ@@5@$0A@@std@@@std@@IAE?AU?$pair@PAU?$_Tree_node@UDirInfo@?1??make_index@Archive@@QAEXXZ@PAX@std@@_N@1@ABUDirInfo@?1??make_index@Archive@@QAEXXZ@@Z
CE10 49 ??$_Sort_unchecked@PAIV<lambda_4>@?1??make_index@Archive@@QAEXXZ@@std@@YAXPAI0HV<lambda_4>@?1??make_index@Archive@@QAEXXZ@@Z
CF10 49 ??$_Erase_tree@V?$allocator@U?$_Tree_node@UDirInfo@?1??make_index@Archive@@QAEXXZ@PAX@std@@@std@@@?$_Tree_val@U?$_Tree_simple_types@UDirInfo@?1??make_index@Archive@@QAEXXZ@@std@@@std@@QAEXAAV?$allocator@U?$_Tree_node@UDirInfo@?1??make_index@Archive@@QAEXXZ@PAX@std@@@1@PAU?$_Tree_node@UDirInfo@?1??make_index@Archive@@QAEXXZ@PAX@1@@Z
CFB0 289 ??$_Erase_tree@V?$allocator@U?$_Tree_node@U?$pair@$$CBHI@std@@PAX@std@@@std@@@?$_Tree_val@U?$_Tree_simple_types@U?$pair@$$CBHI@std@@@std@@@std@@QAEXAAV?$allocator@U?$_Tree_node@U?$pair@$$CBHI@std@@PAX@std@@@1@PAU?$_Tree_node@U?$pair@$$CBHI@std@@PAX@1@@Z
CFF0 49 ??$_Uninitialized_move@PAUArcFileInfo@@V?$allocator@UArcFileInfo@@@std@@@std@@YAPAUArcFileInfo@@QAU1@0PAU1@AAV?$allocator@UArcFileInfo@@@0@@Z
D0A0 49 ??$_Emplace_reallocate@ABUArcFileInfo@@@?$vector@UArcFileInfo@@V?$allocator@UArcFileInfo@@@std@@@std@@AAEPAUArcFileInfo@@QAU2@ABU2@@Z
D20A 49 __catch$??$_Emplace_reallocate@ABUArcFileInfo@@@?$vector@UArcFileInfo@@V?$allocator@UArcFileInfo@@@std@@@std@@AAEPAUArcFileInfo@@QAU2@ABU2@@Z$0
D240 49 ??$_Emplace_reallocate@ABI@?$vector@IV?$allocator@I@std@@@std@@AAEPAIQAIABI@Z
D360 49 ??$_Emplace_reallocate@ABUCDllHasherInfo@@@?$vector@UCDllHasherInfo@@V?$allocator@UCDllHasherInfo@@@std@@@std@@AAEPAUCDllHasherInfo@@QAU2@ABU2@@Z
D4C0 49 ??$_Emplace_reallocate@ABUCDllCodecInfo@@@?$vector@UCDllCodecInfo@@V?$allocator@UCDllCodecInfo@@@std@@@std@@AAEPAUCDllCodecInfo@@QAU2@ABU2@@Z
D6FD 49 __catch$??$_Emplace_reallocate@ABUCDllCodecInfo@@@?$vector@UCDllCodecInfo@@V?$allocator@UCDllCodecInfo@@@std@@@std@@AAEPAUCDllCodecInfo@@QAU2@ABU2@@Z$0
D730 49 ??$_Emplace_reallocate@ABUArcLib@@@?$vector@UArcLib@@V?$allocator@UArcLib@@@std@@@std@@AAEPAUArcLib@@QAU2@ABU2@@Z
D94F 49 __catch$??$_Emplace_reallocate@ABUArcLib@@@?$vector@UArcLib@@V?$allocator@UArcLib@@@std@@@std@@AAEPAUArcLib@@QAU2@ABU2@@Z$0
D980 49 ??$_Emplace_reallocate@ABUSfxModule@@@?$vector@USfxModule@@V?$allocator@USfxModule@@@std@@@std@@AAEPAUSfxModule@@QAU2@ABU2@@Z
DB4A 49 __catch$??$_Emplace_reallocate@ABUSfxModule@@@?$vector@USfxModule@@V?$allocator@USfxModule@@@std@@@std@@AAEPAUSfxModule@@QAU2@ABU2@@Z$0
DB80 49 ??$_Erase_tree@V?$allocator@U?$_Tree_node@U?$pair@$$CBV?$vector@EV?$allocator@E@std@@@std@@UArcFormat@@@std@@PAX@std@@@std@@@?$_Tree_val@U?$_Tree_simple_types@U?$pair@$$CBV?$vector@EV?$allocator@E@std@@@std@@UArcFormat@@@std@@@std@@@std@@QAEXAAV?$allocator@U?$_Tree_node@U?$pair@$$CBV?$vector@EV?$allocator@E@std@@@std@@UArcFormat@@@std@@PAX@std@@@1@PAU?$_Tree_node@U?$pair@$$CBV?$vector@EV?$allocator@E@std@@@std@@UArcFormat@@@std@@PAX@1@@Z
DC20 49 ??$_Uninitialized_copy_n@PAV?$vector@EV?$allocator@E@std@@@std@@V?$allocator@V?$vector@EV?$allocator@E@std@@@std@@@2@@std@@YAPAV?$vector@EV?$allocator@E@std@@@0@PAV10@I0AAV?$allocator@V?$vector@EV?$allocator@E@std@@@std@@@0@@Z
DCA0 49 ??$_Emplace_reallocate@ABV?$vector@EV?$allocator@E@std@@@std@@@?$vector@V?$vector@EV?$allocator@E@std@@@std@@V?$allocator@V?$vector@EV?$allocator@E@std@@@std@@@2@@std@@AAEPAV?$vector@EV?$allocator@E@std@@@1@QAV21@ABV21@@Z
DE69 49 __catch$??$_Emplace_reallocate@ABV?$vector@EV?$allocator@E@std@@@std@@@?$vector@V?$vector@EV?$allocator@E@std@@@std@@V?$allocator@V?$vector@EV?$allocator@E@std@@@std@@@2@@std@@AAEPAV?$vector@EV?$allocator@E@std@@@1@QAV21@ABV21@@Z$0
DEA0 49 ??$_Find_lower_bound@V?$basic_string@_WU?$char_traits@_W@std@@V?$allocator@_W@2@@std@@@?$_Tree@V?$_Tmap_traits@V?$basic_string@_WU?$char_traits@_W@std@@V?$allocator@_W@2@@std@@V12@U?$less@V?$basic_string@_WU?$char_traits@_W@std@@V?$allocator@_W@2@@std@@@2@V?$allocator@U?$pair@$$CBV?$basic_string@_WU?$char_traits@_W@std@@V?$allocator@_W@2@@std@@V12@@std@@@2@$0A@@std@@@std@@IBE?AU?$_Tree_find_result@PAU?$_Tree_node@U?$pair@$$CBV?$basic_string@_WU?$char_traits@_W@std@@V?$allocator@_W@2@@std@@V12@@std@@PAX@std@@@1@ABV?$basic_string@_WU?$char_traits@_W@std@@V?$allocator@_W@2@@1@@Z
DF00 49 ??$_Append_range_unchecked@PBV?$basic_string@_WU?$char_traits@_W@std@@V?$allocator@_W@2@@std@@PBV12@@?$_List_node_insert_op2@V?$allocator@U?$_List_node@V?$basic_string@_WU?$char_traits@_W@std@@V?$allocator@_W@2@@std@@PAX@std@@@std@@@std@@QAEXPBV?$basic_string@_WU?$char_traits@_W@std@@V?$allocator@_W@2@@1@QBV21@@Z
DFF0 49 ??$_Append_range_unchecked@V?$_List_unchecked_const_iterator@V?$_List_val@U?$_List_simple_types@V?$basic_string@_WU?$char_traits@_W@std@@V?$allocator@_W@2@@std@@@std@@@std@@U_Iterator_base0@2@@std@@V12@@?$_List_node_insert_op2@V?$allocator@U?$_List_node@V?$basic_string@_WU?$char_traits@_W@std@@V?$allocator@_W@2@@std@@PAX@std@@@std@@@std@@QAEXV?$_List_unchecked_const_iterator@V?$_List_val@U?$_List_simple_types@V?$basic_string@_WU?$char_traits@_W@std@@V?$allocator@_W@2@@std@@@std@@@std@@U_Iterator_base0@2@@1@V21@@Z
E0E0 49 ??$_Copy_nodes@$0A@@?$_Tree@V?$_Tmap_traits@V?$basic_string@_WU?$char_traits@_W@std@@V?$allocator@_W@2@@std@@V12@U?$less@V?$basic_string@_WU?$char_traits@_W@std@@V?$allocator@_W@2@@std@@@2@V?$allocator@U?$pair@$$CBV?$basic_string@_WU?$char_traits@_W@std@@V?$allocator@_W@2@@std@@V12@@std@@@2@$0A@@std@@@std@@IAEPAU?$_Tree_node@U?$pair@$$CBV?$basic_string@_WU?$char_traits@_W@std@@V?$allocator@_W@2@@std@@V12@@std@@PAX@1@PAU21@0@Z
E1CB 49 __catch$??$_Copy_nodes@$0A@@?$_Tree@V?$_Tmap_traits@V?$basic_string@_WU?$char_traits@_W@std@@V?$allocator@_W@2@@std@@V12@U?$less@V?$basic_string@_WU?$char_traits@_W@std@@V?$allocator@_W@2@@std@@@2@V?$allocator@U?$pair@$$CBV?$basic_string@_WU?$char_traits@_W@std@@V?$allocator@_W@2@@std@@V12@@std@@@2@$0A@@std@@@std@@IAEPAU?$_Tree_node@U?$pair@$$CBV?$basic_string@_WU?$char_traits@_W@std@@V?$allocator@_W@2@@std@@V12@@std@@PAX@1@PAU21@0@Z$0
E1F0 49 ??$_Freenode@V?$allocator@U?$_List_node@V?$vector@EV?$allocator@E@std@@@std@@PAX@std@@@std@@@?$_List_node@V?$vector@EV?$allocator@E@std@@@std@@PAX@std@@SAXAAV?$allocator@U?$_List_node@V?$vector@EV?$allocator@E@std@@@std@@PAX@std@@@1@PAU01@@Z
E250 49 ??$_Freenode@V?$allocator@U?$_List_node@V?$basic_string@_WU?$char_traits@_W@std@@V?$allocator@_W@2@@std@@PAX@std@@@std@@@?$_List_node@V?$basic_string@_WU?$char_traits@_W@std@@V?$allocator@_W@2@@std@@PAX@std@@SAXAAV?$allocator@U?$_List_node@V?$basic_string@_WU?$char_traits@_W@std@@V?$allocator@_W@2@@std@@PAX@std@@@1@PAU01@@Z
E2B0 49 ??1?$_Uninitialized_backout_al@V?$allocator@V?$vector@EV?$allocator@E@std@@@std@@@std@@@std@@QAE@XZ
E2C0 49 ?_Unchecked_erase@?$list@V?$basic_string@_WU?$char_traits@_W@std@@V?$allocator@_W@2@@std@@V?$allocator@V?$basic_string@_WU?$char_traits@_W@std@@V?$allocator@_W@2@@std@@@2@@std@@AAEPAU?$_List_node@V?$basic_string@_WU?$char_traits@_W@std@@V?$allocator@_W@2@@std@@PAX@2@PAU32@QAU32@@Z
E360 49 ?compare@?$_WChar_traits@_W@std@@SAHQB_W0I@Z
E3A0 56 ??1?$_Alloc_construct_ptr@V?$allocator@U?$_List_node@UCacheRecord@FileWriteCache@@PAX@std@@@std@@@std@@QAE@XZ
E3C0 49 ??$_Insertion_sort_unchecked@PAUCDllCodecInfo@@V<lambda_3>@?BG@??load_codecs@ArcAPI@@AAEXABV?$basic_string@_WU?$char_traits@_W@std@@V?$allocator@_W@2@@std@@@Z@@std@@YAPAUCDllCodecInfo@@QAU1@0V<lambda_3>@?BG@??load_codecs@ArcAPI@@AAEXABV?$basic_string@_WU?$char_traits@_W@std@@V?$allocator@_W@2@@0@@Z@@Z
E860 49 ??4CDllCodecInfo@@QAEAAU0@$$QAU0@@Z
E910 49 ??$_Partition_by_median_guess_unchecked@PAUCDllCodecInfo@@V<lambda_3>@?BG@??load_codecs@ArcAPI@@AAEXABV?$basic_string@_WU?$char_traits@_W@std@@V?$allocator@_W@2@@std@@@Z@@std@@YA?AU?$pair@PAUCDllCodecInfo@@PAU1@@0@PAUCDllCodecInfo@@0V<lambda_3>@?BG@??load_codecs@ArcAPI@@AAEXABV?$basic_string@_WU?$char_traits@_W@std@@V?$allocator@_W@2@@0@@Z@@Z
F080 49 ??$_Insertion_sort_unchecked@PAIV<lambda_4>@?1??make_index@Archive@@QAEXXZ@@std@@YAPAIQAI0V<lambda_4>@?1??make_index@Archive@@QAEXXZ@@Z
F1B0 49 ??$_Make_heap_unchecked@PAIV<lambda_4>@?1??make_index@Archive@@QAEXXZ@@std@@YAXPAI0V<lambda_4>@?1??make_index@Archive@@QAEXXZ@@Z
F360 49 ??$_Partition_by_median_guess_unchecked@PAIV<lambda_4>@?1??make_index@Archive@@QAEXXZ@@std@@YA?AU?$pair@PAIPAI@0@PAI0V<lambda_4>@?1??make_index@Archive@@QAEXXZ@@Z
F810 49 ??$construct@UCDllCodecInfo@@ABU1@@?$_Default_allocator_traits@V?$allocator@UCDllCodecInfo@@@std@@@std@@SAXAAV?$allocator@UCDllCodecInfo@@@1@QAUCDllCodecInfo@@ABU3@@Z
F880 49 ??$_Uninitialized_move@PAUArcLib@@V?$allocator@UArcLib@@@std@@@std@@YAPAUArcLib@@QAU1@0PAU1@AAV?$allocator@UArcLib@@@0@@Z
F9B0 49 ??$_Uninitialized_move@PAUSfxModule@@V?$allocator@USfxModule@@@std@@@std@@YAPAUSfxModule@@QAU1@0PAU1@AAV?$allocator@USfxModule@@@0@@Z
FA30 49 ??$_Uninitialized_move@PAV?$vector@EV?$allocator@E@std@@@std@@V?$allocator@V?$vector@EV?$allocator@E@std@@@std@@@2@@std@@YAPAV?$vector@EV?$allocator@E@std@@@0@QAV10@0PAV10@AAV?$allocator@V?$vector@EV?$allocator@E@std@@@std@@@0@@Z
FAA0 49 ??$?__M_WU?$char_traits@_W@std@@V?$allocator@_W@1@@std@@YA?AUstrong_ordering@0@ABV?$basic_string@_WU?$char_traits@_W@std@@V?$allocator@_W@2@@0@0@Z
FB20 49 ??1?$pair@$$CBV?$basic_string@_WU?$char_traits@_W@std@@V?$allocator@_W@2@@std@@V12@@std@@QAE@XZ
FBC0 49 ??$_Uninitialized_copy_unchecked@PAPAIPAPAI@std@@YAPAPAIPAPAIQAPAI0@Z
FBF0 49 ??0CDllCodecInfo@@QAE@$$QAU0@@Z
FCA0 49 ??1?$_Uninitialized_backout_al@V?$allocator@UArcLib@@@std@@@std@@QAE@XZ
FCD0 49 ??$_Pop_heap_hole_by_index@PAUCDllCodecInfo@@U1@V<lambda_3>@?BG@??load_codecs@ArcAPI@@AAEXABV?$basic_string@_WU?$char_traits@_W@std@@V?$allocator@_W@2@@std@@@Z@@std@@YAXPAUCDllCodecInfo@@HH$$QAU1@V<lambda_3>@?BG@??load_codecs@ArcAPI@@AAEXABV?$basic_string@_WU?$char_traits@_W@std@@V?$allocator@_W@2@@0@@Z@@Z
FF80 49 ??$swap@UCDllCodecInfo@@$0A@@std@@YAXAAUCDllCodecInfo@@0@Z
10000 49 ??$_Pop_heap_hole_by_index@PAIIV<lambda_4>@?1??make_index@Archive@@QAEXXZ@@std@@YAXPAIHH$$QAIV<lambda_4>@?1??make_index@Archive@@QAEXXZ@@Z
10150 49 ??0ArcLib@@QAE@ABU0@@Z
10210 49 ??$_Med3_unchecked@PAUCDllCodecInfo@@V<lambda_3>@?BG@??load_codecs@ArcAPI@@AAEXABV?$basic_string@_WU?$char_traits@_W@std@@V?$allocator@_W@2@@std@@@Z@@std@@YAXPAUCDllCodecInfo@@00V<lambda_3>@?BG@??load_codecs@ArcAPI@@AAEXABV?$basic_string@_WU?$char_traits@_W@std@@V?$allocator@_W@2@@0@@Z@@Z
10340 49 ??$_Med3_unchecked@PAIV<lambda_4>@?1??make_index@Archive@@QAEXXZ@@std@@YAXPAI00V<lambda_4>@?1??make_index@Archive@@QAEXXZ@@Z
1045E 56 ?Release@ArchiveExtractor@@W3AGKXZ
10468 49 ??_EMyCompressCodecsInfo@@W7AEPAXI@Z
10470 56 ?Release@ArchiveExtractor@@W7AGKXZ
1047A 49 ?QueryInterface@MyCompressCodecsInfo@@W3AGJABU_GUID@@PAPAX@Z
10484 56 ?AddRef@ArchiveExtractor@@W3AGKXZ
1048E 49 ?QueryInterface@MyCompressCodecsInfo@@W7AGJABU_GUID@@PAPAX@Z
10498 56 ?AddRef@ArchiveExtractor@@W7AGKXZ
104B0 49 ?_Throw_tree_length_error@std@@YAXXZ
104C0 49 ?_Take_contents@?$basic_string@_WU?$char_traits@_W@std@@V?$allocator@_W@2@@std@@AAEXAAV12@@Z
10500 49 ??0?$basic_string@_WU?$char_traits@_W@std@@V?$allocator@_W@2@@std@@QAE@$$QAV01@@Z
10560 49 ??$_Allocate_at_least_helper@V?$allocator@_W@std@@@std@@YAPA_WAAV?$allocator@_W@0@AAI@Z
105C0 49 ??$_Allocate_for_capacity@$0A@@?$basic_string@_WU?$char_traits@_W@std@@V?$allocator@_W@2@@std@@CAPA_WAAV?$allocator@_W@1@AAI@Z
10620 49 ??$_Construct@$00PB_W@?$basic_string@_WU?$char_traits@_W@std@@V?$allocator@_W@2@@std@@AAEXQB_WI@Z
106C0 49 ??1?$basic_string@DU?$char_traits@D@std@@V?$allocator@D@2@@std@@QAE@XZ
10710 49 ?_Xlen_string@std@@YAXXZ
10720 49 ??0bad_array_new_length@std@@QAE@XZ
10740 265 ??1__non_rtti_object@std@@UAE@XZ
10760 0 ??_Ebad_alloc@std@@UAEPAXI@Z
10790 49 ??0bad_array_new_length@std@@QAE@ABV01@@Z
107D0 49 ??0bad_alloc@std@@QAE@ABV01@@Z
10810 49 ??0exception@std@@QAE@ABV01@@Z
10840 49 ?_Throw_bad_array_new_length@std@@YAXXZ
10860 49 ??$_Allocate_for_capacity@$0A@@?$basic_string@DU?$char_traits@D@std@@V?$allocator@D@2@@std@@CAPADAAV?$allocator@D@1@AAI@Z
108C0 49 ??$_Construct@$00PBD@?$basic_string@DU?$char_traits@D@std@@V?$allocator@D@2@@std@@AAEXQBDI@Z
10950 49 ?what@exception@std@@UBEPBDXZ
10960 49 ?deallocate@?$allocator@_W@std@@QAEXQA_WI@Z
109A0 49 ?_Deallocate_for_capacity@?$basic_string@_WU?$char_traits@_W@std@@V?$allocator@_W@2@@std@@CAXAAV?$allocator@_W@2@QA_WI@Z
109E0 52 ??1BStr@@QAE@XZ
10A00 52 ?uint_to_hex_str@@YA?AV?$basic_string@_WU?$char_traits@_W@std@@V?$allocator@_W@2@@std@@_KI@Z
10AC0 52 ?format_str_prop@@YA?AV?$basic_string@_WU?$char_traits@_W@std@@V?$allocator@_W@2@@std@@ABVPropVariant@@@Z
10B30 52 ?format_int_prop@@YA?AV?$basic_string@_WU?$char_traits@_W@std@@V?$allocator@_W@2@@std@@ABVPropVariant@@@Z
10C04 52 $LN35
10C18 52 $LN34
10C30 52 ?format_uint_prop@@YA?AV?$basic_string@_WU?$char_traits@_W@std@@V?$allocator@_W@2@@std@@ABVPropVariant@@@Z
10CB0 52 ?format_size_prop@@YA?AV?$basic_string@_WU?$char_traits@_W@std@@V?$allocator@_W@2@@std@@ABVPropVariant@@@Z
10E70 52 ?format_filetime_prop@@YA?AV?$basic_string@_WU?$char_traits@_W@std@@V?$allocator@_W@2@@std@@ABVPropVariant@@@Z
11040 52 ?format_crc_prop@@YA?AV?$basic_string@_WU?$char_traits@_W@std@@V?$allocator@_W@2@@std@@ABVPropVariant@@@Z
110F8 52 $LN48
1110C 52 $LN47
11130 52 ?format_posix_attrib_prop@@YA?AV?$basic_string@_WU?$char_traits@_W@std@@V?$allocator@_W@2@@std@@ABVPropVariant@@@Z
11580 52 ?format_attrib_prop@@YA?AV?$basic_string@_WU?$char_traits@_W@std@@V?$allocator@_W@2@@std@@ABVPropVariant@@@Z
11A80 52 ?get_attr_list@Archive@@QAE?AV?$list@UAttr@@V?$allocator@UAttr@@@std@@@std@@I@Z
12370 52 ?load_arc_attr@Archive@@AAEXXZ
13670 52 ?load_update_props@Archive@@QAEXABV?$vector@EV?$allocator@E@std@@@std@@@Z
13C20 52 ?clear@?$list@UAttr@@V?$allocator@UAttr@@@std@@@std@@QAEXXZ
13C70 52 ?push_back@?$list@UAttr@@V?$allocator@UAttr@@@std@@@std@@QAEXABUAttr@@@Z
13D30 52 ??1?$list@UAttr@@V?$allocator@UAttr@@@std@@@std@@QAE@XZ
13D80 52 ?find@?$basic_string@_WU?$char_traits@_W@std@@V?$allocator@_W@2@@std@@QBEI_WI@Z
13DE0 52 ??4?$basic_string@_WU?$char_traits@_W@std@@V?$allocator@_W@2@@std@@QAEAAV01@QB_W@Z
13E10 52 ?push_back@?$basic_string@_WU?$char_traits@_W@std@@V?$allocator@_W@2@@std@@QAEX_W@Z
13F40 52 ??$?8EV?$allocator@E@std@@@std@@YA_NABV?$vector@EV?$allocator@E@std@@@0@0@Z
13FC0 52 ??$?H_WU?$char_traits@_W@std@@V?$allocator@_W@1@@std@@YA?AV?$basic_string@_WU?$char_traits@_W@std@@V?$allocator@_W@2@@0@$$QAV10@ABV10@@Z
14030 52 ??$?H_WU?$char_traits@_W@std@@V?$allocator@_W@1@@std@@YA?AV?$basic_string@_WU?$char_traits@_W@std@@V?$allocator@_W@2@@0@$$QAV10@_W@Z
140A0 52 ??1?$_Alloc_construct_ptr@V?$allocator@U?$_List_node@UAttr@@PAX@std@@@std@@@std@@QAE@XZ
140C0 53 ?lc@@YA?AV?$basic_string@_WU?$char_traits@_W@std@@V?$allocator@_W@2@@std@@ABV12@@Z
14280 53 ?parse_command@@YA?AUCommandArgs@@ABV?$basic_string@_WU?$char_traits@_W@std@@V?$allocator@_W@2@@std@@@Z
149A0 53 ??1CommandArgs@@QAE@XZ
149B0 53 ?parse_plugin_call@@YA?AUCommandArgs@@PBUOpenMacroInfo@@@Z
14EA0 53 ?parse_param@@YA?AUParam@@ABV?$basic_string@_WU?$char_traits@_W@std@@V?$allocator@_W@2@@std@@@Z
15350 53 ?parse_bool_value@@YA_NABV?$basic_string@_WU?$char_traits@_W@std@@V?$allocator@_W@2@@std@@@Z
15400 53 ?parse_tri_state_value@@YA?AW4TriState@@ABV?$basic_string@_WU?$char_traits@_W@std@@V?$allocator@_W@2@@std@@@Z
154E0 53 ?parse_listfile@@YA?AV?$list@V?$basic_string@_WU?$char_traits@_W@std@@V?$allocator@_W@2@@std@@V?$allocator@V?$basic_string@_WU?$char_traits@_W@std@@V?$allocator@_W@2@@std@@@2@@std@@ABV?$basic_string@_WU?$char_traits@_W@std@@V?$allocator@_W@2@@2@@Z
15730 53 ?parse_open_command@@YA?AUOpenCommand@@ABUCommandArgs@@@Z
15D90 53 ??1OpenCommand@@QAE@XZ
15DA0 53 ??1OpenOptions@@QAE@XZ
15E60 53 ??0OpenOptions@@QAE@$$QAU0@@Z
15F90 53 ?parse_update_command@@YA?AUUpdateCommand@@ABUCommandArgs@@@Z
17140 53 ??1UpdateOptions@@QAE@XZ
171E0 53 ??1ProfileOptions@@QAE@XZ
173E0 53 ??1SfxOptions@@QAE@XZ
17490 53 ??1SfxVersionInfo@@QAE@XZ
17670 53 ??1SfxInstallConfig@@QAE@XZ
178B0 53 ??1UpdateCommand@@QAE@XZ
178E0 53 ??4ProfileOptions@@QAEAAU0@ABU0@@Z
179F0 53 ??4SfxOptions@@QAEAAU0@ABU0@@Z
17B20 53 ??4SfxInstallConfig@@QAEAAU0@ABU0@@Z
17C00 53 ??0ProfileOptions@@QAE@$$QAU0@@Z
17E90 53 ??0SfxOptions@@QAE@$$QAU0@@Z
181E0 53 ??0SfxInstallConfig@@QAE@$$QAU0@@Z
18460 53 ?parse_extract_params@@YAXABUCommandArgs@@AAUExtractOptions@@AAV?$vector@V?$basic_string@_WU?$char_traits@_W@std@@V?$allocator@_W@2@@std@@V?$allocator@V?$basic_string@_WU?$char_traits@_W@std@@V?$allocator@_W@2@@std@@@2@@std@@@Z
189B0 53 ?parse_extract_command@@YA?AUExtractCommand@@ABUCommandArgs@@@Z
18B30 53 ??1ExtractOptions@@QAE@XZ
18BD0 53 ??1ExtractCommand@@QAE@XZ
18BF0 53 ?parse_extractitems_command@@YA?AUExtractItemsCommand@@ABUCommandArgs@@@Z
18D30 53 ??1ExtractItemsCommand@@QAE@XZ
18DA0 53 ?parse_test_command@@YA?AUTestCommand@@ABUCommandArgs@@@Z
18FB0 53 ??1?$vector@V?$basic_string@_WU?$char_traits@_W@std@@V?$allocator@_W@2@@std@@V?$allocator@V?$basic_string@_WU?$char_traits@_W@std@@V?$allocator@_W@2@@std@@@2@@std@@QAE@XZ
18FC0 53 ??4?$list@V?$vector@EV?$allocator@E@std@@@std@@V?$allocator@V?$vector@EV?$allocator@E@std@@@std@@@2@@std@@QAEAAV01@$$QAV01@@Z
19010 53 ??A?$vector@V?$basic_string@_WU?$char_traits@_W@std@@V?$allocator@_W@2@@std@@V?$allocator@V?$basic_string@_WU?$char_traits@_W@std@@V?$allocator@_W@2@@std@@@2@@std@@QBEABV?$basic_string@_WU?$char_traits@_W@std@@V?$allocator@_W@2@@1@I@Z
19030 53 ?erase@?$vector@V?$basic_string@_WU?$char_traits@_W@std@@V?$allocator@_W@2@@std@@V?$allocator@V?$basic_string@_WU?$char_traits@_W@std@@V?$allocator@_W@2@@std@@@2@@std@@QAE?AV?$_Vector_iterator@V?$_Vector_val@U?$_Simple_types@V?$basic_string@_WU?$char_traits@_W@std@@V?$allocator@_W@2@@std@@@std@@@std@@@2@V?$_Vector_const_iterator@V?$_Vector_val@U?$_Simple_types@V?$basic_string@_WU?$char_traits@_W@std@@V?$allocator@_W@2@@std@@@std@@@std@@@2@@Z
19110 53 ?reserve@?$basic_string@_WU?$char_traits@_W@std@@V?$allocator@_W@2@@std@@QAEXI@Z
19220 53 ??$_Emplace_one_at_back@V?$basic_string@_WU?$char_traits@_W@std@@V?$allocator@_W@2@@std@@@?$vector@V?$basic_string@_WU?$char_traits@_W@std@@V?$allocator@_W@2@@std@@V?$allocator@V?$basic_string@_WU?$char_traits@_W@std@@V?$allocator@_W@2@@std@@@2@@std@@AAEAAV?$basic_string@_WU?$char_traits@_W@std@@V?$allocator@_W@2@@1@$$QAV21@@Z
192A0 53 ??$_Emplace_reallocate@V?$basic_string@_WU?$char_traits@_W@std@@V?$allocator@_W@2@@std@@@?$vector@V?$basic_string@_WU?$char_traits@_W@std@@V?$allocator@_W@2@@std@@V?$allocator@V?$basic_string@_WU?$char_traits@_W@std@@V?$allocator@_W@2@@std@@@2@@std@@AAEPAV?$basic_string@_WU?$char_traits@_W@std@@V?$allocator@_W@2@@1@QAV21@$$QAV21@@Z
193C0 290 ??$_Emplace_reallocate@AAV?$basic_string@_WU?$char_traits@_W@std@@V?$allocator@_W@2@@std@@@?$vector@V?$basic_string@_WU?$char_traits@_W@std@@V?$allocator@_W@2@@std@@V?$allocator@V?$basic_string@_WU?$char_traits@_W@std@@V?$allocator@_W@2@@std@@@2@@std@@AAEPAV?$basic_string@_WU?$char_traits@_W@std@@V?$allocator@_W@2@@1@QAV21@AAV21@@Z
194E0 53 __catch$??$_Emplace_reallocate@ABV?$basic_string@_WU?$char_traits@_W@std@@V?$allocator@_W@2@@std@@@?$vector@V?$basic_string@_WU?$char_traits@_W@std@@V?$allocator@_W@2@@std@@V?$allocator@V?$basic_string@_WU?$char_traits@_W@std@@V?$allocator@_W@2@@std@@@2@@std@@AAEPAV?$basic_string@_WU?$char_traits@_W@std@@V?$allocator@_W@2@@1@QAV21@ABV21@@Z$0
19510 53 ?_Change_array@?$vector@V?$basic_string@_WU?$char_traits@_W@std@@V?$allocator@_W@2@@std@@V?$allocator@V?$basic_string@_WU?$char_traits@_W@std@@V?$allocator@_W@2@@std@@@2@@std@@AAEXQAV?$basic_string@_WU?$char_traits@_W@std@@V?$allocator@_W@2@@2@II@Z
19590 53 ??1?$_Uninitialized_backout_al@V?$allocator@V?$basic_string@_WU?$char_traits@_W@std@@V?$allocator@_W@2@@std@@@std@@@std@@QAE@XZ
195A0 53 ?allocate@?$allocator@V?$basic_string@_WU?$char_traits@_W@std@@V?$allocator@_W@2@@std@@@std@@QAEPAV?$basic_string@_WU?$char_traits@_W@std@@V?$allocator@_W@2@@2@I@Z
19600 54 ??0Error@@QAE@XZ
196C0 54 ?al_round@@YAHN@Z
19710 54 ?calc_percent@@YAI_K0@Z
197F0 54 ?get_module_version@@YA_KABV?$basic_string@_WU?$char_traits@_W@std@@V?$allocator@_W@2@@std@@@Z
19890 54 ?parse_size_string@@YA_KABV?$basic_string@_WU?$char_traits@_W@std@@V?$allocator@_W@2@@std@@@Z
199E0 54 ?expand_macros@@YA?AV?$basic_string@_WU?$char_traits@_W@std@@V?$allocator@_W@2@@std@@ABV12@@Z
1A0C0 54 ?load_file@@YA?AV?$basic_string@_WU?$char_traits@_W@std@@V?$allocator@_W@2@@std@@ABV12@PAI@Z
1A390 54 ?auto_rename@@YA?AV?$basic_string@_WU?$char_traits@_W@std@@V?$allocator@_W@2@@std@@ABV12@@Z
1A810 54 ??$?H_WU?$char_traits@_W@std@@V?$allocator@_W@1@@std@@YA?AV?$basic_string@_WU?$char_traits@_W@std@@V?$allocator@_W@2@@0@QB_W$$QAV10@@Z
1A890 55 ??0Error@@QAE@ABVexception@std@@@Z
1AC20 55 ?do_update_ui@ArchiveFileDeleterProgress@@EAEXXZ
1B160 55 ??0ArchiveFileDeleterProgress@@QAE@XZ
1B280 55 ??_D?$basic_ostringstream@_WU?$char_traits@_W@std@@V?$allocator@_W@2@@std@@QAEXXZ
1B350 0 ??_EArchiveFileDeleterProgress@@UAEPAXI@Z
1B380 55 ??0ArchiveFileDeleterStream@@QAE@ABV?$basic_string@_WU?$char_traits@_W@std@@V?$allocator@_W@2@@std@@V?$shared_ptr@VProgressMonitor@@@2@@Z
1B46E 55 __catch$??0ArchiveFileDeleterStream@@QAE@ABV?$basic_string@_WU?$char_traits@_W@std@@V?$allocator@_W@2@@std@@V?$shared_ptr@VProgressMonitor@@@2@@Z$0
1B4C0 55 ?QueryInterface@ArchiveFileDeleterStream@@UAGJABU_GUID@@PAPAX@Z
1B570 55 ?AddRef@ArchiveFileDeleter@@UAGKXZ
1B590 55 ?Release@ArchiveFileDeleter@@UAGKXZ
1B5C0 55 ?Write@ArchiveFileDeleterStream@@UAGJPBXIPAI@Z
1B634 55 __catch$?Write@ArchiveFileDeleterStream@@UAGJPBXIPAI@Z$0
1B67E 55 __catch$?Write@ArchiveFileDeleterStream@@UAGJPBXIPAI@Z$2
1B691 55 __catch$?Write@ArchiveFileDeleterStream@@UAGJPBXIPAI@Z$3
1B6D1 55 __catch$?Write@ArchiveFileDeleterStream@@UAGJPBXIPAI@Z$5
1B6F0 55 ?Seek@ArchiveFileDeleterStream@@UAGJ_JIPA_K@Z
1B791 55 __catch$?Seek@ArchiveFileDeleterStream@@UAGJ_JIPA_K@Z$0
1B7A4 55 __catch$?Seek@ArchiveFileDeleterStream@@UAGJ_JIPA_K@Z$1
1B7E4 55 __catch$?Seek@ArchiveFileDeleterStream@@UAGJ_JIPA_K@Z$3
1B820 55 ?SetSize@ArchiveFileDeleterStream@@UAGJ_K@Z
1B894 55 __catch$?SetSize@ArchiveFileDeleterStream@@UAGJ_K@Z$0
1B8DE 55 __catch$?SetSize@ArchiveFileDeleterStream@@UAGJ_K@Z$2
1B8F1 55 __catch$?SetSize@ArchiveFileDeleterStream@@UAGJ_K@Z$3
1B931 55 __catch$?SetSize@ArchiveFileDeleterStream@@UAGJ_K@Z$5
1B980 0 ??_EArchiveFileDeleterStream@@UAEPAXI@Z
1B9E0 55 ??4Error@@QAEAAU0@ABU0@@Z
1BA30 55 ??4Error@@QAEAAU0@$$QAU0@@Z
1BB00 55 ?QueryInterface@ArchiveFileDeleter@@UAGJABU_GUID@@PAPAX@Z
1BBB0 55 ?SetTotal@ArchiveFileDeleter@@UAGJ_K@Z
1BC1A 55 __catch$?SetTotal@ArchiveFileDeleter@@UAGJ_K@Z$0
1BC2D 55 __catch$?SetTotal@ArchiveFileDeleter@@UAGJ_K@Z$1
1BC6D 55 __catch$?SetTotal@ArchiveFileDeleter@@UAGJ_K@Z$3
1BC90 55 ?SetCompleted@ArchiveFileDeleter@@UAGJPB_K@Z
1BD00 55 __catch$?SetCompleted@ArchiveFileDeleter@@UAGJPB_K@Z$0
1BD13 55 __catch$?SetCompleted@ArchiveFileDeleter@@UAGJPB_K@Z$1
1BD53 55 __catch$?SetCompleted@ArchiveFileDeleter@@UAGJPB_K@Z$3
1BD70 55 ?GetUpdateItemInfo@ArchiveFileDeleter@@UAGJIPAH0PAI@Z
1BDD0 55 ?GetProperty@ArchiveFileDeleter@@UAGJIKPAUtagPROPVARIANT@@@Z
1BE37 55 __catch$?GetProperty@ArchiveFileDeleter@@UAGJIKPAUtagPROPVARIANT@@@Z$0
1BE4A 55 __catch$?GetProperty@ArchiveFileDeleter@@UAGJIKPAUtagPROPVARIANT@@@Z$1
1BE8A 55 __catch$?GetProperty@ArchiveFileDeleter@@UAGJIKPAUtagPROPVARIANT@@@Z$3
1BEF0 55 ?GetStream@ArchiveFileDeleter@@UAGJIPAPAUISequentialInStream@@@Z
1BF40 288 ?PrepareOperation@ArchiveTester@@UAGJH@Z
1BF80 0 ??_EArchiveFileDeleter@@UAEPAXI@Z
1C020 55 ?enum_deleted_indices@Archive@@AAEXIAAV?$vector@IV?$allocator@I@std@@@std@@@Z
1C0A0 55 ?delete_files@Archive@@QAEXABV?$vector@IV?$allocator@I@std@@@std@@@Z
1C8D1 55 __catch$?delete_files@Archive@@QAEXABV?$vector@IV?$allocator@I@std@@@std@@@Z$0
1C9B0 280 ??1?$ComObject@UIArchiveAllowTail@@@@QAE@XZ
1CA00 56 ??1?$shared_ptr@V?$list@UError@@V?$allocator@UError@@@std@@@std@@@std@@QAE@XZ
1CA30 55 ??1?$list@UError@@V?$allocator@UError@@@std@@@std@@QAE@XZ
1CAA0 55 ??0?$list@UError@@V?$allocator@UError@@@std@@@std@@QAE@XZ
1CAD0 55 ?seekpos@?$basic_stringbuf@_WU?$char_traits@_W@std@@V?$allocator@_W@2@@std@@MAE?AV?$fpos@U_Mbstatet@@@2@V32@H@Z
1CC60 55 ?seekoff@?$basic_stringbuf@_WU?$char_traits@_W@std@@V?$allocator@_W@2@@std@@MAE?AV?$fpos@U_Mbstatet@@@2@_JHH@Z
1CE50 55 ?underflow@?$basic_stringbuf@_WU?$char_traits@_W@std@@V?$allocator@_W@2@@std@@MAEGXZ
1CED0 55 ?pbackfail@?$basic_stringbuf@_WU?$char_traits@_W@std@@V?$allocator@_W@2@@std@@MAEGG@Z
1CF40 55 ?overflow@?$basic_stringbuf@_WU?$char_traits@_W@std@@V?$allocator@_W@2@@std@@MAEGG@Z
1D0C0 55 ?imbue@?$basic_streambuf@_WU?$char_traits@_W@std@@@std@@MAEXABVlocale@2@@Z
1D0D0 55 ?sync@?$basic_streambuf@_WU?$char_traits@_W@std@@@std@@MAEHXZ
1D0E0 55 ?setbuf@?$basic_streambuf@_WU?$char_traits@_W@std@@@std@@MAEPAV12@PA_W_J@Z
1D0F0 55 ?seekpos@?$basic_streambuf@_WU?$char_traits@_W@std@@@std@@MAE?AV?$fpos@U_Mbstatet@@@2@V32@H@Z
1D120 55 ?seekoff@?$basic_streambuf@_WU?$char_traits@_W@std@@@std@@MAE?AV?$fpos@U_Mbstatet@@@2@_JHH@Z
1D150 55 ?xsputn@?$basic_streambuf@_WU?$char_traits@_W@std@@@std@@MAE_JPB_W_J@Z
1D240 55 ?xsgetn@?$basic_streambuf@_WU?$char_traits@_W@std@@@std@@MAE_JPA_W_J@Z
1D330 55 ?uflow@?$basic_streambuf@_WU?$char_traits@_W@std@@@std@@MAEGXZ
1D360 55 ?underflow@?$basic_streambuf@_WU?$char_traits@_W@std@@@std@@MAEGXZ
1D370 55 ?showmanyc@?$basic_streambuf@_WU?$char_traits@_W@std@@@std@@MAE_JXZ
1D380 55 ?overflow@?$basic_streambuf@_WU?$char_traits@_W@std@@@std@@MAEGG@Z
1D390 56 ?_Destroy@?$_Ref_count_obj2@W4OverwriteAction@@@std@@EAEXXZ
1D3A0 55 ?str@?$basic_ostringstream@_WU?$char_traits@_W@std@@V?$allocator@_W@2@@std@@QGBE?AV?$basic_string@_WU?$char_traits@_W@std@@V?$allocator@_W@2@@2@XZ
1D470 55 ??0?$basic_ostringstream@_WU?$char_traits@_W@std@@V?$allocator@_W@2@@std@@QAE@XZ
1D6F0 55 ??1?$basic_ostream@_WU?$char_traits@_W@std@@@std@@UAE@XZ
1D710 55 ??1?$basic_ios@_WU?$char_traits@_W@std@@@std@@UAE@XZ
1D760 277 ??1?$_Vb_val@V?$allocator@_N@std@@@std@@QAE@XZ
1D7C0 55 ??0?$vector@IV?$allocator@I@std@@@std@@QAE@ABV01@@Z
1D820 0 ??_E?$basic_stringbuf@_WU?$char_traits@_W@std@@V?$allocator@_W@2@@std@@UAEPAXI@Z
1D880 0 ??_E?$basic_streambuf@_WU?$char_traits@_W@std@@@std@@UAEPAXI@Z
1D8D0 0 ??_E?$basic_ostringstream@_WU?$char_traits@_W@std@@V?$allocator@_W@2@@std@@UAEPAXI@Z
1D900 0 ??_E?$basic_ostream@_WU?$char_traits@_W@std@@@std@@UAEPAXI@Z
1D990 0 ??_E?$basic_ios@_WU?$char_traits@_W@std@@@std@@UAEPAXI@Z
1DA00 55 ?_Tidy@?$basic_stringbuf@_WU?$char_traits@_W@std@@V?$allocator@_W@2@@std@@IAEXXZ
1DAF0 55 ??0?$basic_ios@_WU?$char_traits@_W@std@@@std@@IAE@XZ
1DB60 55 ??$?HDU?$char_traits@D@std@@V?$allocator@D@1@@std@@YA?AV?$basic_string@DU?$char_traits@D@std@@V?$allocator@D@2@@0@$$QAV10@QBD@Z
1DBE0 55 ??$?6_WU?$char_traits@_W@std@@@std@@YAAAV?$basic_ostream@_WU?$char_traits@_W@std@@@0@AAV10@ABU?$_Smanip@_J@0@@Z
1DC10 55 ??$?6_WU?$char_traits@_W@std@@@std@@YAAAV?$basic_ostream@_WU?$char_traits@_W@std@@@0@AAV10@PB_W@Z
1DE18 55 __catch$??$?6_WU?$char_traits@_W@std@@@std@@YAAAV?$basic_ostream@_WU?$char_traits@_W@std@@@0@AAV10@PB_W@Z$0
1DEC0 55 ??$?6_WU?$char_traits@_W@std@@@std@@YAAAV?$basic_ostream@_WU?$char_traits@_W@std@@@0@AAV10@_W@Z
1E0DC 55 __catch$??$?6_WU?$char_traits@_W@std@@@std@@YAAAV?$basic_ostream@_WU?$char_traits@_W@std@@@0@AAV10@_W@Z$0
1E1A0 55 ??$use_facet@V?$ctype@_W@std@@@std@@YAABV?$ctype@_W@0@ABVlocale@0@@Z
1E350 283 ?_Delete_this@?$_Ref_count@VArchive@@@std@@EAEXXZ
1E360 55 ?_Destroy@?$_Ref_count_obj2@VArchiveFileDeleterProgress@@@std@@EAEXXZ
1E370 55 ??1sentry@?$basic_ostream@_WU?$char_traits@_W@std@@@std@@QAE@XZ
1E3E0 55 ??0sentry@?$basic_ostream@_WU?$char_traits@_W@std@@@std@@QAE@AAV12@@Z
1E480 55 ?sputn@?$basic_streambuf@_WU?$char_traits@_W@std@@@std@@QAE_JPB_W_J@Z
1E4A0 55 ?_Buy_nonzero@?$vector@IV?$allocator@I@std@@@std@@AAEXI@Z
1E530 0 ??_E?$_Ref_count_obj2@VArchiveFileDeleterProgress@@@std@@UAEPAXI@Z
1E560 55 ??1_Sentry_base@?$basic_ostream@_WU?$char_traits@_W@std@@@std@@QAE@XZ
1E5B0 55 ?flush@?$basic_ostream@_WU?$char_traits@_W@std@@@std@@QAEAAV12@XZ
1E627 55 __catch$?flush@?$basic_ostream@_WU?$char_traits@_W@std@@@std@@QAEAAV12@XZ$0
1E6D0 55 ?_Osfx@?$basic_ostream@_WU?$char_traits@_W@std@@@std@@QAEXXZ
1E74B 55 __catch$?_Osfx@?$basic_ostream@_WU?$char_traits@_W@std@@@std@@QAEXXZ$0
1E760 55 ??$_Insert_string@_WU?$char_traits@_W@std@@I@std@@YAAAV?$basic_ostream@_WU?$char_traits@_W@std@@@0@AAV10@QB_WI@Z
1E91E 55 __catch$??$_Insert_string@_WU?$char_traits@_W@std@@I@std@@YAAAV?$basic_ostream@_WU?$char_traits@_W@std@@@0@AAV10@QB_WI@Z$0
1E9C0 55 ??$_Sort_unchecked@PAIU?$less@X@std@@@std@@YAXPAI0HU?$less@X@0@@Z
1EBE0 55 ??$_Copy_unchecked@PAIPAIV?$back_insert_iterator@V?$vector@IV?$allocator@I@std@@@std@@@std@@@std@@YA?AV?$back_insert_iterator@V?$vector@IV?$allocator@I@std@@@std@@@0@PAI0V10@@Z
1EC40 55 ??$_Partition_by_median_guess_unchecked@PAIU?$less@X@std@@@std@@YA?AU?$pair@PAIPAI@0@PAI0U?$less@X@0@@Z
1EDC0 55 ??$_Pop_heap_hole_by_index@PAIIU?$less@X@std@@@std@@YAXPAIHH$$QAIU?$less@X@0@@Z
1EE60 55 ??$_Guess_median_unchecked@PAIU?$less@X@std@@@std@@YAXPAI00U?$less@X@0@@Z
1EF85 55 ?AddRef@ArchiveFileDeleter@@W3AGKXZ
1EF8F 55 ?Release@ArchiveFileDeleter@@W3AGKXZ
1EF99 55 ??_E?$basic_ostringstream@_WU?$char_traits@_W@std@@V?$allocator@_W@2@@std@@$4PPPPPPPM@A@AEPAXI@Z
1EFA1 55 ?QueryInterface@ArchiveFileDeleter@@W3AGJABU_GUID@@PAPAX@Z
1EFAB 55 ??_E?$basic_ostream@_WU?$char_traits@_W@std@@@std@@$4PPPPPPPM@A@AEPAXI@Z
1EFB3 55 ??_EArchiveFileDeleter@@W3AEPAXI@Z
1EFBB 55 ?QueryInterface@ArchiveFileDeleterStream@@W3AGJABU_GUID@@PAPAX@Z
1EFC5 55 ??_EArchiveFileDeleterStream@@W3AEPAXI@Z
1EFD0 55 ?_Get_deleter@_Ref_count_base@std@@UBEPAXABVtype_info@@@Z
1EFE0 55 ??1?$unique_ptr@V_Facet_base@std@@U?$default_delete@V_Facet_base@std@@@2@@std@@QAE@XZ
1EFF0 55 ??0bad_cast@std@@QAE@XZ
1F010 55 ??0bad_cast@std@@QAE@ABV01@@Z
1F050 55 ?_Throw_bad_cast@std@@YAXXZ
1F070 55 ??1facet@locale@std@@MAE@XZ
1F080 0 ??_E?$ctype@_W@std@@MAEPAXI@Z
1F0D0 55 ?do_is@?$ctype@_W@std@@MBEPB_WPB_W0PAF@Z
1F0F0 55 ?do_scan_is@?$ctype@_W@std@@MBEPB_WFPB_W0@Z
1F130 55 ?do_is@?$ctype@_W@std@@MBE_NF_W@Z
1F150 55 ?do_scan_not@?$ctype@_W@std@@MBEPB_WFPB_W0@Z
1F190 55 ?do_tolower@?$ctype@_W@std@@MBEPB_WPA_WPB_W@Z
1F1D0 55 ?do_tolower@?$ctype@_W@std@@MBE_W_W@Z
1F1F0 55 ?do_toupper@?$ctype@_W@std@@MBEPB_WPA_WPB_W@Z
1F230 55 ?do_toupper@?$ctype@_W@std@@MBE_W_W@Z
1F250 55 ?do_widen@?$ctype@_W@std@@MBEPBDPBD0PA_W@Z
1F2D0 55 ?do_narrow@?$ctype@_W@std@@MBEPB_WPB_W0DPAD@Z
1F360 55 ?do_narrow@?$ctype@_W@std@@MBED_WD@Z
1F3B0 55 ??0_Locinfo@std@@QAE@PBD@Z
1F460 55 ??1?$_Yarn@D@std@@QAE@XZ
1F480 55 ??1_Locinfo@std@@QAE@XZ
1F560 55 ?_Incref@facet@locale@std@@UAEXXZ
1F570 55 ?do_widen@?$ctype@_W@std@@MBE_WD@Z
1F5C0 55 ??0exception@std@@QAE@QBD@Z
1F600 55 ?append@?$basic_string@DU?$char_traits@D@std@@V?$allocator@D@2@@std@@QAEAAV12@QBDI@Z
1F760 55 ??0_System_error@std@@IAE@Verror_code@1@ABV?$basic_string@DU?$char_traits@D@std@@V?$allocator@D@2@@1@@Z
1F980 55 ??0failure@ios_base@std@@QAE@PBDABVerror_code@2@@Z
1FA70 0 ??_E_Iostream_error_category2@std@@UAEPAXI@Z
1FA90 55 ?name@_Iostream_error_category2@std@@UBEPBDXZ
1FAA0 55 ?message@_Iostream_error_category2@std@@UBE?AV?$basic_string@DU?$char_traits@D@std@@V?$allocator@D@2@@2@H@Z
1FB70 55 ?equivalent@error_category@std@@UBE_NABVerror_code@2@H@Z
1FBA0 55 ?default_error_condition@error_category@std@@UBE?AVerror_condition@2@H@Z
1FBC0 55 ?equivalent@error_category@std@@UBE_NHABVerror_condition@2@@Z
1FC00 55 ?make_error_code@std@@YA?AVerror_code@1@W4io_errc@1@@Z
1FC20 0 ??_E_System_error@std@@UAEPAXI@Z
1FC50 55 ??0failure@ios_base@std@@QAE@ABV012@@Z
1FCA0 55 ??0system_error@std@@QAE@ABV01@@Z
1FCF0 55 ??0_System_error@std@@QAE@ABV01@@Z
1FD40 55 ??0runtime_error@std@@QAE@ABV01@@Z
1FD80 55 ?clear@ios_base@std@@QAEXH_N@Z
1FE00 0 ??_Eios_base@std@@UAEPAXI@Z
1FE70 55 ?_Decref@facet@locale@std@@UAEPAV_Facet_base@3@XZ
1FE90 0 ??_E_Facet_base@std@@UAEPAXI@Z
1FEC0 55 ??1locale@std@@QAE@XZ
1FEE0 55 ??0?$fpos@U_Mbstatet@@@std@@QAE@_J@Z
1FF10 56 ??1CriticalSectionLock@@QAE@XZ
1FF30 56 ??1DisableSleepMode@@QAE@XZ
1FF40 56 ??0ProgressSuspend@@QAE@AAVProgressMonitor@@@Z
1FF90 56 ??1ProgressSuspend@@QAE@XZ
1FFA0 56 ??0ExtractOptions@@QAE@XZ
20000 56 ?do_update_ui@ExtractProgress@@EAEXXZ
20AB0 56 ??0ExtractProgress@@QAE@ABV?$basic_string@_WU?$char_traits@_W@std@@V?$allocator@_W@2@@std@@@Z
20C70 0 ??_EExtractProgress@@UAEPAXI@Z
20DD0 56 ?create_file@FileWriteCache@@AAEXXZ
20F5D 56 __catch$?create_file@FileWriteCache@@AAEXXZ$0
21090 56 ?allocate_file@FileWriteCache@@AAEXXZ
21159 56 __catch$?allocate_file@FileWriteCache@@AAEXXZ$0
211C0 56 ?write_file@FileWriteCache@@AAEXXZ
212DC 56 __catch$?write_file@FileWriteCache@@AAEXXZ$0
21370 56 ?close_file@FileWriteCache@@AAEXXZ
21458 56 __catch$?close_file@FileWriteCache@@AAEXXZ$0
214B0 56 ?write@FileWriteCache@@AAEXXZ
21580 56 ??R<lambda_1>@?1??write@FileWriteCache@@AAEXXZ@QBE@ABUCacheRecord@2@@Z
21640 56 ?store@FileWriteCache@@AAEXPBEI@Z
21790 56 ??0FileWriteCache@@QAE@V?$shared_ptr@VArchive@@@std@@V?$shared_ptr@_N@2@V?$shared_ptr@V?$list@UError@@V?$allocator@UError@@@std@@@std@@@2@V?$shared_ptr@VExtractProgress@@@2@@Z
21A80 56 ??1FileWriteCache@@QAE@XZ
21C10 56 ?store_data@FileWriteCache@@QAEXPBEI@Z
21DD0 56 ?QueryInterface@CachedFileExtractStream@@UAGJABU_GUID@@PAPAX@Z
21E60 56 ?Write@CachedFileExtractStream@@UAGJPBXIPAI@Z
21ED1 56 __catch$?Write@CachedFileExtractStream@@UAGJPBXIPAI@Z$0
21EE4 56 __catch$?Write@CachedFileExtractStream@@UAGJPBXIPAI@Z$1
21F24 56 __catch$?Write@CachedFileExtractStream@@UAGJPBXIPAI@Z$3
21F40 0 ??_ECachedFileExtractStream@@UAEPAXI@Z
21FA0 56 ??0ArchiveExtractor@@QAE@IABV?$basic_string@_WU?$char_traits@_W@std@@V?$allocator@_W@2@@std@@V?$shared_ptr@VArchive@@@2@V?$shared_ptr@W4OverwriteAction@@@2@V?$shared_ptr@_N@2@V?$shared_ptr@V?$list@UError@@V?$allocator@UError@@@std@@@std@@@2@V?$shared_ptr@VFileWriteCache@@@2@V?$shared_ptr@VExtractProgress@@@2@V?$shared_ptr@V?$set@IU?$less@I@std@@V?$allocator@I@2@@std@@@2@@Z
222A0 56 ?QueryInterface@ArchiveExtractor@@UAGJABU_GUID@@PAPAX@Z
22390 56 ?SetTotal@ArchiveExtractor@@UAGJ_K@Z
22480 56 ?SetCompleted@ArchiveExtractor@@UAGJPB_K@Z
2258A 56 __catch$?SetCompleted@ArchiveExtractor@@UAGJPB_K@Z$0
2259D 56 __catch$?SetCompleted@ArchiveExtractor@@UAGJPB_K@Z$1
225EB 56 __catch$?SetCompleted@ArchiveExtractor@@UAGJPB_K@Z$3
22620 56 ?GetStream@ArchiveExtractor@@UAGJIPAPAUISequentialOutStream@@H@Z
22E76 56 __catch$?GetStream@ArchiveExtractor@@UAGJIPAPAUISequentialOutStream@@H@Z$0
22E8C 56 __catch$?GetStream@ArchiveExtractor@@UAGJIPAPAUISequentialOutStream@@H@Z$1
22EE2 56 __catch$?GetStream@ArchiveExtractor@@UAGJIPAPAUISequentialOutStream@@H@Z$3
22F20 56 ?PrepareOperation@ArchiveExtractor@@UAGJH@Z
22FC0 56 ?SetOperationResult@ArchiveExtractor@@UAGJH@Z
230AC 56 __catch$?SetOperationResult@ArchiveExtractor@@UAGJH@Z$0
23103 56 __catch$?SetOperationResult@ArchiveExtractor@@UAGJH@Z$2
23116 56 __catch$?SetOperationResult@ArchiveExtractor@@UAGJH@Z$3
2313D 56 __catch$?SetOperationResult@ArchiveExtractor@@UAGJH@Z$5
232BC 56 $LN86
232F0 56 ??$emplace_back@AAV?$basic_string@_WU?$char_traits@_W@std@@V?$allocator@_W@2@@std@@@?$list@V?$basic_string@_WU?$char_traits@_W@std@@V?$allocator@_W@2@@std@@V?$allocator@V?$basic_string@_WU?$char_traits@_W@std@@V?$allocator@_W@2@@std@@@2@@std@@QAE?A_TAAV?$basic_string@_WU?$char_traits@_W@std@@V?$allocator@_W@2@@1@@Z
23390 56 ?CryptoGetTextPassword@ArchiveExtractor@@UAGJPAPA_W@Z
234A2 56 __catch$?CryptoGetTextPassword@ArchiveExtractor@@UAGJPAPA_W@Z$0
234B5 56 __catch$?CryptoGetTextPassword@ArchiveExtractor@@UAGJPAPA_W@Z$1
23503 56 __catch$?CryptoGetTextPassword@ArchiveExtractor@@UAGJPAPA_W@Z$3
23590 0 ??_EArchiveExtractor@@UAEPAXI@Z
235C0 56 ??1ArchiveExtractor@@UAE@XZ
237D0 56 ??0Error@@QAE@$$QAU0@@Z
238D0 56 ?prepare_dst_dir@Archive@@AAEXABV?$basic_string@_WU?$char_traits@_W@std@@V?$allocator@_W@2@@std@@@Z
23980 56 ?do_update_ui@PrepareExtract@@EAEXXZ
23B70 56 ?prepare_extract@PrepareExtract@@AAEXABU?$pair@V?$_Vector_const_iterator@V?$_Vector_val@U?$_Simple_types@I@std@@@std@@@std@@V12@@std@@ABV?$basic_string@_WU?$char_traits@_W@std@@V?$allocator@_W@2@@3@@Z
23BC0 56 ??R<lambda_1>@?1??prepare_extract@PrepareExtract@@AAEXABU?$pair@V?$_Vector_const_iterator@V?$_Vector_val@U?$_Simple_types@I@std@@@std@@@std@@V12@@std@@ABV?$basic_string@_WU?$char_traits@_W@std@@V?$allocator@_W@2@@4@@Z@QBE@I@Z
23D3B 56 __catch$??R<lambda_1>@?1??prepare_extract@PrepareExtract@@AAEXABU?$pair@V?$_Vector_const_iterator@V?$_Vector_val@U?$_Simple_types@I@std@@@std@@@std@@V12@@std@@ABV?$basic_string@_WU?$char_traits@_W@std@@V?$allocator@_W@2@@4@@Z@QBE@I@Z$0
23D97 56 __catch$??R<lambda_1>@?1??prepare_extract@PrepareExtract@@AAEXABU?$pair@V?$_Vector_const_iterator@V?$_Vector_val@U?$_Simple_types@I@std@@@std@@@std@@V12@@std@@ABV?$basic_string@_WU?$char_traits@_W@std@@V?$allocator@_W@2@@4@@Z@QBE@I@Z$2
23E60 0 ??_EPrepareExtract@@UAEPAXI@Z
23E90 56 ?do_update_ui@SetDirAttr@@EAEXXZ
24080 56 ?set_dir_attr@SetDirAttr@@AAEXABU?$pair@V?$_Vector_const_iterator@V?$_Vector_val@U?$_Simple_types@I@std@@@std@@@std@@V12@@std@@ABV?$basic_string@_WU?$char_traits@_W@std@@V?$allocator@_W@2@@3@@Z
240D0 56 ??R<lambda_1>@?1??set_dir_attr@SetDirAttr@@AAEXABU?$pair@V?$_Vector_const_iterator@V?$_Vector_val@U?$_Simple_types@I@std@@@std@@@std@@V12@@std@@ABV?$basic_string@_WU?$char_traits@_W@std@@V?$allocator@_W@2@@4@@Z@QBE@I@Z
243DD 56 __catch$??R<lambda_1>@?1??set_dir_attr@SetDirAttr@@AAEXABU?$pair@V?$_Vector_const_iterator@V?$_Vector_val@U?$_Simple_types@I@std@@@std@@@std@@V12@@std@@ABV?$basic_string@_WU?$char_traits@_W@std@@V?$allocator@_W@2@@4@@Z@QBE@I@Z$0
24470 56 ?extract@Archive@@QAEXIABV?$vector@IV?$allocator@I@std@@@std@@ABUExtractOptions@@V?$shared_ptr@V?$list@UError@@V?$allocator@UError@@@std@@@std@@@3@PAV23@@Z
25150 56 ?delete_archive@Archive@@QAEXXZ
25200 56 ?push_back@?$list@IV?$allocator@I@std@@@std@@QAEXABI@Z
25290 284 ??1?$list@GV?$allocator@G@std@@@std@@QAE@XZ
252D0 56 ??0?$shared_ptr@V?$list@UError@@V?$allocator@UError@@@std@@@std@@@std@@QAE@ABV01@@Z
25300 56 ?assign@?$list@UCacheRecord@FileWriteCache@@V?$allocator@UCacheRecord@FileWriteCache@@@std@@@std@@QAEXIABUCacheRecord@FileWriteCache@@@Z
25520 56 ??1?$list@UCacheRecord@FileWriteCache@@V?$allocator@UCacheRecord@FileWriteCache@@@std@@@std@@QAE@XZ
255B0 56 ?shared_from_this@?$enable_shared_from_this@VArchive@@@std@@QAE?AV?$shared_ptr@VArchive@@@2@XZ
25610 56 ?append@?$basic_string@_WU?$char_traits@_W@std@@V?$allocator@_W@2@@std@@QAEAAV12@I_W@Z
25680 56 ??1?$_List_node_insert_op2@V?$allocator@U?$_List_node@UCacheRecord@FileWriteCache@@PAX@std@@@std@@@std@@QAE@XZ
25710 56 ??$?CVArchive@@$0A@@?$shared_ptr@VArchive@@@std@@QBEPAVArchive@@XZ
25720 56 ??$insert@$0A@$0A@@?$_Tree@V?$_Tset_traits@IU?$less@I@std@@V?$allocator@I@2@$0A@@std@@@std@@QAE?AU?$pair@V?$_Tree_const_iterator@V?$_Tree_val@U?$_Tree_simple_types@I@std@@@std@@@std@@_N@1@ABI@Z
25810 56 ??$copy@V?$_List_iterator@V?$_List_val@U?$_List_simple_types@I@std@@@std@@@std@@V?$back_insert_iterator@V?$vector@IV?$allocator@I@std@@@std@@@2@@std@@YA?AV?$back_insert_iterator@V?$vector@IV?$allocator@I@std@@@std@@@0@V?$_List_iterator@V?$_List_val@U?$_List_simple_types@I@std@@@std@@@0@0V10@@Z
25870 56 ??$for_each@V?$_Tree_const_iterator@V?$_Tree_val@U?$_Tree_simple_types@V?$basic_string@_WU?$char_traits@_W@std@@V?$allocator@_W@2@@std@@@std@@@std@@@std@@V<lambda_1>@?1??delete_archive@Archive@@QAEXXZ@@std@@YA?AV<lambda_1>@?1??delete_archive@Archive@@QAEXXZ@V?$_Tree_const_iterator@V?$_Tree_val@U?$_Tree_simple_types@V?$basic_string@_WU?$char_traits@_W@std@@V?$allocator@_W@2@@std@@@std@@@std@@@0@0V1?1??23@QAEXXZ@@Z
25AD0 56 ??$_Reallocate_grow_by@V<lambda_1>@?1??append@?$basic_string@_WU?$char_traits@_W@std@@V?$allocator@_W@2@@std@@QAEAAV34@I_W@Z@I_W@?$basic_string@_WU?$char_traits@_W@std@@V?$allocator@_W@2@@std@@AAEAAV01@IV<lambda_1>@?1??append@01@QAEAAV01@I_W@Z@I_W@Z
25C30 56 ?_Destroy@?$_Ref_count_obj2@V?$set@IU?$less@I@std@@V?$allocator@I@2@@std@@@std@@EAEXXZ
25C40 56 ?_Destroy@?$_Ref_count_obj2@VFileWriteCache@@@std@@EAEXXZ
25C50 0 ??_E?$_Ref_count_obj2@V?$set@IU?$less@I@std@@V?$allocator@I@2@@std@@@std@@UAEPAXI@Z
25C80 0 ??_E?$_Ref_count_obj2@VFileWriteCache@@@std@@UAEPAXI@Z
25CB0 0 ??_E?$_Ref_count_obj2@VExtractProgress@@@std@@UAEPAXI@Z
25CE0 0 ??_E?$_Ref_count_obj2@W4OverwriteAction@@@std@@UAEPAXI@Z
25D10 0 ??_E?$_Ref_count_obj2@_N@std@@UAEPAXI@Z
25D40 284 ??1?$_Alloc_construct_ptr@V?$allocator@U?$_List_node@GPAX@std@@@std@@@std@@QAE@XZ
25D60 56 ??1?$_Tree@V?$_Tset_traits@IU?$less@I@std@@V?$allocator@I@2@$0A@@std@@@std@@QAE@XZ
25DA0 56 ??$_Construct_in_place@VFileWriteCache@@V?$shared_ptr@VArchive@@@std@@ABV?$shared_ptr@_N@3@AAV?$shared_ptr@V?$list@UError@@V?$allocator@UError@@@std@@@std@@@3@ABV?$shared_ptr@VExtractProgress@@@3@@std@@YAXAAVFileWriteCache@@$$QAV?$shared_ptr@VArchive@@@0@ABV?$shared_ptr@_N@0@AAV?$shared_ptr@V?$list@UError@@V?$allocator@UError@@@std@@@std@@@0@ABV?$shared_ptr@VExtractProgress@@@0@@Z
25E70 56 ??$_Erase_tree@V?$allocator@U?$_Tree_node@IPAX@std@@@std@@@?$_Tree_val@U?$_Tree_simple_types@I@std@@@std@@QAEXAAV?$allocator@U?$_Tree_node@IPAX@std@@@1@PAU?$_Tree_node@IPAX@1@@Z
25EAB 56 ??_ECachedFileExtractStream@@W3AEPAXI@Z
25EB3 56 ?QueryInterface@ArchiveExtractor@@W3AGJABU_GUID@@PAPAX@Z
25EBD 56 ??_EArchiveExtractor@@W7AEPAXI@Z
25EC5 56 ?QueryInterface@ArchiveExtractor@@W7AGJABU_GUID@@PAPAX@Z
25ECF 56 ?QueryInterface@CachedFileExtractStream@@W3AGJABU_GUID@@PAPAX@Z
25EE0 56 ??0bad_weak_ptr@std@@QAE@XZ
25F00 56 ?what@bad_weak_ptr@std@@UBEPBDXZ
25F10 56 ??0bad_weak_ptr@std@@QAE@ABV01@@Z
25F50 56 ?_Throw_bad_weak_ptr@std@@YAXXZ
25F70 57 ?dialog_proc@Dialog@Far@@MAEHHHPAX@Z
25F90 57 ?get_plugin_module_path@Far@@YA?AV?$basic_string@_WU?$char_traits@_W@std@@V?$allocator@_W@2@@std@@XZ
261A0 57 ?get_msg@Far@@YA?AV?$basic_string@_WU?$char_traits@_W@std@@V?$allocator@_W@2@@std@@H@Z
26200 57 ?get_optimal_msg_width@Far@@YAIXZ
26240 57 ?message@Far@@YAHABU_GUID@@ABV?$basic_string@_WU?$char_traits@_W@std@@V?$allocator@_W@2@@std@@H_K@Z
26270 57 ?menu@Far@@YAHABU_GUID@@ABV?$basic_string@_WU?$char_traits@_W@std@@V?$allocator@_W@2@@std@@ABVMenuItems@1@PB_W@Z
26440 57 ?get_progress_bar_str@Far@@YA?AV?$basic_string@_WU?$char_traits@_W@std@@V?$allocator@_W@2@@std@@I_K0@Z
26550 57 ?post_macro@Far@@YA_NABV?$basic_string@_WU?$char_traits@_W@std@@V?$allocator@_W@2@@std@@@Z
265D0 57 ?update_panel@Far@@YAXPAX_N1@Z
26630 57 ?is_real_file_panel@Far@@YA_NABUPanelInfo@@@Z
26650 57 ?get_panel_dir@Far@@YA?AV?$basic_string@_WU?$char_traits@_W@std@@V?$allocator@_W@2@@std@@PAX@Z
267C0 57 ?get_panel_item@Far@@YAXPAXW4FILE_CONTROL_COMMANDS@@IAAV?$Buffer@E@@@Z
268B0 57 ?get_panel_item@Far@@YA?AUPanelItem@1@PAXW4FILE_CONTROL_COMMANDS@@I@Z
26A20 57 ??0PanelItem@Far@@QAE@XZ
26A60 57 ??1PanelItem@Far@@QAE@XZ
26B00 57 ?error_dlg@Far@@YAXABV?$basic_string@_WU?$char_traits@_W@std@@V?$allocator@_W@2@@std@@ABUError@@@Z
27140 57 ?info_dlg@Far@@YAXABU_GUID@@ABV?$basic_string@_WU?$char_traits@_W@std@@V?$allocator@_W@2@@std@@1@Z
272C0 57 ?input_dlg@Far@@YA_NABU_GUID@@ABV?$basic_string@_WU?$char_traits@_W@std@@V?$allocator@_W@2@@std@@1AAV34@_K@Z
27390 57 ?get_label_len@Dialog@Far@@IAEIABV?$basic_string@_WU?$char_traits@_W@std@@V?$allocator@_W@2@@std@@_K@Z
273F0 57 ?frame@Dialog@Far@@AAEXABV?$basic_string@_WU?$char_traits@_W@std@@V?$allocator@_W@2@@std@@@Z
274B0 57 ??0DialogItem@Far@@QAE@XZ
27520 57 ?internal_dialog_proc@Dialog@Far@@CGHPAXHH0@Z
2758D 57 __catch$?internal_dialog_proc@Dialog@Far@@CGHPAXHH0@Z$0
275C1 57 __catch$?internal_dialog_proc@Dialog@Far@@CGHPAXHH0@Z$1
2761C 57 __catch$?internal_dialog_proc@Dialog@Far@@CGHPAXHH0@Z$3
27630 57 ??0Dialog@Far@@QAE@ABV?$basic_string@_WU?$char_traits@_W@std@@V?$allocator@_W@2@@std@@PBU_GUID@@IPB_W_K@Z
276F0 0 ??_EDialog@Far@@UAEPAXI@Z
27720 57 ??1Dialog@Far@@UAE@XZ
27780 57 ?separator@Dialog@Far@@QAEIXZ
27830 57 ?separator@Dialog@Far@@QAEIABV?$basic_string@_WU?$char_traits@_W@std@@V?$allocator@_W@2@@std@@@Z
27900 57 ?label@Dialog@Far@@QAEIABV?$basic_string@_WU?$char_traits@_W@std@@V?$allocator@_W@2@@std@@I_K@Z
27A00 57 ?edit_box@Dialog@Far@@QAEIABV?$basic_string@_WU?$char_traits@_W@std@@V?$allocator@_W@2@@std@@I_K@Z
27B00 57 ?history_edit_box@Dialog@Far@@QAEIABV?$basic_string@_WU?$char_traits@_W@std@@V?$allocator@_W@2@@std@@0I_K@Z
27B70 57 ?pwd_edit_box@Dialog@Far@@QAEIABV?$basic_string@_WU?$char_traits@_W@std@@V?$allocator@_W@2@@std@@I_K@Z
27C60 57 ?button@Dialog@Far@@QAEIABV?$basic_string@_WU?$char_traits@_W@std@@V?$allocator@_W@2@@std@@_K@Z
27D50 57 ?check_box@Dialog@Far@@QAEIABV?$basic_string@_WU?$char_traits@_W@std@@V?$allocator@_W@2@@std@@H_K@Z
27E30 57 ?radio_button@Dialog@Far@@QAEIABV?$basic_string@_WU?$char_traits@_W@std@@V?$allocator@_W@2@@std@@_N_K@Z
27F20 57 ?combo_box@Dialog@Far@@QAEIABV?$vector@V?$basic_string@_WU?$char_traits@_W@std@@V?$allocator@_W@2@@std@@V?$allocator@V?$basic_string@_WU?$char_traits@_W@std@@V?$allocator@_W@2@@std@@@2@@std@@II_K@Z
280E0 57 ?show@Dialog@Far@@QAEHXZ
28460 57 ?get_text@Dialog@Far@@QBE?AV?$basic_string@_WU?$char_traits@_W@std@@V?$allocator@_W@2@@std@@I@Z
28540 57 ?set_text@Dialog@Far@@QAEXIABV?$basic_string@_WU?$char_traits@_W@std@@V?$allocator@_W@2@@std@@@Z
28570 57 ?get_check@Dialog@Far@@QBE_NI@Z
28590 57 ?set_list_pos@Dialog@Far@@QAEXII@Z
285E0 57 ?get_absolute_path@Far@@YA?AV?$basic_string@_WU?$char_traits@_W@std@@V?$allocator@_W@2@@std@@ABV23@@Z
286F0 57 ?match_masks@Far@@YA_NABV?$basic_string@_WU?$char_traits@_W@std@@V?$allocator@_W@2@@std@@0@Z
28720 57 ?panel_go_to_dir@Far@@YA_NPAXABV?$basic_string@_WU?$char_traits@_W@std@@V?$allocator@_W@2@@std@@@Z
287A0 57 ?panel_go_to_file@Far@@YA_NPAXABV?$basic_string@_WU?$char_traits@_W@std@@V?$allocator@_W@2@@std@@@Z
28D70 57 ?open_help@Far@@YAXABV?$basic_string@_WU?$char_traits@_W@std@@V?$allocator@_W@2@@std@@@Z
28FA0 57 ??1Settings@Far@@QAE@XZ
29000 57 ?create@Settings@Far@@QAE_N_N@Z
290E0 57 ?set_dir@Settings@Far@@QAE_NABV?$basic_string@_WU?$char_traits@_W@std@@V?$allocator@_W@2@@std@@@Z
291B0 57 ?list_dir@Settings@Far@@QAE_NAAV?$vector@V?$basic_string@_WU?$char_traits@_W@std@@V?$allocator@_W@2@@std@@V?$allocator@V?$basic_string@_WU?$char_traits@_W@std@@V?$allocator@_W@2@@std@@@2@@std@@@Z
29370 57 ?get@Settings@Far@@QAE_NIPB_WAA_K@Z
293E0 57 ??6?$basic_ostream@_WU?$char_traits@_W@std@@@std@@QAEAAV01@H@Z
29508 57 __catch$??6?$basic_ostream@_WU?$char_traits@_W@std@@@std@@QAEAAV01@H@Z$0
295B0 57 ??1?$unique_ptr@$$BY0A@EU?$default_delete@$$BY0A@E@std@@@std@@QAE@XZ
295C0 57 ??1?$vector@UFarMenuItem@@V?$allocator@UFarMenuItem@@@std@@@std@@QAE@XZ
29620 57 ??1?$vector@UDialogItem@Far@@V?$allocator@UDialogItem@Far@@@std@@@std@@QAE@XZ
29680 57 ?reserve@?$vector@V?$basic_string@_WU?$char_traits@_W@std@@V?$allocator@_W@2@@std@@V?$allocator@V?$basic_string@_WU?$char_traits@_W@std@@V?$allocator@_W@2@@std@@@2@@std@@QAEXI@Z
296C0 57 ?do_put@?$num_put@_WV?$ostreambuf_iterator@_WU?$char_traits@_W@std@@@std@@@std@@MBE?AV?$ostreambuf_iterator@_WU?$char_traits@_W@std@@@2@V32@AAVios_base@2@_WPBX@Z
29730 57 ?do_put@?$num_put@_WV?$ostreambuf_iterator@_WU?$char_traits@_W@std@@@std@@@std@@MBE?AV?$ostreambuf_iterator@_WU?$char_traits@_W@std@@@2@V32@AAVios_base@2@_WO@Z
29920 57 ?do_put@?$num_put@_WV?$ostreambuf_iterator@_WU?$char_traits@_W@std@@@std@@@std@@MBE?AV?$ostreambuf_iterator@_WU?$char_traits@_W@std@@@2@V32@AAVios_base@2@_WN@Z
29B10 57 ?do_put@?$num_put@_WV?$ostreambuf_iterator@_WU?$char_traits@_W@std@@@std@@@std@@MBE?AV?$ostreambuf_iterator@_WU?$char_traits@_W@std@@@2@V32@AAVios_base@2@_W_K@Z
29BE0 57 ?do_put@?$num_put@_WV?$ostreambuf_iterator@_WU?$char_traits@_W@std@@@std@@@std@@MBE?AV?$ostreambuf_iterator@_WU?$char_traits@_W@std@@@2@V32@AAVios_base@2@_W_J@Z
29CB0 57 ?do_put@?$num_put@_WV?$ostreambuf_iterator@_WU?$char_traits@_W@std@@@std@@@std@@MBE?AV?$ostreambuf_iterator@_WU?$char_traits@_W@std@@@2@V32@AAVios_base@2@_WK@Z
29D70 57 ?do_put@?$num_put@_WV?$ostreambuf_iterator@_WU?$char_traits@_W@std@@@std@@@std@@MBE?AV?$ostreambuf_iterator@_WU?$char_traits@_W@std@@@2@V32@AAVios_base@2@_WJ@Z
29E30 57 ?do_put@?$num_put@_WV?$ostreambuf_iterator@_WU?$char_traits@_W@std@@@std@@@std@@MBE?AV?$ostreambuf_iterator@_WU?$char_traits@_W@std@@@2@V32@AAVios_base@2@_W_N@Z
2A050 57 ?put@?$num_put@_WV?$ostreambuf_iterator@_WU?$char_traits@_W@std@@@std@@@std@@QBE?AV?$ostreambuf_iterator@_WU?$char_traits@_W@std@@@2@V32@AAVios_base@2@_WJ@Z
2A080 0 ??_E?$num_put@_WV?$ostreambuf_iterator@_WU?$char_traits@_W@std@@@std@@@std@@MAEPAXI@Z
2A0B0 57 ?do_truename@?$numpunct@_W@std@@MBE?AV?$basic_string@_WU?$char_traits@_W@std@@V?$allocator@_W@2@@2@XZ
2A100 57 ?do_falsename@?$numpunct@_W@std@@MBE?AV?$basic_string@_WU?$char_traits@_W@std@@V?$allocator@_W@2@@2@XZ
2A150 57 ?do_grouping@?$numpunct@_W@std@@MBE?AV?$basic_string@DU?$char_traits@D@std@@V?$allocator@D@2@@2@XZ
2A190 57 ?do_thousands_sep@?$numpunct@_W@std@@MBE_WXZ
2A1A0 57 ?do_decimal_point@?$numpunct@_W@std@@MBE_WXZ
2A1B0 57 ?_Rep@?$num_put@_WV?$ostreambuf_iterator@_WU?$char_traits@_W@std@@@std@@@std@@ABA?AV?$ostreambuf_iterator@_WU?$char_traits@_W@std@@@2@V32@_WI@Z
2A230 57 ?_Put@?$num_put@_WV?$ostreambuf_iterator@_WU?$char_traits@_W@std@@@std@@@std@@ABA?AV?$ostreambuf_iterator@_WU?$char_traits@_W@std@@@2@V32@PB_WI@Z
2A2B0 57 ?_Iput@?$num_put@_WV?$ostreambuf_iterator@_WU?$char_traits@_W@std@@@std@@@std@@ABA?AV?$ostreambuf_iterator@_WU?$char_traits@_W@std@@@2@V32@AAVios_base@2@_WPADI@Z
2A7C0 57 ?_Ffmt@?$num_put@_WV?$ostreambuf_iterator@_WU?$char_traits@_W@std@@@std@@@std@@ABAPADPADDH@Z
2A880 0 ??_E?$numpunct@_W@std@@MAEPAXI@Z
2A8D0 57 ?append@?$basic_string@DU?$char_traits@D@std@@V?$allocator@D@2@@std@@QAEAAV12@ID@Z
2AA40 57 ??$?H_WU?$char_traits@_W@std@@V?$allocator@_W@1@@std@@YA?AV?$basic_string@_WU?$char_traits@_W@std@@V?$allocator@_W@2@@0@ABV10@_W@Z
2AA80 57 ??$?H_WU?$char_traits@_W@std@@V?$allocator@_W@1@@std@@YA?AV?$basic_string@_WU?$char_traits@_W@std@@V?$allocator@_W@2@@0@QB_WABV10@@Z
2AAE0 57 ??$use_facet@V?$num_put@_WV?$ostreambuf_iterator@_WU?$char_traits@_W@std@@@std@@@std@@@std@@YAABV?$num_put@_WV?$ostreambuf_iterator@_WU?$char_traits@_W@std@@@std@@@0@ABVlocale@0@@Z
2AC30 57 ??$_Reallocate@$0A@@?$vector@UFarMenuItem@@V?$allocator@UFarMenuItem@@@std@@@std@@AAEXAAI@Z
2AD10 57 ??$_Reallocate@$00@?$vector@V?$basic_string@_WU?$char_traits@_W@std@@V?$allocator@_W@2@@std@@V?$allocator@V?$basic_string@_WU?$char_traits@_W@std@@V?$allocator@_W@2@@std@@@2@@std@@AAEXAAI@Z
2AD60 57 ??$_Fput_v3@$0A@@?$num_put@_WV?$ostreambuf_iterator@_WU?$char_traits@_W@std@@@std@@@std@@ABE?AV?$ostreambuf_iterator@_WU?$char_traits@_W@std@@@1@V21@AAVios_base@1@_WPBDI_N@Z
2B2D0 57 ??$use_facet@V?$numpunct@_W@std@@@std@@YAABV?$numpunct@_W@0@ABVlocale@0@@Z
2B3F0 57 ?_Getcat@?$numpunct@_W@std@@SAIPAPBVfacet@locale@2@PBV42@@Z
2B5E0 57 ?_Change_array@?$vector@UFarMenuItem@@V?$allocator@UFarMenuItem@@@std@@@std@@AAEXQAUFarMenuItem@@II@Z
2B640 57 ??1?$_Tidy_guard@V?$numpunct@_W@std@@@std@@QAE@XZ
2B670 57 ??$_Emplace_reallocate@ABUFarMenuItem@@@?$vector@UFarMenuItem@@V?$allocator@UFarMenuItem@@@std@@@std@@AAEPAUFarMenuItem@@QAU2@ABU2@@Z
2B7A0 57 ??$_Emplace_reallocate@ABUDialogItem@Far@@@?$vector@UDialogItem@Far@@V?$allocator@UDialogItem@Far@@@std@@@std@@AAEPAUDialogItem@Far@@QAU23@ABU23@@Z
2B910 57 ??$_Maklocstr@_W@std@@YAPA_WPBDPA_WABU_Cvtvec@@@Z
2B9E0 57 ??0?$basic_string@_WU?$char_traits@_W@std@@V?$allocator@_W@2@@std@@QAE@I_W@Z
2BAE0 57 ___local_stdio_printf_options
2BAF0 57 __vsprintf_s_l
2BB30 57 _sprintf_s
2BB50 277 ?create_state_matrix@@YA?AV?$unique_ptr@VStateMatrix@@U?$default_delete@VStateMatrix@@@std@@@std@@ABV?$vector@USigData@@V?$allocator@USigData@@@std@@@2@@Z
2BD30 277 ?msearch@@YA?AV?$vector@UStrPos@@V?$allocator@UStrPos@@@std@@@std@@PAEIABV?$vector@USigData@@V?$allocator@USigData@@@std@@@2@_N@Z
2C310 277 ??1?$unique_ptr@VStateMatrix@@U?$default_delete@VStateMatrix@@@std@@@std@@QAE@XZ
2C330 277 ?_Xlen@?$vector@_NV?$allocator@_N@std@@@std@@SAXXZ
2C340 277 ??$_Reallocate@$00@?$vector@UStrPos@@V?$allocator@UStrPos@@@std@@@std@@AAEXAAI@Z
2C410 277 ??$?0V?$allocator@I@std@@$0A@@?$vector@IV?$allocator@I@std@@@std@@QAE@IABIABV?$allocator@I@1@@Z
2C490 277 ??1?$_Tree_head_scoped_ptr@V?$allocator@U?$_Tree_node@U?$pair@$$CBV?$basic_string@_WU?$char_traits@_W@std@@V?$allocator@_W@2@@std@@V12@@std@@PAX@std@@@std@@V?$_Tree_val@U?$_Tree_simple_types@U?$pair@$$CBV?$basic_string@_WU?$char_traits@_W@std@@V?$allocator@_W@2@@std@@V12@@std@@@std@@@2@@std@@QAE@XZ
2C4C0 277 ??1?$_Tidy_guard@V?$vector@V?$vector@EV?$allocator@E@std@@@std@@V?$allocator@V?$vector@EV?$allocator@E@std@@@std@@@2@@std@@@std@@QAE@XZ
2C4D0 280 ?_Change_array@?$vector@USigData@@V?$allocator@USigData@@@std@@@std@@AAEXQAUSigData@@II@Z
2C530 280 ??$_Emplace_reallocate@USigData@@@?$vector@USigData@@V?$allocator@USigData@@@std@@@std@@AAEPAUSigData@@QAU2@$$QAU2@@Z
2C660 277 ??$_Sort_unchecked@PAUStrPos@@U?$less@X@std@@@std@@YAXPAUStrPos@@0HU?$less@X@0@@Z
2C900 277 ??$_Partition_by_median_guess_unchecked@PAUStrPos@@U?$less@X@std@@@std@@YA?AU?$pair@PAUStrPos@@PAU1@@0@PAUStrPos@@0U?$less@X@0@@Z
2CB80 277 ??$_Pop_heap_hole_by_index@PAUStrPos@@U1@U?$less@X@std@@@std@@YAXPAUStrPos@@HH$$QAU1@U?$less@X@0@@Z
2CC40 277 ??$_Med3_unchecked@PAUStrPos@@U?$less@X@std@@@std@@YAXPAUStrPos@@00U?$less@X@0@@Z
2CCB0 280 ??4PropVariant@@QAEAAV0@PB_W@Z
2CD40 280 ??4PropVariant@@QAEAAV0@I@Z
2CDA0 280 ??4PropVariant@@QAEAAV0@_K@Z
2CE00 280 ??4PropVariant@@QAEAAV0@ABU_FILETIME@@@Z
2CE60 280 ??0Archive@@QAE@XZ
2D060 280 ??1?$enable_shared_from_this@VArchive@@@std@@IAE@XZ
2D080 280 ??1?$set@V?$basic_string@_WU?$char_traits@_W@std@@V?$allocator@_W@2@@std@@U?$less@V?$basic_string@_WU?$char_traits@_W@std@@V?$allocator@_W@2@@std@@@2@V?$allocator@V?$basic_string@_WU?$char_traits@_W@std@@V?$allocator@_W@2@@std@@@2@@std@@QAE@XZ
2D0A0 280 ??1ArcChain@@QAE@XZ
2D0B0 280 ??0OpenOptions@@QAE@XZ
2D150 280 ?QueryInterface@ArchiveOpenStream@@UAGJABU_GUID@@PAPAX@Z
2D200 280 ?Read@ArchiveSubStream@@UAGJPAXIPAI@Z
2D220 280 ?Seek@ArchiveSubStream@@UAGJ_JIPA_K@Z
2D290 0 ??_EArchiveSubStream@@UAEPAXI@Z
2D310 280 ?check_device_file@ArchiveOpenStream@@AAEXXZ
2D490 280 ??0ArchiveOpenStream@@QAE@ABV?$basic_string@_WU?$char_traits@_W@std@@V?$allocator@_W@2@@std@@@Z
2D550 280 ?Read@ArchiveOpenStream@@UAGJPAXIPAI@Z
2D6FF 280 __catch$?Read@ArchiveOpenStream@@UAGJPAXIPAI@Z$0
2D712 280 __catch$?Read@ArchiveOpenStream@@UAGJPAXIPAI@Z$1
2D752 280 __catch$?Read@ArchiveOpenStream@@UAGJPAXIPAI@Z$3
2D770 280 ?Seek@ArchiveOpenStream@@UAGJ_JIPA_K@Z
2D860 280 __catch$?Seek@ArchiveOpenStream@@UAGJ_JIPA_K@Z$0
2D873 280 __catch$?Seek@ArchiveOpenStream@@UAGJ_JIPA_K@Z$1
2D8B3 280 __catch$?Seek@ArchiveOpenStream@@UAGJ_JIPA_K@Z$3
2D920 280 ?get_info@ArchiveOpenStream@@QAE?AUFindData@@XZ
2DA60 0 ??_EArchiveOpenStream@@UAEPAXI@Z
2DA90 280 ?do_update_ui@ArchiveOpener@@EAEXXZ
2DFD0 280 ??0ArchiveOpener@@QAE@V?$shared_ptr@VArchive@@@std@@@Z
2E1C0 280 ?QueryInterface@ArchiveOpener@@UAGJABU_GUID@@PAPAX@Z
2E2A0 280 ?AddRef@ArchiveOpener@@UAGKXZ
2E2C0 280 ?Release@ArchiveOpener@@UAGKXZ
2E2F0 280 ?SetTotal@ArchiveOpener@@UAGJPB_K0@Z
2E378 280 __catch$?SetTotal@ArchiveOpener@@UAGJPB_K0@Z$0
2E38B 280 __catch$?SetTotal@ArchiveOpener@@UAGJPB_K0@Z$1
2E3CB 280 __catch$?SetTotal@ArchiveOpener@@UAGJPB_K0@Z$3
2E3E0 280 ?SetCompleted@ArchiveOpener@@UAGJPB_K0@Z
2E468 280 __catch$?SetCompleted@ArchiveOpener@@UAGJPB_K0@Z$0
2E47B 280 __catch$?SetCompleted@ArchiveOpener@@UAGJPB_K0@Z$1
2E4BB 280 __catch$?SetCompleted@ArchiveOpener@@UAGJPB_K0@Z$3
2E4D0 280 ?GetProperty@ArchiveOpener@@UAGJKPAUtagPROPVARIANT@@@Z
2E5C8 280 __catch$?GetProperty@ArchiveOpener@@UAGJKPAUtagPROPVARIANT@@@Z$0
2E5DB 280 __catch$?GetProperty@ArchiveOpener@@UAGJKPAUtagPROPVARIANT@@@Z$1
2E61B 280 __catch$?GetProperty@ArchiveOpener@@UAGJKPAUtagPROPVARIANT@@@Z$3
2E67C 280 $LN58
2E6A0 280 ?GetStream@ArchiveOpener@@UAGJPB_WPAPAUIInStream@@@Z
2E9B5 280 __catch$?GetStream@ArchiveOpener@@UAGJPB_WPAPAUIInStream@@@Z$0
2E9CB 280 __catch$?GetStream@ArchiveOpener@@UAGJPB_WPAPAUIInStream@@@Z$1
2EA18 280 __catch$?GetStream@ArchiveOpener@@UAGJPB_WPAPAUIInStream@@@Z$3
2EA40 280 ?CryptoGetTextPassword@ArchiveOpener@@UAGJPAPA_W@Z
2EB28 280 __catch$?CryptoGetTextPassword@ArchiveOpener@@UAGJPAPA_W@Z$0
2EB3B 280 __catch$?CryptoGetTextPassword@ArchiveOpener@@UAGJPAPA_W@Z$1
2EB7B 280 __catch$?CryptoGetTextPassword@ArchiveOpener@@UAGJPAPA_W@Z$3
2EC40 0 ??_EArchiveOpener@@UAEPAXI@Z
2ECA0 280 ?get_stream@Archive@@QAE_NIPAPAUIInStream@@@Z
2EDB0 280 ?copy_prologue@Archive@@QAEJPAUIOutStream@@@Z
2EED0 280 ?open@Archive@@QAE_NPAUIInStream@@ABV?$vector@EV?$allocator@E@std@@@std@@_N@Z
2F260 280 ?prioritize@@YAXAAV?$list@UArcEntry@@V?$allocator@UArcEntry@@@std@@@std@@ABV?$vector@EV?$allocator@E@std@@@2@1@Z
2F400 280 ?accepted_signature@@YA_NIABUSigData@@PBEIPAUIInStream@@H@Z
2F650 280 ?detect@Archive@@CA?AV?$list@UArcEntry@@V?$allocator@UArcEntry@@@std@@@std@@PAEI_NABV?$basic_string@_WU?$char_traits@_W@std@@V?$allocator@_W@2@@3@ABV?$list@V?$vector@EV?$allocator@E@std@@@std@@V?$allocator@V?$vector@EV?$allocator@E@std@@@std@@@2@@3@PAUIInStream@@@Z
2FD50 280 ??1?$set@V?$vector@EV?$allocator@E@std@@@std@@U?$less@V?$vector@EV?$allocator@E@std@@@std@@@2@V?$allocator@V?$vector@EV?$allocator@E@std@@@std@@@2@@std@@QAE@XZ
2FD70 280 ?get_physize@Archive@@AAE_KXZ
2FE40 280 ?open@Archive@@CAXABUOpenOptions@@AAV?$vector@V?$shared_ptr@VArchive@@@std@@V?$allocator@V?$shared_ptr@VArchive@@@std@@@2@@std@@@Z
30B40 280 ?open@Archive@@SA?AV?$unique_ptr@V?$vector@V?$shared_ptr@VArchive@@@std@@V?$allocator@V?$shared_ptr@VArchive@@@std@@@2@@std@@U?$default_delete@V?$vector@V?$shared_ptr@VArchive@@@std@@V?$allocator@V?$shared_ptr@VArchive@@@std@@@2@@std@@@2@@std@@ABUOpenOptions@@@Z
30C00 280 ?reopen@Archive@@QAEXXZ
30F20 280 ?close@Archive@@QAEXXZ
30F90 280 ??1?$unique_ptr@V?$vector@V?$shared_ptr@VArchive@@@std@@V?$allocator@V?$shared_ptr@VArchive@@@std@@@2@@std@@U?$default_delete@V?$vector@V?$shared_ptr@VArchive@@@std@@V?$allocator@V?$shared_ptr@VArchive@@@std@@@2@@std@@@2@@std@@QAE@XZ
30FA0 280 ??6?$basic_ostream@_WU?$char_traits@_W@std@@@std@@QAEAAV01@_K@Z
310B8 280 __catch$??6?$basic_ostream@_WU?$char_traits@_W@std@@@std@@QAEAAV01@_K@Z$0
31160 280 ??1?$vector@UArcFileInfo@@V?$allocator@UArcFileInfo@@@std@@@std@@QAE@XZ
311C0 280 ??0?$set@V?$basic_string@_WU?$char_traits@_W@std@@V?$allocator@_W@2@@std@@U?$less@V?$basic_string@_WU?$char_traits@_W@std@@V?$allocator@_W@2@@std@@@2@V?$allocator@V?$basic_string@_WU?$char_traits@_W@std@@V?$allocator@_W@2@@std@@@2@@std@@QAE@XZ
31200 280 ??4?$shared_ptr@VArchive@@@std@@QAEAAV01@ABV01@@Z
31260 280 ??1?$list@UArcEntry@@V?$allocator@UArcEntry@@@std@@@std@@QAE@XZ
312F0 280 ??_G?$vector@V?$shared_ptr@VArchive@@@std@@V?$allocator@V?$shared_ptr@VArchive@@@std@@@2@@std@@QAEPAXI@Z
31360 280 ?deallocate@?$allocator@USigData@@@std@@QAEXQAUSigData@@I@Z
313A0 280 ??$insert@$0A@$0A@@?$_Tree@V?$_Tset_traits@V?$basic_string@_WU?$char_traits@_W@std@@V?$allocator@_W@2@@std@@U?$less@V?$basic_string@_WU?$char_traits@_W@std@@V?$allocator@_W@2@@std@@@2@V?$allocator@V?$basic_string@_WU?$char_traits@_W@std@@V?$allocator@_W@2@@std@@@2@$0A@@std@@@std@@QAE?AU?$pair@V?$_Tree_const_iterator@V?$_Tree_val@U?$_Tree_simple_types@V?$basic_string@_WU?$char_traits@_W@std@@V?$allocator@_W@2@@std@@@std@@@std@@@std@@_N@1@$$QAV?$basic_string@_WU?$char_traits@_W@std@@V?$allocator@_W@2@@1@@Z
314C0 280 ??$for_each@V?$_List_const_iterator@V?$_List_val@U?$_List_simple_types@V?$vector@EV?$allocator@E@std@@@std@@@std@@@std@@@std@@V<lambda_1>@?1??detect@Archive@@CA?AV?$list@UArcEntry@@V?$allocator@UArcEntry@@@std@@@2@PAEI_NABV?$basic_string@_WU?$char_traits@_W@std@@V?$allocator@_W@2@@2@ABV?$list@V?$vector@EV?$allocator@E@std@@@std@@V?$allocator@V?$vector@EV?$allocator@E@std@@@std@@@2@@2@PAUIInStream@@@Z@@std@@YA?AV<lambda_1>@?1??detect@Archive@@CA?AV?$list@UArcEntry@@V?$allocator@UArcEntry@@@std@@@0@PAEI_NABV?$basic_string@_WU?$char_traits@_W@std@@V?$allocator@_W@2@@0@ABV?$list@V?$vector@EV?$allocator@E@std@@@std@@V?$allocator@V?$vector@EV?$allocator@E@std@@@std@@@2@@0@PAUIInStream@@@Z@V?$_List_const_iterator@V?$_List_val@U?$_List_simple_types@V?$vector@EV?$allocator@E@std@@@std@@@std@@@std@@@0@5V1?1??23@CA?AV40@0I1234@Z@@Z
315C0 280 ??$insert@$0A@$0A@@?$_Tree@V?$_Tset_traits@V?$vector@EV?$allocator@E@std@@@std@@U?$less@V?$vector@EV?$allocator@E@std@@@std@@@2@V?$allocator@V?$vector@EV?$allocator@E@std@@@std@@@2@$0A@@std@@@std@@QAE?AU?$pair@V?$_Tree_const_iterator@V?$_Tree_val@U?$_Tree_simple_types@V?$vector@EV?$allocator@E@std@@@std@@@std@@@std@@@std@@_N@1@ABV?$vector@EV?$allocator@E@std@@@1@@Z
316A0 280 ??$for_each@V?$_Vector_iterator@V?$_Vector_val@U?$_Simple_types@UStrPos@@@std@@@std@@@std@@V<lambda_2>@?1??detect@Archive@@CA?AV?$list@UArcEntry@@V?$allocator@UArcEntry@@@std@@@2@PAEI_NABV?$basic_string@_WU?$char_traits@_W@std@@V?$allocator@_W@2@@2@ABV?$list@V?$vector@EV?$allocator@E@std@@@std@@V?$allocator@V?$vector@EV?$allocator@E@std@@@std@@@2@@2@PAUIInStream@@@Z@@std@@YA?AV<lambda_2>@?1??detect@Archive@@CA?AV?$list@UArcEntry@@V?$allocator@UArcEntry@@@std@@@0@PAEI_NABV?$basic_string@_WU?$char_traits@_W@std@@V?$allocator@_W@2@@0@ABV?$list@V?$vector@EV?$allocator@E@std@@@std@@V?$allocator@V?$vector@EV?$allocator@E@std@@@std@@@2@@0@PAUIInStream@@@Z@V?$_Vector_iterator@V?$_Vector_val@U?$_Simple_types@UStrPos@@@std@@@std@@@0@5V1?1??23@CA?AV40@0I1234@Z@@Z
317F0 280 ??$_Emplace@ABV?$vector@EV?$allocator@E@std@@@std@@H@?$list@UArcEntry@@V?$allocator@UArcEntry@@@std@@@std@@QAEPAU?$_List_node@UArcEntry@@PAX@1@QAU21@ABV?$vector@EV?$allocator@E@std@@@1@$$QAH@Z
31890 280 ??$for_each@V?$_List_iterator@V?$_List_val@U?$_List_simple_types@V?$vector@EV?$allocator@E@std@@@std@@@std@@@std@@@std@@V<lambda_3>@?1??detect@Archive@@CA?AV?$list@UArcEntry@@V?$allocator@UArcEntry@@@std@@@2@PAEI_NABV?$basic_string@_WU?$char_traits@_W@std@@V?$allocator@_W@2@@2@ABV?$list@V?$vector@EV?$allocator@E@std@@@std@@V?$allocator@V?$vector@EV?$allocator@E@std@@@std@@@2@@2@PAUIInStream@@@Z@@std@@YA?AV<lambda_3>@?1??detect@Archive@@CA?AV?$list@UArcEntry@@V?$allocator@UArcEntry@@@std@@@0@PAEI_NABV?$basic_string@_WU?$char_traits@_W@std@@V?$allocator@_W@2@@0@ABV?$list@V?$vector@EV?$allocator@E@std@@@std@@V?$allocator@V?$vector@EV?$allocator@E@std@@@std@@@2@@0@PAUIInStream@@@Z@V?$_List_iterator@V?$_List_val@U?$_List_simple_types@V?$vector@EV?$allocator@E@std@@@std@@@std@@@std@@@0@5V1?1??23@CA?AV40@0I1234@Z@@Z
31A10 280 ??$make_shared@VArchive@@$$V@std@@YA?AV?$shared_ptr@VArchive@@@0@XZ
31B00 280 ??$_Move_unchecked@PAV?$shared_ptr@VArchive@@@std@@PAV12@@std@@YAPAV?$shared_ptr@VArchive@@@0@PAV10@00@Z
31B80 280 ??$_Destroy_range@V?$allocator@V?$shared_ptr@VArchive@@@std@@@std@@@std@@YAXPAV?$shared_ptr@VArchive@@@0@QAV10@AAV?$allocator@V?$shared_ptr@VArchive@@@std@@@0@@Z
31BD0 280 ??$_Erase_tree@V?$allocator@U?$_Tree_node@V?$basic_string@_WU?$char_traits@_W@std@@V?$allocator@_W@2@@std@@PAX@std@@@std@@@?$_Tree_val@U?$_Tree_simple_types@V?$basic_string@_WU?$char_traits@_W@std@@V?$allocator@_W@2@@std@@@std@@@std@@QAEXAAV?$allocator@U?$_Tree_node@V?$basic_string@_WU?$char_traits@_W@std@@V?$allocator@_W@2@@std@@PAX@std@@@1@PAU?$_Tree_node@V?$basic_string@_WU?$char_traits@_W@std@@V?$allocator@_W@2@@std@@PAX@1@@Z
31C70 280 ??$_Freenode@V?$allocator@U?$_List_node@UArcEntry@@PAX@std@@@std@@@?$_List_node@UArcEntry@@PAX@std@@SAXAAV?$allocator@U?$_List_node@UArcEntry@@PAX@std@@@1@PAU01@@Z
31CD0 280 ??$_Emplace@ABUArcEntry@@@?$list@UArcEntry@@V?$allocator@UArcEntry@@@std@@@std@@QAEPAU?$_List_node@UArcEntry@@PAX@1@QAU21@ABUArcEntry@@@Z
31D70 280 ?_Destroy@?$_Ref_count_obj2@VArchive@@@std@@EAEXXZ
31D80 0 ??_E?$_Ref_count_obj2@VArchive@@@std@@UAEPAXI@Z
31DB0 280 ??$_Emplace_reallocate@ABV?$shared_ptr@VArchive@@@std@@@?$vector@V?$shared_ptr@VArchive@@@std@@V?$allocator@V?$shared_ptr@VArchive@@@std@@@2@@std@@AAEPAV?$shared_ptr@VArchive@@@1@QAV21@ABV21@@Z
31F20 280 ??$_Erase_tree@V?$allocator@U?$_Tree_node@V?$vector@EV?$allocator@E@std@@@std@@PAX@std@@@std@@@?$_Tree_val@U?$_Tree_simple_types@V?$vector@EV?$allocator@E@std@@@std@@@std@@@std@@QAEXAAV?$allocator@U?$_Tree_node@V?$vector@EV?$allocator@E@std@@@std@@PAX@std@@@1@PAU?$_Tree_node@V?$vector@EV?$allocator@E@std@@@std@@PAX@1@@Z
31FC0 280 ??$_Copy_nodes@$0A@@?$_Tree@V?$_Tset_traits@V?$basic_string@_WU?$char_traits@_W@std@@V?$allocator@_W@2@@std@@U?$less@V?$basic_string@_WU?$char_traits@_W@std@@V?$allocator@_W@2@@std@@@2@V?$allocator@V?$basic_string@_WU?$char_traits@_W@std@@V?$allocator@_W@2@@std@@@2@$0A@@std@@@std@@IAEPAU?$_Tree_node@V?$basic_string@_WU?$char_traits@_W@std@@V?$allocator@_W@2@@std@@PAX@1@PAU21@0@Z
3208C 280 __catch$??$_Copy_nodes@$0A@@?$_Tree@V?$_Tset_traits@V?$basic_string@_WU?$char_traits@_W@std@@V?$allocator@_W@2@@std@@U?$less@V?$basic_string@_WU?$char_traits@_W@std@@V?$allocator@_W@2@@std@@@2@V?$allocator@V?$basic_string@_WU?$char_traits@_W@std@@V?$allocator@_W@2@@std@@@2@$0A@@std@@@std@@IAEPAU?$_Tree_node@V?$basic_string@_WU?$char_traits@_W@std@@V?$allocator@_W@2@@std@@PAX@1@PAU21@0@Z$0
320B0 280 ??1Archive@@QAE@XZ
32390 280 ??1?$_List_node_insert_op2@V?$allocator@U?$_List_node@UArcEntry@@PAX@std@@@std@@@std@@QAE@XZ
32420 280 ?_Unchecked_erase@?$list@UArcEntry@@V?$allocator@UArcEntry@@@std@@@std@@AAEPAU?$_List_node@UArcEntry@@PAX@2@PAU32@QAU32@@Z
324C0 284 ??1?$_Alloc_construct_ptr@V?$allocator@U?$_List_node@UIconImage@@PAX@std@@@std@@@std@@QAE@XZ
324E0 284 ??1?$_Alloc_construct_ptr@V?$allocator@U?$_List_node@UIdLang@@PAX@std@@@std@@@std@@QAE@XZ
32500 280 ??$_Uninitialized_move@PAV?$shared_ptr@VArchive@@@std@@V?$allocator@V?$shared_ptr@VArchive@@@std@@@2@@std@@YAPAV?$shared_ptr@VArchive@@@0@QAV10@0PAV10@AAV?$allocator@V?$shared_ptr@VArchive@@@std@@@0@@Z
32560 280 ??$destroy@V?$basic_string@_WU?$char_traits@_W@std@@V?$allocator@_W@2@@std@@@?$_Default_allocator_traits@V?$allocator@U?$_Tree_node@V?$basic_string@_WU?$char_traits@_W@std@@V?$allocator@_W@2@@std@@PAX@std@@@std@@@std@@SAXAAV?$allocator@U?$_Tree_node@V?$basic_string@_WU?$char_traits@_W@std@@V?$allocator@_W@2@@std@@PAX@std@@@1@QAV?$basic_string@_WU?$char_traits@_W@std@@V?$allocator@_W@2@@1@@Z
325B3 280 ?AddRef@ArchiveOpener@@WM@AGKXZ
325BD 280 ??_EArchiveSubStream@@W3AEPAXI@Z
325C5 280 ??_EArchiveOpener@@WM@AEPAXI@Z
325CD 280 ??_EArchiveOpenStream@@W3AEPAXI@Z
325D5 280 ?QueryInterface@ArchiveOpenStream@@W3AGJABU_GUID@@PAPAX@Z
325DF 280 ?Release@ArchiveOpener@@W3AGKXZ
325E9 280 ?QueryInterface@ArchiveOpener@@W3AGJABU_GUID@@PAPAX@Z
325F3 280 ??_EArchiveOpener@@WBI@AEPAXI@Z
325FB 280 ?Release@ArchiveOpener@@W7AGKXZ
32605 280 ?QueryInterface@ArchiveOpener@@W7AGJABU_GUID@@PAPAX@Z
3260F 280 ?AddRef@ArchiveOpener@@W3AGKXZ
32619 280 ?Release@ArchiveOpener@@WM@AGKXZ
32623 280 ?QueryInterface@ArchiveOpener@@WM@AGJABU_GUID@@PAPAX@Z
3262D 280 ?AddRef@ArchiveOpener@@W7AGKXZ
32640 281 ?size@str_view@SimpleXML@@QBEIXZ
32650 0 ??_EIParseCallback@SimpleXML@@UAEPAXI@Z
32680 281 ?utf8_to_wstring@@YA?AV?$basic_string@_WU?$char_traits@_W@std@@V?$allocator@_W@2@@std@@Vstr_view@SimpleXML@@@Z
32780 281 ?parse_uints@@YAXABVstr_view@SimpleXML@@PAI1111@Z
32850 281 ?OnTag@xml_parser@@UBE?AW4cbRet@SimpleXML@@HPBVstr_view@3@ABV43@@Z
32940 281 ?OnBody@xml_parser@@UBE?AW4cbRet@SimpleXML@@HPBVstr_view@3@ABV43@@Z
32B50 281 ?OnAttr@xml_parser@@UBE?AW4cbRet@SimpleXML@@HPBVstr_view@3@ABV43@1@Z
32E00 281 ?parse@xml_parser@@QAE_NABV?$basic_string@_WU?$char_traits@_W@std@@V?$allocator@_W@2@@std@@@Z
32F80 0 ??_Exml_parser@@UAEPAXI@Z
32FB0 281 ??1xml_parser@@UAE@XZ
32FD0 281 ??1ExternalCodec@@QAE@XZ
33070 281 ?load_arclite_xml@@YA_NAAUOptions@@@Z
33580 281 ?get_str@OptionsKey@@QAE?AV?$basic_string@_WU?$char_traits@_W@std@@V?$allocator@_W@2@@std@@PB_WABV23@@Z
336C0 281 ?set_int@OptionsKey@@QAEXPB_WII@Z
33740 281 ?set_bool@OptionsKey@@QAEXPB_W_N1@Z
337C0 281 ?set_str@OptionsKey@@QAEXPB_WABV?$basic_string@_WU?$char_traits@_W@std@@V?$allocator@_W@2@@std@@1@Z
33880 281 ??1Options@@QAE@XZ
33C60 281 ??0Options@@QAE@XZ
33F50 281 ?load_sfx_options@@YAXAAVOptionsKey@@AAUSfxOptions@@@Z
349B0 281 ?save_sfx_options@@YAXAAVOptionsKey@@ABUSfxOptions@@@Z
34BD0 281 ?load@Options@@QAEXXZ
35B10 281 ??1OptionsKey@@QAE@XZ
35B80 281 ?save@Options@@QBEXXZ
36150 281 ?get_profile_key_name@@YA?AV?$basic_string@_WU?$char_traits@_W@std@@V?$allocator@_W@2@@std@@ABV12@@Z
36310 281 ??0ProfileOptions@@QAE@XZ
36410 281 ??0UpdateOptions@@QAE@XZ
36480 281 ??0SfxOptions@@QAE@XZ
366F0 281 ?load@UpdateProfiles@@QAEXXZ
37290 281 ??1UpdateProfile@@QAE@XZ
372F0 281 ?save@UpdateProfiles@@QBEXXZ
37500 281 ?find_by_name@UpdateProfiles@@QAEIABV?$basic_string@_WU?$char_traits@_W@std@@V?$allocator@_W@2@@std@@@Z
376D0 281 ?find_by_options@UpdateProfiles@@QAEIABUUpdateOptions@@@Z
37720 289 ??R<lambda_2>@?1??get_available_formats@SettingsDialog@@AAE?AV?$basic_string@_WU?$char_traits@_W@std@@V?$allocator@_W@2@@std@@XZ@QBE_NABV34@0@Z
37820 281 ?update@UpdateProfiles@@QAEXABV?$basic_string@_WU?$char_traits@_W@std@@V?$allocator@_W@2@@std@@ABUUpdateOptions@@@Z
37B00 281 ??1?$vector@UExternalCodec@@V?$allocator@UExternalCodec@@@std@@@std@@QAE@XZ
37B80 281 ?erase@?$vector@UUpdateProfile@@V?$allocator@UUpdateProfile@@@std@@@std@@QAE?AV?$_Vector_iterator@V?$_Vector_val@U?$_Simple_types@UUpdateProfile@@@std@@@std@@@2@V?$_Vector_const_iterator@V?$_Vector_val@U?$_Simple_types@UUpdateProfile@@@std@@@std@@@2@@Z
37BC0 281 ?push_back@?$vector@UUpdateProfile@@V?$allocator@UUpdateProfile@@@std@@@std@@QAEXABUUpdateProfile@@@Z
37C50 281 ??4?$vector@EV?$allocator@E@std@@@std@@QAEAAV01@$$QAV01@@Z
37CE0 281 ?_Xrange@?$vector@UUpdateProfile@@V?$allocator@UUpdateProfile@@@std@@@std@@CAXXZ
37CF0 281 ?deallocate@?$allocator@UExternalCodec@@@std@@QAEXQAUExternalCodec@@I@Z
37D30 281 ?deallocate@?$allocator@UUpdateProfile@@@std@@QAEXQAUUpdateProfile@@I@Z
37D70 281 ??$equal@PBDPBD@std@@YA_NQBD000@Z
37E00 281 ??$for_each@V?$_Vector_const_iterator@V?$_Vector_val@U?$_Simple_types@UUpdateProfile@@@std@@@std@@@std@@V<lambda_1>@?1??save@UpdateProfiles@@QBEXXZ@@std@@YA?AV<lambda_1>@?1??save@UpdateProfiles@@QBEXXZ@V?$_Vector_const_iterator@V?$_Vector_val@U?$_Simple_types@UUpdateProfile@@@std@@@std@@@0@0V1?1??23@QBEXXZ@@Z
380A0 281 ??$_Destroy_range@V?$allocator@UUpdateProfile@@@std@@@std@@YAXPAUUpdateProfile@@QAU1@AAV?$allocator@UUpdateProfile@@@0@@Z
380D0 281 ??$_Move_unchecked@PAUUpdateProfile@@PAU1@@std@@YAPAUUpdateProfile@@PAU1@00@Z
38340 281 ??4UpdateProfile@@QAEAAU0@$$QAU0@@Z
38590 281 ??4SfxOptions@@QAEAAU0@$$QAU0@@Z
38A60 281 ??$_Destroy_range@V?$allocator@UExternalCodec@@@std@@@std@@YAXPAUExternalCodec@@QAU1@AAV?$allocator@UExternalCodec@@@0@@Z
38A90 281 ??$_Sort_unchecked@PAUUpdateProfile@@V<lambda_1>@?1??sort_by_name@UpdateProfiles@@QAEXXZ@@std@@YAXPAUUpdateProfile@@0HV<lambda_1>@?1??sort_by_name@UpdateProfiles@@QAEXXZ@@Z
38D40 281 ??$_Emplace_reallocate@ABUExternalCodec@@@?$vector@UExternalCodec@@V?$allocator@UExternalCodec@@@std@@@std@@AAEPAUExternalCodec@@QAU2@ABU2@@Z
38F0F 281 __catch$??$_Emplace_reallocate@ABUExternalCodec@@@?$vector@UExternalCodec@@V?$allocator@UExternalCodec@@@std@@@std@@AAEPAUExternalCodec@@QAU2@ABU2@@Z$0
38F40 281 ??$_Emplace_reallocate@ABUUpdateProfile@@@?$vector@UUpdateProfile@@V?$allocator@UUpdateProfile@@@std@@@std@@AAEPAUUpdateProfile@@QAU2@ABU2@@Z
3914B 281 __catch$??$_Emplace_reallocate@ABUUpdateProfile@@@?$vector@UUpdateProfile@@V?$allocator@UUpdateProfile@@@std@@@std@@AAEPAUUpdateProfile@@QAU2@ABU2@@Z$0
39170 281 ??$_Insertion_sort_unchecked@PAUUpdateProfile@@V<lambda_1>@?1??sort_by_name@UpdateProfiles@@QAEXXZ@@std@@YAPAUUpdateProfile@@QAU1@0V<lambda_1>@?1??sort_by_name@UpdateProfiles@@QAEXXZ@@Z
39800 281 ??$_Partition_by_median_guess_unchecked@PAUUpdateProfile@@V<lambda_1>@?1??sort_by_name@UpdateProfiles@@QAEXXZ@@std@@YA?AU?$pair@PAUUpdateProfile@@PAU1@@0@PAUUpdateProfile@@0V<lambda_1>@?1??sort_by_name@UpdateProfiles@@QAEXXZ@@Z
3A540 281 ??$construct@UExternalCodec@@ABU1@@?$_Default_allocator_traits@V?$allocator@UExternalCodec@@@std@@@std@@SAXAAV?$allocator@UExternalCodec@@@1@QAUExternalCodec@@ABU3@@Z
3A5D0 281 ??$_Uninitialized_move@PAUExternalCodec@@V?$allocator@UExternalCodec@@@std@@@std@@YAPAUExternalCodec@@QAU1@0PAU1@AAV?$allocator@UExternalCodec@@@0@@Z
3A700 281 ??$_Uninitialized_move@PAUUpdateProfile@@V?$allocator@UUpdateProfile@@@std@@@std@@YAPAUUpdateProfile@@QAU1@0PAU1@AAV?$allocator@UUpdateProfile@@@0@@Z
3A7A0 281 ??0UpdateProfile@@QAE@$$QAU0@@Z
3A810 281 ??$_Move_backward_unchecked@PAUUpdateProfile@@PAU1@@std@@YAPAUUpdateProfile@@PAU1@00@Z
3AAD0 281 ??$_Pop_heap_hole_by_index@PAUUpdateProfile@@U1@V<lambda_1>@?1??sort_by_name@UpdateProfiles@@QAEXXZ@@std@@YAXPAUUpdateProfile@@HH$$QAU1@V<lambda_1>@?1??sort_by_name@UpdateProfiles@@QAEXXZ@@Z
3ADD0 281 ??$_Guess_median_unchecked@PAUUpdateProfile@@V<lambda_1>@?1??sort_by_name@UpdateProfiles@@QAEXXZ@@std@@YAXPAUUpdateProfile@@00V<lambda_1>@?1??sort_by_name@UpdateProfiles@@QAEXXZ@@Z
3AF80 281 ??$swap@UUpdateProfile@@$0A@@std@@YAXAAUUpdateProfile@@0@Z
3B070 281 ??0ProfileOptions@@QAE@ABU0@@Z
3B170 281 ??0SfxOptions@@QAE@ABU0@@Z
3B2E0 46 ?GetOEMCP@patched@@SGIXZ
3B2F0 46 ?GetACP@patched@@SGIXZ
3B300 46 ?MultiByteToWideChar@patched@@SGHIKPBDHPA_WH@Z
3B330 46 ?WideCharToMultiByte@patched@@SGHIKPB_WHPADHPBDPAH@Z
3B360 46 ?patch_7z_dll@@YA_NXZ
3B560 46 ?SetCP@Patch7zCP@@SAXII@Z
3B620 282 ?long_path@@YA?AV?$basic_string@_WU?$char_traits@_W@std@@V?$allocator@_W@2@@std@@ABV12@@Z
3B720 282 ?long_path_norm@@YA?AV?$basic_string@_WU?$char_traits@_W@std@@V?$allocator@_W@2@@std@@ABV12@@Z
3B7E0 282 ?add_trailing_slash@@YA?AV?$basic_string@_WU?$char_traits@_W@std@@V?$allocator@_W@2@@std@@ABV12@@Z
3B850 282 ?locate_path_root@@YAXABV?$basic_string@_WU?$char_traits@_W@std@@V?$allocator@_W@2@@std@@AAIAA_N@Z
3B940 282 ?extract_file_name@@YA?AV?$basic_string@_WU?$char_traits@_W@std@@V?$allocator@_W@2@@std@@ABV12@@Z
3BA20 282 ?extract_file_path@@YA?AV?$basic_string@_WU?$char_traits@_W@std@@V?$allocator@_W@2@@std@@ABV12@@Z
3BBD0 282 ?extract_file_ext@@YA?AV?$basic_string@_WU?$char_traits@_W@std@@V?$allocator@_W@2@@std@@ABV12@@Z
3BCD0 282 ?is_root_path@@YA_NABV?$basic_string@_WU?$char_traits@_W@std@@V?$allocator@_W@2@@std@@@Z
3BD20 282 ?is_absolute_path@@YA_NABV?$basic_string@_WU?$char_traits@_W@std@@V?$allocator@_W@2@@std@@@Z
3BE00 282 ?remove_path_root@@YA?AV?$basic_string@_WU?$char_traits@_W@std@@V?$allocator@_W@2@@std@@ABV12@@Z
3BE80 282 ?correct_filename@@YA?AV?$basic_string@_WU?$char_traits@_W@std@@V?$allocator@_W@2@@std@@ABV12@H_N@Z
3C2CC 282 $LN395
3C2F4 282 $LN394
3C350 283 ??0Error@@QAE@ABV?$basic_string@_WU?$char_traits@_W@std@@V?$allocator@_W@2@@std@@0PBDH@Z
3C450 283 ?Append@Error@@QAEXABU1@@Z
3C4A0 283 ?updatable@Archive@@QBE_NXZ
3C510 283 ??0Plugin@@QAE@_N@Z
3C6F0 283 ?open@Plugin@@SAPAV1@ABV?$vector@V?$shared_ptr@VArchive@@@std@@V?$allocator@V?$shared_ptr@VArchive@@@std@@@2@@std@@_N@Z
3C9B0 283 ?guess_fs_ext@Plugin@@QAEPB_WI@Z
3CBB0 283 ?correct_part_root_name@Plugin@@QAEXAAV?$basic_string@_WU?$char_traits@_W@std@@V?$allocator@_W@2@@std@@IK_K1@Z
3CD60 283 ?part_index_to_item@Plugin@@QAE_NIAAUPanelItem@Far@@@Z
3CE80 283 ?set_partition@Plugin@@QAE_NABUPanelItem@Far@@@Z
3D440 283 ?info@Plugin@@QAEXPAUOpenPanelInfo@@@Z
3D8C0 283 ?set_dir@Plugin@@QAEXABV?$basic_string@_WU?$char_traits@_W@std@@V?$allocator@_W@2@@std@@@Z
3DE30 283 ?list@Plugin@@QAEXPAPAUPluginPanelItem@@PAI@Z
3DF80 283 ?get_separate_dir_path@Plugin@@SA?AV?$basic_string@_WU?$char_traits@_W@std@@V?$allocator@_W@2@@std@@ABV23@0@Z
3E210 283 ?extract@Plugin@@QAEXABVPluginPanelItemAccessor@1@AAV?$basic_string@_WU?$char_traits@_W@std@@V?$allocator@_W@2@@std@@_N_K@Z
3E8A0 283 ??R<lambda_1>@?1??extract@Plugin@@QAEXABVPluginPanelItemAccessor@2@AAV?$basic_string@_WU?$char_traits@_W@std@@V?$allocator@_W@2@@std@@_N_K@Z@QBE@XZ
3EA10 283 ?get_files@Plugin@@QAEXPBUPluginPanelItem@@HHPAPB_W_K@Z
3EB40 283 ?get@PluginPanelItems@?1??get_files@Plugin@@QAEXPBUPluginPanelItem@@HHPAPB_W_K@Z@UBEPBU4@I@Z
3EB50 272 ?length@DNameStatusNode@@UBEHXZ
3EB60 283 ?get@PluginPanelItems@?1??extract@Plugin@@QAEXXZ@UBEPBUPluginPanelItem@@I@Z
3EB90 283 ?size@PluginPanelItems@?1??extract@Plugin@@QAEXXZ@UBEIXZ
3EBA0 283 ?extract@Plugin@@SAXABV?$vector@V?$basic_string@_WU?$char_traits@_W@std@@V?$allocator@_W@2@@std@@V?$allocator@V?$basic_string@_WU?$char_traits@_W@std@@V?$allocator@_W@2@@std@@@2@@std@@UExtractOptions@@@Z
3F427 283 __catch$?extract@Plugin@@SAXABV?$vector@V?$basic_string@_WU?$char_traits@_W@std@@V?$allocator@_W@2@@std@@V?$allocator@V?$basic_string@_WU?$char_traits@_W@std@@V?$allocator@_W@2@@std@@@2@@std@@UExtractOptions@@@Z$0
3F7A0 283 ?bulk_extract@Plugin@@SAXABV?$vector@V?$basic_string@_WU?$char_traits@_W@std@@V?$allocator@_W@2@@std@@V?$allocator@V?$basic_string@_WU?$char_traits@_W@std@@V?$allocator@_W@2@@std@@@2@@std@@@Z
3FB60 283 ?cmdline_extract@Plugin@@SAXABUExtractCommand@@@Z
3FE60 283 ?delete_items@Plugin@@SAXABV?$basic_string@_WU?$char_traits@_W@std@@V?$allocator@_W@2@@std@@ABUExtractOptions@@ABV?$vector@V?$basic_string@_WU?$char_traits@_W@std@@V?$allocator@_W@2@@std@@V?$allocator@V?$basic_string@_WU?$char_traits@_W@std@@V?$allocator@_W@2@@std@@@2@@3@@Z
40290 283 ?extract_items@Plugin@@SAXABV?$basic_string@_WU?$char_traits@_W@std@@V?$allocator@_W@2@@std@@ABUExtractOptions@@ABV?$vector@V?$basic_string@_WU?$char_traits@_W@std@@V?$allocator@_W@2@@std@@V?$allocator@V?$basic_string@_WU?$char_traits@_W@std@@V?$allocator@_W@2@@std@@@2@@3@@Z
40950 283 ?cmdline_extract@Plugin@@SAXABUExtractItemsCommand@@@Z
40C00 283 ?cmdline_delete@Plugin@@SAXABUExtractItemsCommand@@@Z
40D00 283 ?test_files@Plugin@@QAEXPAUPluginPanelItem@@H_K@Z
40EEC 283 __catch$?test_files@Plugin@@QAEXPAUPluginPanelItem@@H_K@Z$0
41120 283 ?bulk_test@Plugin@@SAXABV?$vector@V?$basic_string@_WU?$char_traits@_W@std@@V?$allocator@_W@2@@std@@V?$allocator@V?$basic_string@_WU?$char_traits@_W@std@@V?$allocator@_W@2@@std@@@2@@std@@@Z
41894 283 __catch$?bulk_test@Plugin@@SAXABV?$vector@V?$basic_string@_WU?$char_traits@_W@std@@V?$allocator@_W@2@@std@@V?$allocator@V?$basic_string@_WU?$char_traits@_W@std@@V?$allocator@_W@2@@std@@@2@@std@@@Z$2
419B2 283 __catch$?bulk_test@Plugin@@SAXABV?$vector@V?$basic_string@_WU?$char_traits@_W@std@@V?$allocator@_W@2@@std@@V?$allocator@V?$basic_string@_WU?$char_traits@_W@std@@V?$allocator@_W@2@@std@@@2@@std@@@Z$0
41C60 283 ?cmdline_test@Plugin@@SAXABUTestCommand@@@Z
41DB0 283 ?put_files@Plugin@@QAEXPBUPluginPanelItem@@HHPB_W_K@Z
43080 283 ?create_archive@Plugin@@SAXXZ
43960 283 ?cmdline_update@Plugin@@SAXABUUpdateCommand@@@Z
44320 283 ?delete_files@Plugin@@QAEXPBUPluginPanelItem@@H_K@Z
44630 283 ?create_dir@Plugin@@QAEXPAPB_W_K@Z
448C0 283 ?show_attr@Plugin@@QAEXXZ
44C50 283 ?close@Plugin@@QAEXXZ
44CE0 283 ??4ExtractOptions@@QAEAAU0@ABU0@@Z
44D60 0 ??_EPluginPanelItems@?1??get_files@Plugin@@QAEXPBUPluginPanelItem@@HHPAPB_W_K@Z@UAEPAXI@Z
44D80 0 ??_EPluginPanelItems@?1??extract@Plugin@@QAEXXZ@UAEPAXI@Z
44DB0 283 ??1PluginPanelItems@?1??extract@Plugin@@QAEXXZ@UAE@XZ
44DC0 283 _GetGlobalInfoW@4
44E50 283 _SetStartupInfoW@4
44EF0 283 _GetPluginInfoW@4
44FB4 283 __catch$_GetPluginInfoW@4$0
44FEC 283 __catch$_GetPluginInfoW@4$1
4502C 283 __catch$_GetPluginInfoW@4$3
45040 283 ?analyse_open@@YAPAXPBUAnalyseInfo@@_N@Z
45810 283 _AnalyseW@4
458A5 283 __catch$_AnalyseW@4$0
458D4 283 __catch$_AnalyseW@4$1
458DA 283 __catch$_AnalyseW@4$2
45930 283 _CloseAnalyseW@4
45950 283 _OpenW@4
4692F 283 __catch$_OpenW@4$0
46AC2 283 __catch$_OpenW@4$2
46C3E 283 __catch$_OpenW@4$4
46C9A 283 __catch$_OpenW@4$5
46CEA 283 __catch$_OpenW@4$7
46D34 283 $LN1413
46D50 283 $LN1414
46D70 283 _ClosePanelW@4
46DB8 283 __catch$_ClosePanelW@4$0
46DEE 283 __catch$_ClosePanelW@4$5
46E00 283 ??1Plugin@@QAE@XZ
47020 283 _GetOpenPanelInfoW@4
470D3 283 __catch$_GetOpenPanelInfoW@4$0
4710B 283 __catch$_GetOpenPanelInfoW@4$1
47146 283 __catch$_GetOpenPanelInfoW@4$3
47150 283 _SetDirectoryW@4
4721C 283 __catch$_SetDirectoryW@4$0
4725E 283 __catch$_SetDirectoryW@4$1
472C7 283 __catch$_SetDirectoryW@4$3
472E0 283 _GetFindDataW@4
47339 283 __catch$_GetFindDataW@4$0
4737B 283 __catch$_GetFindDataW@4$1
473E4 283 __catch$_GetFindDataW@4$3
473F0 283 _FreeFindDataW@4
47440 283 _GetFilesW@4
474A4 283 __catch$_GetFilesW@4$0
474EB 283 __catch$_GetFilesW@4$1
47554 283 __catch$_GetFilesW@4$3
47560 283 _PutFilesW@4
475C3 283 __catch$_PutFilesW@4$0
4760A 283 __catch$_PutFilesW@4$1
47673 283 __catch$_PutFilesW@4$3
47680 283 _DeleteFilesW@4
476DD 283 __catch$_DeleteFilesW@4$0
4771F 283 __catch$_DeleteFilesW@4$1
47788 283 __catch$_DeleteFilesW@4$3
47790 283 _MakeDirectoryW@4
477EB 283 __catch$_MakeDirectoryW@4$0
4782D 283 __catch$_MakeDirectoryW@4$1
47897 283 __catch$_MakeDirectoryW@4$3
478A0 283 _ProcessHostFileW@4
47C07 283 __catch$_ProcessHostFileW@4$0
47C49 283 __catch$_ProcessHostFileW@4$1
47C97 283 __catch$_ProcessHostFileW@4$3
47CB0 283 _ProcessPanelInputW@4
47EB4 283 __catch$_ProcessPanelInputW@4$0
47EEB 283 __catch$_ProcessPanelInputW@4$1
47F32 283 __catch$_ProcessPanelInputW@4$3
47F80 283 _ConfigureW@4
48268 283 __catch$_ConfigureW@4$0
482A5 283 __catch$_ConfigureW@4$1
482F7 283 __catch$_ConfigureW@4$3
48300 283 ??1PluginSettings@@QAE@XZ
48440 283 _ExitFARW@4
48460 283 ??1?$unique_ptr@VPlugin@@U?$default_delete@VPlugin@@@std@@@std@@QAE@XZ
48480 283 ??4?$unique_ptr@VPlugin@@U?$default_delete@VPlugin@@@std@@@std@@QAEAAV01@$$T@Z
484B0 283 ?count@?$_Tree@V?$_Tmap_traits@V?$vector@EV?$allocator@E@std@@@std@@UArcFormat@@U?$less@V?$vector@EV?$allocator@E@std@@@std@@@2@V?$allocator@U?$pair@$$CBV?$vector@EV?$allocator@E@std@@@std@@UArcFormat@@@std@@@2@$0A@@std@@@std@@QBEIABV?$vector@EV?$allocator@E@std@@@2@@Z
484F0 283 ??4?$list@V?$basic_string@_WU?$char_traits@_W@std@@V?$allocator@_W@2@@std@@V?$allocator@V?$basic_string@_WU?$char_traits@_W@std@@V?$allocator@_W@2@@std@@@2@@std@@QAEAAV01@V?$initializer_list@V?$basic_string@_WU?$char_traits@_W@std@@V?$allocator@_W@2@@std@@@1@@Z
485D0 283 ??$for_each@V?$_Vector_const_iterator@V?$_Vector_val@U?$_Simple_types@I@std@@@std@@@std@@V<lambda_1>@?1??list@Plugin@@QAEXPAPAUPluginPanelItem@@PAI@Z@@std@@YA?AV<lambda_1>@?1??list@Plugin@@QAEXPAPAUPluginPanelItem@@PAI@Z@V?$_Vector_const_iterator@V?$_Vector_val@U?$_Simple_types@I@std@@@std@@@0@2V1?1??23@QAEX01@Z@@Z
48870 283 ??$make_shared@V?$list@UError@@V?$allocator@UError@@@std@@@std@@$$V@std@@YA?AV?$shared_ptr@V?$list@UError@@V?$allocator@UError@@@std@@@std@@@0@XZ
48900 283 ??$for_each@V?$_Vector_const_iterator@V?$_Vector_val@U?$_Simple_types@V?$basic_string@_WU?$char_traits@_W@std@@V?$allocator@_W@2@@std@@@std@@@std@@@std@@V<lambda_1>@?1??cmdline_extract@Plugin@@SAXABUExtractCommand@@@Z@@std@@YA?AV<lambda_1>@?1??cmdline_extract@Plugin@@SAXABUExtractCommand@@@Z@V?$_Vector_const_iterator@V?$_Vector_val@U?$_Simple_types@V?$basic_string@_WU?$char_traits@_W@std@@V?$allocator@_W@2@@std@@@std@@@std@@@0@1V1?1??23@SAX0@Z@@Z
489D0 283 ??$for_each@V?$_Vector_const_iterator@V?$_Vector_val@U?$_Simple_types@V?$basic_string@_WU?$char_traits@_W@std@@V?$allocator@_W@2@@std@@@std@@@std@@@std@@V<lambda_2>@?1??cmdline_update@Plugin@@SAXABUUpdateCommand@@@Z@@std@@YA?AV<lambda_2>@?1??cmdline_update@Plugin@@SAXABUUpdateCommand@@@Z@V?$_Vector_const_iterator@V?$_Vector_val@U?$_Simple_types@V?$basic_string@_WU?$char_traits@_W@std@@V?$allocator@_W@2@@std@@@std@@@std@@@0@1V1?1??23@SAX0@Z@@Z
48BF0 283 ??$for_each@V?$_Vector_iterator@V?$_Vector_val@U?$_Simple_types@V?$basic_string@_WU?$char_traits@_W@std@@V?$allocator@_W@2@@std@@@std@@@std@@@std@@V<lambda_3>@?1??cmdline_update@Plugin@@SAXABUUpdateCommand@@@Z@@std@@YA?AV<lambda_3>@?1??cmdline_update@Plugin@@SAXABUUpdateCommand@@@Z@V?$_Vector_iterator@V?$_Vector_val@U?$_Simple_types@V?$basic_string@_WU?$char_traits@_W@std@@V?$allocator@_W@2@@std@@@std@@@std@@@0@1V1?1??23@SAX0@Z@@Z
48F50 283 ??$copy@V?$_List_const_iterator@V?$_List_val@U?$_List_simple_types@V?$basic_string@_WU?$char_traits@_W@std@@V?$allocator@_W@2@@std@@@std@@@std@@@std@@V?$insert_iterator@V?$set@V?$basic_string@_WU?$char_traits@_W@std@@V?$allocator@_W@2@@std@@U?$less@V?$basic_string@_WU?$char_traits@_W@std@@V?$allocator@_W@2@@std@@@2@V?$allocator@V?$basic_string@_WU?$char_traits@_W@std@@V?$allocator@_W@2@@std@@@2@@std@@@2@@std@@YA?AV?$insert_iterator@V?$set@V?$basic_string@_WU?$char_traits@_W@std@@V?$allocator@_W@2@@std@@U?$less@V?$basic_string@_WU?$char_traits@_W@std@@V?$allocator@_W@2@@std@@@2@V?$allocator@V?$basic_string@_WU?$char_traits@_W@std@@V?$allocator@_W@2@@std@@@2@@std@@@0@V?$_List_const_iterator@V?$_List_val@U?$_List_simple_types@V?$basic_string@_WU?$char_traits@_W@std@@V?$allocator@_W@2@@std@@@std@@@std@@@0@0V10@@Z
49040 283 ??$_Emplace@ABUError@@@?$list@UError@@V?$allocator@UError@@@std@@@std@@QAEPAU?$_List_node@UError@@PAX@1@QAU21@ABUError@@@Z
49120 283 ??$_Reallocate@$0A@@?$vector@UInfoPanelLine@@V?$allocator@UInfoPanelLine@@@std@@@std@@AAEXAAI@Z
49200 283 ?_Destroy@?$_Ref_count_obj2@V?$list@UError@@V?$allocator@UError@@@std@@@std@@@std@@EAEXXZ
49210 283 ?_Destroy@?$_Ref_count@VArchive@@@std@@EAEXXZ
49230 283 ??1?$_Temporary_owner@VArchive@@@std@@QAE@XZ
49250 283 ?_Change_array@?$vector@UInfoPanelLine@@V?$allocator@UInfoPanelLine@@@std@@@std@@AAEXQAUInfoPanelLine@@II@Z
492B0 0 ??_E?$_Ref_count_obj2@V?$list@UError@@V?$allocator@UError@@@std@@@std@@@std@@UAEPAXI@Z
492E0 0 ??_E?$_Ref_count@VArchive@@@std@@UAEPAXI@Z
49300 283 ??1?$_Alloc_construct_ptr@V?$allocator@U?$_List_node@UError@@PAX@std@@@std@@@std@@QAE@XZ
49320 283 ??$_Sort_unchecked@PAIV<lambda_1>@?BC@??extract_items@Plugin@@SAXABV?$basic_string@_WU?$char_traits@_W@std@@V?$allocator@_W@2@@std@@ABUExtractOptions@@ABV?$vector@V?$basic_string@_WU?$char_traits@_W@std@@V?$allocator@_W@2@@std@@V?$allocator@V?$basic_string@_WU?$char_traits@_W@std@@V?$allocator@_W@2@@std@@@2@@5@@Z@@std@@YAXPAI0HV<lambda_1>@?BC@??extract_items@Plugin@@SAXABV?$basic_string@_WU?$char_traits@_W@std@@V?$allocator@_W@2@@0@ABUExtractOptions@@ABV?$vector@V?$basic_string@_WU?$char_traits@_W@std@@V?$allocator@_W@2@@std@@V?$allocator@V?$basic_string@_WU?$char_traits@_W@std@@V?$allocator@_W@2@@std@@@2@@0@@Z@@Z
49630 283 ??$_Emplace_reallocate@ABUInfoPanelLine@@@?$vector@UInfoPanelLine@@V?$allocator@UInfoPanelLine@@@std@@@std@@AAEPAUInfoPanelLine@@QAU2@ABU2@@Z
49770 283 ??$_Assign_unchecked@V?$_List_unchecked_const_iterator@V?$_List_val@U?$_List_simple_types@UAttr@@@std@@@std@@U_Iterator_base0@2@@std@@V12@@?$list@UAttr@@V?$allocator@UAttr@@@std@@@std@@AAEXV?$_List_unchecked_const_iterator@V?$_List_val@U?$_List_simple_types@UAttr@@@std@@@std@@U_Iterator_base0@2@@1@V21@@Z
49990 283 ??1?$_List_node_insert_op2@V?$allocator@U?$_List_node@UAttr@@PAX@std@@@std@@@std@@QAE@XZ
499D0 283 ?_Destroy@?$_Ref_count_resource@$$TV<lambda_1>@?1??analyse_open@@YAPAXPBUAnalyseInfo@@_N@Z@@std@@EAEXXZ
499E0 283 ?_Get_deleter@?$_Ref_count_resource@$$TV<lambda_1>@?1??analyse_open@@YAPAXPBUAnalyseInfo@@_N@Z@@std@@UBEPAXABVtype_info@@@Z
49A10 283 ??1?$_Temporary_owner_del@$$TV<lambda_1>@?1??analyse_open@@YAPAXPBUAnalyseInfo@@_N@Z@@std@@QAE@XZ
49A30 283 ??$_Partition_by_median_guess_unchecked@PAIV<lambda_1>@?BC@??extract_items@Plugin@@SAXABV?$basic_string@_WU?$char_traits@_W@std@@V?$allocator@_W@2@@std@@ABUExtractOptions@@ABV?$vector@V?$basic_string@_WU?$char_traits@_W@std@@V?$allocator@_W@2@@std@@V?$allocator@V?$basic_string@_WU?$char_traits@_W@std@@V?$allocator@_W@2@@std@@@2@@5@@Z@@std@@YA?AU?$pair@PAIPAI@0@PAI0V<lambda_1>@?BC@??extract_items@Plugin@@SAXABV?$basic_string@_WU?$char_traits@_W@std@@V?$allocator@_W@2@@0@ABUExtractOptions@@ABV?$vector@V?$basic_string@_WU?$char_traits@_W@std@@V?$allocator@_W@2@@std@@V?$allocator@V?$basic_string@_WU?$char_traits@_W@std@@V?$allocator@_W@2@@std@@@2@@0@@Z@@Z
49CA0 283 ??$_Pop_heap_hole_by_index@PAIIV<lambda_1>@?BC@??extract_items@Plugin@@SAXABV?$basic_string@_WU?$char_traits@_W@std@@V?$allocator@_W@2@@std@@ABUExtractOptions@@ABV?$vector@V?$basic_string@_WU?$char_traits@_W@std@@V?$allocator@_W@2@@std@@V?$allocator@V?$basic_string@_WU?$char_traits@_W@std@@V?$allocator@_W@2@@std@@@2@@5@@Z@@std@@YAXPAIHH$$QAIV<lambda_1>@?BC@??extract_items@Plugin@@SAXABV?$basic_string@_WU?$char_traits@_W@std@@V?$allocator@_W@2@@0@ABUExtractOptions@@ABV?$vector@V?$basic_string@_WU?$char_traits@_W@std@@V?$allocator@_W@2@@std@@V?$allocator@V?$basic_string@_WU?$char_traits@_W@std@@V?$allocator@_W@2@@std@@@2@@0@@Z@@Z
49D80 283 ??$_Find_hint@V?$basic_string@_WU?$char_traits@_W@std@@V?$allocator@_W@2@@std@@@?$_Tree@V?$_Tset_traits@V?$basic_string@_WU?$char_traits@_W@std@@V?$allocator@_W@2@@std@@U?$less@V?$basic_string@_WU?$char_traits@_W@std@@V?$allocator@_W@2@@std@@@2@V?$allocator@V?$basic_string@_WU?$char_traits@_W@std@@V?$allocator@_W@2@@std@@@2@$0A@@std@@@std@@IBE?AU?$_Tree_find_hint_result@PAU?$_Tree_node@V?$basic_string@_WU?$char_traits@_W@std@@V?$allocator@_W@2@@std@@PAX@std@@@1@QAU?$_Tree_node@V?$basic_string@_WU?$char_traits@_W@std@@V?$allocator@_W@2@@std@@PAX@1@ABV?$basic_string@_WU?$char_traits@_W@std@@V?$allocator@_W@2@@1@@Z
49F50 283 ??$?0ABV?$basic_string@_WU?$char_traits@_W@std@@V?$allocator@_W@2@@std@@@?$_Tree_temp_node@V?$allocator@U?$_Tree_node@V?$basic_string@_WU?$char_traits@_W@std@@V?$allocator@_W@2@@std@@PAX@std@@@std@@@std@@QAE@AAV?$allocator@U?$_Tree_node@V?$basic_string@_WU?$char_traits@_W@std@@V?$allocator@_W@2@@std@@PAX@std@@@1@PAU?$_Tree_node@V?$basic_string@_WU?$char_traits@_W@std@@V?$allocator@_W@2@@std@@PAX@1@ABV?$basic_string@_WU?$char_traits@_W@std@@V?$allocator@_W@2@@1@@Z
49FF0 283 ??F?$_Tree_unchecked_const_iterator@V?$_Tree_val@U?$_Tree_simple_types@V?$basic_string@_WU?$char_traits@_W@std@@V?$allocator@_W@2@@std@@@std@@@std@@U_Iterator_base0@2@@std@@QAEAAV01@XZ
4A060 283 ??$_Med3_unchecked@PAIV<lambda_1>@?BC@??extract_items@Plugin@@SAXABV?$basic_string@_WU?$char_traits@_W@std@@V?$allocator@_W@2@@std@@ABUExtractOptions@@ABV?$vector@V?$basic_string@_WU?$char_traits@_W@std@@V?$allocator@_W@2@@std@@V?$allocator@V?$basic_string@_WU?$char_traits@_W@std@@V?$allocator@_W@2@@std@@@2@@5@@Z@@std@@YAXPAI00V<lambda_1>@?BC@??extract_items@Plugin@@SAXABV?$basic_string@_WU?$char_traits@_W@std@@V?$allocator@_W@2@@0@ABUExtractOptions@@ABV?$vector@V?$basic_string@_WU?$char_traits@_W@std@@V?$allocator@_W@2@@std@@V?$allocator@V?$basic_string@_WU?$char_traits@_W@std@@V?$allocator@_W@2@@std@@@2@@0@@Z@@Z
4A0F0 283 ??8type_info@@QBE_NABV0@@Z
4A110 283 ?to_wstring@std@@YA?AV?$basic_string@_WU?$char_traits@_W@std@@V?$allocator@_W@2@@1@I@Z
4A240 284 ??4RsrcId@@QAEXPB_W@Z
4A2A0 284 ?load_icon_file@@YA?AV?$list@UIconImage@@V?$allocator@UIconImage@@@std@@@std@@ABV?$basic_string@_WU?$char_traits@_W@std@@V?$allocator@_W@2@@2@@Z
4A770 284 ??1IconImage@@QAE@XZ
4A7C0 284 ?load_icon_rsrc@@YA?AUIconRsrc@@PAUHINSTANCE__@@PB_WG@Z
4AAC0 284 ??1IconRsrc@@QAE@XZ
4AB20 284 ??1IconImageRsrc@@QAE@XZ
4AB70 284 ??0IconRsrc@@QAE@$$QAU0@@Z
4AC50 284 ?enum_names_proc@@YGHPAUHINSTANCE__@@PB_WPA_WJ@Z
4ADB7 284 __catch$?enum_names_proc@@YGHPAUHINSTANCE__@@PB_WPA_WJ@Z$0
4ADF0 284 ?enum_langs_proc@@YGHPAUHINSTANCE__@@PB_W1GJ@Z
4AE7B 284 __catch$?enum_langs_proc@@YGHPAUHINSTANCE__@@PB_W1GJ@Z$0
4AEB0 284 ??1RsrcModule@@QAE@XZ
4AED0 284 ??0ResourceUpdate@@QAE@ABV?$basic_string@_WU?$char_traits@_W@std@@V?$allocator@_W@2@@std@@@Z
4AF30 284 ??1ResourceUpdate@@QAE@XZ
4AF40 284 ?replace_icon@@YAXABV?$basic_string@_WU?$char_traits@_W@std@@V?$allocator@_W@2@@std@@0@Z
4B490 284 ??R<lambda_1>@?1??replace_icon@@YAXABV?$basic_string@_WU?$char_traits@_W@std@@V?$allocator@_W@2@@std@@0@Z@QBE@ABVRsrcId@@@Z
4B6A0 284 ??R<lambda_5>@?1??replace_icon@@YAXABV?$basic_string@_WU?$char_traits@_W@std@@V?$allocator@_W@2@@std@@0@Z@QBE@ABUIconRsrc@@@Z
4B840 284 ?encode_WORD@VersionEncoder@@QAEXG@Z
4B860 284 ?encode_string@VersionEncoder@@QAEXPB_W@Z
4B8A0 284 ?pad@VersionEncoder@@QAEXXZ
4B8D0 284 ?replace_ver_info@@YAXABV?$basic_string@_WU?$char_traits@_W@std@@V?$allocator@_W@2@@std@@ABUSfxVersionInfo@@@Z
4C5F0 284 ??R<lambda_1>@?1??replace_ver_info@@YAXABV?$basic_string@_WU?$char_traits@_W@std@@V?$allocator@_W@2@@std@@ABUSfxVersionInfo@@@Z@QBE@ABVRsrcId@@@Z
4C840 284 ??4RsrcId@@QAEAAV0@ABV0@@Z
4C880 284 ??6?$basic_ostream@_WU?$char_traits@_W@std@@@std@@QAEAAV01@G@Z
4C99B 284 __catch$??6?$basic_ostream@_WU?$char_traits@_W@std@@@std@@QAEAAV01@G@Z$0
4CA40 284 ??1?$list@UIdLang@@V?$allocator@UIdLang@@@std@@@std@@QAE@XZ
4CAD0 284 ??1?$list@UIconRsrc@@V?$allocator@UIconRsrc@@@std@@@std@@QAE@XZ
4CB20 284 ??1?$list@VRsrcId@@V?$allocator@VRsrcId@@@std@@@std@@QAE@XZ
4CBB0 284 ?push_back@?$list@UIconImageRsrc@@V?$allocator@UIconImageRsrc@@@std@@@std@@QAEXABUIconImageRsrc@@@Z
4CC80 284 ??1?$list@UIconImageRsrc@@V?$allocator@UIconImageRsrc@@@std@@@std@@QAE@XZ
4CD10 284 ??1?$list@UIconImage@@V?$allocator@UIconImage@@@std@@@std@@QAE@XZ
4CDA0 284 ?insert@?$vector@EV?$allocator@E@std@@@std@@QAE?AV?$_Vector_iterator@V?$_Vector_val@U?$_Simple_types@E@std@@@std@@@2@V?$_Vector_const_iterator@V?$_Vector_val@U?$_Simple_types@E@std@@@std@@@2@IABE@Z
4CFA0 284 ?_Change_array@?$vector@EV?$allocator@E@std@@@std@@AAEXQAEII@Z
4D000 284 ??$for_each@V?$_List_const_iterator@V?$_List_val@U?$_List_simple_types@VRsrcId@@@std@@@std@@@std@@V<lambda_1>@?1??replace_icon@@YAXABV?$basic_string@_WU?$char_traits@_W@std@@V?$allocator@_W@2@@2@0@Z@@std@@YA?AV<lambda_1>@?1??replace_icon@@YAXABV?$basic_string@_WU?$char_traits@_W@std@@V?$allocator@_W@2@@0@0@Z@V?$_List_const_iterator@V?$_List_val@U?$_List_simple_types@VRsrcId@@@std@@@std@@@0@1V1?1??2@YAX00@Z@@Z
4D040 284 ??$for_each@V?$_List_const_iterator@V?$_List_val@U?$_List_simple_types@UIconImage@@@std@@@std@@@std@@V<lambda_3>@?1??replace_icon@@YAXABV?$basic_string@_WU?$char_traits@_W@std@@V?$allocator@_W@2@@2@0@Z@@std@@YA?AV<lambda_3>@?1??replace_icon@@YAXABV?$basic_string@_WU?$char_traits@_W@std@@V?$allocator@_W@2@@0@0@Z@V?$_List_const_iterator@V?$_List_val@U?$_List_simple_types@UIconImage@@@std@@@std@@@0@1V1?1??2@YAX00@Z@@Z
4D150 284 ??$for_each@V?$_List_const_iterator@V?$_List_val@U?$_List_simple_types@UIconRsrc@@@std@@@std@@@std@@V<lambda_5>@?1??replace_icon@@YAXABV?$basic_string@_WU?$char_traits@_W@std@@V?$allocator@_W@2@@2@0@Z@@std@@YA?AV<lambda_5>@?1??replace_icon@@YAXABV?$basic_string@_WU?$char_traits@_W@std@@V?$allocator@_W@2@@0@0@Z@V?$_List_const_iterator@V?$_List_val@U?$_List_simple_types@UIconRsrc@@@std@@@std@@@0@1V1?1??2@YAX00@Z@@Z
4D190 284 ??$for_each@V?$_List_iterator@V?$_List_val@U?$_List_simple_types@VRsrcId@@@std@@@std@@@std@@V<lambda_1>@?1??replace_ver_info@@YAXABV?$basic_string@_WU?$char_traits@_W@std@@V?$allocator@_W@2@@2@ABUSfxVersionInfo@@@Z@@std@@YA?AV<lambda_1>@?1??replace_ver_info@@YAXABV?$basic_string@_WU?$char_traits@_W@std@@V?$allocator@_W@2@@0@ABUSfxVersionInfo@@@Z@V?$_List_iterator@V?$_List_val@U?$_List_simple_types@VRsrcId@@@std@@@std@@@0@2V1?1??2@YAX01@Z@@Z
4D1D0 284 ??$for_each@V?$_Tree_const_iterator@V?$_Tree_val@U?$_Tree_simple_types@U?$pair@$$CBV?$basic_string@_WU?$char_traits@_W@std@@V?$allocator@_W@2@@std@@V12@@std@@@std@@@std@@@std@@V<lambda_2>@?1??replace_ver_info@@YAXABV?$basic_string@_WU?$char_traits@_W@std@@V?$allocator@_W@2@@2@ABUSfxVersionInfo@@@Z@@std@@YA?AV<lambda_2>@?1??replace_ver_info@@YAXABV?$basic_string@_WU?$char_traits@_W@std@@V?$allocator@_W@2@@0@ABUSfxVersionInfo@@@Z@V?$_Tree_const_iterator@V?$_Tree_val@U?$_Tree_simple_types@U?$pair@$$CBV?$basic_string@_WU?$char_traits@_W@std@@V?$allocator@_W@2@@std@@V12@@std@@@std@@@std@@@0@2V1?1??2@YAX01@Z@@Z
4D430 284 ??$_Emplace@ABUIconRsrc@@@?$list@UIconRsrc@@V?$allocator@UIconRsrc@@@std@@@std@@QAEPAU?$_List_node@UIconRsrc@@PAX@1@QAU21@ABUIconRsrc@@@Z
4D4C0 284 ??$_Reallocate@$0A@@?$vector@EV?$allocator@E@std@@@std@@AAEXAAI@Z
4D580 284 ??1?$_Alloc_construct_ptr@V?$allocator@U?$_List_node@VRsrcId@@PAX@std@@@std@@@std@@QAE@XZ
4D5A0 284 ??$_Insert_counted_range@PBE@?$vector@EV?$allocator@E@std@@@std@@AAEXV?$_Vector_const_iterator@V?$_Vector_val@U?$_Simple_types@E@std@@@std@@@1@PBEI@Z
4D720 284 ??$construct@UIconImageRsrc@@ABU1@@?$_Default_allocator_traits@V?$allocator@U?$_List_node@UIconImageRsrc@@PAX@std@@@std@@@std@@SAXAAV?$allocator@U?$_List_node@UIconImageRsrc@@PAX@std@@@1@QAUIconImageRsrc@@ABU3@@Z
4D770 284 ??0IconRsrc@@QAE@ABU0@@Z
4D910 284 ??1?$_List_node_insert_op2@V?$allocator@U?$_List_node@UIconImageRsrc@@PAX@std@@@std@@@std@@QAE@XZ
4D9A0 285 ??0DisableEvents@Dialog@Far@@QAE@AAV12@@Z
4D9D0 285 ??1DisableEvents@Dialog@Far@@QAE@XZ
4DA30 285 ?def_button@Dialog@Far@@QAEIABV?$basic_string@_WU?$char_traits@_W@std@@V?$allocator@_W@2@@std@@_K@Z
4DA50 285 ?check_box@Dialog@Far@@QAEIABV?$basic_string@_WU?$char_traits@_W@std@@V?$allocator@_W@2@@std@@_N_K@Z
4DA70 285 ?check_box3@Dialog@Far@@QAEIABV?$basic_string@_WU?$char_traits@_W@std@@V?$allocator@_W@2@@std@@W4TriState@@_K@Z
4DAC0 285 ?do_update_ui@AttachSfxModuleProgress@@EAEXXZ
4DD20 0 ??_EAttachSfxModuleProgress@@UAEPAXI@Z
4DD50 285 ??1AttachSfxModuleProgress@@UAE@XZ
4DDC0 285 ?generate_install_config@@YA?AV?$vector@EV?$allocator@E@std@@@std@@ABUSfxInstallConfig@@@Z
4E670 285 ?create_sfx_module@@YAXABV?$basic_string@_WU?$char_traits@_W@std@@V?$allocator@_W@2@@std@@ABUSfxOptions@@@Z
4E9A0 285 ?attach_sfx_module@@YAXABV?$basic_string@_WU?$char_traits@_W@std@@V?$allocator@_W@2@@std@@ABUSfxOptions@@@Z
4EF56 285 __catch$?attach_sfx_module@@YAXABV?$basic_string@_WU?$char_traits@_W@std@@V?$allocator@_W@2@@std@@ABUSfxOptions@@@Z$0
4EF70 285 ?set_control_state@SfxOptionsDialog@@AAEXXZ
4F120 285 ?read_controls@SfxOptionsDialog@@AAE?AUSfxOptions@@XZ
4F670 285 ?write_controls@SfxOptionsDialog@@AAEXABUSfxOptions@@@Z
4F970 285 ?dialog_proc@SfxOptionsDialog@@EAEHHHPAX@Z
4FB12 285 __catch$?dialog_proc@SfxOptionsDialog@@EAEHHHPAX@Z$0
4FBF0 285 ??0SfxOptionsDialog@@QAE@AAUSfxOptions@@ABUUpdateProfiles@@@Z
4FF20 285 ?show@SfxOptionsDialog@@QAE_NXZ
51400 285 ??$emplace_back@$$V@?$vector@V?$basic_string@_WU?$char_traits@_W@std@@V?$allocator@_W@2@@std@@V?$allocator@V?$basic_string@_WU?$char_traits@_W@std@@V?$allocator@_W@2@@std@@@2@@std@@QAE?A_TXZ
51440 0 ??_ESfxOptionsDialog@@UAEPAXI@Z
51470 285 ??1SfxOptionsDialog@@UAE@XZ
51490 285 ??1SfxProfile@@QAE@XZ
514F0 285 ?sfx_options_dialog@@YA_NAAUSfxOptions@@ABUUpdateProfiles@@@Z
515C0 285 ??1?$vector@USfxProfile@@V?$allocator@USfxProfile@@@std@@@std@@QAE@XZ
51640 285 ?deallocate@?$allocator@USfxProfile@@@std@@QAEXQAUSfxProfile@@I@Z
51680 285 ??$for_each@V?$_Vector_const_iterator@V?$_Vector_val@U?$_Simple_types@USfxModule@@@std@@@std@@@std@@V<lambda_1>@?1??show@SfxOptionsDialog@@QAE_NXZ@@std@@YA?AV<lambda_1>@?1??show@SfxOptionsDialog@@QAE_NXZ@V?$_Vector_const_iterator@V?$_Vector_val@U?$_Simple_types@USfxModule@@@std@@@std@@@0@0V1?1??23@QAE_NXZ@@Z
51780 285 ??$_Destroy_range@V?$allocator@USfxProfile@@@std@@@std@@YAXPAUSfxProfile@@QAU1@AAV?$allocator@USfxProfile@@@0@@Z
517B0 285 ??$_Emplace_reallocate@$$V@?$vector@V?$basic_string@_WU?$char_traits@_W@std@@V?$allocator@_W@2@@std@@V?$allocator@V?$basic_string@_WU?$char_traits@_W@std@@V?$allocator@_W@2@@std@@@2@@std@@AAEPAV?$basic_string@_WU?$char_traits@_W@std@@V?$allocator@_W@2@@1@QAV21@@Z
518A0 285 ??$_Emplace_reallocate@ABUSfxProfile@@@?$vector@USfxProfile@@V?$allocator@USfxProfile@@@std@@@std@@AAEPAUSfxProfile@@QAU2@ABU2@@Z
51A98 285 __catch$??$_Emplace_reallocate@ABUSfxProfile@@@?$vector@USfxProfile@@V?$allocator@USfxProfile@@@std@@@std@@AAEPAUSfxProfile@@QAU2@ABU2@@Z$0
51AC0 285 ??$_Uninitialized_move@PAUSfxProfile@@V?$allocator@USfxProfile@@@std@@@std@@YAPAUSfxProfile@@QAU1@0PAU1@AAV?$allocator@USfxProfile@@@0@@Z
51B60 47 ??0ParseException@SimpleXML@@QAE@W4parseRet@1@PBD@Z
51B80 47 ?skip_spaces@View@SimpleXML@@QAEDXZ
51BC0 47 ?ensure_next@View@SimpleXML@@QAEXABVstr_view@2@@Z
51C20 47 ?skip_name@View@SimpleXML@@QAEDH@Z
51CD0 47 ?find_tag_end@View@SimpleXML@@QAEDXZ
51D60 47 ?parse@SimpleXML@@YA?AW4parseRet@1@PBDIPBVIParseCallback@1@@Z
52348 47 __catch$?parse@SimpleXML@@YA?AW4parseRet@1@PBDIPBVIParseCallback@1@@Z$0
52640 286 ?substr_match@@YA_NABV?$basic_string@_WU?$char_traits@_W@std@@V?$allocator@_W@2@@std@@IPB_W@Z
526C0 286 ?word_wrap@@YA?AV?$basic_string@_WU?$char_traits@_W@std@@V?$allocator@_W@2@@std@@ABV12@I@Z
52860 286 ?strip@@YA?AV?$basic_string@_WU?$char_traits@_W@std@@V?$allocator@_W@2@@std@@ABV12@@Z
52930 286 ?str_to_int@@YAHABV?$basic_string@_WU?$char_traits@_W@std@@V?$allocator@_W@2@@std@@@Z
52950 286 ?int_to_str@@YA?AV?$basic_string@_WU?$char_traits@_W@std@@V?$allocator@_W@2@@std@@H@Z
529E0 286 ?str_to_uint@@YA_KABV?$basic_string@_WU?$char_traits@_W@std@@V?$allocator@_W@2@@std@@@Z
52A90 286 ?uint_to_str@@YA?AV?$basic_string@_WU?$char_traits@_W@std@@V?$allocator@_W@2@@std@@_K@Z
52BC0 286 ?widen@@YA?AV?$basic_string@_WU?$char_traits@_W@std@@V?$allocator@_W@2@@std@@ABV?$basic_string@DU?$char_traits@D@std@@V?$allocator@D@2@@2@@Z
52CA0 286 ?split@@YA?AV?$list@V?$basic_string@_WU?$char_traits@_W@std@@V?$allocator@_W@2@@std@@V?$allocator@V?$basic_string@_WU?$char_traits@_W@std@@V?$allocator@_W@2@@std@@@2@@std@@ABV?$basic_string@_WU?$char_traits@_W@std@@V?$allocator@_W@2@@2@_W@Z
52EA0 286 ?format_data_size@@YA?AV?$basic_string@_WU?$char_traits@_W@std@@V?$allocator@_W@2@@std@@_KQAPB_W@Z
535D0 286 ?unquote@@YA?AV?$basic_string@_WU?$char_traits@_W@std@@V?$allocator@_W@2@@std@@ABV12@@Z
53630 286 ?search_and_replace@@YA?AV?$basic_string@_WU?$char_traits@_W@std@@V?$allocator@_W@2@@std@@ABV12@00@Z
539E0 286 ?str_end_with@@YA_NABV?$basic_string@_WU?$char_traits@_W@std@@V?$allocator@_W@2@@std@@PB_W_N@Z
53A30 286 ?append@?$basic_string@_WU?$char_traits@_W@std@@V?$allocator@_W@2@@std@@QAEAAV12@ABV12@II@Z
53AC0 287 ??0Error@@QAE@JABV?$basic_string@_WU?$char_traits@_W@std@@V?$allocator@_W@2@@std@@PBDH@Z
53BB0 0 ??_ECriticalSection@@UAEPAXI@Z
53BF0 287 ?get_system_message@@YA?AV?$basic_string@_WU?$char_traits@_W@std@@V?$allocator@_W@2@@std@@JK@Z
53ECB 287 __catch$?get_system_message@@YA?AV?$basic_string@_WU?$char_traits@_W@std@@V?$allocator@_W@2@@std@@JK@Z$0
53EF0 287 ?ansi_to_unicode@@YA?AV?$basic_string@_WU?$char_traits@_W@std@@V?$allocator@_W@2@@std@@ABV?$basic_string@DU?$char_traits@D@std@@V?$allocator@D@2@@2@I@Z
54030 287 ?expand_env_vars@@YA?AV?$basic_string@_WU?$char_traits@_W@std@@V?$allocator@_W@2@@std@@ABV12@@Z
54150 287 ??1File@@QAE@XZ
541C0 287 ?open@File@@QAEXABV?$basic_string@_WU?$char_traits@_W@std@@V?$allocator@_W@2@@std@@KKKK@Z
54220 287 ?open_nt@File@@QAE_NABV?$basic_string@_WU?$char_traits@_W@std@@V?$allocator@_W@2@@std@@KKKK@Z
54340 287 ?size@File@@QAE_KXZ
543B0 287 ?read@File@@QAEIPAXI@Z
54420 287 ?read_nt@File@@QAE_NPAXIAAI@Z
54460 287 ?write@File@@QAEIPBXI@Z
544D0 287 ?copy_ctime_from@File@@QAE_NABV?$basic_string@_WU?$char_traits@_W@std@@V?$allocator@_W@2@@std@@@Z
54670 287 ?set_pos@File@@QAE_K_JK@Z
546E0 287 ?set_end@File@@QAEXXZ
54740 287 ?exists@File@@SA_NABV?$basic_string@_WU?$char_traits@_W@std@@V?$allocator@_W@2@@std@@@Z
547E0 287 ?set_attr@File@@SAXABV?$basic_string@_WU?$char_traits@_W@std@@V?$allocator@_W@2@@std@@K@Z
548C0 287 ?set_attr_nt@File@@SA_NABV?$basic_string@_WU?$char_traits@_W@std@@V?$allocator@_W@2@@std@@K@Z
54960 287 ?delete_file@File@@SAXABV?$basic_string@_WU?$char_traits@_W@std@@V?$allocator@_W@2@@std@@@Z
54A40 287 ?delete_file_nt@File@@SA_NABV?$basic_string@_WU?$char_traits@_W@std@@V?$allocator@_W@2@@std@@@Z
54AE0 287 ?create_dir_nt@File@@SA_NABV?$basic_string@_WU?$char_traits@_W@std@@V?$allocator@_W@2@@std@@@Z
54B80 287 ?remove_dir@File@@SAXABV?$basic_string@_WU?$char_traits@_W@std@@V?$allocator@_W@2@@std@@@Z
54C60 287 ?move_file@File@@SAXABV?$basic_string@_WU?$char_traits@_W@std@@V?$allocator@_W@2@@std@@0K@Z
54D80 287 ?get_find_data@File@@SA?AUFindData@@ABV?$basic_string@_WU?$char_traits@_W@std@@V?$allocator@_W@2@@std@@@Z
54DE0 287 ?get_find_data_nt@File@@SA_NABV?$basic_string@_WU?$char_traits@_W@std@@V?$allocator@_W@2@@std@@AAUFindData@@@Z
54EB0 287 ??1Key@@QAE@XZ
54ED0 287 ?open_nt@Key@@QAE_NPAUHKEY__@@PB_WK_N@Z
54F20 287 ?query_str_nt@Key@@QAE_NAAV?$basic_string@_WU?$char_traits@_W@std@@V?$allocator@_W@2@@std@@PB_W@Z
55030 287 ??1FileEnum@@QAE@XZ
550E0 287 ?next@FileEnum@@QAE_NXZ
55140 287 ?find_cb@@YGHPBUPluginPanelItem@@PB_WPAX@Z
55290 287 ?next_nt@FileEnum@@QAE_NAA_N@Z
55730 287 ??0DirList@@QAE@ABV?$basic_string@_WU?$char_traits@_W@std@@V?$allocator@_W@2@@std@@@Z
55890 287 ??0TempFile@@QAE@XZ
55AA0 287 ??1TempFile@@QAE@XZ
55B10 287 ?format_file_time@@YA?AV?$basic_string@_WU?$char_traits@_W@std@@V?$allocator@_W@2@@std@@ABU_FILETIME@@@Z
55CF0 287 ?upcase@@YA?AV?$basic_string@_WU?$char_traits@_W@std@@V?$allocator@_W@2@@std@@ABV12@@Z
55DB0 287 ?search_path@@YA?AV?$basic_string@_WU?$char_traits@_W@std@@V?$allocator@_W@2@@std@@ABV12@@Z
55F40 287 ??6?$basic_ostream@_WU?$char_traits@_W@std@@@std@@QAEAAV01@J@Z
56063 287 __catch$??6?$basic_ostream@_WU?$char_traits@_W@std@@@std@@QAEAAV01@J@Z$0
56110 287 ?find_last_of@?$basic_string@_WU?$char_traits@_W@std@@V?$allocator@_W@2@@std@@QBEI_WI@Z
56160 287 ??1?$_Alloc_construct_ptr@V?$allocator@U?$_List_node@UFindData@@PAX@std@@@std@@@std@@QAE@XZ
56180 288 ?do_update_ui@ArchiveTester@@EAEXXZ
56700 288 ??0ArchiveTester@@QAE@IV?$shared_ptr@VArchive@@@std@@@Z
568D0 288 ?SetTotal@ArchiveTester@@UAGJ_K@Z
5693A 288 __catch$?SetTotal@ArchiveTester@@UAGJ_K@Z$0
5694D 288 __catch$?SetTotal@ArchiveTester@@UAGJ_K@Z$1
5698D 288 __catch$?SetTotal@ArchiveTester@@UAGJ_K@Z$3
569B0 288 ?SetCompleted@ArchiveTester@@UAGJPB_K@Z
56A20 288 __catch$?SetCompleted@ArchiveTester@@UAGJPB_K@Z$0
56A33 288 __catch$?SetCompleted@ArchiveTester@@UAGJPB_K@Z$1
56A73 288 __catch$?SetCompleted@ArchiveTester@@UAGJPB_K@Z$3
56A90 288 ?GetStream@ArchiveTester@@UAGJIPAPAUISequentialOutStream@@H@Z
56C70 288 __catch$?GetStream@ArchiveTester@@UAGJIPAPAUISequentialOutStream@@H@Z$0
56C83 288 __catch$?GetStream@ArchiveTester@@UAGJIPAPAUISequentialOutStream@@H@Z$1
56CC3 288 __catch$?GetStream@ArchiveTester@@UAGJIPAPAUISequentialOutStream@@H@Z$3
56CF0 288 ?SetOperationResult@ArchiveTester@@UAGJH@Z
56D37 288 __catch$?SetOperationResult@ArchiveTester@@UAGJH@Z$0
56D4A 288 __catch$?SetOperationResult@ArchiveTester@@UAGJH@Z$1
56D94 288 __catch$?SetOperationResult@ArchiveTester@@UAGJH@Z$3
56E90 288 ?CryptoGetTextPassword@ArchiveTester@@UAGJPAPA_W@Z
56F63 288 __catch$?CryptoGetTextPassword@ArchiveTester@@UAGJPAPA_W@Z$0
56F76 288 __catch$?CryptoGetTextPassword@ArchiveTester@@UAGJPAPA_W@Z$1
56FB6 288 __catch$?CryptoGetTextPassword@ArchiveTester@@UAGJPAPA_W@Z$3
57030 0 ??_EArchiveTester@@UAEPAXI@Z
57100 288 ?prepare_test@Archive@@AAEXIAAV?$list@IV?$allocator@I@std@@@std@@@Z
57180 288 ?test@Archive@@QAEXIABV?$vector@IV?$allocator@I@std@@@std@@@Z
57545 288 ??_EArchiveTester@@W7AEPAXI@Z
5754D 288 ??_EArchiveTester@@WBA@AEPAXI@Z
57560 289 ?get_error_dlg_title@@YA?AV?$basic_string@_WU?$char_traits@_W@std@@V?$allocator@_W@2@@std@@XZ
575C0 289 ??0ProgressMonitor@@QAE@ABV?$basic_string@_WU?$char_traits@_W@std@@V?$allocator@_W@2@@std@@_N1@Z
57780 0 ??_EProgressMonitor@@UAEPAXI@Z
577B0 289 ??1ProgressMonitor@@UAE@XZ
57940 289 ?display@ProgressMonitor@@AAEXXZ
58020 289 ?update_ui@ProgressMonitor@@QAEX_N@Z
582C0 289 ?handle_esc@ProgressMonitor@@IAEXXZ
585A0 289 ?get_suffixes@@YAPAPB_WH@Z
58890 289 ?dialog_proc@PasswordDialog@@EAEHHHPAX@Z
58910 289 ?show@PasswordDialog@@QAE_NXZ
58C40 0 ??_EPasswordDialog@@UAEPAXI@Z
58C70 289 ??1OverwriteDialog@@UAE@XZ
58CD0 289 ?password_dialog@@YA_NAAV?$basic_string@_WU?$char_traits@_W@std@@V?$allocator@_W@2@@std@@ABV12@@Z
58EB0 289 ?dialog_proc@OverwriteDialog@@EAEHHHPAX@Z
58FA0 289 ?show@OverwriteDialog@@QAE_NXZ
59A60 0 ??_EOverwriteDialog@@UAEPAXI@Z
59A90 289 ?overwrite_dialog@@YA_NABV?$basic_string@_WU?$char_traits@_W@std@@V?$allocator@_W@2@@std@@ABUOverwriteFileInfo@@1W4OverwriteDialogKind@@AAUOverwriteOptions@@@Z
59CF0 289 ?read_controls@ExtractDialog@@AAEXAAUExtractOptions@@@Z
5A310 289 ?dialog_proc@ExtractDialog@@EAEHHHPAX@Z
5A4D0 289 ?show@ExtractDialog@@QAE_NXZ
5B1B0 0 ??_EExtractDialog@@UAEPAXI@Z
5B1E0 289 ??1AttrDialog@@UAE@XZ
5B1F0 289 ?extract_dialog@@YA_NAAUExtractOptions@@@Z
5B3E0 289 ?retry_or_ignore_error@@YAXABUError@@AA_N1AAV?$list@UError@@V?$allocator@UError@@@std@@@std@@AAVProgressMonitor@@_N4@Z
5BC50 289 ?show_error_log@@YAXABV?$list@UError@@V?$allocator@UError@@@std@@@std@@@Z
5CAC0 289 ??8@YA_NABUSfxOptions@@0@Z
5CCA0 289 ??8@YA_NABUProfileOptions@@0@Z
5CDD0 289 ?get_default_ext@UpdateDialog@@ABE?AV?$basic_string@_WU?$char_traits@_W@std@@V?$allocator@_W@2@@std@@XZ
5D020 289 ?change_extension@UpdateDialog@@AAE_NXZ
5D300 289 ?arc_levels@UpdateDialog@@AAE_ND@Z
5D750 289 ?update_level_list@UpdateDialog@@AAEXXZ
5DAC0 289 ?set_control_state@UpdateDialog@@AAEXXZ
5DEC0 289 ?eval_arc_path@UpdateDialog@@AAE?AV?$basic_string@_WU?$char_traits@_W@std@@V?$allocator@_W@2@@std@@XZ
5E4B0 289 ?read_controls@UpdateDialog@@AAEXAAUUpdateOptions@@@Z
5ECC0 289 ?write_controls@UpdateDialog@@AAEXABUProfileOptions@@@Z
5F740 289 ?populate_profile_list@UpdateDialog@@AAEXXZ
5F970 289 ?dialog_proc@UpdateDialog@@EAEHHHPAX@Z
60576 289 __catch$?dialog_proc@UpdateDialog@@EAEHHHPAX@Z$0
60670 289 ??0UpdateDialog@@QAE@_N0AAUUpdateOptions@@AAUUpdateProfiles@@@Z
60970 289 ?show@UpdateDialog@@QAE_NXZ
62E60 0 ??_EUpdateDialog@@UAEPAXI@Z
62E90 289 ??1UpdateDialog@@UAE@XZ
62FB0 289 ?update_dialog@@YA_N_N0AAUUpdateOptions@@AAUUpdateProfiles@@@Z
63040 289 ?estimate_column_widths@MultiSelectDialog@@AAE?AV?$vector@IV?$allocator@I@std@@@std@@ABV?$vector@V?$basic_string@_WU?$char_traits@_W@std@@V?$allocator@_W@2@@std@@V?$allocator@V?$basic_string@_WU?$char_traits@_W@std@@V?$allocator@_W@2@@std@@@2@@3@@Z
63340 289 ?dialog_proc@MultiSelectDialog@@EAEHHHPAX@Z
63510 289 ??0MultiSelectDialog@@QAE@ABV?$basic_string@_WU?$char_traits@_W@std@@V?$allocator@_W@2@@std@@0AAV12@@Z
635C0 289 ?show@MultiSelectDialog@@QAE_NXZ
63A30 0 ??_EMultiSelectDialog@@UAEPAXI@Z
63A60 289 ??1MultiSelectDialog@@UAE@XZ
63AD0 289 ?get_formats@FormatLibraryInfoDialog@@AAE?AV?$basic_string@_WU?$char_traits@_W@std@@V?$allocator@_W@2@@std@@I@Z
63C80 289 ?dialog_proc@FormatLibraryInfoDialog@@EAEHHHPAX@Z
640F0 289 ?show@FormatLibraryInfoDialog@@QAEXXZ
64C20 0 ??_EFormatLibraryInfoDialog@@UAEPAXI@Z
64C60 289 ??1FormatLibraryInfoDialog@@UAE@XZ
64C80 289 ?dialog_proc@SettingsDialog@@EAEHHHPAX@Z
65640 289 ?generate_masks@SettingsDialog@@AAEXXZ
657A0 289 ?get_available_formats@SettingsDialog@@AAE?AV?$basic_string@_WU?$char_traits@_W@std@@V?$allocator@_W@2@@std@@XZ
659D0 289 ?show@SettingsDialog@@QAE_NXZ
66FF0 0 ??_ESettingsDialog@@UAEPAXI@Z
67020 289 ?settings_dialog@@YA_NAAUPluginSettings@@@Z
67270 289 ?dialog_proc@AttrDialog@@EAEHHHPAX@Z
67430 289 ?show@AttrDialog@@QAEXXZ
67550 0 ??_EAttrDialog@@UAEPAXI@Z
67580 289 ??A?$map@HIU?$less@H@std@@V?$allocator@U?$pair@$$CBHI@std@@@2@@std@@QAEAAI$$QAH@Z
67640 289 ?find@?$_Tree@V?$_Tmap_traits@HIU?$less@H@std@@V?$allocator@U?$pair@$$CBHI@std@@@2@$0A@@std@@@std@@QAE?AV?$_Tree_iterator@V?$_Tree_val@U?$_Tree_simple_types@U?$pair@$$CBHI@std@@@std@@@std@@@2@ABH@Z
67690 289 ??1?$vector@UFarListItem@@V?$allocator@UFarListItem@@@std@@@std@@QAE@XZ
676F0 289 ?reset@?$shared_ptr@VFileFilter@Far@@@std@@QAEXXZ
67730 289 ??$?H_WU?$char_traits@_W@std@@V?$allocator@_W@1@@std@@YA?AV?$basic_string@_WU?$char_traits@_W@std@@V?$allocator@_W@2@@0@ABV10@0@Z
67780 289 ??$?H_WU?$char_traits@_W@std@@V?$allocator@_W@1@@std@@YA?AV?$basic_string@_WU?$char_traits@_W@std@@V?$allocator@_W@2@@0@ABV10@$$QAV10@@Z
67800 289 ??$for_each@V?$_List_const_iterator@V?$_List_val@U?$_List_simple_types@V?$basic_string@_WU?$char_traits@_W@std@@V?$allocator@_W@2@@std@@@std@@@std@@@std@@V<lambda_1>@?1???R3?1??generate_masks@SettingsDialog@@AAEXXZ@QBE@ABU?$pair@$$CBV?$vector@EV?$allocator@E@std@@@std@@UArcFormat@@@2@@Z@@std@@YA?AV<lambda_1>@?1???R1?1??generate_masks@SettingsDialog@@AAEXXZ@QBE@ABU?$pair@$$CBV?$vector@EV?$allocator@E@std@@@std@@UArcFormat@@@0@@Z@V?$_List_const_iterator@V?$_List_val@U?$_List_simple_types@V?$basic_string@_WU?$char_traits@_W@std@@V?$allocator@_W@2@@std@@@std@@@std@@@0@1V1?1???R1?1??23@AAEXXZ@QBE@0@Z@@Z
67980 289 ??$_Find_lower_bound@V?$basic_string@_WU?$char_traits@_W@std@@V?$allocator@_W@2@@std@@@?$_Tree@V?$_Tset_traits@V?$basic_string@_WU?$char_traits@_W@std@@V?$allocator@_W@2@@std@@UItemCompare@?1??show@MultiSelectDialog@@QAE_NXZ@V?$allocator@V?$basic_string@_WU?$char_traits@_W@std@@V?$allocator@_W@2@@std@@@2@$0A@@std@@@std@@IBE?AU?$_Tree_find_result@PAU?$_Tree_node@V?$basic_string@_WU?$char_traits@_W@std@@V?$allocator@_W@2@@std@@PAX@std@@@1@ABV?$basic_string@_WU?$char_traits@_W@std@@V?$allocator@_W@2@@1@@Z
67AE0 289 ??$_Reallocate@$0A@@?$vector@UFarListItem@@V?$allocator@UFarListItem@@@std@@@std@@AAEXAAI@Z
67B80 289 ??$_Traits_find_last_of@U?$char_traits@_W@std@@$00@std@@YAIQB_WII0I@Z
67CE0 289 ?_Change_array@?$vector@UFarListItem@@V?$allocator@UFarListItem@@@std@@@std@@AAEXQAUFarListItem@@II@Z
67D50 289 ??$_Sort_unchecked@PAV?$vector@EV?$allocator@E@std@@@std@@V<lambda_2>@?4??show@UpdateDialog@@QAE_NXZ@@std@@YAXPAV?$vector@EV?$allocator@E@std@@@0@0HV<lambda_2>@?4??show@UpdateDialog@@QAE_NXZ@@Z
68010 289 ??$_Insert_range_unchecked@V?$_List_unchecked_const_iterator@V?$_List_val@U?$_List_simple_types@V?$basic_string@_WU?$char_traits@_W@std@@V?$allocator@_W@2@@std@@@std@@@std@@U_Iterator_base0@2@@std@@V12@@?$_Tree@V?$_Tset_traits@V?$basic_string@_WU?$char_traits@_W@std@@V?$allocator@_W@2@@std@@UItemCompare@?1??show@MultiSelectDialog@@QAE_NXZ@V?$allocator@V?$basic_string@_WU?$char_traits@_W@std@@V?$allocator@_W@2@@std@@@2@$0A@@std@@@std@@IAEXV?$_List_unchecked_const_iterator@V?$_List_val@U?$_List_simple_types@V?$basic_string@_WU?$char_traits@_W@std@@V?$allocator@_W@2@@std@@@std@@@std@@U_Iterator_base0@2@@1@V21@@Z
680D0 289 ??$_Assign_counted_range@V?$_List_unchecked_const_iterator@V?$_List_val@U?$_List_simple_types@V?$basic_string@_WU?$char_traits@_W@std@@V?$allocator@_W@2@@std@@@std@@@std@@U_Iterator_base0@2@@std@@@?$vector@V?$basic_string@_WU?$char_traits@_W@std@@V?$allocator@_W@2@@std@@V?$allocator@V?$basic_string@_WU?$char_traits@_W@std@@V?$allocator@_W@2@@std@@@2@@std@@AAEXV?$_List_unchecked_const_iterator@V?$_List_val@U?$_List_simple_types@V?$basic_string@_WU?$char_traits@_W@std@@V?$allocator@_W@2@@std@@@std@@@std@@U_Iterator_base0@2@@1@I@Z
682F0 289 ??$_Sort_unchecked@PAV?$basic_string@_WU?$char_traits@_W@std@@V?$allocator@_W@2@@std@@UItemCompare@?1??show@MultiSelectDialog@@QAE_NXZ@@std@@YAXPAV?$basic_string@_WU?$char_traits@_W@std@@V?$allocator@_W@2@@0@0HUItemCompare@?1??show@MultiSelectDialog@@QAE_NXZ@@Z
685E0 289 ??$_Sort_unchecked@PAV?$basic_string@_WU?$char_traits@_W@std@@V?$allocator@_W@2@@std@@V<lambda_2>@?1??get_available_formats@SettingsDialog@@AAE?AV12@XZ@@std@@YAXPAV?$basic_string@_WU?$char_traits@_W@std@@V?$allocator@_W@2@@0@0HV<lambda_2>@?1??get_available_formats@SettingsDialog@@AAE?AV10@XZ@@Z
688D0 289 ??$_Find_lower_bound@H@?$_Tree@V?$_Tmap_traits@HIU?$less@H@std@@V?$allocator@U?$pair@$$CBHI@std@@@2@$0A@@std@@@std@@IBE?AU?$_Tree_find_result@PAU?$_Tree_node@U?$pair@$$CBHI@std@@PAX@std@@@1@ABH@Z
68920 289 ??$_Emplace_reallocate@ABUFarListItem@@@?$vector@UFarListItem@@V?$allocator@UFarListItem@@@std@@@std@@AAEPAUFarListItem@@QAU2@ABU2@@Z
68A80 289 ?_Destroy@?$_Ref_count@VFileFilter@Far@@@std@@EAEXXZ
68AF0 289 ??1?$_Temporary_owner@VFileFilter@Far@@@std@@QAE@XZ
68B60 289 ??$_Insertion_sort_unchecked@PAV?$vector@EV?$allocator@E@std@@@std@@V<lambda_2>@?4??show@UpdateDialog@@QAE_NXZ@@std@@YAPAV?$vector@EV?$allocator@E@std@@@0@QAV10@0V<lambda_2>@?4??show@UpdateDialog@@QAE_NXZ@@Z
68F80 289 ??$?RV?$vector@EV?$allocator@E@std@@@std@@V01@@<lambda_2>@?4??show@UpdateDialog@@QAE_NXZ@QBE?A_PABV?$vector@EV?$allocator@E@std@@@std@@0@Z
69030 289 ??$_Partition_by_median_guess_unchecked@PAV?$vector@EV?$allocator@E@std@@@std@@V<lambda_2>@?4??show@UpdateDialog@@QAE_NXZ@@std@@YA?AU?$pair@PAV?$vector@EV?$allocator@E@std@@@std@@PAV12@@0@PAV?$vector@EV?$allocator@E@std@@@0@0V<lambda_2>@?4??show@UpdateDialog@@QAE_NXZ@@Z
69850 289 ??$_Uninitialized_copy_n@V?$_List_unchecked_const_iterator@V?$_List_val@U?$_List_simple_types@V?$basic_string@_WU?$char_traits@_W@std@@V?$allocator@_W@2@@std@@@std@@@std@@U_Iterator_base0@2@@std@@V?$allocator@V?$basic_string@_WU?$char_traits@_W@std@@V?$allocator@_W@2@@std@@@2@@std@@YAPAV?$basic_string@_WU?$char_traits@_W@std@@V?$allocator@_W@2@@0@V?$_List_unchecked_const_iterator@V?$_List_val@U?$_List_simple_types@V?$basic_string@_WU?$char_traits@_W@std@@V?$allocator@_W@2@@std@@@std@@@std@@U_Iterator_base0@2@@0@IPAV10@AAV?$allocator@V?$basic_string@_WU?$char_traits@_W@std@@V?$allocator@_W@2@@std@@@0@@Z
698D0 289 ??$_Insertion_sort_unchecked@PAV?$basic_string@_WU?$char_traits@_W@std@@V?$allocator@_W@2@@std@@UItemCompare@?1??show@MultiSelectDialog@@QAE_NXZ@@std@@YAPAV?$basic_string@_WU?$char_traits@_W@std@@V?$allocator@_W@2@@0@QAV10@0UItemCompare@?1??show@MultiSelectDialog@@QAE_NXZ@@Z
69DC0 289 ??$_Partition_by_median_guess_unchecked@PAV?$basic_string@_WU?$char_traits@_W@std@@V?$allocator@_W@2@@std@@UItemCompare@?1??show@MultiSelectDialog@@QAE_NXZ@@std@@YA?AU?$pair@PAV?$basic_string@_WU?$char_traits@_W@std@@V?$allocator@_W@2@@std@@PAV12@@0@PAV?$basic_string@_WU?$char_traits@_W@std@@V?$allocator@_W@2@@0@0UItemCompare@?1??show@MultiSelectDialog@@QAE_NXZ@@Z
6A780 289 ??$_Pop_heap_hole_by_index@PAV?$vector@EV?$allocator@E@std@@@std@@V12@V<lambda_2>@?4??show@UpdateDialog@@QAE_NXZ@@std@@YAXPAV?$vector@EV?$allocator@E@std@@@0@HH$$QAV10@V<lambda_2>@?4??show@UpdateDialog@@QAE_NXZ@@Z
6A950 289 ??$_Find_hint@V?$basic_string@_WU?$char_traits@_W@std@@V?$allocator@_W@2@@std@@@?$_Tree@V?$_Tset_traits@V?$basic_string@_WU?$char_traits@_W@std@@V?$allocator@_W@2@@std@@UItemCompare@?1??show@MultiSelectDialog@@QAE_NXZ@V?$allocator@V?$basic_string@_WU?$char_traits@_W@std@@V?$allocator@_W@2@@std@@@2@$0A@@std@@@std@@IBE?AU?$_Tree_find_hint_result@PAU?$_Tree_node@V?$basic_string@_WU?$char_traits@_W@std@@V?$allocator@_W@2@@std@@PAX@std@@@1@QAU?$_Tree_node@V?$basic_string@_WU?$char_traits@_W@std@@V?$allocator@_W@2@@std@@PAX@1@ABV?$basic_string@_WU?$char_traits@_W@std@@V?$allocator@_W@2@@1@@Z
6AB20 289 ??$_Pop_heap_hole_by_index@PAV?$basic_string@_WU?$char_traits@_W@std@@V?$allocator@_W@2@@std@@V12@UItemCompare@?1??show@MultiSelectDialog@@QAE_NXZ@@std@@YAXPAV?$basic_string@_WU?$char_traits@_W@std@@V?$allocator@_W@2@@0@HH$$QAV10@UItemCompare@?1??show@MultiSelectDialog@@QAE_NXZ@@Z
6AD30 289 ??$_Guess_median_unchecked@PAV?$basic_string@_WU?$char_traits@_W@std@@V?$allocator@_W@2@@std@@UItemCompare@?1??show@MultiSelectDialog@@QAE_NXZ@@std@@YAXPAV?$basic_string@_WU?$char_traits@_W@std@@V?$allocator@_W@2@@0@00UItemCompare@?1??show@MultiSelectDialog@@QAE_NXZ@@Z
6AEE0 289 ??$swap@_WU?$char_traits@_W@std@@V?$allocator@_W@2@@std@@YAXAAV?$basic_string@_WU?$char_traits@_W@std@@V?$allocator@_W@2@@0@0@Z
6AF70 289 ??$_Push_heap_by_index@PAV?$vector@EV?$allocator@E@std@@@std@@V12@V<lambda_2>@?4??show@UpdateDialog@@QAE_NXZ@@std@@YAXPAV?$vector@EV?$allocator@E@std@@@0@HH$$QAV10@V<lambda_2>@?4??show@UpdateDialog@@QAE_NXZ@@Z
6B0F0 289 ??$_Med3_unchecked@PAV?$vector@EV?$allocator@E@std@@@std@@V<lambda_2>@?4??show@UpdateDialog@@QAE_NXZ@@std@@YAXPAV?$vector@EV?$allocator@E@std@@@0@00V<lambda_2>@?4??show@UpdateDialog@@QAE_NXZ@@Z
6B1A0 289 ??$_Push_heap_by_index@PAV?$basic_string@_WU?$char_traits@_W@std@@V?$allocator@_W@2@@std@@V12@UItemCompare@?1??show@MultiSelectDialog@@QAE_NXZ@@std@@YAXPAV?$basic_string@_WU?$char_traits@_W@std@@V?$allocator@_W@2@@0@HH$$QAV10@UItemCompare@?1??show@MultiSelectDialog@@QAE_NXZ@@Z
6B380 290 ??0PropVariant@@QAE@ABV0@@Z
6B3D0 290 ??0PropVariant@@QAE@ABV?$basic_string@_WU?$char_traits@_W@std@@V?$allocator@_W@2@@std@@@Z
6B440 290 ??4PropVariant@@QAEAAV0@ABV?$basic_string@_WU?$char_traits@_W@std@@V?$allocator@_W@2@@std@@@Z
6B4C0 290 ?do_update_ui@ArchiveUpdateProgress@@EAEXXZ
6C1B0 290 ??0ArchiveUpdateProgress@@QAE@_NABV?$basic_string@_WU?$char_traits@_W@std@@V?$allocator@_W@2@@std@@@Z
6C350 290 ?on_write_archive@ArchiveUpdateProgress@@QAEXI@Z
6C400 0 ??_EArchiveUpdateProgress@@UAEPAXI@Z
6C4F0 290 ??0UpdateStream@@QAE@V?$shared_ptr@VArchiveUpdateProgress@@@std@@@Z
6C560 290 ??1UpdateStream@@UAE@XZ
6C5A0 0 ??_EUpdateStream@@UAEPAXI@Z
6C5F0 290 ??0SimpleUpdateStream@@QAE@ABV?$basic_string@_WU?$char_traits@_W@std@@V?$allocator@_W@2@@std@@V?$shared_ptr@VArchiveUpdateProgress@@@2@@Z
6C6EF 290 __catch$??0SimpleUpdateStream@@QAE@ABV?$basic_string@_WU?$char_traits@_W@std@@V?$allocator@_W@2@@std@@V?$shared_ptr@VArchiveUpdateProgress@@@2@@Z$0
6C740 290 ?QueryInterface@MultiVolumeUpdateStream@@UAGJABU_GUID@@PAPAX@Z
6C7F0 290 ?Release@MultiVolumeUpdateStream@@UAGKXZ
6C810 290 ?Write@SfxUpdateStream@@UAGJPBXIPAI@Z
6C893 290 __catch$?Write@SfxUpdateStream@@UAGJPBXIPAI@Z$0
6C8E0 290 __catch$?Write@SfxUpdateStream@@UAGJPBXIPAI@Z$2
6C8F3 290 __catch$?Write@SfxUpdateStream@@UAGJPBXIPAI@Z$3
6C933 290 __catch$?Write@SfxUpdateStream@@UAGJPBXIPAI@Z$5
6C950 290 ?Seek@SimpleUpdateStream@@UAGJ_JIPA_K@Z
6C9F1 290 __catch$?Seek@SimpleUpdateStream@@UAGJ_JIPA_K@Z$0
6CA04 290 __catch$?Seek@SimpleUpdateStream@@UAGJ_JIPA_K@Z$1
6CA44 290 __catch$?Seek@SimpleUpdateStream@@UAGJ_JIPA_K@Z$3
6CA80 290 ?SetSize@SimpleUpdateStream@@UAGJ_K@Z
6CAF4 290 __catch$?SetSize@SimpleUpdateStream@@UAGJ_K@Z$0
6CB3E 290 __catch$?SetSize@SimpleUpdateStream@@UAGJ_K@Z$2
6CB51 290 __catch$?SetSize@SimpleUpdateStream@@UAGJ_K@Z$3
6CB91 290 __catch$?SetSize@SimpleUpdateStream@@UAGJ_K@Z$5
6CBE0 290 ?clean_files@SfxUpdateStream@@UAEXXZ
6CC90 0 ??_ESimpleUpdateStream@@UAEPAXI@Z
6CCF0 290 ??0SfxUpdateStream@@QAE@ABV?$basic_string@_WU?$char_traits@_W@std@@V?$allocator@_W@2@@std@@ABUSfxOptions@@V?$shared_ptr@VArchiveUpdateProgress@@@2@@Z
6CE0B 290 __catch$??0SfxUpdateStream@@QAE@ABV?$basic_string@_WU?$char_traits@_W@std@@V?$allocator@_W@2@@std@@ABUSfxOptions@@V?$shared_ptr@VArchiveUpdateProgress@@@2@@Z$2
6CE55 290 __catch$??0SfxUpdateStream@@QAE@ABV?$basic_string@_WU?$char_traits@_W@std@@V?$allocator@_W@2@@std@@ABUSfxOptions@@V?$shared_ptr@VArchiveUpdateProgress@@@2@@Z$0
6CE70 290 ?Seek@SfxUpdateStream@@UAGJ_JIPA_K@Z
6CF3D 290 __catch$?Seek@SfxUpdateStream@@UAGJ_JIPA_K@Z$0
6CF50 290 __catch$?Seek@SfxUpdateStream@@UAGJ_JIPA_K@Z$1
6CF90 290 __catch$?Seek@SfxUpdateStream@@UAGJ_JIPA_K@Z$3
6D000 290 ?SetSize@SfxUpdateStream@@UAGJ_K@Z
6D07D 290 __catch$?SetSize@SfxUpdateStream@@UAGJ_K@Z$0
6D0C7 290 __catch$?SetSize@SfxUpdateStream@@UAGJ_K@Z$2
6D0DA 290 __catch$?SetSize@SfxUpdateStream@@UAGJ_K@Z$3
6D11A 290 __catch$?SetSize@SfxUpdateStream@@UAGJ_K@Z$5
6D170 0 ??_ESfxUpdateStream@@UAEPAXI@Z
6D1D0 290 ?get_volume_path@MultiVolumeUpdateStream@@AAE?AV?$basic_string@_WU?$char_traits@_W@std@@V?$allocator@_W@2@@std@@_K@Z
6D480 290 ?get_last_volume_idx@MultiVolumeUpdateStream@@AAE_KXZ
6D4B0 290 ??0MultiVolumeUpdateStream@@QAE@ABV?$basic_string@_WU?$char_traits@_W@std@@V?$allocator@_W@2@@std@@_KV?$shared_ptr@VArchiveUpdateProgress@@@2@@Z
6D622 290 __catch$??0MultiVolumeUpdateStream@@QAE@ABV?$basic_string@_WU?$char_traits@_W@std@@V?$allocator@_W@2@@std@@_KV?$shared_ptr@VArchiveUpdateProgress@@@2@@Z$0
6D670 290 ?Write@MultiVolumeUpdateStream@@UAGJPBXIPAI@Z
6D800 290 __catch$?Write@MultiVolumeUpdateStream@@UAGJPBXIPAI@Z$0
6D8A6 290 __catch$?Write@MultiVolumeUpdateStream@@UAGJPBXIPAI@Z$2
6D9D1 290 __catch$?Write@MultiVolumeUpdateStream@@UAGJPBXIPAI@Z$6
6DA98 290 __catch$?Write@MultiVolumeUpdateStream@@UAGJPBXIPAI@Z$8
6DB68 290 __catch$?Write@MultiVolumeUpdateStream@@UAGJPBXIPAI@Z$10
6DBBB 290 __catch$?Write@MultiVolumeUpdateStream@@UAGJPBXIPAI@Z$4
6DC0E 290 __catch$?Write@MultiVolumeUpdateStream@@UAGJPBXIPAI@Z$12
6DC24 290 __catch$?Write@MultiVolumeUpdateStream@@UAGJPBXIPAI@Z$13
6DC7A 290 __catch$?Write@MultiVolumeUpdateStream@@UAGJPBXIPAI@Z$15
6DD10 290 ?Seek@MultiVolumeUpdateStream@@UAGJ_JIPA_K@Z
6DDAB 290 __catch$?Seek@MultiVolumeUpdateStream@@UAGJ_JIPA_K@Z$0
6DDBE 290 __catch$?Seek@MultiVolumeUpdateStream@@UAGJ_JIPA_K@Z$1
6DDFE 290 __catch$?Seek@MultiVolumeUpdateStream@@UAGJ_JIPA_K@Z$3
6DEB0 290 ?SetSize@MultiVolumeUpdateStream@@UAGJ_K@Z
6E020 290 __catch$?SetSize@MultiVolumeUpdateStream@@UAGJ_K@Z$0
6E180 290 __catch$?SetSize@MultiVolumeUpdateStream@@UAGJ_K@Z$2
6E1DC 290 __catch$?SetSize@MultiVolumeUpdateStream@@UAGJ_K@Z$4
6E1EF 290 __catch$?SetSize@MultiVolumeUpdateStream@@UAGJ_K@Z$5
6E242 290 __catch$?SetSize@MultiVolumeUpdateStream@@UAGJ_K@Z$7
6E2A0 290 ?clean_files@MultiVolumeUpdateStream@@UAEXXZ
6E400 0 ??_EMultiVolumeUpdateStream@@UAEPAXI@Z
6E4B0 290 ?QueryInterface@FileReadStream@@UAGJABU_GUID@@PAPAX@Z
6E5A0 290 ?Read@FileReadStream@@UAGJPAXIPAI@Z
6E69B 290 __catch$?Read@FileReadStream@@UAGJPAXIPAI@Z$0
6E6AE 290 __catch$?Read@FileReadStream@@UAGJPAXIPAI@Z$1
6E6EE 290 __catch$?Read@FileReadStream@@UAGJPAXIPAI@Z$3
6E740 290 ?Seek@FileReadStream@@UAGJ_JIPA_K@Z
6E7E1 290 __catch$?Seek@FileReadStream@@UAGJ_JIPA_K@Z$0
6E7F4 290 __catch$?Seek@FileReadStream@@UAGJ_JIPA_K@Z$1
6E834 290 __catch$?Seek@FileReadStream@@UAGJ_JIPA_K@Z$3
6E870 290 ?GetSize@FileReadStream@@UAGJPA_K@Z
6E8D7 290 __catch$?GetSize@FileReadStream@@UAGJPA_K@Z$0
6E8EA 290 __catch$?GetSize@FileReadStream@@UAGJPA_K@Z$1
6E92A 290 __catch$?GetSize@FileReadStream@@UAGJPA_K@Z$3
6E970 0 ??_EFileReadStream@@UAEPAXI@Z
6E9D0 290 ?do_update_ui@PrepareUpdate@@EAEXXZ
6EBC0 290 ?process_file@PrepareUpdate@@AAE_NABV?$basic_string@_WU?$char_traits@_W@std@@V?$allocator@_W@2@@std@@ABUFindData@@IAAI@Z
6F120 290 ??R<lambda_1>@?1??process_file@PrepareUpdate@@AAE_NABV?$basic_string@_WU?$char_traits@_W@std@@V?$allocator@_W@2@@std@@ABUFindData@@IAAI@Z@QBE_NII@Z
6F1A0 290 ?process_file_enum@PrepareUpdate@@AAE_NAAVFileEnum@@ABV?$basic_string@_WU?$char_traits@_W@std@@V?$allocator@_W@2@@std@@I@Z
6F670 290 __catch$?process_file_enum@PrepareUpdate@@AAE_NAAVFileEnum@@ABV?$basic_string@_WU?$char_traits@_W@std@@V?$allocator@_W@2@@std@@I@Z$0
6F710 290 ??0PrepareUpdate@@QAE@ABV?$basic_string@_WU?$char_traits@_W@std@@V?$allocator@_W@2@@std@@ABV?$vector@V?$basic_string@_WU?$char_traits@_W@std@@V?$allocator@_W@2@@std@@V?$allocator@V?$basic_string@_WU?$char_traits@_W@std@@V?$allocator@_W@2@@std@@@2@@2@IAAVArchive@@AAV?$map@IUFileIndexInfo@@U?$less@I@std@@V?$allocator@U?$pair@$$CBIUFileIndexInfo@@@std@@@3@@2@AAIW4OverwriteAction@@AA_NAAV?$list@UError@@V?$allocator@UError@@@std@@@2@PAVFileFilter@Far@@6@Z
6FAE0 290 ??1DirList@@QAE@XZ
6FAF0 0 ??_EPrepareUpdate@@UAEPAXI@Z
6FB20 290 ??0ArchiveUpdater@@QAE@ABV?$basic_string@_WU?$char_traits@_W@std@@V?$allocator@_W@2@@std@@0IV?$shared_ptr@V?$map@IUFileIndexInfo@@U?$less@I@std@@V?$allocator@U?$pair@$$CBIUFileIndexInfo@@@std@@@3@@std@@@2@ABUUpdateOptions@@V?$shared_ptr@_N@2@V?$shared_ptr@V?$list@UError@@V?$allocator@UError@@@std@@@std@@@2@V?$shared_ptr@VArchiveUpdateProgress@@@2@@Z
6FCF0 290 ?QueryInterface@ArchiveUpdater@@UAGJABU_GUID@@PAPAX@Z
6FDE0 290 ?SetTotal@ArchiveUpdater@@UAGJ_K@Z
6FEE8 290 __catch$?SetTotal@ArchiveUpdater@@UAGJ_K@Z$0
6FEFB 290 __catch$?SetTotal@ArchiveUpdater@@UAGJ_K@Z$1
6FF49 290 __catch$?SetTotal@ArchiveUpdater@@UAGJ_K@Z$3
6FF60 290 ?SetCompleted@ArchiveUpdater@@UAGJPB_K@Z
70067 290 __catch$?SetCompleted@ArchiveUpdater@@UAGJPB_K@Z$0
7007A 290 __catch$?SetCompleted@ArchiveUpdater@@UAGJPB_K@Z$1
700C8 290 __catch$?SetCompleted@ArchiveUpdater@@UAGJPB_K@Z$3
70100 290 ?GetUpdateItemInfo@ArchiveUpdater@@UAGJIPAH0PAI@Z
701B0 290 ?GetProperty@ArchiveUpdater@@UAGJIKPAUtagPROPVARIANT@@@Z
7036E 290 __catch$?GetProperty@ArchiveUpdater@@UAGJIKPAUtagPROPVARIANT@@@Z$0
70384 290 __catch$?GetProperty@ArchiveUpdater@@UAGJIKPAUtagPROPVARIANT@@@Z$1
703D1 290 __catch$?GetProperty@ArchiveUpdater@@UAGJIKPAUtagPROPVARIANT@@@Z$3
70414 290 $LN74
70440 290 ?GetStream@ArchiveUpdater@@UAGJIPAPAUISequentialInStream@@@Z
707FF 290 __catch$?GetStream@ArchiveUpdater@@UAGJIPAPAUISequentialInStream@@@Z$0
708AB 290 __catch$?GetStream@ArchiveUpdater@@UAGJIPAPAUISequentialInStream@@@Z$2
708C1 290 __catch$?GetStream@ArchiveUpdater@@UAGJIPAPAUISequentialInStream@@@Z$3
7090E 290 __catch$?GetStream@ArchiveUpdater@@UAGJIPAPAUISequentialInStream@@@Z$5
70940 290 ?SetOperationResult@ArchiveUpdater@@UAGJH@Z
709D7 290 __catch$?SetOperationResult@ArchiveUpdater@@UAGJH@Z$0
709EA 290 __catch$?SetOperationResult@ArchiveUpdater@@UAGJH@Z$1
70A42 290 __catch$?SetOperationResult@ArchiveUpdater@@UAGJH@Z$3
70A90 290 ?CryptoGetTextPassword2@ArchiveUpdater@@UAGJPAHPAPA_W@Z
70B43 290 __catch$?CryptoGetTextPassword2@ArchiveUpdater@@UAGJPAHPAPA_W@Z$0
70B56 290 __catch$?CryptoGetTextPassword2@ArchiveUpdater@@UAGJPAHPAPA_W@Z$1
70BA4 290 __catch$?CryptoGetTextPassword2@ArchiveUpdater@@UAGJPAHPAPA_W@Z$3
70C00 0 ??_EArchiveUpdater@@UAEPAXI@Z
70C30 290 ??1ArchiveUpdater@@UAE@XZ
70D80 290 ?set_properties@Archive@@AAEXPAUIOutArchive@@ABUUpdateOptions@@@Z
73500 290 ??$?RP6A_KPB_WPAPA_WH@Z@<lambda_3>@?4??set_properties@Archive@@AAEXPAUIOutArchive@@ABUUpdateOptions@@@Z@QBE?A_PABV?$basic_string@_WU?$char_traits@_W@std@@V?$allocator@_W@2@@std@@P6A_KPB_WPAPA_WH@ZAAVPropVariant@@@Z
73580 290 ??$?RP6A_JPB_WPAPA_WH@Z@<lambda_3>@?4??set_properties@Archive@@AAEXPAUIOutArchive@@ABUUpdateOptions@@@Z@QBE?A_PABV?$basic_string@_WU?$char_traits@_W@std@@V?$allocator@_W@2@@std@@P6A_JPB_WPAPA_WH@ZAAVPropVariant@@@Z
73600 290 ?do_update_ui@DeleteSrcFiles@@EAEXXZ
737F0 290 ?delete_src_file@DeleteSrcFiles@@AAEXABV?$basic_string@_WU?$char_traits@_W@std@@V?$allocator@_W@2@@std@@@Z
73857 290 __catch$?delete_src_file@DeleteSrcFiles@@AAEXABV?$basic_string@_WU?$char_traits@_W@std@@V?$allocator@_W@2@@std@@@Z$0
7387D 290 __catch$?delete_src_file@DeleteSrcFiles@@AAEXABV?$basic_string@_WU?$char_traits@_W@std@@V?$allocator@_W@2@@std@@@Z$2
738D0 290 ?delete_src_dir@DeleteSrcFiles@@AAEXABV?$basic_string@_WU?$char_traits@_W@std@@V?$allocator@_W@2@@std@@@Z
73B10 290 __catch$?delete_src_dir@DeleteSrcFiles@@AAEXABV?$basic_string@_WU?$char_traits@_W@std@@V?$allocator@_W@2@@std@@@Z$0
73B3F 290 __catch$?delete_src_dir@DeleteSrcFiles@@AAEXABV?$basic_string@_WU?$char_traits@_W@std@@V?$allocator@_W@2@@std@@@Z$2
73BA0 290 ??0DeleteSrcFiles@@QAE@ABV?$basic_string@_WU?$char_traits@_W@std@@V?$allocator@_W@2@@std@@ABV?$vector@V?$basic_string@_WU?$char_traits@_W@std@@V?$allocator@_W@2@@std@@V?$allocator@V?$basic_string@_WU?$char_traits@_W@std@@V?$allocator@_W@2@@std@@@2@@2@AA_NAAV?$list@UError@@V?$allocator@UError@@@std@@@2@@Z
73EA0 290 ?create@Archive@@QAEXABV?$basic_string@_WU?$char_traits@_W@std@@V?$allocator@_W@2@@std@@ABV?$vector@V?$basic_string@_WU?$char_traits@_W@std@@V?$allocator@_W@2@@std@@V?$allocator@V?$basic_string@_WU?$char_traits@_W@std@@V?$allocator@_W@2@@std@@@2@@3@ABUUpdateOptions@@V?$shared_ptr@V?$list@UError@@V?$allocator@UError@@@std@@@std@@@3@@Z
74772 290 __catch$?create@Archive@@QAEXABV?$basic_string@_WU?$char_traits@_W@std@@V?$allocator@_W@2@@std@@ABV?$vector@V?$basic_string@_WU?$char_traits@_W@std@@V?$allocator@_W@2@@std@@V?$allocator@V?$basic_string@_WU?$char_traits@_W@std@@V?$allocator@_W@2@@std@@@2@@3@ABUUpdateOptions@@V?$shared_ptr@V?$list@UError@@V?$allocator@UError@@@std@@@std@@@3@@Z$0
74790 290 ?update@Archive@@QAEXABV?$basic_string@_WU?$char_traits@_W@std@@V?$allocator@_W@2@@std@@ABV?$vector@V?$basic_string@_WU?$char_traits@_W@std@@V?$allocator@_W@2@@std@@V?$allocator@V?$basic_string@_WU?$char_traits@_W@std@@V?$allocator@_W@2@@std@@@2@@3@0ABUUpdateOptions@@V?$shared_ptr@V?$list@UError@@V?$allocator@UError@@@std@@@std@@@3@@Z
7500F 290 __catch$?update@Archive@@QAEXABV?$basic_string@_WU?$char_traits@_W@std@@V?$allocator@_W@2@@std@@ABV?$vector@V?$basic_string@_WU?$char_traits@_W@std@@V?$allocator@_W@2@@std@@V?$allocator@V?$basic_string@_WU?$char_traits@_W@std@@V?$allocator@_W@2@@std@@@2@@3@0ABUUpdateOptions@@V?$shared_ptr@V?$list@UError@@V?$allocator@UError@@@std@@@std@@@3@@Z$0
750E0 290 ?create_dir@Archive@@QAEXABV?$basic_string@_WU?$char_traits@_W@std@@V?$allocator@_W@2@@std@@0@Z
75927 290 __catch$?create_dir@Archive@@QAEXABV?$basic_string@_WU?$char_traits@_W@std@@V?$allocator@_W@2@@std@@0@Z$0
759B0 290 ?push_back@?$vector@VPropVariant@@V?$allocator@VPropVariant@@@std@@@std@@QAEX$$QAVPropVariant@@@Z
75A10 290 ??1?$vector@VPropVariant@@V?$allocator@VPropVariant@@@std@@@std@@QAE@XZ
75A70 290 ??A?$map@IUFileIndexInfo@@U?$less@I@std@@V?$allocator@U?$pair@$$CBIUFileIndexInfo@@@std@@@3@@std@@QAEAAUFileIndexInfo@@ABI@Z
75B60 290 ?erase@?$_Tree@V?$_Tmap_traits@IUFileIndexInfo@@U?$less@I@std@@V?$allocator@U?$pair@$$CBIUFileIndexInfo@@@std@@@3@$0A@@std@@@std@@QAEIABI@Z
75CA0 290 ??6?$basic_ostream@_WU?$char_traits@_W@std@@@std@@QAEAAV01@I@Z
75DB5 290 __catch$??6?$basic_ostream@_WU?$char_traits@_W@std@@@std@@QAEAAV01@I@Z$0
75E60 290 ?deallocate@?$allocator@VPropVariant@@@std@@QAEXQAVPropVariant@@I@Z
75EA0 290 ?_Extract@?$_Tree_val@U?$_Tree_simple_types@U?$pair@$$CBIUFileIndexInfo@@@std@@@std@@@std@@QAEPAU?$_Tree_node@U?$pair@$$CBIUFileIndexInfo@@@std@@PAX@2@V?$_Tree_unchecked_const_iterator@V?$_Tree_val@U?$_Tree_simple_types@U?$pair@$$CBIUFileIndexInfo@@@std@@@std@@@std@@U_Iterator_base0@2@@2@@Z
761C0 290 ?_Rrotate@?$_Tree_val@U?$_Tree_simple_types@U?$pair@$$CBIUFileIndexInfo@@@std@@@std@@@std@@QAEXPAU?$_Tree_node@U?$pair@$$CBIUFileIndexInfo@@@std@@PAX@2@@Z
76220 290 ?_Lrotate@?$_Tree_val@U?$_Tree_simple_types@U?$pair@$$CBIUFileIndexInfo@@@std@@@std@@@std@@QAEXPAU?$_Tree_node@U?$pair@$$CBIUFileIndexInfo@@@std@@PAX@2@@Z
76280 290 ??$equal_range@V?$_Vector_iterator@V?$_Vector_val@U?$_Simple_types@I@std@@@std@@@std@@HV<lambda_1>@?1??process_file@PrepareUpdate@@AAE_NABV?$basic_string@_WU?$char_traits@_W@std@@V?$allocator@_W@2@@2@ABUFindData@@IAAI@Z@@std@@YA?AU?$pair@V?$_Vector_iterator@V?$_Vector_val@U?$_Simple_types@I@std@@@std@@@std@@V12@@0@V?$_Vector_iterator@V?$_Vector_val@U?$_Simple_types@I@std@@@std@@@0@0ABHV<lambda_1>@?1??process_file@PrepareUpdate@@AAE_NABV?$basic_string@_WU?$char_traits@_W@std@@V?$allocator@_W@2@@0@ABUFindData@@IAAI@Z@@Z
76480 290 ??$make_shared@V?$map@IUFileIndexInfo@@U?$less@I@std@@V?$allocator@U?$pair@$$CBIUFileIndexInfo@@@std@@@3@@std@@$$V@std@@YA?AV?$shared_ptr@V?$map@IUFileIndexInfo@@U?$less@I@std@@V?$allocator@U?$pair@$$CBIUFileIndexInfo@@@std@@@3@@std@@@0@XZ
76520 290 ??$_Destroy_range@V?$allocator@VPropVariant@@@std@@@std@@YAXPAVPropVariant@@QAV1@AAV?$allocator@VPropVariant@@@0@@Z
765C0 290 ??$_Erase_tree@V?$allocator@U?$_Tree_node@U?$pair@$$CBIUFileIndexInfo@@@std@@PAX@std@@@std@@@?$_Tree_val@U?$_Tree_simple_types@U?$pair@$$CBIUFileIndexInfo@@@std@@@std@@@std@@QAEXAAV?$allocator@U?$_Tree_node@U?$pair@$$CBIUFileIndexInfo@@@std@@PAX@std@@@1@PAU?$_Tree_node@U?$pair@$$CBIUFileIndexInfo@@@std@@PAX@1@@Z
76660 290 ??$_Freenode@V?$allocator@U?$_Tree_node@U?$pair@$$CBIUFileIndexInfo@@@std@@PAX@std@@@std@@@?$_Tree_node@U?$pair@$$CBIUFileIndexInfo@@@std@@PAX@std@@SAXAAV?$allocator@U?$_Tree_node@U?$pair@$$CBIUFileIndexInfo@@@std@@PAX@std@@@1@PAU01@@Z
766D0 290 ?_Destroy@?$_Ref_count_obj2@V?$map@IUFileIndexInfo@@U?$less@I@std@@V?$allocator@U?$pair@$$CBIUFileIndexInfo@@@std@@@3@@std@@@std@@EAEXXZ
76700 0 ??_E?$_Ref_count_obj2@VArchiveUpdateProgress@@@std@@UAEPAXI@Z
76730 0 ??_E?$_Ref_count_obj2@V?$map@IUFileIndexInfo@@U?$less@I@std@@V?$allocator@U?$pair@$$CBIUFileIndexInfo@@@std@@@3@@std@@@std@@UAEPAXI@Z
76760 290 ??1?$_Alloc_construct_ptr@V?$allocator@U?$_Tree_node@U?$pair@$$CBIUFileIndexInfo@@@std@@PAX@std@@@std@@@std@@QAE@XZ
76780 290 ??$_Emplace_reallocate@AAV?$basic_string@_WU?$char_traits@_W@std@@V?$allocator@_W@2@@std@@@?$vector@VPropVariant@@V?$allocator@VPropVariant@@@std@@@std@@AAEPAVPropVariant@@QAV2@AAV?$basic_string@_WU?$char_traits@_W@std@@V?$allocator@_W@2@@1@@Z
768EE 290 __catch$??$_Emplace_reallocate@AAV?$basic_string@_WU?$char_traits@_W@std@@V?$allocator@_W@2@@std@@@?$vector@VPropVariant@@V?$allocator@VPropVariant@@@std@@@std@@AAEPAVPropVariant@@QAV2@AAV?$basic_string@_WU?$char_traits@_W@std@@V?$allocator@_W@2@@1@@Z$0
76920 290 ??$_Emplace_reallocate@VPropVariant@@@?$vector@VPropVariant@@V?$allocator@VPropVariant@@@std@@@std@@AAEPAVPropVariant@@QAV2@$$QAV2@@Z
76AB0 290 __catch$??$_Emplace_reallocate@VPropVariant@@@?$vector@VPropVariant@@V?$allocator@VPropVariant@@@std@@@std@@AAEPAVPropVariant@@QAV2@$$QAV2@@Z$0
76AE0 290 ?_Change_array@?$vector@VPropVariant@@V?$allocator@VPropVariant@@@std@@@std@@AAEXQAVPropVariant@@II@Z
76B50 290 ??$construct@VPropVariant@@AAV?$basic_string@_WU?$char_traits@_W@std@@V?$allocator@_W@2@@std@@@?$_Default_allocator_traits@V?$allocator@VPropVariant@@@std@@@std@@SAXAAV?$allocator@VPropVariant@@@1@QAVPropVariant@@AAV?$basic_string@_WU?$char_traits@_W@std@@V?$allocator@_W@2@@1@@Z
76BC0 290 ??$_Uninitialized_copy@PAVPropVariant@@PAV1@V?$allocator@VPropVariant@@@std@@@std@@YAPAVPropVariant@@PAV1@00AAV?$allocator@VPropVariant@@@0@@Z
76C70 290 ??1?$_Uninitialized_backout_al@V?$allocator@VPropVariant@@@std@@@std@@QAE@XZ
76C7D 290 ?Release@MultiVolumeUpdateStream@@WM@AGKXZ
76C87 290 ??_ESimpleUpdateStream@@WM@AEPAXI@Z
76C8F 290 ?QueryInterface@MultiVolumeUpdateStream@@WM@AGJABU_GUID@@PAPAX@Z
76C99 290 ??_ESfxUpdateStream@@WM@AEPAXI@Z
76CA1 290 ?QueryInterface@ArchiveUpdater@@W3AGJABU_GUID@@PAPAX@Z
76CAB 290 ?QueryInterface@ArchiveUpdater@@W7AGJABU_GUID@@PAPAX@Z
76CB5 290 ?QueryInterface@FileReadStream@@W3AGJABU_GUID@@PAPAX@Z
76CBF 290 ??_EArchiveUpdater@@W7AEPAXI@Z
76CC7 290 ??_EFileReadStream@@W7AEPAXI@Z
76CCF 290 ?QueryInterface@FileReadStream@@W7AGJABU_GUID@@PAPAX@Z
76CD9 290 ??_EMultiVolumeUpdateStream@@WM@AEPAXI@Z
76CF0 294 _Wrapper_EncodePointer@4
76D40 294 ?impl@implementation@?1??Wrapper_DecodePointer@@YGPAXPAX@Z@SGPAX0@Z
76DB0 294 _Wrapper_DecodePointer@4
76E00 294 _Wrapper_GetModuleHandleExW@12
76E50 294 ?impl@implementation@?1??Wrapper_GetModuleHandleExW@@YGHKPB_WPAPAUHINSTANCE__@@@Z@SGHK01@Z
76F20 294 _Wrapper_InitializeSListHead@4
76F70 294 ?impl@implementation@?1??Wrapper_InitializeSListHead@@YGXPAT_SLIST_HEADER@@@Z@SGX0@Z
76F90 294 _Wrapper_InterlockedFlushSList@4
76FE0 294 ?impl@implementation@?1??Wrapper_InterlockedFlushSList@@YGPAU_SINGLE_LIST_ENTRY@@PAT_SLIST_HEADER@@@Z@SGPAU3@0@Z
77050 294 _Wrapper_InterlockedPushEntrySList@8
770A0 294 ?impl@implementation@?1??Wrapper_InterlockedPushEntrySList@@YGPAU_SINGLE_LIST_ENTRY@@PAT_SLIST_HEADER@@PAU3@@Z@SGPAU3@01@Z
77100 294 _Wrapper_GetNumaHighestNodeNumber@4
77150 294 ?impl@implementation@?1??Wrapper_GetNumaHighestNodeNumber@@YGHPAK@Z@SGH0@Z
77170 294 _Wrapper_GetLogicalProcessorInformation@8
771C0 294 ?impl@implementation@?1??Wrapper_GetLogicalProcessorInformation@@YGHPAU_SYSTEM_LOGICAL_PROCESSOR_INFORMATION@@PAK@Z@SGH01@Z
771D0 294 _Wrapper_SetThreadStackGuarantee@4
77220 294 ?impl@implementation@?1??Wrapper_SetThreadStackGuarantee@@YGHPAK@Z@SGH0@Z
77230 294 _Wrapper_InitializeCriticalSectionEx@12
77280 294 ?impl@implementation@?1??Wrapper_InitializeCriticalSectionEx@@YGHPAU_RTL_CRITICAL_SECTION@@KK@Z@SGH0KK@Z
772B0 294 _Wrapper_CompareStringEx@36
77300 294 ?impl@implementation@?1??Wrapper_CompareStringEx@@YGHPB_WK0H0HPAU_nlsversioninfo@@PAXJ@Z@SGH0K0H0H12J@Z
77360 294 _Wrapper_LCMapStringEx@36
773B0 294 ?impl@implementation@?1??Wrapper_LCMapStringEx@@YGHPB_WK0HPA_WHPAU_nlsversioninfo@@PAXJ@Z@SGH0K0H1H23J@Z
77410 294 _Wrapper_SleepConditionVariableSRW@16
77460 294 ?impl@implementation@?1??Wrapper_SleepConditionVariableSRW@@YGHPAU_RTL_CONDITION_VARIABLE@@PAU_RTL_SRWLOCK@@KK@Z@SGH01KK@Z
77470 294 _Wrapper_WakeAllConditionVariable@4
774C0 294 ?impl@implementation@?1??Wrapper_AcquireSRWLockExclusive@@YGXPAU_RTL_SRWLOCK@@@Z@SGX0@Z
774D0 294 _Wrapper_AcquireSRWLockExclusive@4
77520 294 _Wrapper_ReleaseSRWLockExclusive@4
77570 294 _Wrapper_TryAcquireSRWLockExclusive@4
775C0 294 ?impl@implementation@?1??Wrapper_TryAcquireSRWLockExclusive@@YGEPAU_RTL_SRWLOCK@@@Z@SGE0@Z
775D0 294 _Wrapper_InitializeSRWLock@4
77620 294 ?impl@implementation@?1??Wrapper_InitializeSRWLock@@YGXPAU_RTL_SRWLOCK@@@Z@SGX0@Z
77630 294 _Wrapper_FlsAlloc@4
77680 294 ?impl@implementation@?1??Wrapper_FlsAlloc@@YGKP6GXPAX@Z@Z@SGK1@Z
77690 294 _Wrapper_FlsGetValue@4
776E0 294 ?impl@implementation@?1??Wrapper_FlsGetValue@@YGPAXK@Z@SGPAXK@Z
776F0 294 _Wrapper_FlsSetValue@8
77740 294 ?impl@implementation@?1??Wrapper_FlsSetValue@@YGHKPAX@Z@SGHK0@Z
77750 294 _Wrapper_FlsFree@4
777A0 294 ?impl@implementation@?1??Wrapper_FlsFree@@YGHK@Z@SGHK@Z
777B0 81 ??0bad_alloc@std@@QAE@XZ
777C8 81 ??0length_error@std@@QAE@ABV01@@Z
777E3 81 ??0length_error@std@@QAE@PBD@Z
77802 81 ??0logic_error@std@@QAE@ABV01@@Z
7781D 81 ??0out_of_range@std@@QAE@ABV01@@Z
77838 81 ??0out_of_range@std@@QAE@PBD@Z
77857 81 ??0runtime_error@std@@QAE@PBD@Z
77876 265 ??_E__non_rtti_object@std@@UAEPAXI@Z
778A3 81 ?_Xbad_alloc@std@@YAXXZ
778C0 81 ?_Xlength_error@std@@YAXPBD@Z
778E0 81 ?_Xout_of_range@std@@YAXPBD@Z
77900 81 ?_Xruntime_error@std@@YAXPBD@Z
77920 72 ??$__std_find_trivial_impl@U_Find_traits_4@?A0x8417fefe@@I@?A0x8417fefe@@YGPBXPBX0I@Z
77A10 72 ___std_find_trivial_4@12
77A19 64 ?setw@std@@YA?AU?$_Smanip@_J@1@_J@Z
77A33 64 ?swfun@std@@YAXAAVios_base@1@_J@Z
77A47 65 ?_Callfns@ios_base@std@@AAEXW4event@12@@Z
77A7A 65 ?_Ios_base_dtor@ios_base@std@@CAXPAV12@@Z
77ABA 65 ?_Tidy@ios_base@std@@AAEXXZ
77B35 68 ??0_Locimp@locale@std@@AAE@_N@Z
77B76 68 ??1_Fac_node@std@@QAE@XZ
77BA7 68 ??1_Fac_tidy_reg_t@std@@QAE@XZ
77BCE 68 ??1_Locimp@locale@std@@MAE@XZ
77BF9 68 ??4?$_Yarn@D@std@@QAEAAV01@PBD@Z
77C4D 68 ??_E_Locimp@locale@std@@MAEPAXI@Z
77C6F 68 ?_Facet_Register@std@@YAXPAV_Facet_base@1@@Z
77C9B 68 ?_Getgloballocale@locale@std@@CAPAV_Locimp@12@XZ
77CA1 68 ?_Init@locale@std@@CAPAV_Locimp@12@_N@Z
77D2E 68 ?_Locimp_dtor@_Locimp@locale@std@@CAXPAV123@@Z
77D9F 68 ?_Locinfo_ctor@_Locinfo@std@@SAXPAV12@PBD@Z
77DEA 68 ?_Locinfo_dtor@_Locinfo@std@@SAXPAV12@@Z
77E04 68 ?_New_Locimp@_Locimp@locale@std@@CAPAV123@_N@Z
77E27 68 ?_Setgloballocale@locale@std@@CAXPAX@Z
77E4F 68 __Deletegloballocale
77E8A 68 _tidy_global
77EB4 69 ?_Syserror_map@std@@YAPBDH@Z
77ED9 77 __Mbrtowc
7800B 77 __Utf8_trailing_byte_count
78062 76 ??0_Init_locks@std@@QAE@XZ
7808F 76 ??0_Lockit@std@@QAE@H@Z
780C0 76 ??1_Init_locks@std@@QAE@XZ
780E7 76 ??1_Lockit@std@@QAE@XZ
78106 84 __Getcvt
78179 84 __Wcrtomb
781D5 62 __Getctype
78240 83 __Towupper
782A4 82 __Towlower
78304 74 __Getwctype
78324 74 __Getwctypes
78343 71 ?uncaught_exceptions@std@@YAHXZ
78348 66 ??1_Init_atexit@@QAE@XZ
783B0 66 ?_Atexit@@YAXP6AXXZ@Z
783DF 78 __Mtxdst
783ED 78 __Mtxinit
78402 78 __Mtxlock
78410 78 __Mtxunlock
7841E 60 __freea_crt
7843C 61 ___crtLCMapStringW
78479 34 @__security_check_cookie@4
78487 11 ??3@YAXPAXI@Z
78495 10 ??3@YAXPAX@Z
7849A 16 ??_M@YGXPAXIIP6EX0@Z@Z
7851F 16 ?__ArrayUnwind@@YGXPAXIIP6EX0@Z@Z
785AF 32 ??2@YAPAXI@Z
785DF 36 ??_Etype_info@@UAEPAXI@Z
78602 43 ?find_pe_section@@YAPAU_IMAGE_SECTION_HEADER@@QAEI@Z
78646 43 ___scrt_acquire_startup_lock
78678 43 ___scrt_dllmain_after_initialize_c
786A3 43 ___scrt_dllmain_before_initialize_c
786B1 43 ___scrt_dllmain_crt_thread_attach
786D0 43 ___scrt_dllmain_crt_thread_detach
786DD 43 ___scrt_dllmain_exception_filter
78711 43 ___scrt_dllmain_uninitialize_c
78734 43 ___scrt_dllmain_uninitialize_critical
78741 43 ___scrt_initialize_crt
7877A 43 ___scrt_initialize_onexit_tables
78801 43 ___scrt_is_nonwritable_in_current_image
78895 43 ___scrt_release_startup_lock
788B2 43 ___scrt_uninitialize_crt
788DA 43 __onexit
78907 43 _atexit
7891C 9 ??_V@YAXPAX@Z
78921 31 ??_U@YAPAXI@Z
7892A 37 ?__scrt_initialize_type_info@@YAXXZ
78936 37 ?__scrt_uninitialize_type_info@@YAXXZ
78942 12 ?dllmain_crt_dispatch@@YGHQAUHINSTANCE__@@KQAX@Z
78995 12 ?dllmain_crt_process_attach@@YAHQAUHINSTANCE__@@QAX@Z
78A9C 12 ?dllmain_crt_process_detach@@YAH_N@Z
78B4C 12 ?dllmain_dispatch@@YAHQAUHINSTANCE__@@KQAX@Z
78C57 12 ?dllmain_raw@@YGHQAUHINSTANCE__@@KQAX@Z
78C82 12 __DllMainCRTStartup@12
78CA5 7 ___isa_available_init
78FD2 15 __EH_epilog3
78FE8 15 __EH_prolog3
7901B 15 __EH_prolog3_catch
79060 4 __alloca_probe_16
79076 4 __alloca_probe_8
79090 27 __allmul
790A9 27 hard
790D0 39 __aulldiv
790F2 39 L1
79100 39 L3
7912E 39 L4
7912F 39 L5
79133 39 L2
79138 20 ___raise_securityfailure
79160 20 ___report_gsfailure
7925B 20 ___report_rangecheckfailure
79268 20 ___report_securityfailure
79340 35 __SEH_prolog4
79385 272 ?length@charNode@@UBEHXZ
79389 38 ___scrt_is_ucrt_dll_in_use
79395 44 ___scrt_fastfail
794AA 44 __crt_debugger_hook
794B2 21 ___get_entropy
794FF 21 ___security_init_cookie
7954A 13 _DllMain@12
79550 8 ___local_stdio_scanf_options
79556 8 ___scrt_initialize_default_local_stdio_options
79573 14 ___scrt_get_dyn_tls_init_callback
79579 24 __RTC_Initialize
795A5 24 __RTC_Terminate
795E0 6 __alloca_probe
795F4 6 cs10
79602 6 cs20
7960B 270 ?GetRangeOfTrysToCheck@__FrameHandler3@@SA?AU?$pair@Viterator@TryBlockMap@__FrameHandler3@@V123@@std@@AAVTryBlockMap@1@HPAXPBU_s_FuncInfo@@H@Z
7967A 270 ?_CallCatchBlock2@@YAPAXPAUEHRegistrationNode@@PBU_s_FuncInfo@@PAXHK@Z
796D7 270 ?_CallSETranslator@@YAHPAUEHExceptionRecord@@PAUEHRegistrationNode@@PAX2PBU_s_FuncInfo@@H1@Z
797C7 270 ?_JumpToContinuation@@YGXPAXPAUEHRegistrationNode@@@Z
797F7 270 ?_UnwindNestedFrames@@YGXPAUEHRegistrationNode@@PAUEHExceptionRecord@@@Z
7984B 270 __CatchGuardHandler
7987C 270 __CreateFrameInfo
798A0 270 __FindAndUnlinkFrame
798E8 270 __TranslatorGuardHandler
79987 270 ___CxxFrameHandler3
799BD 250 ___DestructExceptionObject
79A5E 250 ?_CallMemberFunction0@@YGXQAX0@Z
79A6B 250 ?_FilterSetCurrentException@@YAKPAU_EXCEPTION_POINTERS@@E@Z
79AC3 250 __IsExceptionObjectToBeDestroyed
79AE9 250 ___AdjustPointer
79B0E 250 ___FrameUnwindFilter
79B64 250 ___current_exception
79B6D 250 ___current_exception_context
79B76 250 ___std_terminate
79B7B 266 ___std_exception_copy
79BDE 266 ___std_exception_destroy
79BFD 263 __get_purecall_handler
79C04 263 __purecall
79C20 267 ?<lambda_invoker_cdecl>@<lambda_1>@?1??__std_type_info_name@@YAPBDPAU__std_type_info_data@@PAU__type_info_node@@@Z@SA@I@Z
79C29 267 ___std_type_info_compare
79C65 267 ___std_type_info_destroy_list
79C88 267 ___std_type_info_name
79D4E 265 ??0__non_rtti_object@std@@QAE@ABV01@@Z
79D69 265 ??0bad_typeid@std@@QAE@ABV01@@Z
79D84 265 ?__construct_from_string_literal@__non_rtti_object@std@@SA?AV12@QBD@Z
79DA0 265 ?__construct_from_string_literal@bad_typeid@std@@SA?AV12@QBD@Z
79DBC 265 ___RTtypeid
79E49 275 _wcsrchr
79EEC 274 _wcschr
79F8D 269 __CxxThrowException@8
7A000 260 _memcpy
7A020 260 CopyUp
7A044 260 CopyUpLargeMov
7A057 260 CopyUpSSE2Check
7A070 260 AtomChk
7A096 260 PalignHead4
7A0A9 260 PalignHead8
7A0C0 260 PalignLoop
7A0D2 260 MovPalign12
7A0DC 260 PalignLoop12
7A12D 260 MovPalign8
7A138 260 PalignLoop8
7A186 260 MovPalign4
7A190 260 PalignLoop4
7A1DC 260 PalignTail
7A1F4 260 PalignTail4
7A207 260 PalignTail8
7A21E 260 PalignTailLE3
7A227 260 Dword_align
7A22F 260 Dword_up_align_loop
7A242 260 Dword_align_Ok
7A25C 260 ByteCopyUp
7A264 260 TrailingUpVec
7A274 260 TrailingUp0
7A27C 260 TrailingUp1
7A288 260 TrailingUp2
7A29C 260 TrailingUp3
7A2B4 260 CopyDown
7A2D9 260 CopyDownNotAligned
7A2E0 260 CopyDownAlignLoop
7A2ED 260 CopyDownAligned
7A310 260 TrailingDownVec
7A320 260 TrailingDown0
7A328 260 TrailingDown1
7A338 260 TrailingDown2
7A34C 260 TrailingDown3
7A365 260 XmmMovLargeAlignTest
7A36D 260 XmmMovAlignLoop
7A37C 260 XmmMovLargeLoop
7A3EC 260 XmmMovSmallTest
7A3F1 260 XmmMovSmallLoop
7A414 260 CopyDownSmall
7A41C 260 CopyDownDwordLoop
7A431 260 CopyDownByteTest
7A435 260 CopyDownByteLoop
7A444 260 CopyDownReturn
7A450 260 XmmCopy
7A45D 260 XmmCopyAligned
7A470 260 XmmCopyLargeLoop
7A4CD 260 XmmCopySmallTest
7A4E0 260 XmmCopySmallLoop
7A4FB 260 CopyUpDwordMov
7A500 260 CopyUpDwordTest
7A507 260 CopyUpDwordLoop
7A516 260 CopyUpByteTest
7A51D 260 CopyUpByteLoop
7A530 260 CopyUpReturn
7A540 260 XmmCopyUnaligned
7A553 260 XmmAlignByte
7A55C 260 XmmAlignDwordTest
7A561 260 XmmAlignDwordLoop
7A56E 260 XmmAlignAdjustCnt
7A580 261 _memset
7A5C5 261 XMMMov
7A600 261 LargeRangeBytes
7A63D 261 XmmMovSmall
7A650 261 XmmSmallLoop
7A655 261 MidRangeBytes
7A671 261 XMMTrailingBytes
7A685 261 SmallMov
7A68D 261 ByteLoop
7A69B 261 DwordTest
7A6AB 261 QwordTest
7A6C0 261 QwordLoop
7A6D3 261 toend
7A6DA 271 ___uncaught_exceptions
7A6F0 259 _memcmp
7BCF8 259 $LN1250
7BD80 249 _ValidateLocalCookies
7BDC0 249 __except_handler4
7BF1E 255 ___vcrt_initialize
7BF3D 255 ___vcrt_thread_attach
7BF48 255 ___vcrt_thread_detach
7BF50 255 ___vcrt_uninitialize
7BF67 255 ___vcrt_uninitialize_critical
7BF6F 262 ___vcrt_freefls@4
7BF8B 262 ___vcrt_freeptd_for_this_thread
7BFB6 262 ___vcrt_getptd
7BFC4 262 ___vcrt_getptd_noexit
7C056 262 ___vcrt_getptd_noinit
7C08D 262 ___vcrt_initialize_ptd
7C0C0 262 ___vcrt_uninitialize_ptd
7C0DB 254 ??$BuildCatchObjectHelperInternal@V__FrameHandler3@@@@YAHPAUEHExceptionRecord@@PAXPBU_s_HandlerType@@PBU_s_CatchableType@@@Z
7C219 254 ??$BuildCatchObjectInternal@V__FrameHandler3@@@@YAXPAUEHExceptionRecord@@PAXPBU_s_HandlerType@@PBU_s_CatchableType@@@Z
7C2B2 254 ??$CatchIt@V__FrameHandler3@@@@YAXPAUEHExceptionRecord@@PAUEHRegistrationNode@@PAU_CONTEXT@@PAXPBU_s_FuncInfo@@PBU_s_HandlerType@@PBU_s_CatchableType@@PBU_s_TryBlockMapEntry@@H1EE@Z
7C332 254 ??$FindHandler@V__FrameHandler3@@@@YAXPAUEHExceptionRecord@@PAUEHRegistrationNode@@PAU_CONTEXT@@PAXPBU_s_FuncInfo@@EH1@Z
7C6D7 254 ??$FindHandlerForForeignException@V__FrameHandler3@@@@YAXPAUEHExceptionRecord@@PAUEHRegistrationNode@@PAU_CONTEXT@@PAXPBU_s_FuncInfo@@HH1@Z
7C80D 254 ??$TypeMatchHelper@V__FrameHandler3@@@@YAHPBU_s_HandlerType@@PBU_s_CatchableType@@PBU_s_ThrowInfo@@@Z
7C89B 254 ??$__InternalCxxFrameHandler@V__FrameHandler3@@@@YA?AW4_EXCEPTION_DISPOSITION@@PAUEHExceptionRecord@@PAUEHRegistrationNode@@PAU_CONTEXT@@PAXPBU_s_FuncInfo@@H1E@Z
7C99D 254 ??$__InternalCxxFrameHandlerWrapper@V__FrameHandler3@@@@YA?AW4_EXCEPTION_DISPOSITION@@PAUEHExceptionRecord@@PAUEHRegistrationNode@@PAU_CONTEXT@@PAXPBU_s_FuncInfo@@H1E@Z
7C9A6 254 ??0bad_exception@std@@QAE@ABV01@@Z
7C9C1 254 ??0bad_exception@std@@QAE@XZ
7C9D9 254 ?CallCatchBlock@@YAPAXPAUEHExceptionRecord@@PAUEHRegistrationNode@@PAU_CONTEXT@@PBU_s_FuncInfo@@PAXHK@Z
7CBA8 254 ?CallUnexpected@@YAXPBU_s_ESTypeList@@@Z
7CBC8 254 __catch$?CallUnexpected@@YAXPBU_s_ESTypeList@@@Z$0
7CBE7 254 ?ExFilterRethrow@@YAHPAU_EXCEPTION_POINTERS@@@Z
7CC31 254 ?FrameUnwindToEmptyState@__FrameHandler3@@SAXPAUEHRegistrationNode@@PAXPBU_s_FuncInfo@@@Z
7CC49 254 ?FrameUnwindToState@__FrameHandler3@@SAXPAUEHRegistrationNode@@PAXPBU_s_FuncInfo@@H@Z
7CD31 254 ?IsInExceptionSpec@@YAEPAUEHExceptionRecord@@PBU_s_ESTypeList@@@Z
7CDCB 254 ?_CallMemberFunction1@@YGXQAX00@Z
7CDDB 254 ?_CallMemberFunction2@@YGXQAX00H@Z
7CDEE 254 ?getESTypes@__FrameHandler3@@SAPBU_s_ESTypeList@@PBU_s_FuncInfo@@@Z
7CE00 258 __CallSettingFrame@12
7CE27 258 __NLG_Return
7CE3F 258 _NLG_Continue
7CE4C 256 ___except_validate_context_record
7CE7C 272 ??$?0$00@DName@@QAE@PBDU?$StringLifeSelector@$00@@@Z
7CEAF 272 ??$?0$01@DName@@QAE@PBDU?$StringLifeSelector@$01@@@Z
7CEE2 272 ??$?0$01@pcharNode@@QAE@PBDHU?$StringLifeSelector@$01@@@Z
7CF22 272 ??$append@VDNameNode@@@DName@@AAEXPBVDNameNode@@@Z
7CF63 272 ??$doPchar@$00@DName@@AAEXPBDH@Z
7CFCF 272 ??$doPchar@$01@DName@@AAEXPBDH@Z
7D040 272 ??$get_encoding@M@@YA?A_P_K@Z
7D0A0 272 ??$get_encoding@N@@YA?A_P_K@Z
7D0FC 272 ??0DName@@QAE@AAPBDD@Z
7D185 272 ??0DName@@QAE@ABUStringLiteral@@@Z
7D1AC 272 ??0DName@@QAE@PAV0@@Z
7D1F3 272 ??0DName@@QAE@W4DNameStatus@@@Z
7D233 272 ??0DName@@QAE@_J@Z
7D2BD 272 ??0DName@@QAE@_K@Z
7D321 272 ??0DNameNode@@IAE@XZ
7D32A 272 ??0UnDecorator@@QAE@PBDP6APADJ@ZK@Z
7D38E 272 ??0pDNameNode@@QAE@PAVDName@@@Z
7D3B6 272 ??0pairNode@@QAE@PBVDNameNode@@0@Z
7D3D5 272 ??1TrackRecursion@?1??getDecoratedName@UnDecorator@@CA?AVDName@@XZ@QAE@XZ
7D3DC 272 ??2@YAPAXIAAV_HeapManager@@H@Z
7D3FB 272 ??4DName@@QAEAAV0@ABUStringLiteral@@@Z
7D41C 272 ??4DName@@QAEAAV0@W4DNameStatus@@@Z
7D44E 272 ??AReplicator@@QBE?AVDName@@H@Z
7D48A 272 ??H@YA?AVDName@@ABUStringLiteral@@ABV0@@Z
7D4AC 272 ??H@YA?AVDName@@DABV0@@Z
7D4D7 272 ??H@YA?AVDName@@W4DNameStatus@@ABV0@@Z
7D4F9 272 ??HDName@@QBE?AV0@ABUStringLiteral@@@Z
7D51B 272 ??HDName@@QBE?AV0@ABV0@@Z
7D53D 272 ??HDName@@QBE?AV0@D@Z
7D55F 272 ??HDName@@QBE?AV0@W4DNameStatus@@@Z
7D581 272 ??YDName@@QAEAAV0@ABUStringLiteral@@@Z
7D5D9 272 ??YDName@@QAEAAV0@ABV0@@Z
7D630 272 ??YDName@@QAEAAV0@D@Z
7D685 272 ??YDName@@QAEAAV0@W4DNameStatus@@@Z
7D6C5 272 ??YReplicator@@QAEAAV0@ABVDName@@@Z
7D705 272 ??_5DName@@QAEAAV0@ABV0@@Z
7D724 272 ?Destructor@_HeapManager@@QAEXXZ
7D759 272 ?UScore@UnDecorator@@SA?AUStringLiteral@@W4Tokens@@@Z
7D780 272 ?composeDeclaration@UnDecorator@@CA?AVDName@@ABV2@@Z
7E506 272 ?doPchar@DName@@AAEXD@Z
7E53E 272 ?getAddressOf@UnDecorator@@CA?AVDName@@XZ
7E5A6 272 ?getArgumentList@UnDecorator@@CA?AVDName@@XZ
7E6B3 272 ?getArgumentTypes@UnDecorator@@CA?AVDName@@XZ
7E7BB 272 ?getArrayAccess@UnDecorator@@CA?AVDName@@XZ
7E82F 272 ?getArrayObject@UnDecorator@@CA?AVDName@@XZ
7E8CD 272 ?getArrayType@UnDecorator@@CA?AVDName@@ABV2@@Z
7EA6A 272 ?getBasedType@UnDecorator@@CA?AVDName@@XZ
7EB19 272 ?getBasicDataType@UnDecorator@@CA?AVDName@@ABV2@@Z
7F011 272 $LN197
7F035 272 $LN196
7F049 272 $LN198
7F075 272 ?getCallingConvention@UnDecorator@@CA?AVDName@@XZ
7F13F 272 ?getDataIndirectType@UnDecorator@@CA?AVDName@@ABV2@W4IndirectionKind@@0H@Z
7F7FE 272 ?getDataIndirectType@UnDecorator@@CA?AVDName@@XZ
7F82C 272 ?getDataType@UnDecorator@@CA?AVDName@@PAV2@@Z
7F903 272 ?getDecoratedName@UnDecorator@@CA?AVDName@@XZ
7FB57 272 ?getDimension@UnDecorator@@CA?AVDName@@_N@Z
7FC5E 272 ?getDispatchTarget@UnDecorator@@CA?AVDName@@XZ
7FCAF 272 ?getECSUDataType@UnDecorator@@CA?AVDName@@XZ
7FE59 272 ?getEnumType@UnDecorator@@CA?AVDName@@XZ
7FF4D 272 $LN40
7FF6D 272 ?getExtendedDataIndirectType@UnDecorator@@CA?AVDName@@AAW4IndirectionKind@@AA_NH@Z
80170 272 ?getExternalDataType@UnDecorator@@CA?AVDName@@ABV2@@Z
801D5 272 ?getFloatingPoint@UnDecorator@@CA?AVDName@@H@Z
80298 272 ?getFunctionIndirectType@UnDecorator@@CA?AVDName@@ABV2@@Z
80642 272 ?getLastChar@DName@@QBEDXZ
80662 272 ?getLastChar@DNameStatusNode@@UBEDXZ
8066E 272 ?getLastChar@charNode@@UBEDXZ
80672 272 ?getLastChar@pDNameNode@@UBEDXZ
80680 272 ?getLastChar@pairNode@@UBEDXZ
806B5 272 ?getLastChar@pcharNode@@UBEDXZ
806C7 272 ?getLexicalFrame@UnDecorator@@CA?AVDName@@XZ
806F8 272 ?getMemberAccess@UnDecorator@@CA?AVDName@@XZ
80768 272 ?getMemoryWithBuffer@_HeapManager@@QAEPAXI@Z
807D2 272 ?getMemoryWithoutBuffer@_HeapManager@@QAEPAXI@Z
807F2 272 ?getNoexcept@UnDecorator@@CA?AVDName@@XZ
8083A 272 ?getNumberOfDimensions@UnDecorator@@CAHXZ
80894 272 ?getOperatorName@UnDecorator@@CA?AVDName@@_NPA_N@Z
810E4 272 $LN400
810F0 272 $LN399
81108 272 $LN402
81124 272 $LN401
8113C 272 $LN404
8114C 272 $LN403
8115A 272 ?getPointerToMember@UnDecorator@@CA?AVDName@@XZ
81216 272 ?getPrimaryDataType@UnDecorator@@CA?AVDName@@ABV2@@Z
81464 272 ?getPtrRefDataType@UnDecorator@@CA?AVDName@@ABV2@H@Z
815D1 272 ?getPtrRefType@UnDecorator@@CA?AVDName@@ABV2@0W4IndirectionKind@@@Z
816E2 272 ?getRestrictionSpec@UnDecorator@@CA?AVDName@@XZ
817FB 272 ?getReturnType@UnDecorator@@CA?AVDName@@PAV2@@Z
8182A 272 ?getScope@UnDecorator@@CA?AVDName@@XZ
81BE8 272 ?getScopedName@UnDecorator@@CA?AVDName@@XZ
81CDD 272 ?getSignedDimension@UnDecorator@@CA?AVDName@@XZ
81D2E 272 ?getString@DName@@QBEPADPAD0@Z
81D5B 272 ?getString@DName@@QBEPADPADH@Z
81DB0 272 ?getString@DNameStatusNode@@UBEPADPAD0@Z
81DF7 272 ?getString@charNode@@UBEPADPAD0@Z
81E0C 272 ?getString@pDNameNode@@UBEPADPAD0@Z
81E23 272 ?getString@pairNode@@UBEPADPAD0@Z
81E69 272 ?getString@pcharNode@@UBEPADPAD0@Z
81E84 272 ?getStringEncoding@UnDecorator@@CA?AVDName@@W4PrefixKind@@H@Z
81F17 272 ?getStringHelper@@YAPADPADPBD1H@Z
81F41 272 ?getStringObject@UnDecorator@@CA?AVDName@@XZ
81FAD 272 ?getSymbolName@UnDecorator@@CA?AVDName@@XZ
81FF5 272 ?getTemplateArgumentList@UnDecorator@@CA?AVDName@@XZ
821A5 272 ?getTemplateName@UnDecorator@@CA?AVDName@@_N@Z
82320 272 ?getTemplateNonTypeArgument@UnDecorator@@CA?AVDName@@XZ
826B8 272 $LN88
826D8 272 $LN87
826E8 272 ?getTemplateTypeArgument@UnDecorator@@CA?AVDName@@XZ
827F9 272 ?getThisType@UnDecorator@@CA?AVDName@@XZ
82828 272 ?getThrowTypes@UnDecorator@@CA?AVDName@@XZ
82847 272 ?getTypeEncoding@UnDecorator@@CAHXZ
82B5F 272 $LN145
82B83 272 ?getUndecoratedName@UnDecorator@@QAEPADPADH@Z
82CA4 272 ?getUnionObject@UnDecorator@@CA?AVDName@@XZ
82D4B 272 ?getVCallThunkType@UnDecorator@@CA?AVDName@@XZ
82D95 272 ?getValue@UnDecorator@@CA?AV?$optional@_K@std@@XZ
82DE5 272 ?getValueObject@UnDecorator@@CA?AVDName@@XZ
82F11 272 ?getVdispMapType@UnDecorator@@CA?AVDName@@ABV2@@Z
82F72 272 ?getVfTableType@UnDecorator@@CA?AVDName@@ABV2@@Z
830C6 272 ?getZName@UnDecorator@@CA?AVDName@@_N0@Z
832DF 272 ?get_current_character_and_increment_buffer@UnDecorator@@CADXZ
832F3 272 ?increment_buffer@UnDecorator@@CA_NI@Z
8331B 272 ?isEmpty@DName@@QBEHXZ
83323 272 ?isValid@DName@@QBEHXZ
8332D 272 ?length@DName@@QBEHXZ
8334C 272 ?length@pDNameNode@@UBEHXZ
8335A 272 ?length@pairNode@@UBEHXZ
833A3 272 ?make@DNameStatusNode@@SAPBV1@W4DNameStatus@@@Z
833BF 272 ?parseDecoratedName@UnDecorator@@CA?AVDName@@XZ
834BA 272 ?raw_length@pDNameNode@@UBEHXZ
834BE 272 ?raw_length@pairNode@@UBEHXZ
834C2 272 ?und_memcpy@@YAXPADPBDI@Z
834E3 272 ?und_strncmp@@YAIPBD0I@Z
83514 272 ___unDName
83537 272 ___unDNameEx
835D6 272 _snprintf
835F0 272 _vsnprintf
83620 253 __local_unwind4
83652 253 _lu_top
836B1 253 _lu_done
836C0 253 $$000000
83710 253 @_EH4_CallFilterFunc@8
83730 253 @_EH4_TransferToHandler@8
83750 253 @_EH4_GlobalUnwind2@8
83765 253 ReturnPoint
83770 253 @_EH4_LocalUnwind@16
83787 257 ___vcrt_initialize_locks
837C3 257 ___vcrt_lock
837D8 257 ___vcrt_uninitialize_locks
83807 257 ___vcrt_unlock
8381C 276 ?try_get_function@@YAPAXW4function_id@?A0x14174aea@@QBDQBW4module_id@2@2@Z
838BC 276 ?try_load_library_from_system_directory@@YAPAUHINSTANCE__@@QB_W@Z
83907 276 ___vcrt_FlsAlloc
83942 276 ___vcrt_FlsFree
8397D 276 ___vcrt_FlsGetValue
839B8 276 ___vcrt_FlsSetValue
839F6 276 ___vcrt_InitializeCriticalSectionEx
83A3D 273 _unexpected
83A5A 251 ?GetCurrentState@__FrameHandler3@@SAHPAUEHRegistrationNode@@PAXPBU_s_FuncInfo@@@Z
83A77 251 ?SetState@__FrameHandler3@@SAXPAUEHRegistrationNode@@PBU_s_FuncInfo@@H@Z
83A90 252 __NLG_Notify1
83AA0 252 __NLG_Notify
83AAB 252 __NLG_Go
83AB7 252 __NLG_Dispatch
83AC0 252 __NLG_Call
83AC2 252 __NLG_Return2
83AC3 155 ??0__crt_cached_ptd_host@@QAE@QAU__crt_locale_pointers@@@Z
83B0B 155 ??1__crt_cached_ptd_host@@QAE@XZ
83B47 155 ?check_synchronize_global_state_index@__crt_cached_ptd_host@@AAEIXZ
83B70 155 ?force_synchronize_per_thread_data@__crt_cached_ptd_host@@AAEPAU__acrt_ptd@@XZ
83BB6 155 ?get_raw_ptd@__crt_cached_ptd_host@@QAEPAU__acrt_ptd@@XZ
83BD3 155 ___acrt_call_reportfault
83D0C 155 ___acrt_initialize_invalid_parameter_handler
83D1B 155 __invalid_parameter
83D52 155 __invalid_parameter_internal
83DCF 155 __invalid_parameter_noinfo
83DDF 155 __invalid_parameter_noinfo_noreturn
83DFC 155 __invoke_watson
83E30 248 ??$common_xtox@K_W@@YAHKQA_WII_N@Z
83EEC 248 ??$common_xtox@_K_W@@YAH_KQA_WII_N@Z
83FDF 248 ??$common_xtox_s@K_W@@YAHKQA_WII_N@Z
84051 248 __i64tow
84092 248 __itow_s
840C5 248 __ui64tow
840E7 232 _wcscpy_s
8414B 235 ??0_LocaleUpdate@@QAE@QAU__crt_locale_pointers@@@Z
841CD 235 ___ascii_wcsicmp
8420A 235 __towlower_internal
84249 235 __wcsicmp
84292 235 __wcsicmp_l
8434A 226 __tolower_l
84448 226 _tolower
84478 132 _free
84493 88 ___acrt_locale_get_ctype_array_value
844C0 88 _isdigit
84544 101 ??$is_overflow_condition@K@__crt_strtox@@YA_NIK@Z
84578 101 ??$is_overflow_condition@_K@__crt_strtox@@YA_NI_K@Z
845B9 101 ??$parse_integer@KV?$c_string_character_source@D@__crt_strtox@@$00@__crt_strtox@@YAKAAV__crt_cached_ptd_host@@V?$c_string_character_source@D@0@H_N@Z
84800 101 ??$parse_integer@KV?$c_string_character_source@_W@__crt_strtox@@$00@__crt_strtox@@YAKAAV__crt_cached_ptd_host@@V?$c_string_character_source@_W@0@H_N@Z
84E0E 101 ??$parse_integer@_KV?$c_string_character_source@_W@__crt_strtox@@$00@__crt_strtox@@YA_KAAV__crt_cached_ptd_host@@V?$c_string_character_source@_W@0@H_N@Z
85494 101 ?unget@?$c_string_character_source@D@__crt_strtox@@QAEXD@Z
854BD 101 ?unget@?$c_string_character_source@_W@__crt_strtox@@QAEX_W@Z
854F0 101 ?update_locale_slow@__crt_cached_ptd_host@@AAEXXZ
8554B 101 ?validate@?$c_string_character_source@D@__crt_strtox@@QBE_NXZ
85566 101 __ischartype_l
855BD 101 __wtoi
855FC 101 _atol
8563B 196 ??$common_vsprintf@Vformat_validation_base@__crt_stdio_output@@D@@YAH_KQADIQBDAAV__crt_cached_ptd_host@@1@Z
857AF 196 ??$common_vsprintf@Vstandard_base@__crt_stdio_output@@D@@YAH_KQADIQBDAAV__crt_cached_ptd_host@@1@Z
85923 196 ??$common_vsprintf_s@D@@YAH_KQADIQBDAAV__crt_cached_ptd_host@@1@Z
859C2 196 ??$count@D@formatting_buffer@__crt_stdio_output@@QBEIXZ
859DA 196 ??$ensure_buffer_is_big_enough@D@formatting_buffer@__crt_stdio_output@@QAE_NIAAV__crt_cached_ptd_host@@@Z
85A5B 196 ??$is_wide_character_specifier@D@__crt_stdio_output@@YA_N_KDW4length_modifier@0@@Z
85A8C 196 ??$make_c_string_character_source@DPAPAD@__crt_strtox@@YA?AV?$c_string_character_source@D@0@QBDQAPAD@Z
85AA7 196 ??$parse_integer@KV?$c_string_character_source@D@__crt_strtox@@$0A@@__crt_strtox@@YAKAAV__crt_cached_ptd_host@@V?$c_string_character_source@D@0@H_N@Z
85CB6 196 ??$scratch_data@D@formatting_buffer@__crt_stdio_output@@QAEPADXZ
85CD4 196 ??$type_case_integer@$07@?$output_processor@DV?$string_output_adapter@D@__crt_stdio_output@@V?$format_validation_base@DV?$string_output_adapter@D@__crt_stdio_output@@@2@@__crt_stdio_output@@AAE_N_N@Z
85E61 196 ??$type_case_integer@$09@?$output_processor@DV?$string_output_adapter@D@__crt_stdio_output@@V?$format_validation_base@DV?$string_output_adapter@D@__crt_stdio_output@@@2@@__crt_stdio_output@@AAE_N_N@Z
85FEE 196 ??$type_case_integer@$0BA@@?$output_processor@DV?$string_output_adapter@D@__crt_stdio_output@@V?$format_validation_base@DV?$string_output_adapter@D@__crt_stdio_output@@@2@@__crt_stdio_output@@AAE_N_N@Z
8617B 196 ??$type_case_integer_parse_into_buffer@I$07@?$output_processor@DV?$string_output_adapter@D@__crt_stdio_output@@V?$format_validation_base@DV?$string_output_adapter@D@__crt_stdio_output@@@2@@__crt_stdio_output@@AAEXI_N@Z
861DE 196 ??$type_case_integer_parse_into_buffer@I$09@?$output_processor@DV?$string_output_adapter@D@__crt_stdio_output@@V?$format_validation_base@DV?$string_output_adapter@D@__crt_stdio_output@@@2@@__crt_stdio_output@@AAEXI_N@Z
86265 196 ??$type_case_integer_parse_into_buffer@I$0BA@@?$output_processor@DV?$string_output_adapter@D@__crt_stdio_output@@V?$format_validation_base@DV?$string_output_adapter@D@__crt_stdio_output@@@2@@__crt_stdio_output@@AAEXI_N@Z
862E2 196 ??$type_case_integer_parse_into_buffer@_K$07@?$output_processor@DV?$string_output_adapter@D@__crt_stdio_output@@V?$format_validation_base@DV?$string_output_adapter@D@__crt_stdio_output@@@2@@__crt_stdio_output@@AAEX_K_N@Z
8635A 196 ??$type_case_integer_parse_into_buffer@_K$09@?$output_processor@DV?$string_output_adapter@D@__crt_stdio_output@@V?$format_validation_base@DV?$string_output_adapter@D@__crt_stdio_output@@@2@@__crt_stdio_output@@AAEX_K_N@Z
86401 196 ??$type_case_integer_parse_into_buffer@_K$0BA@@?$output_processor@DV?$string_output_adapter@D@__crt_stdio_output@@V?$format_validation_base@DV?$string_output_adapter@D@__crt_stdio_output@@@2@@__crt_stdio_output@@AAEX_K_N@Z
8648B 196 ??0?$output_adapter_data@DV?$string_output_adapter@D@__crt_stdio_output@@@__crt_stdio_output@@IAE@ABV?$string_output_adapter@D@1@_KQBDAAV__crt_cached_ptd_host@@QAD@Z
864F2 196 ??1formatting_buffer@__crt_stdio_output@@QAE@XZ
8650C 196 ??4?$__crt_unique_heap_ptr@DU__crt_internal_free_policy@@@@QAEAAV0@$$QAV0@@Z
86530 196 ?crop_zeroes@__crt_stdio_output@@YAXPADQAU__crt_locale_pointers@@@Z
86590 196 ?find_next_state@?$output_processor@DV?$string_output_adapter@D@__crt_stdio_output@@V?$format_validation_base@DV?$string_output_adapter@D@__crt_stdio_output@@@2@@__crt_stdio_output@@ABE?AW4state@2@DW432@@Z
865CD 196 ?find_next_state@?$output_processor@DV?$string_output_adapter@D@__crt_stdio_output@@V?$standard_base@DV?$string_output_adapter@D@__crt_stdio_output@@@2@@__crt_stdio_output@@ABE?AW4state@2@DW432@@Z
86608 196 ?force_decimal_point@__crt_stdio_output@@YAXPADQAU__crt_locale_pointers@@@Z
86664 196 ?parse_int_from_format_string@?$output_processor@DV?$string_output_adapter@D@__crt_stdio_output@@V?$format_validation_base@DV?$string_output_adapter@D@__crt_stdio_output@@@2@@__crt_stdio_output@@AAE_NQAH@Z
866DC 196 ?process@?$output_processor@DV?$string_output_adapter@D@__crt_stdio_output@@V?$format_validation_base@DV?$string_output_adapter@D@__crt_stdio_output@@@2@@__crt_stdio_output@@QAEHXZ
869A0 196 $LN140
869C0 196 ?process@?$output_processor@DV?$string_output_adapter@D@__crt_stdio_output@@V?$standard_base@DV?$string_output_adapter@D@__crt_stdio_output@@@2@@__crt_stdio_output@@QAEHXZ
86C74 196 $LN130
86C94 196 ?state_case_size@?$output_processor@DV?$string_output_adapter@D@__crt_stdio_output@@V?$format_validation_base@DV?$string_output_adapter@D@__crt_stdio_output@@@2@@__crt_stdio_output@@AAE_NXZ
86DED 196 ?state_case_type@?$output_processor@DV?$string_output_adapter@D@__crt_stdio_output@@V?$format_validation_base@DV?$string_output_adapter@D@__crt_stdio_output@@@2@@__crt_stdio_output@@AAE_NXZ
8714C 196 ?to_integer_size@__crt_stdio_output@@YAIW4length_modifier@1@@Z
87180 196 $LN18
87194 196 $LN17
871A0 196 ?type_case_Z@?$output_processor@DV?$string_output_adapter@D@__crt_stdio_output@@V?$format_validation_base@DV?$string_output_adapter@D@__crt_stdio_output@@@2@@__crt_stdio_output@@AAE_NXZ
87203 196 ?type_case_a@?$output_processor@DV?$string_output_adapter@D@__crt_stdio_output@@V?$format_validation_base@DV?$string_output_adapter@D@__crt_stdio_output@@@2@@__crt_stdio_output@@AAE_NXZ
87394 196 ?type_case_c_tchar@?$output_processor@DV?$string_output_adapter@D@__crt_stdio_output@@V?$format_validation_base@DV?$string_output_adapter@D@__crt_stdio_output@@@2@@__crt_stdio_output@@AAE_ND@Z
87429 196 ?type_case_n@?$output_processor@DV?$string_output_adapter@D@__crt_stdio_output@@V?$format_validation_base@DV?$string_output_adapter@D@__crt_stdio_output@@@2@@__crt_stdio_output@@AAE_NXZ
874AE 196 ?type_case_o@?$output_processor@DV?$string_output_adapter@D@__crt_stdio_output@@V?$format_validation_base@DV?$string_output_adapter@D@__crt_stdio_output@@@2@@__crt_stdio_output@@AAE_NXZ
874CB 196 ?type_case_p@?$output_processor@DV?$string_output_adapter@D@__crt_stdio_output@@V?$format_validation_base@DV?$string_output_adapter@D@__crt_stdio_output@@@2@@__crt_stdio_output@@AAE_NXZ
874E1 196 ?type_case_s@?$output_processor@DV?$string_output_adapter@D@__crt_stdio_output@@V?$format_validation_base@DV?$string_output_adapter@D@__crt_stdio_output@@@2@@__crt_stdio_output@@AAE_NXZ
87553 196 ?validate@?$string_output_adapter@D@__crt_stdio_output@@QBE_NAAV__crt_cached_ptd_host@@@Z
87584 196 ?write_string@?$string_output_adapter@D@__crt_stdio_output@@QBEXQBDHQAHAAV__crt_cached_ptd_host@@@Z
875EB 196 ___stdio_common_vsprintf
8762C 196 ___stdio_common_vsprintf_s
8766D 134 _frexp
87770 213 _strcspn
877B6 169 _localeconv
877DE 104 _calloc
877E9 222 __wcstoui64
87835 222 _strtoul
8787B 222 _wcstoll
878C7 185 __memicmp
87929 185 __memicmp_l
879D1 239 ___ascii_wcsnicmp
87A20 239 __wcsnicmp
87A6C 239 __wcsnicmp_l
87B3F 237 _wcsncmp
87B79 145 ___acrt_initialize_heap
87B8A 145 ___acrt_uninitialize_heap
87B94 145 __get_heap_handle
87B9A 238 ??$common_tcsncpy_s@_W@@YAHQA_WIQB_WI@Z
87C68 238 _wcsncpy_s
87C73 175 _malloc
87C7E 207 ??$?RV<lambda_f5952838e36297a1e2e9d6c748429792>@@AAV<lambda_2116bde18c9e5f34230805ea4a4660ed>@@V<lambda_3c7107de1cc98bf330a3031f42c322a3>@@@?$__crt_seh_guarded_call@PAD@@QAEPAD$$QAV<lambda_f5952838e36297a1e2e9d6c748429792>@@AAV<lambda_2116bde18c9e5f34230805ea4a4660ed>@@$$QAV<lambda_3c7107de1cc98bf330a3031f42c322a3>@@@Z
87CD9 207 ??R<lambda_2116bde18c9e5f34230805ea4a4660ed>@@QBEPADXZ
87E38 207 _call_wsetlocale
87ED3 207 _setlocale
87F0B 119 ___acrt_errno_from_os_error
87F4E 119 ___acrt_errno_map_os_error
87F71 119 ___acrt_errno_map_os_error_ptd
87F95 119 ___doserrno
87FA8 119 __errno
87FBB 170 ___acrt_initialize_locks
87FFC 170 ___acrt_lock
88013 170 ___acrt_uninitialize_locks
88044 170 ___acrt_unlock
8805B 170 __lock_locales
88069 170 __unlock_locales
88072 149 ____lc_codepage_func
88097 149 ____lc_locale_name_func
880BE 149 ____mb_cur_max_func
880E3 149 ___acrt_locale_initialize_ctype
88540 116 ___pctype_func
88564 234 __wcsdup
885D0 221 ?divide@__crt_strtox@@YA_KAAUbig_integer@1@ABU21@@Z
88A7B 108 _memcpy_s
88AFC 189 __dclass
88B0D 189 __dsign
88B1D 190 __ldclass
88B2E 97 _abort
88B72 217 ___strncnt
88B8E 219 _strnlen
88CB0 219 _wcsnlen
88E60 215 ??$__acrt_convert_wcs_mbs_cp@D_WV<lambda_62f6974d9771e494a5ea317cc32e971c>@@U__crt_win32_buffer_internal_dynamic_resizing@@@@YAHQBDAAV?$__crt_win32_buffer@_WU__crt_win32_buffer_internal_dynamic_resizing@@@@ABV<lambda_62f6974d9771e494a5ea317cc32e971c>@@I@Z
88F12 215 ??$__acrt_convert_wcs_mbs_cp@_WDV<lambda_0fec1a7b3f42a53036604e18c2d5e07e>@@U__crt_win32_buffer_no_resizing@@@@YAHQB_WAAV?$__crt_win32_buffer@DU__crt_win32_buffer_no_resizing@@@@ABV<lambda_0fec1a7b3f42a53036604e18c2d5e07e>@@I@Z
88FD4 215 ??$__acrt_mbs_to_wcs_cp@U__crt_win32_buffer_internal_dynamic_resizing@@@@YAHQBDAAV?$__crt_win32_buffer@_WU__crt_win32_buffer_internal_dynamic_resizing@@@@I@Z
88FF1 215 ??R<lambda_0fec1a7b3f42a53036604e18c2d5e07e>@@QBE@IQB_WQADI@Z
89015 100 ?_deallocate@?$__crt_win32_buffer@DU__crt_win32_buffer_internal_dynamic_resizing@@@@AAEXXZ
8902F 215 ?allocate@?$__crt_win32_buffer@DU__crt_win32_buffer_no_resizing@@@@QAEHI@Z
89056 215 ?allocate@?$__crt_win32_buffer@_WU__crt_win32_buffer_internal_dynamic_resizing@@@@QAEHI@Z
89095 215 ?allocate@__crt_win32_buffer_internal_dynamic_resizing@@SAHQAPAXIABV__crt_win32_buffer_empty_debug_info@@@Z
890B4 215 ?set_to_nullptr@?$__crt_win32_buffer@DU__crt_win32_buffer_no_resizing@@@@QAEXXZ
890C8 164 ___initialize_lconv_for_unsigned_char
890F6 223 _terminate
89132 191 ??$__crt_fast_decode_pointer@P6AHI@Z@@YAP6AHI@ZQ6AHI@Z@Z
8914D 191 ___acrt_initialize_new_handler
8915C 191 __callnewh
89188 191 __query_new_handler
891DF 120 __seh_filter_dll
891FF 120 __seh_filter_exe
89345 121 ??$?RV<lambda_03b1d95aef87969028cfba75ccab2455>@@AAV<lambda_6e4b09c48022b2350581041d5f6b0c4c>@@V<lambda_22bdf7517842c4b3e53723af5aa32b9e>@@@?$__crt_seh_guarded_call@X@@QAEX$$QAV<lambda_03b1d95aef87969028cfba75ccab2455>@@AAV<lambda_6e4b09c48022b2350581041d5f6b0c4c>@@$$QAV<lambda_22bdf7517842c4b3e53723af5aa32b9e>@@@Z
89392 121 ??R<lambda_6e4b09c48022b2350581041d5f6b0c4c>@@QBE@XZ
8947A 121 ?common_exit@@YAXHW4_crt_exit_cleanup_mode@@W4_crt_exit_return_mode@@@Z
89511 121 ?exit_or_terminate_process@@YAXI@Z
89542 121 ?is_managed_app@@YA_NXZ
89584 121 ?should_call_terminate_process@@YA_NXZ
8959D 121 ?try_cor_exit_process@@YAXI@Z
8961F 121 ___acrt_initialize_thread_local_exit_callback
8962E 121 __cexit
8963D 121 __exit
89653 121 __is_c_termination_complete
8965A 99 ??$common_configure_argv@D@@YAHW4_crt_argv_mode@@@Z
89797 99 ??$parse_command_line@D@@YAXPADPAPAD0PAI2@Z
8990B 99 ___acrt_allocate_buffer_for_argv
8995A 99 __configure_narrow_argv
89965 118 ??$common_initialize_environment_nolock@D@@YAHXZ
899BF 118 ??$create_environment@D@@YAQAPADQAD@Z
89AA1 118 ??$free_environment@D@@YAXQAPAD@Z
89AD0 118 ??$uninitialize_environment_internal@D@@YAXAAPAPAD@Z
89AEB 118 ??$uninitialize_environment_internal@_W@@YAXAAPAPA_W@Z
89B06 118 ___dcrt_uninitialize_environments_nolock
89B57 118 __initialize_narrow_environment
89B5C 194 ??$?RV<lambda_69a2805e680e0e292e8ba93315fe43a8>@@AAV<lambda_f03950bc5685219e0bcd2087efbe011e>@@V<lambda_03fcd07e894ec930e3f35da366ca99d6>@@@?$__crt_seh_guarded_call@H@@QAEH$$QAV<lambda_69a2805e680e0e292e8ba93315fe43a8>@@AAV<lambda_f03950bc5685219e0bcd2087efbe011e>@@$$QAV<lambda_03fcd07e894ec930e3f35da366ca99d6>@@@Z
89BB7 194 ??$?RV<lambda_8e746cf0007f6ed984d6f78af1fec997>@@AAV<lambda_22ebabd17bc4fa466a2aca6d8deb888d>@@V<lambda_18ed0c0b38a6dc0daf1e7ac6d6adf05e>@@@?$__crt_seh_guarded_call@H@@QAEH$$QAV<lambda_8e746cf0007f6ed984d6f78af1fec997>@@AAV<lambda_22ebabd17bc4fa466a2aca6d8deb888d>@@$$QAV<lambda_18ed0c0b38a6dc0daf1e7ac6d6adf05e>@@@Z
89C12 194 ??$__crt_fast_encode_pointer@P6AHXZ@@YAP6AHXZQ6AHXZ@Z
89C31 194 ??R<lambda_22ebabd17bc4fa466a2aca6d8deb888d>@@QBE@XZ
89D33 194 ??R<lambda_f03950bc5685219e0bcd2087efbe011e>@@QBE@XZ
89E0D 194 __crt_atexit
89E23 194 __execute_onexit_table
89E61 194 __initialize_onexit_table
89E8A 194 __register_onexit_function
89EBD 150 _initialize_global_variables
89ECA 150 _initialize_c
89EE4 98 ___acrt_uninitialize_command_line
89EE7 150 _uninitialize_environment
89EEF 150 _initialize_pointers
89F1D 150 _uninitialize_vcruntime
89F26 150 _uninitialize_allocated_memory
89F3D 150 _uninitialize_allocated_io_buffers
89F8D 150 ??R<lambda_af42a3ee9806e9a7305d451646e05244>@@QBE@AAPAU__crt_multibyte_data@@@Z
89FBB 150 ___acrt_initialize
89FCD 150 ___acrt_thread_attach
89FD8 150 ___acrt_thread_detach
89FE2 150 ___acrt_uninitialize
8A012 150 ___acrt_uninitialize_critical
8A024 153 __initterm
8A04F 153 __initterm_e
8A07D 212 _strcpy_s
8A0E0 216 _strncmp
8A158 198 ??$?RV<lambda_15ade71b0218206bbe3333a0c9b79046>@@AAV<lambda_da44e0f8b0f19ba52fefafb335991732>@@V<lambda_207f2d024fc103971653565357d6cd41>@@@?$__crt_seh_guarded_call@X@@QAEX$$QAV<lambda_15ade71b0218206bbe3333a0c9b79046>@@AAV<lambda_da44e0f8b0f19ba52fefafb335991732>@@$$QAV<lambda_207f2d024fc103971653565357d6cd41>@@@Z
8A1AA 198 ??$?RV<lambda_38edbb1296d33220d7e4dd0ed76b244a>@@AAV<lambda_5ce1d447e08cb34b2473517608e21441>@@V<lambda_fb385d3da700c9147fc39e65dd577a8c>@@@?$__crt_seh_guarded_call@X@@QAEX$$QAV<lambda_38edbb1296d33220d7e4dd0ed76b244a>@@AAV<lambda_5ce1d447e08cb34b2473517608e21441>@@$$QAV<lambda_fb385d3da700c9147fc39e65dd577a8c>@@@Z
8A215 198 ??$?RV<lambda_6affb1475c98b40b75cdec977db92e3c>@@AAV<lambda_b8d4b9c228a6ecc3f80208dbb4b4a104>@@V<lambda_608742c3c92a14382c1684fc64f96c88>@@@?$__crt_seh_guarded_call@X@@QAEX$$QAV<lambda_6affb1475c98b40b75cdec977db92e3c>@@AAV<lambda_b8d4b9c228a6ecc3f80208dbb4b4a104>@@$$QAV<lambda_608742c3c92a14382c1684fc64f96c88>@@@Z
8A26A 198 ??$?RV<lambda_a7e850c220f1c8d1e6efeecdedd162c6>@@AAV<lambda_46720907175c18b6c9d2717bc0d2d362>@@V<lambda_9048902d66e8d99359bc9897bbb930a8>@@@?$__crt_seh_guarded_call@X@@QAEX$$QAV<lambda_a7e850c220f1c8d1e6efeecdedd162c6>@@AAV<lambda_46720907175c18b6c9d2717bc0d2d362>@@$$QAV<lambda_9048902d66e8d99359bc9897bbb930a8>@@@Z
8A2C4 198 ?construct_ptd@@YAXQAU__acrt_ptd@@QAPAU__crt_locale_data@@@Z
8A35D 198 ?destroy_fls@@YGXPAX@Z
8A37E 198 ?destroy_ptd@@YAXQAU__acrt_ptd@@@Z
8A44B 198 ?replace_current_thread_locale_nolock@@YAXQAU__acrt_ptd@@QAU__crt_locale_data@@@Z
8A496 198 ___acrt_freeptd
8A4C2 198 ___acrt_getptd
8A57D 198 ___acrt_getptd_head
8A613 198 ___acrt_getptd_noexit
8A6C4 198 ___acrt_getptd_noexit_explicit
8A767 198 ___acrt_initialize_ptd
8A793 198 ___acrt_uninitialize_ptd
8A7AD 247 ??$?RV<lambda_4fdada1b837b2abbf20876fac97688ad>@@AAV<lambda_b57350f2640456a0859d250846f69caf>@@V<lambda_eed5e4f92b5b7d55fa22c48c484aaa54>@@@?$__crt_seh_guarded_call@X@@QAEX$$QAV<lambda_4fdada1b837b2abbf20876fac97688ad>@@AAV<lambda_b57350f2640456a0859d250846f69caf>@@$$QAV<lambda_eed5e4f92b5b7d55fa22c48c484aaa54>@@@Z
8A7FA 247 ??$?RV<lambda_ac03c5d59bd18b09cb88b28331f6bfed>@@AAV<lambda_2a444430fde8c29194d880d93eed5e8f>@@AAV<lambda_02db5278e8aef8b5e4976579d73f5304>@@@?$__crt_seh_guarded_call@X@@QAEX$$QAV<lambda_ac03c5d59bd18b09cb88b28331f6bfed>@@AAV<lambda_2a444430fde8c29194d880d93eed5e8f>@@AAV<lambda_02db5278e8aef8b5e4976579d73f5304>@@@Z
8A83F 247 ??$?RV<lambda_e5124f882df8998aaf41531e079ba474>@@AAV<lambda_3e16ef9562a7dcce91392c22ab16ea36>@@V<lambda_e25ca0880e6ef98be67edffd8c599615>@@@?$__crt_seh_guarded_call@X@@QAEX$$QAV<lambda_e5124f882df8998aaf41531e079ba474>@@AAV<lambda_3e16ef9562a7dcce91392c22ab16ea36>@@$$QAV<lambda_e25ca0880e6ef98be67edffd8c599615>@@@Z
8A8AD 247 ??0_expandlocale_locale_name_cache@@QAE@QA_WIQAU__crt_qualified_locale_data@@@Z
8A8F7 247 ??1_expandlocale_locale_name_cache@@QAE@XZ
8A927 247 ??R<lambda_2a444430fde8c29194d880d93eed5e8f>@@QBE@XZ
8A991 247 ??R<lambda_b57350f2640456a0859d250846f69caf>@@QBE@XZ
8AA8F 247 ?commit_locale_name@_expandlocale_locale_name_cache@@QAEXQB_WI@Z
8AAD3 247 ?commit_locale_name_cache_already_updated@_expandlocale_locale_name_cache@@QAEXQB_WI@Z
8AB08 247 ___acrt_copy_locale_name
8AB68 247 ___acrt_set_locale_changed
8AB73 247 ___acrt_uninitialize_locale
8AB9A 247 ___lc_lctowcs
8AC0A 247 ___lc_wcstolc
8AD47 247 __copytlocinfo_nolock
8AD76 247 __expandlocale
8B13C 247 __wcscats
8B17D 247 __wsetlocale
8B200 247 __wsetlocale_get_all
8B39B 247 __wsetlocale_nolock
8B68B 247 __wsetlocale_set_cat
8BA4B 247 _get_default_code_page
8BA7A 247 _parse_bcp47
8BC54 247 _parse_bcp47_code_page
8BC93 247 _parse_bcp47_language
8BD05 247 _parse_bcp47_region
8BDC3 247 _parse_bcp47_script
8BE33 247 _string_is_alpha
8BE72 227 __towlower_l
8BF46 168 ___acrt_update_locale_info
8BF73 168 ___acrt_update_locale_info_explicit
8BFA4 168 ___acrt_update_multibyte_info
8BFD1 168 ___acrt_update_multibyte_info_explicit
8C002 162 ?__acrt_LCMapStringA_stat@@YAHPAU__crt_locale_pointers@@PB_WKPBDHPADHHH@Z
8C1F1 162 ___acrt_LCMapStringA
8C23A 133 __free_base
8C274 158 __isctype_l
8C33F 160 _iswctype
8C3A8 176 __malloc_base
8C3F6 117 ?__acrt_fp_classify@@YA?AW4__acrt_fp_class@@ABN@Z
8C458 117 ?fe_to_nearest@@YA_NQBN_KF@Z
8C4FB 117 ?fp_format_a@@YAHQBNPADIQADIH_NIW4__acrt_rounding_mode@@AAV__crt_cached_ptd_host@@@Z
8C828 117 ?fp_format_e@@YAHQBNQADI1IH_NIW4__acrt_rounding_mode@@AAV__crt_cached_ptd_host@@@Z
8C8CC 117 ?fp_format_e_internal@@YAHQADIH_NIQAU_strflt@@1AAV__crt_cached_ptd_host@@@Z
8CA1F 117 ?fp_format_f@@YAHQBNQADI1IHW4__acrt_rounding_mode@@AAV__crt_cached_ptd_host@@@Z
8CAB5 117 ?fp_format_f_internal@@YAHQADIHQAU_strflt@@_NAAV__crt_cached_ptd_host@@@Z
8CBA3 117 ?fp_format_g@@YAHQBNQADI1IH_NIW4__acrt_rounding_mode@@AAV__crt_cached_ptd_host@@@Z
8CC72 117 ?fp_format_nan_or_infinity@@YAHW4__acrt_fp_class@@_NPADI1@Z
8CD07 117 ?shift_bytes@@YAXQADI0H@Z
8CD3B 117 ?should_round_up@@YA_NQBN_KFW4__acrt_rounding_mode@@@Z
8CDCE 117 ___acrt_fp_format
8CF4F 242 __wctomb_internal
8D0B9 184 __mbtowc_internal
8D1EC 128 __fileno
8D213 90 ___acrt_initialize_stdio
8D2DB 90 ___acrt_uninitialize_stdio
8D327 90 __lock_file
8D33B 90 __unlock_file
8D34F 200 __get_printf_count_output
8D364 156 ?initialize_inherited_file_handles_nolock@@YAXXZ
8D41A 156 ?initialize_stdio_handles_nolock@@YAXXZ
8D4CA 156 ___acrt_initialize_lowio
8D52A 156 ___acrt_uninitialize_lowio
8D556 131 __errcode
8D58A 131 __except1
8D658 131 __handle_exc
8D8D8 131 __raise_exc
8D8FB 131 __raise_exc_ex
8DBEC 131 __set_errno_from_matherr
8DC1D 131 __umatherr
8DCBD 229 __decomp
8DD8F 229 __set_exp
8DDBC 229 __sptype
8DE1F 130 ___set_fpsr_sse2
8DE9F 130 __clrfp
8DEB0 130 __ctrlfp
8DEDA 130 __set_statfp
8DF33 130 __statfp
8DF43 105 __calloc_base
8DFA0 93 ___ascii_memicmp
8DFF9 183 ?_mbstowcs_internal@@YAHPAIPA_WIPBDIAAV__crt_cached_ptd_host@@@Z
8E0D5 183 ?_mbstowcs_l_helper@@YAIPA_WPBDIAAV__crt_cached_ptd_host@@@Z
8E29C 183 _mbstowcs_s
8E2D9 241 ?_wcstombs_internal@@YAHPAIPADIPB_WIAAV__crt_cached_ptd_host@@@Z
8E3AE 241 ?_wcstombs_l_helper@@YAIPADPB_WIAAV__crt_cached_ptd_host@@@Z
8E655 241 __wcstombs_s_l
8E693 245 ?<lambda_invoker_stdcall>@<lambda_29d3c280b90b41c2ae070ffca879996a>@@CG@PA_W@Z
8E6A0 245 ??$?RV<lambda_6b4b7855443974f2b4b77000ea21c99c>@@AAV<lambda_8f7d3b162ab39427f4fa9995c67a7986>@@V<lambda_cc9a5ba8a5d8428b9634eab82665e5dc>@@@?$__crt_seh_guarded_call@H@@QAEH$$QAV<lambda_6b4b7855443974f2b4b77000ea21c99c>@@AAV<lambda_8f7d3b162ab39427f4fa9995c67a7986>@@$$QAV<lambda_cc9a5ba8a5d8428b9634eab82665e5dc>@@@Z
8E71C 245 ??R<lambda_29d3c280b90b41c2ae070ffca879996a>@@QBE@PA_W@Z
8E74F 245 ?try_get_AreFileApisANSI@@YAP6GHXZXZ
8E769 245 ?try_get_CompareStringEx@@YAP6GHPB_WK0H0HPAU_nlsversioninfo@@PAXJ@ZXZ
8E783 245 ?try_get_EnumSystemLocalesEx@@YAP6GHP6GHPA_WKJ@ZKJPAX@ZXZ
8E79D 245 ?try_get_GetDateFormatEx@@YAP6GHPB_WKPBU_SYSTEMTIME@@0PA_WH0@ZXZ
8E7B7 245 ?try_get_GetLocaleInfoEx@@YAP6GHPB_WKPA_WH@ZXZ
8E7D1 245 ?try_get_GetTimeFormatEx@@YAP6GHPB_WKPBU_SYSTEMTIME@@0PA_WH@ZXZ
8E7EB 245 ?try_get_GetUserDefaultLocaleName@@YAP6GHPA_WH@ZXZ
8E805 245 ?try_get_IsValidLocaleName@@YAP6GHPB_W@ZXZ
8E81F 245 ?try_get_LCIDToLocaleName@@YAP6GHKPA_WHK@ZXZ
8E839 245 ?try_get_LCMapStringEx@@YAP6GHPB_WK0HPA_WHPAU_nlsversioninfo@@PAXJ@ZXZ
8E853 245 ?try_get_LocaleNameToLCID@@YAP6GKPB_WK@ZXZ
8E86D 245 ?try_get_first_available_module@@YAPAUHINSTANCE__@@QBW4module_id@?A0x391cf84c@@0@Z
8E938 245 ?try_get_function@@YAPAXW4function_id@?A0x391cf84c@@QBDQBW4module_id@2@2@Z
8E9BD 245 ___acrt_AppPolicyGetProcessTerminationMethodInternal@4
8E9FD 245 ___acrt_AreFileApisANSI@0
8EA1C 245 ___acrt_EnumSystemLocalesEx@16
8EA70 245 ___acrt_FlsAlloc@4
8EAAF 245 ___acrt_FlsFree@4
8EAEE 245 ___acrt_FlsGetValue@4
8EB2D 245 ___acrt_FlsSetValue@8
8EB6F 245 ___acrt_GetLocaleInfoEx@16
8EBAE 245 ___acrt_GetUserDefaultLocaleName@8
8EBEA 245 ___acrt_InitializeCriticalSectionEx@12
8EC35 245 ___acrt_IsValidLocaleName@4
8EC6D 245 ___acrt_LCIDToLocaleName@16
8ECAC 245 ___acrt_LCMapStringEx@36
8ED09 245 ___acrt_LocaleNameToLCID@8
8ED3A 245 ___acrt_can_use_vista_locale_apis
8ED45 245 ___acrt_eagerly_load_locale_apis
8ED7C 245 ___acrt_initialize_winapi_thunks
8ED90 245 ___acrt_uninitialize_winapi_thunks
8EDC6 139 ?InternalGetLocaleInfoA@@YAHQAU__crt_locale_pointers@@QB_WKQADH@Z
8EEA5 139 ___acrt_GetLocaleInfoA
8F055 142 ___acrt_GetStringTypeA
8F156 204 __realloc_base
8F1BF 124 _fegetround
8F1CC 96 __dtest
8F230 96 __ldtest
8F23B 209 ??$?RV<lambda_cbab9ec6f41b0180b23cc171c22676b0>@@AAV<lambda_44731a7d0e6d81c3e6aa82d741081786>@@V<lambda_4b292cb8dd18144e164572427af410ab>@@@?$__crt_seh_guarded_call@P6AXH@Z@@QAEP6AXH@Z$$QAV<lambda_cbab9ec6f41b0180b23cc171c22676b0>@@AAV<lambda_44731a7d0e6d81c3e6aa82d741081786>@@$$QAV<lambda_4b292cb8dd18144e164572427af410ab>@@@Z
8F2A3 209 ?get_global_action_nolock@@YAPAP6AXH@ZH@Z
8F2E5 209 ?siglookup@@YAPAU__crt_signal_action_t@@HQAU1@@Z
8F30D 209 ___acrt_get_sigabrt_handler
8F334 209 ___acrt_initialize_signal_handlers
8F352 209 _raise
8F544 188 ?filter_mbtowcs_flags@@YAKIK@Z
8F5DC 188 ___acrt_MultiByteToWideChar
8F606 243 ?filter_wcstomb_flags@@YAKIK@Z
8F696 243 ___acrt_WideCharToMultiByte
8F702 224 ___acrt_initialize_timeset
8F737 228 ?__acrt_get_utf8_acp_compatibility_codepage@@YAIXZ
8F776 197 ___acrt_app_verifier_enabled
8F788 197 ___acrt_is_secure_process
8F79B 244 ___acrt_get_process_end_policy
8F7C2 100 ?<lambda_invoker_cdecl>@<lambda_838c7f62c73c983481e27c09e84b0b5d>@@CAHPBX0@Z
8F7DA 100 ??$__acrt_convert_wcs_mbs_cp@_WDV<lambda_28bda7af82a03b66c1cb3803a755f95d>@@U__crt_win32_buffer_internal_dynamic_resizing@@@@YAHQB_WAAV?$__crt_win32_buffer@DU__crt_win32_buffer_internal_dynamic_resizing@@@@ABV<lambda_28bda7af82a03b66c1cb3803a755f95d>@@I@Z
8F8A0 100 ??$common_expand_argv_wildcards@D@@YAHQAPADQAPAPAD@Z
8FA1D 100 ??$copy_and_add_argument_to_buffer@D@@YAHQBD0IAAV?$argument_list@D@?A0x5f5c8891@@@Z
8FACE 100 ??$expand_argument_wildcards@D@@YAHQAD0AAV?$argument_list@D@?A0x5f5c8891@@@Z
8FD53 100 ??1?$argument_list@D@?A0x5f5c8891@@QAE@XZ
8FD78 100 ?allocate@?$__crt_win32_buffer@DU__crt_win32_buffer_internal_dynamic_resizing@@@@QAEHI@Z
8FDB4 100 ?expand_if_necessary@?$argument_list@D@?A0x5f5c8891@@AAEHXZ
8FE3B 100 ___acrt_expand_narrow_argv_wildcards
8FE46 140 ___acrt_GetModuleFileNameA
8FEE7 179 ??$?RV<lambda_ceb1ee4838e85a9d631eb091e2fbe199>@@AAV<lambda_ae742caa10f662c28703da3d2ea5e57e>@@V<lambda_cd08b5d6af4937fe54fc07d0c9bf6b37>@@@?$__crt_seh_guarded_call@X@@QAEX$$QAV<lambda_ceb1ee4838e85a9d631eb091e2fbe199>@@AAV<lambda_ae742caa10f662c28703da3d2ea5e57e>@@$$QAV<lambda_cd08b5d6af4937fe54fc07d0c9bf6b37>@@@Z
8FF34 179 ??R<lambda_ae742caa10f662c28703da3d2ea5e57e>@@QBE@XZ
8FFB7 179 ?CPtoLocaleName@@YAPB_WH@Z
8FFF5 179 ?getSystemCP@@YAHH@Z
90066 179 ?setSBCS@@YAXPAU__crt_multibyte_data@@@Z
900C9 179 ?setSBUpLow@@YAXPAU__crt_multibyte_data@@@Z
9026E 179 ?setmbcp_internal@@YAHH_NQAU__acrt_ptd@@QAPAU__crt_multibyte_data@@@Z
903C3 179 ?update_thread_multibyte_data_internal@@YAPAU__crt_multibyte_data@@QAU__acrt_ptd@@QAPAU1@@Z
90463 179 ___acrt_initialize_multibyte
904AB 179 ___acrt_update_thread_multibyte_data
904BE 179 __setmbcp_nolock
906C3 159 ?x_ismbbtype_l@@YAHPAU__crt_locale_pointers@@IHH@Z
90713 159 __ismbblead
9072B 98 ___acrt_initialize_command_line
90744 137 ?find_end_of_double_null_terminated_sequence@@YAPB_WQB_W@Z
9077B 137 ___dcrt_get_narrow_environment_from_os
9081B 205 __recalloc_base
90888 208 ___acrt_execute_initializers
908F0 208 ___acrt_execute_uninitializers
90921 177 ___acrt_has_user_matherr
9093E 177 ___acrt_initialize_user_matherr
9094D 177 ___acrt_invoke_user_matherr
90983 127 ??$?RV<lambda_2866be3712abc81a800a822484c830d8>@@AAV<lambda_39ca0ed439415581b5b15c265174cece>@@V<lambda_2b24c74d71094a6cd0cb82e44167d71b>@@@?$__crt_seh_guarded_call@X@@QAEX$$QAV<lambda_2866be3712abc81a800a822484c830d8>@@AAV<lambda_39ca0ed439415581b5b15c265174cece>@@$$QAV<lambda_2b24c74d71094a6cd0cb82e44167d71b>@@@Z
90A0F 127 ??$?RV<lambda_2cc53f568c5a2bb6f192f930a45d44ea>@@AAV<lambda_ab61a845afdef5b7c387490eaf3616ee>@@V<lambda_c2ffc0b7726aa6be21d5f0026187e748>@@@?$__crt_seh_guarded_call@X@@QAEX$$QAV<lambda_2cc53f568c5a2bb6f192f930a45d44ea>@@AAV<lambda_ab61a845afdef5b7c387490eaf3616ee>@@$$QAV<lambda_c2ffc0b7726aa6be21d5f0026187e748>@@@Z
90ABB 127 ?common_flush_all@@YAH_N@Z
90B08 127 ?common_flush_all_should_try_to_flush_stream@@YA_NV__crt_stdio_stream@@QAH@Z
90B39 127 ?is_stream_flushable_or_commitable@@YA_NJ@Z
90B5C 127 ___acrt_stdio_flush_nolock
90BC5 127 __fflush_nolock
90C2A 127 __flushall
90C33 167 ___acrt_add_locale_ref
90CB0 167 ___acrt_free_locale
90DF8 167 ___acrt_locale_add_lc_time_reference
90E21 167 ___acrt_locale_free_lc_time_if_unreferenced
90E52 167 ___acrt_locale_release_lc_time_reference
90E7B 167 ___acrt_release_locale_ref
90EFC 167 ___acrt_update_thread_locale_data
90F7D 167 __updatetlocinfoEx_nolock
90FCD 151 ___acrt_locale_free_monetary
910CB 151 ___acrt_locale_initialize_monetary
9142C 152 ___acrt_locale_free_numeric
91495 152 ___acrt_locale_initialize_numeric
916B2 154 ?free_crt_array_internal@@YAXQAPBXI@Z
916D7 154 ?initialize_lc_time@@YA_NQAU__crt_lc_time_data@@QAU__crt_locale_data@@@Z
91953 154 ___acrt_locale_free_time
91A37 154 ___acrt_locale_initialize_time
91AB2 231 _wcscat_s
91B21 236 ??$common_tcsncat_s@_W@@YAHQA_WIQB_WI@Z
91C09 236 _wcsncat_s
91C14 233 _wcscspn
91C6D 240 _wcspbrk
91CBB 138 _GetLocaleNameFromDefault
91D42 138 _GetLocaleNameFromLangCountry
91DDB 138 _GetLocaleNameFromLanguage
91E34 138 _GetPrimaryLen
91E68 138 _LangCountryEnumProcEx@12
92149 138 _LanguageEnumProcEx@12
92208 138 _ProcessCodePage
922F8 138 _TestDefaultCountry
92345 138 _TranslateName
923B2 138 ___acrt_get_qualified_locale
925B7 141 _CountryEnumProc@4
9265E 141 _GetLcidFromCountry
926A9 141 _GetLcidFromLangCountry
92744 141 _GetLcidFromLanguage
927A3 141 _GetPrimaryLen
927CF 141 _LangCountryEnumProc@4
92A22 141 _LanguageEnumProc@4
92AF7 141 _LcidFromHexString
92B4B 141 _ProcessCodePage
92C2C 141 _TestDefaultCountry
92C51 141 _TestDefaultLanguage
92CC6 141 _TranslateName
92D27 141 ___acrt_get_qualified_locale_downlevel
92F17 163 ___acrt_LCMapStringW
92F55 143 ___acrt_GetStringTypeW
92F6E 192 __query_new_mode
92F75 91 ?check_trailing@@YA_NPBDW4__acrt_has_trailing_digits@@@Z
92F98 91 ?should_round_up@@YA_NQBD0HW4__acrt_has_trailing_digits@@W4__acrt_rounding_mode@@@Z
93026 91 ___acrt_fp_strflt_to_string
93120 108 ___acrt_fltout
94708 103 ?__c32rtomb_utf8@__crt_mbstring@@YAIPAD_UPAU_Mbstatet@@AAV__crt_cached_ptd_host@@@Z
947B8 181 ??R<lambda_e96123212306c92459f955e8e4eac55d>@@QBEIPBD@Z
947E4 181 ?__mbrtowc_utf8@__crt_mbstring@@YAIPA_WPBDIPAU_Mbstatet@@AAV__crt_cached_ptd_host@@@Z
94827 181 ?__mbsrtowcs_utf8@__crt_mbstring@@YAIPA_WPAPBDIPAU_Mbstatet@@AAV__crt_cached_ptd_host@@@Z
9492F 110 __fcloseall
949DA 92 ___acrt_stdio_free_buffer_nolock
94A1A 157 __isatty
94A70 195 ___acrt_lowio_create_handle_array
94AEB 195 ___acrt_lowio_destroy_handle_array
94B20 195 ___acrt_lowio_ensure_fh_exists
94BBE 195 ___acrt_lowio_lock_fh
94BE1 195 ___acrt_lowio_unlock_fh
94C04 195 __free_osfhnd
94C95 195 __get_osfhandle
94CFF 230 ?__wcsrtombs_utf8@__crt_mbstring@@YAIPADPAPB_WIPAU_Mbstatet@@AAV__crt_cached_ptd_host@@@Z
94E0E 161 ?GetTableIndexFromLocaleName@@YAHPB_W@Z
94E5E 161 ___acrt_DownlevelLCIDToLocaleName
94F01 161 ___acrt_DownlevelLocaleNameToLCID
94F2D 218 ??$common_tcsncpy_s@D@@YAHQADIQBDI@Z
94FE4 218 _strncpy_s
94FEF 89 ?to_abstract_control@@YA?AW4__acrt_fenv_abstract_control@@W4__acrt_fenv_machine_sse_control@@@Z
9509F 89 ?to_abstract_control@@YA?AW4__acrt_fenv_abstract_control@@W4__acrt_fenv_machine_x87_control@@@Z
9514C 89 ?to_machine_sse_control@@YA?AW4__acrt_fenv_machine_sse_control@@W4__acrt_fenv_abstract_control@@@Z
95202 89 ?to_machine_x87_control@@YA?AW4__acrt_fenv_machine_x87_control@@W4__acrt_fenv_abstract_control@@@Z
952B8 89 ___acrt_fenv_get_common_round_control
952DA 89 ___acrt_fenv_get_control
9535A 89 ___acrt_fenv_get_status
95404 89 ___acrt_fenv_set_control
9547F 89 ___acrt_fenv_set_status
95580 202 _qsort
95A70 220 _strpbrk
95AB0 182 __mbsdec
95AC7 182 __mbsdec_l
95B54 187 ?initialize_multibyte@@YAHXZ
95B63 186 __msize_base
95B96 111 ??$?RV<lambda_9e9de3de5fa147e2223d7db92bc10aa6>@@AAV<lambda_38ce7e780aa69e748d6df282ebc68efe>@@V<lambda_8ca6da459f0f6780f1cff60fdc3d00e5>@@@?$__crt_seh_guarded_call@H@@QAEH$$QAV<lambda_9e9de3de5fa147e2223d7db92bc10aa6>@@AAV<lambda_38ce7e780aa69e748d6df282ebc68efe>@@$$QAV<lambda_8ca6da459f0f6780f1cff60fdc3d00e5>@@@Z
95C38 111 __commit
95CB5 246 ?write_double_translated_ansi_nolock@@YA?AUwrite_result@?A0x17268360@@HQBDIAAV__crt_cached_ptd_host@@@Z
9607C 246 ?write_double_translated_unicode_nolock@@YA?AUwrite_result@?A0x17268360@@QBDI@Z
960E4 246 ?write_requires_double_translation_nolock@@YA_NHAAV__crt_cached_ptd_host@@@Z
96161 246 ?write_text_ansi_nolock@@YA?AUwrite_result@?A0x17268360@@HQBDI@Z
9623C 246 ?write_text_utf16le_nolock@@YA?AUwrite_result@?A0x17268360@@HQBDI@Z
96325 246 ?write_text_utf8_nolock@@YA?AUwrite_result@?A0x17268360@@HQBDI@Z
96457 246 __write_internal
96568 246 __write_nolock
96784 115 __controlfp_s
967E3 123 _fegetenv
96800 126 _fesetenv
9684C 125 _feholdexcept
968A0 171 __CIlog10
968DB 171 __CIlog10_default
968EF 171 __log10_default
969B0 107 _ceil
969F0 107 __ceil_pentium4
96ACD 113 ?reset_and_return@__crt_mbstring@@YAIIPAU_Mbstatet@@@Z
96AE1 113 ?return_illegal_sequence@__crt_mbstring@@YAIPAU_Mbstatet@@AAV__crt_cached_ptd_host@@@Z
96B03 180 ?__mbrtoc32_utf8@__crt_mbstring@@YAIPA_UPBDIPAU_Mbstatet@@AAV__crt_cached_ptd_host@@@Z
96CB4 122 ?_fclose_internal@@YAHQAU_iobuf@@AAV__crt_cached_ptd_host@@@Z
96D4B 122 ?_fclose_nolock_internal@@YAHQAU_iobuf@@AAV__crt_cached_ptd_host@@@Z
96DD9 122 _fclose
96E09 174 ??$common_lseek_nolock@_J@@YA_JH_JHAAV__crt_cached_ptd_host@@@Z
96E8C 174 __lseeki64_nolock_internal
96EAA 206 __query_app_type
96EB0 102 ?__c16rtomb_utf8@__crt_mbstring@@YAIPAD_SPAU_Mbstatet@@AAV__crt_cached_ptd_host@@@Z
96F5A 201 __putwch_nolock
96F8C 146 ___hw_cw_sse2
97033 146 __clearfp
97111 146 __control87
97412 146 __hw_cw
974B0 178 ___acrt_initialize_sse2
974C0 172 __CIlog10_pentium4
974D8 172 __log10_pentium4
97750 87 $$000000
97770 87 __fFEXP
977C7 87 __rtinfpopse
977C9 87 __rtinfnpopse
977D9 87 __fFLN
9788E 87 __rtinfpop
97890 87 __rtinfnpop
978A0 87 __rtforexpinf
978AD 87 __ffexpm1
97960 85 __trandisp1
979D5 85 __trandisp2
97A6F 85 __rttospopde
97A74 85 __rttospop
97A80 85 __rtnospop
97A90 85 __rttosnpop
97A91 85 __rtnospopde
97A98 85 __rtzeropop
97A9A 85 __rtzeronpop
97AA0 85 __rtzerospop
97AAD 85 __rtonepop
97AB0 85 __rtonenpop
97AC0 85 __tosnan1
97AF0 85 __nosnan2
97B00 85 __tosnan2
97B30 85 __nan2
97B70 85 __rtindfpop
97B72 85 __rtindfnpop
97B83 85 __rttosnpopde
97B90 85 __rtatan2inf
97BAD 85 __rtchsifneg
97BC0 112 __twoToTOS
97BD5 112 __load_CW
97BEC 112 __convertTOStoQNaN
97C05 112 __fload_withFB
97C48 112 __checkTOS_withFB
97C5E 112 __fast_exit
97C6B 112 __math_exit
97C95 112 __check_overflow_exit
97CA9 112 __check_range_exit
97D50 136 __startTwoArgErrorHandling
97D67 136 __startOneArgErrorHandling
97DA3 165 ___libm_error_support
97F97 106 __ceil_default
98055 109 ??$?RV<lambda_d422a76eb4c3bf3ad751449ab71a6ea4>@@AAV<lambda_c9ba49e555ba839a7b07aa3fbecb7617>@@V<lambda_9476263c8ee91a25d21c55370bdb50de>@@@?$__crt_seh_guarded_call@H@@QAEH$$QAV<lambda_d422a76eb4c3bf3ad751449ab71a6ea4>@@AAV<lambda_c9ba49e555ba839a7b07aa3fbecb7617>@@$$QAV<lambda_9476263c8ee91a25d21c55370bdb50de>@@@Z
980E6 109 __close_internal
98189 109 __close_nolock_internal
98229 214 ?__acrt_stdio_free_stream@@YAXV__crt_stdio_stream@@@Z
98270 95 ___ascii_strnicmp
982D1 148 ?__dcrt_lowio_initialize_console_output@@YAXXZ
982F0 148 ___dcrt_lowio_ensure_console_output_initialized
9830F 148 ___dcrt_terminate_console_output
98326 148 ___dcrt_write_console
9837B 199 __d_inttype
983E3 199 __powhlp
9850E 86 __87except
9861E 135 __frnd
98632 147 __fpclass
986D6 5 @_guard_check_icall@4
986E0 33 __FindPESection
98730 33 __IsNonwritableInCurrentImage
987F0 33 __ValidateImageBase
98830 40 __aulldvrm
98861 40 L1
9886F 40 L3
9889D 40 L4
988A6 40 L5
988A8 40 L2
988D0 41 __aullrem
988F1 41 L1
988FF 41 L3
9892A 41 L4
98932 41 L5
98941 41 L2
98950 29 __allshl
98960 29 MORE32
9896A 29 RETZERO
98970 42 __aullshr
98980 42 MORE32
9898A 42 RETZERO
98990 26 __alldiv
989B1 26 L1
989CD 26 L2
989E9 26 L3
989F7 26 L5
98A25 26 L6
98A26 26 L7
98A2A 26 L4
98A34 26 L8
98A40 28 __allrem
98A60 28 L1
98A7B 28 L2
98A9A 28 L3
98AA8 28 L5
98AD3 28 L6
98ADB 28 L7
98AE6 28 L4
98AED 28 L8
98B00 18 __ftol2_sse
98B10 18 __ftoi2
98B21 18 L3B
98B64 18 L3F
98B6C 18 L40
98B7F 18 L41
98B90 18 __ftol2
98BAE 18 L51
98BF3 18 L52
98C07 18 L53
98C09 18 L55
98C13 18 L56
98C2C 18 L57
98C40 18 __ftoul2
98C5B 18 LA5
98C70 18 LA6
98C81 18 LA7
98C8E 18 LA9
98CD5 18 LAA
98CDC 18 LAC
98CE3 18 LAD
98CED 18 LAF
98D00 18 __ftoul2_legacy
98D20 268 _strrchr
98D5D 268 strrchr_sse_loop
98D8D 268 strrchr_sse_break
98DAD 268 strrchr_sttni
98DBF 268 strrchr_sttni_chars
98DD4 268 strrchr_sttni_aligned
98DD8 268 strrchr_sttni_xmm
98DEB 268 exit
98DEE 268 strrchr_zero
98E13 268 strchr_zero_loop
98E27 268 strchr_zero_result
98E2E 268 strrchr_no_sse
98E51 268 returndi
98E53 268 toend
98E60 45 __filter_x86_sse2_floating_point_exception
98EE0 49 __unwindfunclet$??0Error@@QAE@JPBDH@Z$0
98EEB 49 __unwindfunclet$??0Error@@QAE@JPBDH@Z$1
98EFB 49 __ehhandler$??0Error@@QAE@JPBDH@Z
98F20 49 __unwindfunclet$??0Error@@QAE@ABV?$basic_string@_WU?$char_traits@_W@std@@V?$allocator@_W@2@@std@@PBDH@Z$0
98F2B 49 __unwindfunclet$??0Error@@QAE@ABV?$basic_string@_WU?$char_traits@_W@std@@V?$allocator@_W@2@@std@@PBDH@Z$2
98F3E 49 __unwindfunclet$??0Error@@QAE@ABV?$basic_string@_WU?$char_traits@_W@std@@V?$allocator@_W@2@@std@@PBDH@Z$3
98F4E 49 __ehhandler$??0Error@@QAE@ABV?$basic_string@_WU?$char_traits@_W@std@@V?$allocator@_W@2@@std@@PBDH@Z
98F80 49 __ehhandler$??1PropVariant@@QAE@XZ
98FA0 49 __unwindfunclet$??0Error@@QAE@ABU0@@Z$0
98FAB 49 __unwindfunclet$??0Error@@QAE@ABU0@@Z$1
98FBB 49 __ehhandler$??0Error@@QAE@ABU0@@Z
98FE0 49 __unwindfunclet$?arc_name@Archive@@QBE?AV?$basic_string@_WU?$char_traits@_W@std@@V?$allocator@_W@2@@std@@XZ$0
98FED 49 __ehhandler$?arc_name@Archive@@QBE?AV?$basic_string@_WU?$char_traits@_W@std@@V?$allocator@_W@2@@std@@XZ
99020 49 __unwindfunclet$?get_anti@Archive@@QBE_NI@Z$0
9902D 49 __ehhandler$?get_anti@Archive@@QBE_NI@Z
99050 49 __unwindfunclet$?get_string_prop@ArcLib@@QBEJIKAAV?$basic_string@_WU?$char_traits@_W@std@@V?$allocator@_W@2@@std@@@Z$0
9905D 49 __ehhandler$?get_string_prop@ArcLib@@QBEJIKAAV?$basic_string@_WU?$char_traits@_W@std@@V?$allocator@_W@2@@std@@@Z
99090 49 __unwindfunclet$?get_arc_types@ArcFormats@@QBE?AV?$list@V?$vector@EV?$allocator@E@std@@@std@@V?$allocator@V?$vector@EV?$allocator@E@std@@@std@@@2@@std@@XZ$0
990A9 49 __unwindfunclet$?get_arc_types@ArcFormats@@QBE?AV?$list@V?$vector@EV?$allocator@E@std@@@std@@V?$allocator@V?$vector@EV?$allocator@E@std@@@std@@@2@@std@@XZ$2
990B6 49 __ehhandler$?get_arc_types@ArcFormats@@QBE?AV?$list@V?$vector@EV?$allocator@E@std@@@std@@V?$allocator@V?$vector@EV?$allocator@E@std@@@std@@@2@@std@@XZ
990E0 49 __unwindfunclet$?find_by_name@ArcFormats@@QBE?AV?$list@V?$vector@EV?$allocator@E@std@@@std@@V?$allocator@V?$vector@EV?$allocator@E@std@@@std@@@2@@std@@ABV?$basic_string@_WU?$char_traits@_W@std@@V?$allocator@_W@2@@3@@Z$0
990F9 49 __unwindfunclet$?find_by_name@ArcFormats@@QBE?AV?$list@V?$vector@EV?$allocator@E@std@@@std@@V?$allocator@V?$vector@EV?$allocator@E@std@@@std@@@2@@std@@ABV?$basic_string@_WU?$char_traits@_W@std@@V?$allocator@_W@2@@3@@Z$1
99101 49 __unwindfunclet$?find_by_name@ArcFormats@@QBE?AV?$list@V?$vector@EV?$allocator@E@std@@@std@@V?$allocator@V?$vector@EV?$allocator@E@std@@@std@@@2@@std@@ABV?$basic_string@_WU?$char_traits@_W@std@@V?$allocator@_W@2@@3@@Z$5
9910E 49 __ehhandler$?find_by_name@ArcFormats@@QBE?AV?$list@V?$vector@EV?$allocator@E@std@@@std@@V?$allocator@V?$vector@EV?$allocator@E@std@@@std@@@2@@std@@ABV?$basic_string@_WU?$char_traits@_W@std@@V?$allocator@_W@2@@3@@Z
99140 49 __unwindfunclet$?find_by_ext@ArcFormats@@QBE?AV?$list@V?$vector@EV?$allocator@E@std@@@std@@V?$allocator@V?$vector@EV?$allocator@E@std@@@std@@@2@@std@@ABV?$basic_string@_WU?$char_traits@_W@std@@V?$allocator@_W@2@@3@@Z$0
99159 49 __unwindfunclet$?find_by_ext@ArcFormats@@QBE?AV?$list@V?$vector@EV?$allocator@E@std@@@std@@V?$allocator@V?$vector@EV?$allocator@E@std@@@std@@@2@@std@@ABV?$basic_string@_WU?$char_traits@_W@std@@V?$allocator@_W@2@@3@@Z$1
99161 49 __unwindfunclet$?find_by_ext@ArcFormats@@QBE?AV?$list@V?$vector@EV?$allocator@E@std@@@std@@V?$allocator@V?$vector@EV?$allocator@E@std@@@std@@@2@@std@@ABV?$basic_string@_WU?$char_traits@_W@std@@V?$allocator@_W@2@@3@@Z$3
99169 49 __unwindfunclet$?find_by_ext@ArcFormats@@QBE?AV?$list@V?$vector@EV?$allocator@E@std@@@std@@V?$allocator@V?$vector@EV?$allocator@E@std@@@std@@@2@@std@@ABV?$basic_string@_WU?$char_traits@_W@std@@V?$allocator@_W@2@@3@@Z$10
99176 49 __ehhandler$?find_by_ext@ArcFormats@@QBE?AV?$list@V?$vector@EV?$allocator@E@std@@@std@@V?$allocator@V?$vector@EV?$allocator@E@std@@@std@@@2@@std@@ABV?$basic_string@_WU?$char_traits@_W@std@@V?$allocator@_W@2@@3@@Z
991A0 49 __unwindfunclet$?find_by_name@SfxModules@@QBEIABV?$basic_string@_WU?$char_traits@_W@std@@V?$allocator@_W@2@@std@@@Z$0
991A8 49 __unwindfunclet$?find_by_name@SfxModules@@QBEIABV?$basic_string@_WU?$char_traits@_W@std@@V?$allocator@_W@2@@std@@@Z$1
991B5 49 __ehhandler$?find_by_name@SfxModules@@QBEIABV?$basic_string@_WU?$char_traits@_W@std@@V?$allocator@_W@2@@std@@@Z
991E0 49 __unwindfunclet$?to_string@ArcChain@@QBE?AV?$basic_string@_WU?$char_traits@_W@std@@V?$allocator@_W@2@@std@@XZ$0
991FE 49 __ehhandler$?to_string@ArcChain@@QBE?AV?$basic_string@_WU?$char_traits@_W@std@@V?$allocator@_W@2@@std@@XZ
99220 49 __unwindfunclet$?GetCoderInfo@@YA_NP6GJIKPAUtagPROPVARIANT@@@ZIAAUCDllCodecInfo@@@Z$0
99228 49 __unwindfunclet$?GetCoderInfo@@YA_NP6GJIKPAUtagPROPVARIANT@@@ZIAAUCDllCodecInfo@@@Z$1
99230 49 __unwindfunclet$?GetCoderInfo@@YA_NP6GJIKPAUtagPROPVARIANT@@@ZIAAUCDllCodecInfo@@@Z$2
99238 49 __unwindfunclet$?GetCoderInfo@@YA_NP6GJIKPAUtagPROPVARIANT@@@ZIAAUCDllCodecInfo@@@Z$3
99245 49 __ehhandler$?GetCoderInfo@@YA_NP6GJIKPAUtagPROPVARIANT@@@ZIAAUCDllCodecInfo@@@Z
99270 49 __unwindfunclet$??0MyCompressCodecsInfo@@QAE@ABV?$vector@UArcLib@@V?$allocator@UArcLib@@@std@@@std@@ABV?$vector@UCDllCodecInfo@@V?$allocator@UCDllCodecInfo@@@std@@@2@ABV?$vector@UCDllHasherInfo@@V?$allocator@UCDllHasherInfo@@@std@@@2@I@Z$0
9927E 49 __unwindfunclet$??0MyCompressCodecsInfo@@QAE@ABV?$vector@UArcLib@@V?$allocator@UArcLib@@@std@@@std@@ABV?$vector@UCDllCodecInfo@@V?$allocator@UCDllCodecInfo@@@std@@@2@ABV?$vector@UCDllHasherInfo@@V?$allocator@UCDllHasherInfo@@@std@@@2@I@Z$1
9928C 49 __unwindfunclet$??0MyCompressCodecsInfo@@QAE@ABV?$vector@UArcLib@@V?$allocator@UArcLib@@@std@@@std@@ABV?$vector@UCDllCodecInfo@@V?$allocator@UCDllCodecInfo@@@std@@@2@ABV?$vector@UCDllHasherInfo@@V?$allocator@UCDllHasherInfo@@@std@@@2@I@Z$2
9929A 49 __unwindfunclet$??0MyCompressCodecsInfo@@QAE@ABV?$vector@UArcLib@@V?$allocator@UArcLib@@@std@@@std@@ABV?$vector@UCDllCodecInfo@@V?$allocator@UCDllCodecInfo@@@std@@@2@ABV?$vector@UCDllHasherInfo@@V?$allocator@UCDllHasherInfo@@@std@@@2@I@Z$3
992A7 49 __ehhandler$??0MyCompressCodecsInfo@@QAE@ABV?$vector@UArcLib@@V?$allocator@UArcLib@@@std@@@std@@ABV?$vector@UCDllCodecInfo@@V?$allocator@UCDllCodecInfo@@@std@@@2@ABV?$vector@UCDllHasherInfo@@V?$allocator@UCDllHasherInfo@@@std@@@2@I@Z
992E0 49 __ehhandler$?GetProperty@MyCompressCodecsInfo@@UAGJIKPAUtagPROPVARIANT@@@Z
99300 49 __ehhandler$?CreateDecoder@MyCompressCodecsInfo@@UAGJIPBU_GUID@@PAPAX@Z
99320 49 __unwindfunclet$?get@ArcAPI@@CAPAV1@XZ$0
9932F 49 __unwindfunclet$?get@ArcAPI@@CAPAV1@XZ$1
99337 49 __unwindfunclet$?get@ArcAPI@@CAPAV1@XZ$2
99342 49 __unwindfunclet$?get@ArcAPI@@CAPAV1@XZ$3
99352 49 __ehhandler$?get@ArcAPI@@CAPAV1@XZ
99370 49 __unwindfunclet$?load_libs@ArcAPI@@AAEXABV?$basic_string@_WU?$char_traits@_W@std@@V?$allocator@_W@2@@std@@@Z$0
9937B 49 __unwindfunclet$?load_libs@ArcAPI@@AAEXABV?$basic_string@_WU?$char_traits@_W@std@@V?$allocator@_W@2@@std@@@Z$1
99383 49 __unwindfunclet$?load_libs@ArcAPI@@AAEXABV?$basic_string@_WU?$char_traits@_W@std@@V?$allocator@_W@2@@std@@@Z$2
9938E 49 __unwindfunclet$?load_libs@ArcAPI@@AAEXABV?$basic_string@_WU?$char_traits@_W@std@@V?$allocator@_W@2@@std@@@Z$3
99396 49 __unwindfunclet$?load_libs@ArcAPI@@AAEXABV?$basic_string@_WU?$char_traits@_W@std@@V?$allocator@_W@2@@std@@@Z$25
993A9 49 __ehhandler$?load_libs@ArcAPI@@AAEXABV?$basic_string@_WU?$char_traits@_W@std@@V?$allocator@_W@2@@std@@@Z
993E0 49 __ehhandler$??1ArcLib@@QAE@XZ
99400 49 __unwindfunclet$?load_codecs@ArcAPI@@AAEXABV?$basic_string@_WU?$char_traits@_W@std@@V?$allocator@_W@2@@std@@@Z$0
9940B 49 __unwindfunclet$?load_codecs@ArcAPI@@AAEXABV?$basic_string@_WU?$char_traits@_W@std@@V?$allocator@_W@2@@std@@@Z$1
99413 49 __unwindfunclet$?load_codecs@ArcAPI@@AAEXABV?$basic_string@_WU?$char_traits@_W@std@@V?$allocator@_W@2@@std@@@Z$2
9941E 49 __unwindfunclet$?load_codecs@ArcAPI@@AAEXABV?$basic_string@_WU?$char_traits@_W@std@@V?$allocator@_W@2@@std@@@Z$3
99426 49 __unwindfunclet$?load_codecs@ArcAPI@@AAEXABV?$basic_string@_WU?$char_traits@_W@std@@V?$allocator@_W@2@@std@@@Z$24
99434 49 __unwindfunclet$?load_codecs@ArcAPI@@AAEXABV?$basic_string@_WU?$char_traits@_W@std@@V?$allocator@_W@2@@std@@@Z$5
9944B 49 __ehhandler$?load_codecs@ArcAPI@@AAEXABV?$basic_string@_WU?$char_traits@_W@std@@V?$allocator@_W@2@@std@@@Z
99480 49 __unwindfunclet$??R<lambda_1>@?1??load_codecs@ArcAPI@@AAEXABV?$basic_string@_WU?$char_traits@_W@std@@V?$allocator@_W@2@@std@@@Z@QBE@AAUArcLib@@I@Z$0
9948D 49 __ehhandler$??R<lambda_1>@?1??load_codecs@ArcAPI@@AAEXABV?$basic_string@_WU?$char_traits@_W@std@@V?$allocator@_W@2@@std@@@Z@QBE@AAUArcLib@@I@Z
994C0 49 __unwindfunclet$?find@@YAPBUSfxModuleInfo@@ABV?$basic_string@_WU?$char_traits@_W@std@@V?$allocator@_W@2@@std@@@Z$0
994D9 49 __unwindfunclet$?find@@YAPBUSfxModuleInfo@@ABV?$basic_string@_WU?$char_traits@_W@std@@V?$allocator@_W@2@@std@@@Z$6
994E4 49 __unwindfunclet$?find@@YAPBUSfxModuleInfo@@ABV?$basic_string@_WU?$char_traits@_W@std@@V?$allocator@_W@2@@std@@@Z$1
994FD 49 __unwindfunclet$?find@@YAPBUSfxModuleInfo@@ABV?$basic_string@_WU?$char_traits@_W@std@@V?$allocator@_W@2@@std@@@Z$2
9951B 49 __ehhandler$?find@@YAPBUSfxModuleInfo@@ABV?$basic_string@_WU?$char_traits@_W@std@@V?$allocator@_W@2@@std@@@Z
99550 49 __unwindfunclet$?description@SfxModule@@QBE?AV?$basic_string@_WU?$char_traits@_W@std@@V?$allocator@_W@2@@std@@XZ$0
9956F 49 __unwindfunclet$?description@SfxModule@@QBE?AV?$basic_string@_WU?$char_traits@_W@std@@V?$allocator@_W@2@@std@@XZ$1
99591 49 __unwindfunclet$?description@SfxModule@@QBE?AV?$basic_string@_WU?$char_traits@_W@std@@V?$allocator@_W@2@@std@@XZ$2
995B0 49 __unwindfunclet$?description@SfxModule@@QBE?AV?$basic_string@_WU?$char_traits@_W@std@@V?$allocator@_W@2@@std@@XZ$3
995CF 49 __unwindfunclet$?description@SfxModule@@QBE?AV?$basic_string@_WU?$char_traits@_W@std@@V?$allocator@_W@2@@std@@XZ$4
995F6 49 __ehhandler$?description@SfxModule@@QBE?AV?$basic_string@_WU?$char_traits@_W@std@@V?$allocator@_W@2@@std@@XZ
99620 49 __unwindfunclet$?find_sfx_modules@ArcAPI@@AAEXABV?$basic_string@_WU?$char_traits@_W@std@@V?$allocator@_W@2@@std@@@Z$0
9962B 49 __unwindfunclet$?find_sfx_modules@ArcAPI@@AAEXABV?$basic_string@_WU?$char_traits@_W@std@@V?$allocator@_W@2@@std@@@Z$1
99633 49 __unwindfunclet$?find_sfx_modules@ArcAPI@@AAEXABV?$basic_string@_WU?$char_traits@_W@std@@V?$allocator@_W@2@@std@@@Z$2
9963B 49 __unwindfunclet$?find_sfx_modules@ArcAPI@@AAEXABV?$basic_string@_WU?$char_traits@_W@std@@V?$allocator@_W@2@@std@@@Z$3
99646 49 __unwindfunclet$?find_sfx_modules@ArcAPI@@AAEXABV?$basic_string@_WU?$char_traits@_W@std@@V?$allocator@_W@2@@std@@@Z$5
9964E 49 __unwindfunclet$?find_sfx_modules@ArcAPI@@AAEXABV?$basic_string@_WU?$char_traits@_W@std@@V?$allocator@_W@2@@std@@@Z$6
99659 49 __unwindfunclet$?find_sfx_modules@ArcAPI@@AAEXABV?$basic_string@_WU?$char_traits@_W@std@@V?$allocator@_W@2@@std@@@Z$7
99666 49 __ehhandler$?find_sfx_modules@ArcAPI@@AAEXABV?$basic_string@_WU?$char_traits@_W@std@@V?$allocator@_W@2@@std@@@Z
99690 49 __unwindfunclet$?ParseSignatures@@YA_NPBEIAAV?$vector@V?$vector@EV?$allocator@E@std@@@std@@V?$allocator@V?$vector@EV?$allocator@E@std@@@std@@@2@@std@@@Z$0
9969D 49 __ehhandler$?ParseSignatures@@YA_NPBEIAAV?$vector@V?$vector@EV?$allocator@E@std@@@std@@V?$allocator@V?$vector@EV?$allocator@E@std@@@std@@@2@@std@@@Z
996C0 49 __unwindfunclet$?load@ArcAPI@@AAEXXZ$2
996CB 49 __unwindfunclet$?load@ArcAPI@@AAEXXZ$3
996D6 49 __unwindfunclet$?load@ArcAPI@@AAEXXZ$4
996DE 49 __unwindfunclet$?load@ArcAPI@@AAEXXZ$5
996E6 49 __unwindfunclet$?load@ArcAPI@@AAEXXZ$6
996F1 49 __unwindfunclet$?load@ArcAPI@@AAEXXZ$7
996FC 49 __unwindfunclet$?load@ArcAPI@@AAEXXZ$9
99704 49 __unwindfunclet$?load@ArcAPI@@AAEXXZ$10
9970C 49 __unwindfunclet$?load@ArcAPI@@AAEXXZ$11
99717 49 __unwindfunclet$?load@ArcAPI@@AAEXXZ$12
9971F 49 __unwindfunclet$?load@ArcAPI@@AAEXXZ$14
9972A 49 __unwindfunclet$?load@ArcAPI@@AAEXXZ$16
99732 49 __unwindfunclet$?load@ArcAPI@@AAEXXZ$17
9973A 49 __unwindfunclet$?load@ArcAPI@@AAEXXZ$18
99742 49 __unwindfunclet$?load@ArcAPI@@AAEXXZ$40
9974D 49 __unwindfunclet$?load@ArcAPI@@AAEXXZ$41
99755 49 __unwindfunclet$?load@ArcAPI@@AAEXXZ$19
99760 49 __unwindfunclet$?load@ArcAPI@@AAEXXZ$20
99768 49 __unwindfunclet$?load@ArcAPI@@AAEXXZ$22
99773 49 __unwindfunclet$?load@ArcAPI@@AAEXXZ$23
9977E 49 __unwindfunclet$?load@ArcAPI@@AAEXXZ$24
99789 49 __unwindfunclet$?load@ArcAPI@@AAEXXZ$25
99799 49 __ehhandler$?load@ArcAPI@@AAEXXZ
997D0 49 __unwindfunclet$??0ArcFormat@@QAE@XZ$0
997D8 49 __unwindfunclet$??0ArcFormat@@QAE@XZ$1
997E8 49 __ehhandler$??0ArcFormat@@QAE@XZ
99810 49 __ehhandler$??_GArcAPI@@AAEPAXI@Z
99830 49 __unwindfunclet$?get_default_name@Archive@@ABE?AV?$basic_string@_WU?$char_traits@_W@std@@V?$allocator@_W@2@@std@@XZ$0
9984C 49 __unwindfunclet$?get_default_name@Archive@@ABE?AV?$basic_string@_WU?$char_traits@_W@std@@V?$allocator@_W@2@@std@@XZ$1
99854 49 __unwindfunclet$?get_default_name@Archive@@ABE?AV?$basic_string@_WU?$char_traits@_W@std@@V?$allocator@_W@2@@std@@XZ$4
99861 49 __ehhandler$?get_default_name@Archive@@ABE?AV?$basic_string@_WU?$char_traits@_W@std@@V?$allocator@_W@2@@std@@XZ
99890 49 __unwindfunclet$?get_temp_file_name@Archive@@ABE?AV?$basic_string@_WU?$char_traits@_W@std@@V?$allocator@_W@2@@std@@XZ$1
9989B 49 __unwindfunclet$?get_temp_file_name@Archive@@ABE?AV?$basic_string@_WU?$char_traits@_W@std@@V?$allocator@_W@2@@std@@XZ$2
998A6 49 __unwindfunclet$?get_temp_file_name@Archive@@ABE?AV?$basic_string@_WU?$char_traits@_W@std@@V?$allocator@_W@2@@std@@XZ$3
998B1 49 __unwindfunclet$?get_temp_file_name@Archive@@ABE?AV?$basic_string@_WU?$char_traits@_W@std@@V?$allocator@_W@2@@std@@XZ$0
998C1 49 __ehhandler$?get_temp_file_name@Archive@@ABE?AV?$basic_string@_WU?$char_traits@_W@std@@V?$allocator@_W@2@@std@@XZ
998F0 49 __unwindfunclet$?make_index@Archive@@QAEXXZ$0
998FB 49 __unwindfunclet$?make_index@Archive@@QAEXXZ$1
99906 49 __unwindfunclet$?make_index@Archive@@QAEXXZ$2
9990E 49 __unwindfunclet$?make_index@Archive@@QAEXXZ$3
99916 49 __unwindfunclet$?make_index@Archive@@QAEXXZ$4
9991E 49 __unwindfunclet$?make_index@Archive@@QAEXXZ$5
99929 49 __unwindfunclet$?make_index@Archive@@QAEXXZ$23
99934 49 __unwindfunclet$?make_index@Archive@@QAEXXZ$8
99944 49 __ehhandler$?make_index@Archive@@QAEXXZ
99970 49 __unwindfunclet$?find_dir@Archive@@QAEIABV?$basic_string@_WU?$char_traits@_W@std@@V?$allocator@_W@2@@std@@@Z$0
9997D 49 __ehhandler$?find_dir@Archive@@QAEIABV?$basic_string@_WU?$char_traits@_W@std@@V?$allocator@_W@2@@std@@@Z
999B0 49 __unwindfunclet$?get_path@Archive@@QAE?AV?$basic_string@_WU?$char_traits@_W@std@@V?$allocator@_W@2@@std@@I@Z$0
999CE 49 __ehhandler$?get_path@Archive@@QAE?AV?$basic_string@_WU?$char_traits@_W@std@@V?$allocator@_W@2@@std@@I@Z
999F0 49 __unwindfunclet$?get_main_file@Archive@@QBE_NAAI@Z$0
999FD 49 __ehhandler$?get_main_file@Archive@@QBE_NAAI@Z
99A20 49 __unwindfunclet$?get_attr@Archive@@QBEKI@Z$0
99A2D 49 __ehhandler$?get_attr@Archive@@QBEKI@Z
99A50 49 __unwindfunclet$?get_atime@Archive@@QBE?AU_FILETIME@@I@Z$0
99A5D 49 __ehhandler$?get_atime@Archive@@QBE?AU_FILETIME@@I@Z
99A80 49 __unwindfunclet$?read_open_results@Archive@@QAEXXZ$0
99A8D 49 __ehhandler$?read_open_results@Archive@@QAEXXZ
99AC0 49 __unwindfunclet$?flags2texts@@YA?AV?$list@V?$basic_string@_WU?$char_traits@_W@std@@V?$allocator@_W@2@@std@@V?$allocator@V?$basic_string@_WU?$char_traits@_W@std@@V?$allocator@_W@2@@std@@@2@@std@@I@Z$0
99AD9 49 __unwindfunclet$?flags2texts@@YA?AV?$list@V?$basic_string@_WU?$char_traits@_W@std@@V?$allocator@_W@2@@std@@V?$allocator@V?$basic_string@_WU?$char_traits@_W@std@@V?$allocator@_W@2@@std@@@2@@std@@I@Z$1
99AE1 49 __unwindfunclet$?flags2texts@@YA?AV?$list@V?$basic_string@_WU?$char_traits@_W@std@@V?$allocator@_W@2@@std@@V?$allocator@V?$basic_string@_WU?$char_traits@_W@std@@V?$allocator@_W@2@@std@@@2@@std@@I@Z$2
99AE9 49 __unwindfunclet$?flags2texts@@YA?AV?$list@V?$basic_string@_WU?$char_traits@_W@std@@V?$allocator@_W@2@@std@@V?$allocator@V?$basic_string@_WU?$char_traits@_W@std@@V?$allocator@_W@2@@std@@@2@@std@@I@Z$18
99AF1 49 __unwindfunclet$?flags2texts@@YA?AV?$list@V?$basic_string@_WU?$char_traits@_W@std@@V?$allocator@_W@2@@std@@V?$allocator@V?$basic_string@_WU?$char_traits@_W@std@@V?$allocator@_W@2@@std@@@2@@std@@I@Z$3
99AF9 49 __unwindfunclet$?flags2texts@@YA?AV?$list@V?$basic_string@_WU?$char_traits@_W@std@@V?$allocator@_W@2@@std@@V?$allocator@V?$basic_string@_WU?$char_traits@_W@std@@V?$allocator@_W@2@@std@@@2@@std@@I@Z$28
99B01 49 __unwindfunclet$?flags2texts@@YA?AV?$list@V?$basic_string@_WU?$char_traits@_W@std@@V?$allocator@_W@2@@std@@V?$allocator@V?$basic_string@_WU?$char_traits@_W@std@@V?$allocator@_W@2@@std@@@2@@std@@I@Z$4
99B09 49 __unwindfunclet$?flags2texts@@YA?AV?$list@V?$basic_string@_WU?$char_traits@_W@std@@V?$allocator@_W@2@@std@@V?$allocator@V?$basic_string@_WU?$char_traits@_W@std@@V?$allocator@_W@2@@std@@@2@@std@@I@Z$5
99B11 49 __unwindfunclet$?flags2texts@@YA?AV?$list@V?$basic_string@_WU?$char_traits@_W@std@@V?$allocator@_W@2@@std@@V?$allocator@V?$basic_string@_WU?$char_traits@_W@std@@V?$allocator@_W@2@@std@@@2@@std@@I@Z$6
99B19 49 __unwindfunclet$?flags2texts@@YA?AV?$list@V?$basic_string@_WU?$char_traits@_W@std@@V?$allocator@_W@2@@std@@V?$allocator@V?$basic_string@_WU?$char_traits@_W@std@@V?$allocator@_W@2@@std@@@2@@std@@I@Z$46
99B21 49 __unwindfunclet$?flags2texts@@YA?AV?$list@V?$basic_string@_WU?$char_traits@_W@std@@V?$allocator@_W@2@@std@@V?$allocator@V?$basic_string@_WU?$char_traits@_W@std@@V?$allocator@_W@2@@std@@@2@@std@@I@Z$7
99B29 49 __unwindfunclet$?flags2texts@@YA?AV?$list@V?$basic_string@_WU?$char_traits@_W@std@@V?$allocator@_W@2@@std@@V?$allocator@V?$basic_string@_WU?$char_traits@_W@std@@V?$allocator@_W@2@@std@@@2@@std@@I@Z$8
99B31 49 __unwindfunclet$?flags2texts@@YA?AV?$list@V?$basic_string@_WU?$char_traits@_W@std@@V?$allocator@_W@2@@std@@V?$allocator@V?$basic_string@_WU?$char_traits@_W@std@@V?$allocator@_W@2@@std@@@2@@std@@I@Z$60
99B3E 49 __ehhandler$?flags2texts@@YA?AV?$list@V?$basic_string@_WU?$char_traits@_W@std@@V?$allocator@_W@2@@std@@V?$allocator@V?$basic_string@_WU?$char_traits@_W@std@@V?$allocator@_W@2@@std@@@2@@std@@I@Z
99B70 49 __unwindfunclet$??$_Append_range_unchecked@V?$_List_unchecked_const_iterator@V?$_List_val@U?$_List_simple_types@V?$basic_string@_WU?$char_traits@_W@std@@V?$allocator@_W@2@@std@@@std@@@std@@U_Iterator_base0@2@@std@@V12@@?$_List_node_insert_op2@V?$allocator@U?$_List_node@V?$basic_string@_WU?$char_traits@_W@std@@V?$allocator@_W@2@@std@@PAX@std@@@std@@@std@@QAEXV?$_List_unchecked_const_iterator@V?$_List_val@U?$_List_simple_types@V?$basic_string@_WU?$char_traits@_W@std@@V?$allocator@_W@2@@std@@@std@@@std@@U_Iterator_base0@2@@1@V21@@Z$0
99B7D 49 __ehhandler$??$_Append_range_unchecked@V?$_List_unchecked_const_iterator@V?$_List_val@U?$_List_simple_types@V?$basic_string@_WU?$char_traits@_W@std@@V?$allocator@_W@2@@std@@@std@@@std@@U_Iterator_base0@2@@std@@V12@@?$_List_node_insert_op2@V?$allocator@U?$_List_node@V?$basic_string@_WU?$char_traits@_W@std@@V?$allocator@_W@2@@std@@PAX@std@@@std@@@std@@QAEXV?$_List_unchecked_const_iterator@V?$_List_val@U?$_List_simple_types@V?$basic_string@_WU?$char_traits@_W@std@@V?$allocator@_W@2@@std@@@std@@@std@@U_Iterator_base0@2@@1@V21@@Z
99BA0 49 __unwindfunclet$??A?$map@IIU?$less@I@std@@V?$allocator@U?$pair@$$CBII@std@@@2@@std@@QAEAAIABI@Z$2
99BAD 49 __ehhandler$??A?$map@IIU?$less@I@std@@V?$allocator@U?$pair@$$CBII@std@@@2@@std@@QAEAAIABI@Z
99BD0 49 __unwindfunclet$??A?$map@V?$vector@EV?$allocator@E@std@@@std@@UArcFormat@@U?$less@V?$vector@EV?$allocator@E@std@@@std@@@2@V?$allocator@U?$pair@$$CBV?$vector@EV?$allocator@E@std@@@std@@UArcFormat@@@std@@@2@@std@@QAEAAUArcFormat@@ABV?$vector@EV?$allocator@E@std@@@1@@Z$2
99BD8 49 __unwindfunclet$??A?$map@V?$vector@EV?$allocator@E@std@@@std@@UArcFormat@@U?$less@V?$vector@EV?$allocator@E@std@@@std@@@2@V?$allocator@U?$pair@$$CBV?$vector@EV?$allocator@E@std@@@std@@UArcFormat@@@std@@@2@@std@@QAEAAUArcFormat@@ABV?$vector@EV?$allocator@E@std@@@1@@Z$1
99BE0 49 __unwindfunclet$??A?$map@V?$vector@EV?$allocator@E@std@@@std@@UArcFormat@@U?$less@V?$vector@EV?$allocator@E@std@@@std@@@2@V?$allocator@U?$pair@$$CBV?$vector@EV?$allocator@E@std@@@std@@UArcFormat@@@std@@@2@@std@@QAEAAUArcFormat@@ABV?$vector@EV?$allocator@E@std@@@1@@Z$4
99BED 49 __ehhandler$??A?$map@V?$vector@EV?$allocator@E@std@@@std@@UArcFormat@@U?$less@V?$vector@EV?$allocator@E@std@@@std@@@2@V?$allocator@U?$pair@$$CBV?$vector@EV?$allocator@E@std@@@std@@UArcFormat@@@std@@@2@@std@@QAEAAUArcFormat@@ABV?$vector@EV?$allocator@E@std@@@1@@Z
99C10 49 __unwindfunclet$??A?$map@V?$basic_string@_WU?$char_traits@_W@std@@V?$allocator@_W@2@@std@@V12@U?$less@V?$basic_string@_WU?$char_traits@_W@std@@V?$allocator@_W@2@@std@@@2@V?$allocator@U?$pair@$$CBV?$basic_string@_WU?$char_traits@_W@std@@V?$allocator@_W@2@@std@@V12@@std@@@2@@std@@QAEAAV?$basic_string@_WU?$char_traits@_W@std@@V?$allocator@_W@2@@1@$$QAV21@@Z$2
99C1D 49 __ehhandler$??A?$map@V?$basic_string@_WU?$char_traits@_W@std@@V?$allocator@_W@2@@std@@V12@U?$less@V?$basic_string@_WU?$char_traits@_W@std@@V?$allocator@_W@2@@std@@@2@V?$allocator@U?$pair@$$CBV?$basic_string@_WU?$char_traits@_W@std@@V?$allocator@_W@2@@std@@V12@@std@@@2@@std@@QAEAAV?$basic_string@_WU?$char_traits@_W@std@@V?$allocator@_W@2@@1@$$QAV21@@Z
99C40 49 __unwindfunclet$?push_back@?$list@V?$vector@EV?$allocator@E@std@@@std@@V?$allocator@V?$vector@EV?$allocator@E@std@@@std@@@2@@std@@QAEXABV?$vector@EV?$allocator@E@std@@@2@@Z$1
99C4D 49 __ehhandler$?push_back@?$list@V?$vector@EV?$allocator@E@std@@@std@@V?$allocator@V?$vector@EV?$allocator@E@std@@@std@@@2@@std@@QAEXABV?$vector@EV?$allocator@E@std@@@2@@Z
99C70 49 __unwindfunclet$??4?$list@V?$basic_string@_WU?$char_traits@_W@std@@V?$allocator@_W@2@@std@@V?$allocator@V?$basic_string@_WU?$char_traits@_W@std@@V?$allocator@_W@2@@std@@@2@@std@@QAEAAV01@ABV01@@Z$0
99C7D 49 __ehhandler$??4?$list@V?$basic_string@_WU?$char_traits@_W@std@@V?$allocator@_W@2@@std@@V?$allocator@V?$basic_string@_WU?$char_traits@_W@std@@V?$allocator@_W@2@@std@@@2@@std@@QAEAAV01@ABV01@@Z
99CA0 49 __unwindfunclet$??0?$list@V?$basic_string@_WU?$char_traits@_W@std@@V?$allocator@_W@2@@std@@V?$allocator@V?$basic_string@_WU?$char_traits@_W@std@@V?$allocator@_W@2@@std@@@2@@std@@QAE@V?$initializer_list@V?$basic_string@_WU?$char_traits@_W@std@@V?$allocator@_W@2@@std@@@1@@Z$0
99CA8 49 __unwindfunclet$??0?$list@V?$basic_string@_WU?$char_traits@_W@std@@V?$allocator@_W@2@@std@@V?$allocator@V?$basic_string@_WU?$char_traits@_W@std@@V?$allocator@_W@2@@std@@@2@@std@@QAE@V?$initializer_list@V?$basic_string@_WU?$char_traits@_W@std@@V?$allocator@_W@2@@std@@@1@@Z$1
99CB5 49 __ehhandler$??0?$list@V?$basic_string@_WU?$char_traits@_W@std@@V?$allocator@_W@2@@std@@V?$allocator@V?$basic_string@_WU?$char_traits@_W@std@@V?$allocator@_W@2@@std@@@2@@std@@QAE@V?$initializer_list@V?$basic_string@_WU?$char_traits@_W@std@@V?$allocator@_W@2@@std@@@1@@Z
99CE0 49 __unwindfunclet$??0?$list@V?$basic_string@_WU?$char_traits@_W@std@@V?$allocator@_W@2@@std@@V?$allocator@V?$basic_string@_WU?$char_traits@_W@std@@V?$allocator@_W@2@@std@@@2@@std@@QAE@ABV01@@Z$0
99CE8 49 __unwindfunclet$??0?$list@V?$basic_string@_WU?$char_traits@_W@std@@V?$allocator@_W@2@@std@@V?$allocator@V?$basic_string@_WU?$char_traits@_W@std@@V?$allocator@_W@2@@std@@@2@@std@@QAE@ABV01@@Z$1
99CF5 49 __ehhandler$??0?$list@V?$basic_string@_WU?$char_traits@_W@std@@V?$allocator@_W@2@@std@@V?$allocator@V?$basic_string@_WU?$char_traits@_W@std@@V?$allocator@_W@2@@std@@@2@@std@@QAE@ABV01@@Z
99D20 49 __unwindfunclet$??$_Emplace@ABV?$basic_string@_WU?$char_traits@_W@std@@V?$allocator@_W@2@@std@@@?$list@V?$basic_string@_WU?$char_traits@_W@std@@V?$allocator@_W@2@@std@@V?$allocator@V?$basic_string@_WU?$char_traits@_W@std@@V?$allocator@_W@2@@std@@@2@@std@@QAEPAU?$_List_node@V?$basic_string@_WU?$char_traits@_W@std@@V?$allocator@_W@2@@std@@PAX@1@QAU21@ABV?$basic_string@_WU?$char_traits@_W@std@@V?$allocator@_W@2@@1@@Z$1
99D2D 49 __ehhandler$??$_Emplace@ABV?$basic_string@_WU?$char_traits@_W@std@@V?$allocator@_W@2@@std@@@?$list@V?$basic_string@_WU?$char_traits@_W@std@@V?$allocator@_W@2@@std@@V?$allocator@V?$basic_string@_WU?$char_traits@_W@std@@V?$allocator@_W@2@@std@@@2@@std@@QAEPAU?$_List_node@V?$basic_string@_WU?$char_traits@_W@std@@V?$allocator@_W@2@@std@@PAX@1@QAU21@ABV?$basic_string@_WU?$char_traits@_W@std@@V?$allocator@_W@2@@1@@Z
99D50 49 __unwindfunclet$??$_Assign_counted_range@PAV?$vector@EV?$allocator@E@std@@@std@@@?$vector@V?$vector@EV?$allocator@E@std@@@std@@V?$allocator@V?$vector@EV?$allocator@E@std@@@std@@@2@@std@@AAEXPAV?$vector@EV?$allocator@E@std@@@1@I@Z$0
99D5D 49 __ehhandler$??$_Assign_counted_range@PAV?$vector@EV?$allocator@E@std@@@std@@@?$vector@V?$vector@EV?$allocator@E@std@@@std@@V?$allocator@V?$vector@EV?$allocator@E@std@@@std@@@2@@std@@AAEXPAV?$vector@EV?$allocator@E@std@@@1@I@Z
99D80 49 __unwindfunclet$??$_Emplace@ABUDirInfo@?1??make_index@Archive@@QAEXXZ@@?$_Tree@V?$_Tset_traits@UDirInfo@?1??make_index@Archive@@QAEXXZ@U?$less@UDirInfo@?1??make_index@Archive@@QAEXXZ@@std@@V?$allocator@UDirInfo@?1??make_index@Archive@@QAEXXZ@@5@$0A@@std@@@std@@IAE?AU?$pair@PAU?$_Tree_node@UDirInfo@?1??make_index@Archive@@QAEXXZ@PAX@std@@_N@1@ABUDirInfo@?1??make_index@Archive@@QAEXXZ@@Z$2
99D88 49 __unwindfunclet$??$_Emplace@ABUDirInfo@?1??make_index@Archive@@QAEXXZ@@?$_Tree@V?$_Tset_traits@UDirInfo@?1??make_index@Archive@@QAEXXZ@U?$less@UDirInfo@?1??make_index@Archive@@QAEXXZ@@std@@V?$allocator@UDirInfo@?1??make_index@Archive@@QAEXXZ@@5@$0A@@std@@@std@@IAE?AU?$pair@PAU?$_Tree_node@UDirInfo@?1??make_index@Archive@@QAEXXZ@PAX@std@@_N@1@ABUDirInfo@?1??make_index@Archive@@QAEXXZ@@Z$1
99D95 49 __ehhandler$??$_Emplace@ABUDirInfo@?1??make_index@Archive@@QAEXXZ@@?$_Tree@V?$_Tset_traits@UDirInfo@?1??make_index@Archive@@QAEXXZ@U?$less@UDirInfo@?1??make_index@Archive@@QAEXXZ@@std@@V?$allocator@UDirInfo@?1??make_index@Archive@@QAEXXZ@@5@$0A@@std@@@std@@IAE?AU?$pair@PAU?$_Tree_node@UDirInfo@?1??make_index@Archive@@QAEXXZ@PAX@std@@_N@1@ABUDirInfo@?1??make_index@Archive@@QAEXXZ@@Z
99DC0 49 __ehhandler$??$_Emplace_reallocate@ABUArcFileInfo@@@?$vector@UArcFileInfo@@V?$allocator@UArcFileInfo@@@std@@@std@@AAEPAUArcFileInfo@@QAU2@ABU2@@Z
99DE0 49 __ehhandler$??$_Emplace_reallocate@ABUCDllCodecInfo@@@?$vector@UCDllCodecInfo@@V?$allocator@UCDllCodecInfo@@@std@@@std@@AAEPAUCDllCodecInfo@@QAU2@ABU2@@Z
99E00 49 __unwindfunclet$??$_Emplace_reallocate@ABUArcLib@@@?$vector@UArcLib@@V?$allocator@UArcLib@@@std@@@std@@AAEPAUArcLib@@QAU2@ABU2@@Z$2
99E0D 49 __ehhandler$??$_Emplace_reallocate@ABUArcLib@@@?$vector@UArcLib@@V?$allocator@UArcLib@@@std@@@std@@AAEPAUArcLib@@QAU2@ABU2@@Z
99E30 49 __ehhandler$??$_Emplace_reallocate@ABUSfxModule@@@?$vector@USfxModule@@V?$allocator@USfxModule@@@std@@@std@@AAEPAUSfxModule@@QAU2@ABU2@@Z
99E50 49 __unwindfunclet$??$_Uninitialized_copy_n@PAV?$vector@EV?$allocator@E@std@@@std@@V?$allocator@V?$vector@EV?$allocator@E@std@@@std@@@2@@std@@YAPAV?$vector@EV?$allocator@E@std@@@0@PAV10@I0AAV?$allocator@V?$vector@EV?$allocator@E@std@@@std@@@0@@Z$0
99E5D 49 __ehhandler$??$_Uninitialized_copy_n@PAV?$vector@EV?$allocator@E@std@@@std@@V?$allocator@V?$vector@EV?$allocator@E@std@@@std@@@2@@std@@YAPAV?$vector@EV?$allocator@E@std@@@0@PAV10@I0AAV?$allocator@V?$vector@EV?$allocator@E@std@@@std@@@0@@Z
99E80 49 __ehhandler$??$_Emplace_reallocate@ABV?$vector@EV?$allocator@E@std@@@std@@@?$vector@V?$vector@EV?$allocator@E@std@@@std@@V?$allocator@V?$vector@EV?$allocator@E@std@@@std@@@2@@std@@AAEPAV?$vector@EV?$allocator@E@std@@@1@QAV21@ABV21@@Z
99EA0 49 __unwindfunclet$??$_Append_range_unchecked@PBV?$basic_string@_WU?$char_traits@_W@std@@V?$allocator@_W@2@@std@@PBV12@@?$_List_node_insert_op2@V?$allocator@U?$_List_node@V?$basic_string@_WU?$char_traits@_W@std@@V?$allocator@_W@2@@std@@PAX@std@@@std@@@std@@QAEXPBV?$basic_string@_WU?$char_traits@_W@std@@V?$allocator@_W@2@@1@QBV21@@Z$0
99EAD 49 __ehhandler$??$_Append_range_unchecked@PBV?$basic_string@_WU?$char_traits@_W@std@@V?$allocator@_W@2@@std@@PBV12@@?$_List_node_insert_op2@V?$allocator@U?$_List_node@V?$basic_string@_WU?$char_traits@_W@std@@V?$allocator@_W@2@@std@@PAX@std@@@std@@@std@@QAEXPBV?$basic_string@_WU?$char_traits@_W@std@@V?$allocator@_W@2@@1@QBV21@@Z
99ED0 49 __unwindfunclet$??$_Copy_nodes@$0A@@?$_Tree@V?$_Tmap_traits@V?$basic_string@_WU?$char_traits@_W@std@@V?$allocator@_W@2@@std@@V12@U?$less@V?$basic_string@_WU?$char_traits@_W@std@@V?$allocator@_W@2@@std@@@2@V?$allocator@U?$pair@$$CBV?$basic_string@_WU?$char_traits@_W@std@@V?$allocator@_W@2@@std@@V12@@std@@@2@$0A@@std@@@std@@IAEPAU?$_Tree_node@U?$pair@$$CBV?$basic_string@_WU?$char_traits@_W@std@@V?$allocator@_W@2@@std@@V12@@std@@PAX@1@PAU21@0@Z$2
99ED8 49 __unwindfunclet$??$_Copy_nodes@$0A@@?$_Tree@V?$_Tmap_traits@V?$basic_string@_WU?$char_traits@_W@std@@V?$allocator@_W@2@@std@@V12@U?$less@V?$basic_string@_WU?$char_traits@_W@std@@V?$allocator@_W@2@@std@@@2@V?$allocator@U?$pair@$$CBV?$basic_string@_WU?$char_traits@_W@std@@V?$allocator@_W@2@@std@@V12@@std@@@2@$0A@@std@@@std@@IAEPAU?$_Tree_node@U?$pair@$$CBV?$basic_string@_WU?$char_traits@_W@std@@V?$allocator@_W@2@@std@@V12@@std@@PAX@1@PAU21@0@Z$3
99EE5 49 __ehhandler$??$_Copy_nodes@$0A@@?$_Tree@V?$_Tmap_traits@V?$basic_string@_WU?$char_traits@_W@std@@V?$allocator@_W@2@@std@@V12@U?$less@V?$basic_string@_WU?$char_traits@_W@std@@V?$allocator@_W@2@@std@@@2@V?$allocator@U?$pair@$$CBV?$basic_string@_WU?$char_traits@_W@std@@V?$allocator@_W@2@@std@@V12@@std@@@2@$0A@@std@@@std@@IAEPAU?$_Tree_node@U?$pair@$$CBV?$basic_string@_WU?$char_traits@_W@std@@V?$allocator@_W@2@@std@@V12@@std@@PAX@1@PAU21@0@Z
99F10 49 __unwindfunclet$??$_Uninitialized_move@PAUArcLib@@V?$allocator@UArcLib@@@std@@@std@@YAPAUArcLib@@QAU1@0PAU1@AAV?$allocator@UArcLib@@@0@@Z$0
99F18 49 __unwindfunclet$??$_Uninitialized_move@PAUArcLib@@V?$allocator@UArcLib@@@std@@@std@@YAPAUArcLib@@QAU1@0PAU1@AAV?$allocator@UArcLib@@@0@@Z$1
99F28 49 __ehhandler$??$_Uninitialized_move@PAUArcLib@@V?$allocator@UArcLib@@@std@@@std@@YAPAUArcLib@@QAU1@0PAU1@AAV?$allocator@UArcLib@@@0@@Z
99F50 49 __unwindfunclet$??0ArcLib@@QAE@ABU0@@Z$0
99F60 49 __ehhandler$??0ArcLib@@QAE@ABU0@@Z
99F80 52 __unwindfunclet$?format_size_prop@@YA?AV?$basic_string@_WU?$char_traits@_W@std@@V?$allocator@_W@2@@std@@ABVPropVariant@@@Z$1
99F88 52 __unwindfunclet$?format_size_prop@@YA?AV?$basic_string@_WU?$char_traits@_W@std@@V?$allocator@_W@2@@std@@ABVPropVariant@@@Z$2
99F90 52 __unwindfunclet$?format_size_prop@@YA?AV?$basic_string@_WU?$char_traits@_W@std@@V?$allocator@_W@2@@std@@ABVPropVariant@@@Z$3
99F9D 52 __ehhandler$?format_size_prop@@YA?AV?$basic_string@_WU?$char_traits@_W@std@@V?$allocator@_W@2@@std@@ABVPropVariant@@@Z
99FD0 52 __unwindfunclet$?format_filetime_prop@@YA?AV?$basic_string@_WU?$char_traits@_W@std@@V?$allocator@_W@2@@std@@ABVPropVariant@@@Z$1
99FDB 52 __unwindfunclet$?format_filetime_prop@@YA?AV?$basic_string@_WU?$char_traits@_W@std@@V?$allocator@_W@2@@std@@ABVPropVariant@@@Z$2
99FEB 52 __ehhandler$?format_filetime_prop@@YA?AV?$basic_string@_WU?$char_traits@_W@std@@V?$allocator@_W@2@@std@@ABVPropVariant@@@Z
9A020 52 __unwindfunclet$?format_posix_attrib_prop@@YA?AV?$basic_string@_WU?$char_traits@_W@std@@V?$allocator@_W@2@@std@@ABVPropVariant@@@Z$1
9A042 52 __unwindfunclet$?format_posix_attrib_prop@@YA?AV?$basic_string@_WU?$char_traits@_W@std@@V?$allocator@_W@2@@std@@ABVPropVariant@@@Z$2
9A061 52 __unwindfunclet$?format_posix_attrib_prop@@YA?AV?$basic_string@_WU?$char_traits@_W@std@@V?$allocator@_W@2@@std@@ABVPropVariant@@@Z$3
9A080 52 __unwindfunclet$?format_posix_attrib_prop@@YA?AV?$basic_string@_WU?$char_traits@_W@std@@V?$allocator@_W@2@@std@@ABVPropVariant@@@Z$4
9A0A4 52 __ehhandler$?format_posix_attrib_prop@@YA?AV?$basic_string@_WU?$char_traits@_W@std@@V?$allocator@_W@2@@std@@ABVPropVariant@@@Z
9A0D0 52 __unwindfunclet$?format_attrib_prop@@YA?AV?$basic_string@_WU?$char_traits@_W@std@@V?$allocator@_W@2@@std@@ABVPropVariant@@@Z$1
9A0D8 52 __unwindfunclet$?format_attrib_prop@@YA?AV?$basic_string@_WU?$char_traits@_W@std@@V?$allocator@_W@2@@std@@ABVPropVariant@@@Z$2
9A0E0 52 __unwindfunclet$?format_attrib_prop@@YA?AV?$basic_string@_WU?$char_traits@_W@std@@V?$allocator@_W@2@@std@@ABVPropVariant@@@Z$3
9A0E8 52 __unwindfunclet$?format_attrib_prop@@YA?AV?$basic_string@_WU?$char_traits@_W@std@@V?$allocator@_W@2@@std@@ABVPropVariant@@@Z$4
9A0F8 52 __ehhandler$?format_attrib_prop@@YA?AV?$basic_string@_WU?$char_traits@_W@std@@V?$allocator@_W@2@@std@@ABVPropVariant@@@Z
9A130 52 __unwindfunclet$?get_attr_list@Archive@@QAE?AV?$list@UAttr@@V?$allocator@UAttr@@@std@@@std@@I@Z$0
9A152 52 __unwindfunclet$?get_attr_list@Archive@@QAE?AV?$list@UAttr@@V?$allocator@UAttr@@@std@@@std@@I@Z$1
9A15D 52 __unwindfunclet$?get_attr_list@Archive@@QAE?AV?$list@UAttr@@V?$allocator@UAttr@@@std@@@std@@I@Z$2
9A168 52 __unwindfunclet$?get_attr_list@Archive@@QAE?AV?$list@UAttr@@V?$allocator@UAttr@@@std@@@std@@I@Z$5
9A173 52 __unwindfunclet$?get_attr_list@Archive@@QAE?AV?$list@UAttr@@V?$allocator@UAttr@@@std@@@std@@I@Z$31
9A17E 52 __unwindfunclet$?get_attr_list@Archive@@QAE?AV?$list@UAttr@@V?$allocator@UAttr@@@std@@@std@@I@Z$32
9A18E 52 __ehhandler$?get_attr_list@Archive@@QAE?AV?$list@UAttr@@V?$allocator@UAttr@@@std@@@std@@I@Z
9A1C0 52 __unwindfunclet$?load_arc_attr@Archive@@AAEXXZ$0
9A1CB 52 __unwindfunclet$?load_arc_attr@Archive@@AAEXXZ$2
9A1D6 52 __unwindfunclet$?load_arc_attr@Archive@@AAEXXZ$5
9A1E1 52 __unwindfunclet$?load_arc_attr@Archive@@AAEXXZ$12
9A1EC 52 __unwindfunclet$?load_arc_attr@Archive@@AAEXXZ$14
9A1F7 52 __unwindfunclet$?load_arc_attr@Archive@@AAEXXZ$17
9A202 52 __unwindfunclet$?load_arc_attr@Archive@@AAEXXZ$20
9A212 52 __ehhandler$?load_arc_attr@Archive@@AAEXXZ
9A240 52 __unwindfunclet$?load_update_props@Archive@@QAEXABV?$vector@EV?$allocator@E@std@@@std@@@Z$0
9A248 52 __unwindfunclet$?load_update_props@Archive@@QAEXABV?$vector@EV?$allocator@E@std@@@std@@@Z$1
9A250 52 __unwindfunclet$?load_update_props@Archive@@QAEXABV?$vector@EV?$allocator@E@std@@@std@@@Z$2
9A258 52 __unwindfunclet$?load_update_props@Archive@@QAEXABV?$vector@EV?$allocator@E@std@@@std@@@Z$3
9A265 52 __ehhandler$?load_update_props@Archive@@QAEXABV?$vector@EV?$allocator@E@std@@@std@@@Z
9A290 52 __unwindfunclet$?push_back@?$list@UAttr@@V?$allocator@UAttr@@@std@@@std@@QAEXABUAttr@@@Z$1
9A298 52 __unwindfunclet$?push_back@?$list@UAttr@@V?$allocator@UAttr@@@std@@@std@@QAEXABUAttr@@@Z$2
9A2A5 52 __ehhandler$?push_back@?$list@UAttr@@V?$allocator@UAttr@@@std@@@std@@QAEXABUAttr@@@Z
9A2D0 53 __unwindfunclet$?lc@@YA?AV?$basic_string@_WU?$char_traits@_W@std@@V?$allocator@_W@2@@std@@ABV12@@Z$0
9A2EE 53 __ehhandler$?lc@@YA?AV?$basic_string@_WU?$char_traits@_W@std@@V?$allocator@_W@2@@std@@ABV12@@Z
9A310 53 __unwindfunclet$?parse_command@@YA?AUCommandArgs@@ABV?$basic_string@_WU?$char_traits@_W@std@@V?$allocator@_W@2@@std@@@Z$0
9A329 53 __unwindfunclet$?parse_command@@YA?AUCommandArgs@@ABV?$basic_string@_WU?$char_traits@_W@std@@V?$allocator@_W@2@@std@@@Z$1
9A336 53 __ehhandler$?parse_command@@YA?AUCommandArgs@@ABV?$basic_string@_WU?$char_traits@_W@std@@V?$allocator@_W@2@@std@@@Z
9A360 53 __unwindfunclet$?parse_plugin_call@@YA?AUCommandArgs@@PBUOpenMacroInfo@@@Z$0
9A379 53 __unwindfunclet$?parse_plugin_call@@YA?AUCommandArgs@@PBUOpenMacroInfo@@@Z$1
9A386 53 __ehhandler$?parse_plugin_call@@YA?AUCommandArgs@@PBUOpenMacroInfo@@@Z
9A3B0 53 __unwindfunclet$?parse_param@@YA?AUParam@@ABV?$basic_string@_WU?$char_traits@_W@std@@V?$allocator@_W@2@@std@@@Z$0
9A3C9 53 __unwindfunclet$?parse_param@@YA?AUParam@@ABV?$basic_string@_WU?$char_traits@_W@std@@V?$allocator@_W@2@@std@@@Z$1
9A3D1 53 __unwindfunclet$?parse_param@@YA?AUParam@@ABV?$basic_string@_WU?$char_traits@_W@std@@V?$allocator@_W@2@@std@@@Z$3
9A3D9 53 __unwindfunclet$?parse_param@@YA?AUParam@@ABV?$basic_string@_WU?$char_traits@_W@std@@V?$allocator@_W@2@@std@@@Z$5
9A3E6 53 __ehhandler$?parse_param@@YA?AUParam@@ABV?$basic_string@_WU?$char_traits@_W@std@@V?$allocator@_W@2@@std@@@Z
9A410 53 __unwindfunclet$?parse_bool_value@@YA_NABV?$basic_string@_WU?$char_traits@_W@std@@V?$allocator@_W@2@@std@@@Z$0
9A41D 53 __ehhandler$?parse_bool_value@@YA_NABV?$basic_string@_WU?$char_traits@_W@std@@V?$allocator@_W@2@@std@@@Z
9A450 53 __unwindfunclet$?parse_listfile@@YA?AV?$list@V?$basic_string@_WU?$char_traits@_W@std@@V?$allocator@_W@2@@std@@V?$allocator@V?$basic_string@_WU?$char_traits@_W@std@@V?$allocator@_W@2@@std@@@2@@std@@ABV?$basic_string@_WU?$char_traits@_W@std@@V?$allocator@_W@2@@2@@Z$0
9A469 53 __unwindfunclet$?parse_listfile@@YA?AV?$list@V?$basic_string@_WU?$char_traits@_W@std@@V?$allocator@_W@2@@std@@V?$allocator@V?$basic_string@_WU?$char_traits@_W@std@@V?$allocator@_W@2@@std@@@2@@std@@ABV?$basic_string@_WU?$char_traits@_W@std@@V?$allocator@_W@2@@2@@Z$1
9A471 53 __unwindfunclet$?parse_listfile@@YA?AV?$list@V?$basic_string@_WU?$char_traits@_W@std@@V?$allocator@_W@2@@std@@V?$allocator@V?$basic_string@_WU?$char_traits@_W@std@@V?$allocator@_W@2@@std@@@2@@std@@ABV?$basic_string@_WU?$char_traits@_W@std@@V?$allocator@_W@2@@2@@Z$7
9A479 53 __unwindfunclet$?parse_listfile@@YA?AV?$list@V?$basic_string@_WU?$char_traits@_W@std@@V?$allocator@_W@2@@std@@V?$allocator@V?$basic_string@_WU?$char_traits@_W@std@@V?$allocator@_W@2@@std@@@2@@std@@ABV?$basic_string@_WU?$char_traits@_W@std@@V?$allocator@_W@2@@2@@Z$2
9A486 53 __ehhandler$?parse_listfile@@YA?AV?$list@V?$basic_string@_WU?$char_traits@_W@std@@V?$allocator@_W@2@@std@@V?$allocator@V?$basic_string@_WU?$char_traits@_W@std@@V?$allocator@_W@2@@std@@@2@@std@@ABV?$basic_string@_WU?$char_traits@_W@std@@V?$allocator@_W@2@@2@@Z
9A4B0 53 __unwindfunclet$?parse_open_command@@YA?AUOpenCommand@@ABUCommandArgs@@@Z$0
9A4D2 53 __unwindfunclet$?parse_open_command@@YA?AUOpenCommand@@ABUCommandArgs@@@Z$1
9A4DA 53 __unwindfunclet$?parse_open_command@@YA?AUOpenCommand@@ABUCommandArgs@@@Z$4
9A4E7 53 __ehhandler$?parse_open_command@@YA?AUOpenCommand@@ABUCommandArgs@@@Z
9A520 53 __unwindfunclet$??0OpenOptions@@QAE@$$QAU0@@Z$0
9A52D 53 __ehhandler$??0OpenOptions@@QAE@$$QAU0@@Z
9A550 53 __unwindfunclet$?parse_update_command@@YA?AUUpdateCommand@@ABUCommandArgs@@@Z$0
9A558 53 __unwindfunclet$?parse_update_command@@YA?AUUpdateCommand@@ABUCommandArgs@@@Z$2
9A57A 53 __unwindfunclet$?parse_update_command@@YA?AUUpdateCommand@@ABUCommandArgs@@@Z$3
9A585 53 __unwindfunclet$?parse_update_command@@YA?AUUpdateCommand@@ABUCommandArgs@@@Z$4
9A58D 53 __unwindfunclet$?parse_update_command@@YA?AUUpdateCommand@@ABUCommandArgs@@@Z$5
9A598 53 __unwindfunclet$?parse_update_command@@YA?AUUpdateCommand@@ABUCommandArgs@@@Z$6
9A5A0 53 __unwindfunclet$?parse_update_command@@YA?AUUpdateCommand@@ABUCommandArgs@@@Z$33
9A5AB 53 __unwindfunclet$?parse_update_command@@YA?AUUpdateCommand@@ABUCommandArgs@@@Z$8
9A5B6 53 __unwindfunclet$?parse_update_command@@YA?AUUpdateCommand@@ABUCommandArgs@@@Z$10
9A5BE 53 __unwindfunclet$?parse_update_command@@YA?AUUpdateCommand@@ABUCommandArgs@@@Z$11
9A5C9 53 __unwindfunclet$?parse_update_command@@YA?AUUpdateCommand@@ABUCommandArgs@@@Z$12
9A5D4 53 __unwindfunclet$?parse_update_command@@YA?AUUpdateCommand@@ABUCommandArgs@@@Z$13
9A5DC 53 __unwindfunclet$?parse_update_command@@YA?AUUpdateCommand@@ABUCommandArgs@@@Z$14
9A5E9 53 __ehhandler$?parse_update_command@@YA?AUUpdateCommand@@ABUCommandArgs@@@Z
9A620 53 __unwindfunclet$?parse_extract_params@@YAXABUCommandArgs@@AAUExtractOptions@@AAV?$vector@V?$basic_string@_WU?$char_traits@_W@std@@V?$allocator@_W@2@@std@@V?$allocator@V?$basic_string@_WU?$char_traits@_W@std@@V?$allocator@_W@2@@std@@@2@@std@@@Z$0
9A628 53 __unwindfunclet$?parse_extract_params@@YAXABUCommandArgs@@AAUExtractOptions@@AAV?$vector@V?$basic_string@_WU?$char_traits@_W@std@@V?$allocator@_W@2@@std@@V?$allocator@V?$basic_string@_WU?$char_traits@_W@std@@V?$allocator@_W@2@@std@@@2@@std@@@Z$1
9A630 53 __unwindfunclet$?parse_extract_params@@YAXABUCommandArgs@@AAUExtractOptions@@AAV?$vector@V?$basic_string@_WU?$char_traits@_W@std@@V?$allocator@_W@2@@std@@V?$allocator@V?$basic_string@_WU?$char_traits@_W@std@@V?$allocator@_W@2@@std@@@2@@std@@@Z$3
9A63D 53 __ehhandler$?parse_extract_params@@YAXABUCommandArgs@@AAUExtractOptions@@AAV?$vector@V?$basic_string@_WU?$char_traits@_W@std@@V?$allocator@_W@2@@std@@V?$allocator@V?$basic_string@_WU?$char_traits@_W@std@@V?$allocator@_W@2@@std@@@2@@std@@@Z
9A670 53 __unwindfunclet$?parse_extract_command@@YA?AUExtractCommand@@ABUCommandArgs@@@Z$0
9A68E 53 __ehhandler$?parse_extract_command@@YA?AUExtractCommand@@ABUCommandArgs@@@Z
9A6B0 53 __unwindfunclet$?parse_extractitems_command@@YA?AUExtractItemsCommand@@ABUCommandArgs@@@Z$0
9A6CE 53 __ehhandler$?parse_extractitems_command@@YA?AUExtractItemsCommand@@ABUCommandArgs@@@Z
9A6F0 53 __unwindfunclet$?parse_test_command@@YA?AUTestCommand@@ABUCommandArgs@@@Z$0
9A709 53 __unwindfunclet$?parse_test_command@@YA?AUTestCommand@@ABUCommandArgs@@@Z$1
9A716 53 __ehhandler$?parse_test_command@@YA?AUTestCommand@@ABUCommandArgs@@@Z
9A740 53 __ehhandler$??$_Emplace_reallocate@ABV?$basic_string@_WU?$char_traits@_W@std@@V?$allocator@_W@2@@std@@@?$vector@V?$basic_string@_WU?$char_traits@_W@std@@V?$allocator@_W@2@@std@@V?$allocator@V?$basic_string@_WU?$char_traits@_W@std@@V?$allocator@_W@2@@std@@@2@@std@@AAEPAV?$basic_string@_WU?$char_traits@_W@std@@V?$allocator@_W@2@@1@QAV21@ABV21@@Z
9A760 54 __unwindfunclet$?expand_macros@@YA?AV?$basic_string@_WU?$char_traits@_W@std@@V?$allocator@_W@2@@std@@ABV12@@Z$0
9A782 54 __unwindfunclet$?expand_macros@@YA?AV?$basic_string@_WU?$char_traits@_W@std@@V?$allocator@_W@2@@std@@ABV12@@Z$1
9A78A 54 __unwindfunclet$?expand_macros@@YA?AV?$basic_string@_WU?$char_traits@_W@std@@V?$allocator@_W@2@@std@@ABV12@@Z$2
9A792 54 __unwindfunclet$?expand_macros@@YA?AV?$basic_string@_WU?$char_traits@_W@std@@V?$allocator@_W@2@@std@@ABV12@@Z$3
9A79A 54 __unwindfunclet$?expand_macros@@YA?AV?$basic_string@_WU?$char_traits@_W@std@@V?$allocator@_W@2@@std@@ABV12@@Z$4
9A7A2 54 __unwindfunclet$?expand_macros@@YA?AV?$basic_string@_WU?$char_traits@_W@std@@V?$allocator@_W@2@@std@@ABV12@@Z$5
9A7AA 54 __unwindfunclet$?expand_macros@@YA?AV?$basic_string@_WU?$char_traits@_W@std@@V?$allocator@_W@2@@std@@ABV12@@Z$6
9A7B2 54 __unwindfunclet$?expand_macros@@YA?AV?$basic_string@_WU?$char_traits@_W@std@@V?$allocator@_W@2@@std@@ABV12@@Z$29
9A7C2 54 __ehhandler$?expand_macros@@YA?AV?$basic_string@_WU?$char_traits@_W@std@@V?$allocator@_W@2@@std@@ABV12@@Z
9A7F0 54 __unwindfunclet$?load_file@@YA?AV?$basic_string@_WU?$char_traits@_W@std@@V?$allocator@_W@2@@std@@ABV12@PAI@Z$5
9A7F8 54 __unwindfunclet$?load_file@@YA?AV?$basic_string@_WU?$char_traits@_W@std@@V?$allocator@_W@2@@std@@ABV12@PAI@Z$0
9A800 54 __unwindfunclet$?load_file@@YA?AV?$basic_string@_WU?$char_traits@_W@std@@V?$allocator@_W@2@@std@@ABV12@PAI@Z$1
9A808 54 __unwindfunclet$?load_file@@YA?AV?$basic_string@_WU?$char_traits@_W@std@@V?$allocator@_W@2@@std@@ABV12@PAI@Z$3
9A810 54 __unwindfunclet$?load_file@@YA?AV?$basic_string@_WU?$char_traits@_W@std@@V?$allocator@_W@2@@std@@ABV12@PAI@Z$4
9A81D 54 __ehhandler$?load_file@@YA?AV?$basic_string@_WU?$char_traits@_W@std@@V?$allocator@_W@2@@std@@ABV12@PAI@Z
9A850 54 __unwindfunclet$?auto_rename@@YA?AV?$basic_string@_WU?$char_traits@_W@std@@V?$allocator@_W@2@@std@@ABV12@@Z$0
9A85B 54 __unwindfunclet$?auto_rename@@YA?AV?$basic_string@_WU?$char_traits@_W@std@@V?$allocator@_W@2@@std@@ABV12@@Z$1
9A866 54 __unwindfunclet$?auto_rename@@YA?AV?$basic_string@_WU?$char_traits@_W@std@@V?$allocator@_W@2@@std@@ABV12@@Z$3
9A871 54 __unwindfunclet$?auto_rename@@YA?AV?$basic_string@_WU?$char_traits@_W@std@@V?$allocator@_W@2@@std@@ABV12@@Z$4
9A881 54 __ehhandler$?auto_rename@@YA?AV?$basic_string@_WU?$char_traits@_W@std@@V?$allocator@_W@2@@std@@ABV12@@Z
9A8B0 55 __unwindfunclet$??0Error@@QAE@ABVexception@std@@@Z$0
9A8BB 55 __unwindfunclet$??0Error@@QAE@ABVexception@std@@@Z$1
9A8C6 55 __unwindfunclet$??0Error@@QAE@ABVexception@std@@@Z$2
9A8D1 55 __unwindfunclet$??0Error@@QAE@ABVexception@std@@@Z$3
9A8D9 55 __unwindfunclet$??0Error@@QAE@ABVexception@std@@@Z$4
9A8E1 55 __unwindfunclet$??0Error@@QAE@ABVexception@std@@@Z$5
9A8E9 55 __unwindfunclet$??0Error@@QAE@ABVexception@std@@@Z$15
9A8F6 55 __ehhandler$??0Error@@QAE@ABVexception@std@@@Z
9A920 55 __unwindfunclet$?do_update_ui@ArchiveFileDeleterProgress@@EAEXXZ$0
9A92B 55 __unwindfunclet$?do_update_ui@ArchiveFileDeleterProgress@@EAEXXZ$1
9A933 55 __unwindfunclet$?do_update_ui@ArchiveFileDeleterProgress@@EAEXXZ$2
9A93B 55 __unwindfunclet$?do_update_ui@ArchiveFileDeleterProgress@@EAEXXZ$3
9A943 55 __unwindfunclet$?do_update_ui@ArchiveFileDeleterProgress@@EAEXXZ$4
9A950 55 __ehhandler$?do_update_ui@ArchiveFileDeleterProgress@@EAEXXZ
9A980 55 __unwindfunclet$??0ArchiveFileDeleterProgress@@QAE@XZ$0
9A98D 55 __ehhandler$??0ArchiveFileDeleterProgress@@QAE@XZ
9A9C0 55 __unwindfunclet$??0ArchiveFileDeleterStream@@QAE@ABV?$basic_string@_WU?$char_traits@_W@std@@V?$allocator@_W@2@@std@@V?$shared_ptr@VProgressMonitor@@@2@@Z$2
9A9C8 55 __unwindfunclet$??0ArchiveFileDeleterStream@@QAE@ABV?$basic_string@_WU?$char_traits@_W@std@@V?$allocator@_W@2@@std@@V?$shared_ptr@VProgressMonitor@@@2@@Z$3
9A9D3 55 __unwindfunclet$??0ArchiveFileDeleterStream@@QAE@ABV?$basic_string@_WU?$char_traits@_W@std@@V?$allocator@_W@2@@std@@V?$shared_ptr@VProgressMonitor@@@2@@Z$4
9A9DE 55 __unwindfunclet$??0ArchiveFileDeleterStream@@QAE@ABV?$basic_string@_WU?$char_traits@_W@std@@V?$allocator@_W@2@@std@@V?$shared_ptr@VProgressMonitor@@@2@@Z$5
9A9E9 55 __unwindfunclet$??0ArchiveFileDeleterStream@@QAE@ABV?$basic_string@_WU?$char_traits@_W@std@@V?$allocator@_W@2@@std@@V?$shared_ptr@VProgressMonitor@@@2@@Z$6
9A9F6 55 __ehhandler$??0ArchiveFileDeleterStream@@QAE@ABV?$basic_string@_WU?$char_traits@_W@std@@V?$allocator@_W@2@@std@@V?$shared_ptr@VProgressMonitor@@@2@@Z
9AA20 55 __unwindfunclet$?Write@ArchiveFileDeleterStream@@UAGJPBXIPAI@Z$7
9AA2D 55 __ehhandler$?Write@ArchiveFileDeleterStream@@UAGJPBXIPAI@Z
9AA50 55 __ehhandler$?Seek@ArchiveFileDeleterStream@@UAGJ_JIPA_K@Z
9AA70 55 __unwindfunclet$?SetSize@ArchiveFileDeleterStream@@UAGJ_K@Z$7
9AA7D 55 __ehhandler$?SetSize@ArchiveFileDeleterStream@@UAGJ_K@Z
9AAA0 55 __ehhandler$?SetTotal@ArchiveFileDeleter@@UAGJ_K@Z
9AAC0 55 __ehhandler$?SetCompleted@ArchiveFileDeleter@@UAGJPB_K@Z
9AAE0 55 __ehhandler$?GetStream@ArchiveFileDeleter@@UAGJIPAPAUISequentialInStream@@@Z
9AB00 55 __unwindfunclet$?GetProperty@ArchiveFileDeleter@@UAGJIKPAUtagPROPVARIANT@@@Z$5
9AB0D 55 __ehhandler$?GetProperty@ArchiveFileDeleter@@UAGJIKPAUtagPROPVARIANT@@@Z
9AB30 55 __unwindfunclet$?delete_files@Archive@@QAEXABV?$vector@IV?$allocator@I@std@@@std@@@Z$2
9AB38 55 __unwindfunclet$?delete_files@Archive@@QAEXABV?$vector@IV?$allocator@I@std@@@std@@@Z$3
9AB40 55 __unwindfunclet$?delete_files@Archive@@QAEXABV?$vector@IV?$allocator@I@std@@@std@@@Z$4
9AB48 55 __unwindfunclet$?delete_files@Archive@@QAEXABV?$vector@IV?$allocator@I@std@@@std@@@Z$5
9AB50 55 __unwindfunclet$?delete_files@Archive@@QAEXABV?$vector@IV?$allocator@I@std@@@std@@@Z$6
9AB58 55 __unwindfunclet$?delete_files@Archive@@QAEXABV?$vector@IV?$allocator@I@std@@@std@@@Z$24
9AB6A 55 __unwindfunclet$?delete_files@Archive@@QAEXABV?$vector@IV?$allocator@I@std@@@std@@@Z$7
9AB75 55 __unwindfunclet$?delete_files@Archive@@QAEXABV?$vector@IV?$allocator@I@std@@@std@@@Z$8
9AB84 55 __unwindfunclet$?delete_files@Archive@@QAEXABV?$vector@IV?$allocator@I@std@@@std@@@Z$26
9AB8F 55 __unwindfunclet$?delete_files@Archive@@QAEXABV?$vector@IV?$allocator@I@std@@@std@@@Z$27
9AB9A 55 __unwindfunclet$?delete_files@Archive@@QAEXABV?$vector@IV?$allocator@I@std@@@std@@@Z$10
9ABA5 55 __unwindfunclet$?delete_files@Archive@@QAEXABV?$vector@IV?$allocator@I@std@@@std@@@Z$11
9ABB4 55 __unwindfunclet$?delete_files@Archive@@QAEXABV?$vector@IV?$allocator@I@std@@@std@@@Z$13
9ABBC 55 __unwindfunclet$?delete_files@Archive@@QAEXABV?$vector@IV?$allocator@I@std@@@std@@@Z$16
9ABC7 55 __unwindfunclet$?delete_files@Archive@@QAEXABV?$vector@IV?$allocator@I@std@@@std@@@Z$17
9ABD2 55 __unwindfunclet$?delete_files@Archive@@QAEXABV?$vector@IV?$allocator@I@std@@@std@@@Z$20
9ABDD 55 __unwindfunclet$?delete_files@Archive@@QAEXABV?$vector@IV?$allocator@I@std@@@std@@@Z$21
9ABED 55 __ehhandler$?delete_files@Archive@@QAEXABV?$vector@IV?$allocator@I@std@@@std@@@Z
9AC20 55 __unwindfunclet$?str@?$basic_ostringstream@_WU?$char_traits@_W@std@@V?$allocator@_W@2@@std@@QGBE?AV?$basic_string@_WU?$char_traits@_W@std@@V?$allocator@_W@2@@2@XZ$1
9AC3E 55 __ehhandler$?str@?$basic_ostringstream@_WU?$char_traits@_W@std@@V?$allocator@_W@2@@std@@QGBE?AV?$basic_string@_WU?$char_traits@_W@std@@V?$allocator@_W@2@@2@XZ
9AC60 55 __unwindfunclet$??0?$basic_ostringstream@_WU?$char_traits@_W@std@@V?$allocator@_W@2@@std@@QAE@XZ$0
9AC7C 55 __unwindfunclet$??0?$basic_ostringstream@_WU?$char_traits@_W@std@@V?$allocator@_W@2@@std@@QAE@XZ$5
9AC84 55 __unwindfunclet$??0?$basic_ostringstream@_WU?$char_traits@_W@std@@V?$allocator@_W@2@@std@@QAE@XZ$1
9AC94 55 __ehhandler$??0?$basic_ostringstream@_WU?$char_traits@_W@std@@V?$allocator@_W@2@@std@@QAE@XZ
9ACC0 55 __ehhandler$??1?$basic_ios@_WU?$char_traits@_W@std@@@std@@UAE@XZ
9ACE0 55 __unwindfunclet$??$?6_WU?$char_traits@_W@std@@@std@@YAAAV?$basic_ostream@_WU?$char_traits@_W@std@@@0@AAV10@PB_W@Z$5
9ACE8 55 __unwindfunclet$??$?6_WU?$char_traits@_W@std@@@std@@YAAAV?$basic_ostream@_WU?$char_traits@_W@std@@@0@AAV10@PB_W@Z$2
9ACF5 55 __ehhandler$??$?6_WU?$char_traits@_W@std@@@std@@YAAAV?$basic_ostream@_WU?$char_traits@_W@std@@@0@AAV10@PB_W@Z
9AD20 55 __unwindfunclet$??$?6_WU?$char_traits@_W@std@@@std@@YAAAV?$basic_ostream@_WU?$char_traits@_W@std@@@0@AAV10@_W@Z$5
9AD28 55 __unwindfunclet$??$?6_WU?$char_traits@_W@std@@@std@@YAAAV?$basic_ostream@_WU?$char_traits@_W@std@@@0@AAV10@_W@Z$2
9AD35 55 __ehhandler$??$?6_WU?$char_traits@_W@std@@@std@@YAAAV?$basic_ostream@_WU?$char_traits@_W@std@@@0@AAV10@_W@Z
9AD60 55 __unwindfunclet$??$use_facet@V?$ctype@_W@std@@@std@@YAABV?$ctype@_W@0@ABVlocale@0@@Z$0
9AD68 55 __unwindfunclet$??$use_facet@V?$ctype@_W@std@@@std@@YAABV?$ctype@_W@0@ABVlocale@0@@Z$2
9AD77 55 __unwindfunclet$??$use_facet@V?$ctype@_W@std@@@std@@YAABV?$ctype@_W@0@ABVlocale@0@@Z$1
9AD84 55 __ehhandler$??$use_facet@V?$ctype@_W@std@@@std@@YAABV?$ctype@_W@0@ABVlocale@0@@Z
9ADB0 55 __ehhandler$??1sentry@?$basic_ostream@_WU?$char_traits@_W@std@@@std@@QAE@XZ
9ADD0 55 __unwindfunclet$??0sentry@?$basic_ostream@_WU?$char_traits@_W@std@@@std@@QAE@AAV12@@Z$0
9ADDD 55 __ehhandler$??0sentry@?$basic_ostream@_WU?$char_traits@_W@std@@@std@@QAE@AAV12@@Z
9AE00 55 __ehhandler$??1_Sentry_base@?$basic_ostream@_WU?$char_traits@_W@std@@@std@@QAE@XZ
9AE20 55 __unwindfunclet$?flush@?$basic_ostream@_WU?$char_traits@_W@std@@@std@@QAEAAV12@XZ$2
9AE2D 55 __ehhandler$?flush@?$basic_ostream@_WU?$char_traits@_W@std@@@std@@QAEAAV12@XZ
9AE50 55 __ehhandler$?_Osfx@?$basic_ostream@_WU?$char_traits@_W@std@@@std@@QAEXXZ
9AE70 55 __unwindfunclet$??$_Insert_string@_WU?$char_traits@_W@std@@I@std@@YAAAV?$basic_ostream@_WU?$char_traits@_W@std@@@0@AAV10@QB_WI@Z$5
9AE78 55 __unwindfunclet$??$_Insert_string@_WU?$char_traits@_W@std@@I@std@@YAAAV?$basic_ostream@_WU?$char_traits@_W@std@@@0@AAV10@QB_WI@Z$2
9AE85 55 __ehhandler$??$_Insert_string@_WU?$char_traits@_W@std@@I@std@@YAAAV?$basic_ostream@_WU?$char_traits@_W@std@@@0@AAV10@QB_WI@Z
9AEB0 55 __unwindfunclet$??0_Locinfo@std@@QAE@PBD@Z$0
9AEB8 55 __unwindfunclet$??0_Locinfo@std@@QAE@PBD@Z$1
9AEC3 55 __unwindfunclet$??0_Locinfo@std@@QAE@PBD@Z$2
9AECE 55 __unwindfunclet$??0_Locinfo@std@@QAE@PBD@Z$3
9AED9 55 __unwindfunclet$??0_Locinfo@std@@QAE@PBD@Z$4
9AEE4 55 __unwindfunclet$??0_Locinfo@std@@QAE@PBD@Z$5
9AEEF 55 __unwindfunclet$??0_Locinfo@std@@QAE@PBD@Z$6
9AEFF 55 __ehhandler$??0_Locinfo@std@@QAE@PBD@Z
9AF20 55 __unwindfunclet$??0_System_error@std@@IAE@Verror_code@1@ABV?$basic_string@DU?$char_traits@D@std@@V?$allocator@D@2@@1@@Z$5
9AF28 55 __unwindfunclet$??0_System_error@std@@IAE@Verror_code@1@ABV?$basic_string@DU?$char_traits@D@std@@V?$allocator@D@2@@1@@Z$6
9AF35 55 __ehhandler$??0_System_error@std@@IAE@Verror_code@1@ABV?$basic_string@DU?$char_traits@D@std@@V?$allocator@D@2@@1@@Z
9AF60 55 __unwindfunclet$??0failure@ios_base@std@@QAE@PBDABVerror_code@2@@Z$1
9AF6D 55 __ehhandler$??0failure@ios_base@std@@QAE@PBDABVerror_code@2@@Z
9AFA0 56 __unwindfunclet$?do_update_ui@ExtractProgress@@EAEXXZ$0
9AFAB 56 __unwindfunclet$?do_update_ui@ExtractProgress@@EAEXXZ$15
9AFB3 56 __unwindfunclet$?do_update_ui@ExtractProgress@@EAEXXZ$1
9AFBB 56 __unwindfunclet$?do_update_ui@ExtractProgress@@EAEXXZ$21
9AFC3 56 __unwindfunclet$?do_update_ui@ExtractProgress@@EAEXXZ$2
9AFCB 56 __unwindfunclet$?do_update_ui@ExtractProgress@@EAEXXZ$3
9AFD3 56 __unwindfunclet$?do_update_ui@ExtractProgress@@EAEXXZ$4
9AFDB 56 __unwindfunclet$?do_update_ui@ExtractProgress@@EAEXXZ$5
9AFE3 56 __unwindfunclet$?do_update_ui@ExtractProgress@@EAEXXZ$6
9AFEB 56 __unwindfunclet$?do_update_ui@ExtractProgress@@EAEXXZ$31
9AFF3 56 __unwindfunclet$?do_update_ui@ExtractProgress@@EAEXXZ$7
9AFFB 56 __unwindfunclet$?do_update_ui@ExtractProgress@@EAEXXZ$8
9B003 56 __unwindfunclet$?do_update_ui@ExtractProgress@@EAEXXZ$9
9B00B 56 __unwindfunclet$?do_update_ui@ExtractProgress@@EAEXXZ$10
9B013 56 __unwindfunclet$?do_update_ui@ExtractProgress@@EAEXXZ$39
9B031 56 __ehhandler$?do_update_ui@ExtractProgress@@EAEXXZ
9B060 56 __unwindfunclet$??0ExtractProgress@@QAE@ABV?$basic_string@_WU?$char_traits@_W@std@@V?$allocator@_W@2@@std@@@Z$0
9B068 56 __unwindfunclet$??0ExtractProgress@@QAE@ABV?$basic_string@_WU?$char_traits@_W@std@@V?$allocator@_W@2@@std@@@Z$1
9B075 56 __ehhandler$??0ExtractProgress@@QAE@ABV?$basic_string@_WU?$char_traits@_W@std@@V?$allocator@_W@2@@std@@@Z
9B0A0 56 __unwindfunclet$?create_file@FileWriteCache@@AAEXXZ$2
9B0A8 56 __unwindfunclet$?create_file@FileWriteCache@@AAEXXZ$7
9B0B5 56 __ehhandler$?create_file@FileWriteCache@@AAEXXZ
9B0E0 56 __ehhandler$?allocate_file@FileWriteCache@@AAEXXZ
9B100 56 __unwindfunclet$?write_file@FileWriteCache@@AAEXXZ$2
9B10D 56 __ehhandler$?write_file@FileWriteCache@@AAEXXZ
9B130 56 __ehhandler$?close_file@FileWriteCache@@AAEXXZ
9B150 56 __unwindfunclet$?store@FileWriteCache@@AAEXPBEI@Z$0
9B15D 56 __ehhandler$?store@FileWriteCache@@AAEXPBEI@Z
9B180 56 __unwindfunclet$??0FileWriteCache@@QAE@V?$shared_ptr@VArchive@@@std@@V?$shared_ptr@_N@2@V?$shared_ptr@V?$list@UError@@V?$allocator@UError@@@std@@@std@@@2@V?$shared_ptr@VExtractProgress@@@2@@Z$0
9B188 56 __unwindfunclet$??0FileWriteCache@@QAE@V?$shared_ptr@VArchive@@@std@@V?$shared_ptr@_N@2@V?$shared_ptr@V?$list@UError@@V?$allocator@UError@@@std@@@std@@@2@V?$shared_ptr@VExtractProgress@@@2@@Z$1
9B190 56 __unwindfunclet$??0FileWriteCache@@QAE@V?$shared_ptr@VArchive@@@std@@V?$shared_ptr@_N@2@V?$shared_ptr@V?$list@UError@@V?$allocator@UError@@@std@@@std@@@2@V?$shared_ptr@VExtractProgress@@@2@@Z$2
9B198 56 __unwindfunclet$??0FileWriteCache@@QAE@V?$shared_ptr@VArchive@@@std@@V?$shared_ptr@_N@2@V?$shared_ptr@V?$list@UError@@V?$allocator@UError@@@std@@@std@@@2@V?$shared_ptr@VExtractProgress@@@2@@Z$3
9B1A0 56 __unwindfunclet$??0FileWriteCache@@QAE@V?$shared_ptr@VArchive@@@std@@V?$shared_ptr@_N@2@V?$shared_ptr@V?$list@UError@@V?$allocator@UError@@@std@@@std@@@2@V?$shared_ptr@VExtractProgress@@@2@@Z$4
9B1A8 56 __unwindfunclet$??0FileWriteCache@@QAE@V?$shared_ptr@VArchive@@@std@@V?$shared_ptr@_N@2@V?$shared_ptr@V?$list@UError@@V?$allocator@UError@@@std@@@std@@@2@V?$shared_ptr@VExtractProgress@@@2@@Z$5
9B1B3 56 __unwindfunclet$??0FileWriteCache@@QAE@V?$shared_ptr@VArchive@@@std@@V?$shared_ptr@_N@2@V?$shared_ptr@V?$list@UError@@V?$allocator@UError@@@std@@@std@@@2@V?$shared_ptr@VExtractProgress@@@2@@Z$6
9B1BE 56 __unwindfunclet$??0FileWriteCache@@QAE@V?$shared_ptr@VArchive@@@std@@V?$shared_ptr@_N@2@V?$shared_ptr@V?$list@UError@@V?$allocator@UError@@@std@@@std@@@2@V?$shared_ptr@VExtractProgress@@@2@@Z$7
9B1C9 56 __unwindfunclet$??0FileWriteCache@@QAE@V?$shared_ptr@VArchive@@@std@@V?$shared_ptr@_N@2@V?$shared_ptr@V?$list@UError@@V?$allocator@UError@@@std@@@std@@@2@V?$shared_ptr@VExtractProgress@@@2@@Z$8
9B1D4 56 __unwindfunclet$??0FileWriteCache@@QAE@V?$shared_ptr@VArchive@@@std@@V?$shared_ptr@_N@2@V?$shared_ptr@V?$list@UError@@V?$allocator@UError@@@std@@@std@@@2@V?$shared_ptr@VExtractProgress@@@2@@Z$9
9B1DF 56 __unwindfunclet$??0FileWriteCache@@QAE@V?$shared_ptr@VArchive@@@std@@V?$shared_ptr@_N@2@V?$shared_ptr@V?$list@UError@@V?$allocator@UError@@@std@@@std@@@2@V?$shared_ptr@VExtractProgress@@@2@@Z$10
9B1EF 56 __ehhandler$??0FileWriteCache@@QAE@V?$shared_ptr@VArchive@@@std@@V?$shared_ptr@_N@2@V?$shared_ptr@V?$list@UError@@V?$allocator@UError@@@std@@@std@@@2@V?$shared_ptr@VExtractProgress@@@2@@Z
9B220 56 __unwindfunclet$?store_data@FileWriteCache@@QAEXPBEI@Z$0
9B22D 56 __ehhandler$?store_data@FileWriteCache@@QAEXPBEI@Z
9B250 56 __ehhandler$?Write@CachedFileExtractStream@@UAGJPBXIPAI@Z
9B270 56 __unwindfunclet$??0ArchiveExtractor@@QAE@IABV?$basic_string@_WU?$char_traits@_W@std@@V?$allocator@_W@2@@std@@V?$shared_ptr@VArchive@@@2@V?$shared_ptr@W4OverwriteAction@@@2@V?$shared_ptr@_N@2@V?$shared_ptr@V?$list@UError@@V?$allocator@UError@@@std@@@std@@@2@V?$shared_ptr@VFileWriteCache@@@2@V?$shared_ptr@VExtractProgress@@@2@V?$shared_ptr@V?$set@IU?$less@I@std@@V?$allocator@I@2@@std@@@2@@Z$0
9B278 56 __unwindfunclet$??0ArchiveExtractor@@QAE@IABV?$basic_string@_WU?$char_traits@_W@std@@V?$allocator@_W@2@@std@@V?$shared_ptr@VArchive@@@2@V?$shared_ptr@W4OverwriteAction@@@2@V?$shared_ptr@_N@2@V?$shared_ptr@V?$list@UError@@V?$allocator@UError@@@std@@@std@@@2@V?$shared_ptr@VFileWriteCache@@@2@V?$shared_ptr@VExtractProgress@@@2@V?$shared_ptr@V?$set@IU?$less@I@std@@V?$allocator@I@2@@std@@@2@@Z$1
9B280 56 __unwindfunclet$??0ArchiveExtractor@@QAE@IABV?$basic_string@_WU?$char_traits@_W@std@@V?$allocator@_W@2@@std@@V?$shared_ptr@VArchive@@@2@V?$shared_ptr@W4OverwriteAction@@@2@V?$shared_ptr@_N@2@V?$shared_ptr@V?$list@UError@@V?$allocator@UError@@@std@@@std@@@2@V?$shared_ptr@VFileWriteCache@@@2@V?$shared_ptr@VExtractProgress@@@2@V?$shared_ptr@V?$set@IU?$less@I@std@@V?$allocator@I@2@@std@@@2@@Z$2
9B288 56 __unwindfunclet$??0ArchiveExtractor@@QAE@IABV?$basic_string@_WU?$char_traits@_W@std@@V?$allocator@_W@2@@std@@V?$shared_ptr@VArchive@@@2@V?$shared_ptr@W4OverwriteAction@@@2@V?$shared_ptr@_N@2@V?$shared_ptr@V?$list@UError@@V?$allocator@UError@@@std@@@std@@@2@V?$shared_ptr@VFileWriteCache@@@2@V?$shared_ptr@VExtractProgress@@@2@V?$shared_ptr@V?$set@IU?$less@I@std@@V?$allocator@I@2@@std@@@2@@Z$3
9B290 56 __unwindfunclet$??0ArchiveExtractor@@QAE@IABV?$basic_string@_WU?$char_traits@_W@std@@V?$allocator@_W@2@@std@@V?$shared_ptr@VArchive@@@2@V?$shared_ptr@W4OverwriteAction@@@2@V?$shared_ptr@_N@2@V?$shared_ptr@V?$list@UError@@V?$allocator@UError@@@std@@@std@@@2@V?$shared_ptr@VFileWriteCache@@@2@V?$shared_ptr@VExtractProgress@@@2@V?$shared_ptr@V?$set@IU?$less@I@std@@V?$allocator@I@2@@std@@@2@@Z$4
9B298 56 __unwindfunclet$??0ArchiveExtractor@@QAE@IABV?$basic_string@_WU?$char_traits@_W@std@@V?$allocator@_W@2@@std@@V?$shared_ptr@VArchive@@@2@V?$shared_ptr@W4OverwriteAction@@@2@V?$shared_ptr@_N@2@V?$shared_ptr@V?$list@UError@@V?$allocator@UError@@@std@@@std@@@2@V?$shared_ptr@VFileWriteCache@@@2@V?$shared_ptr@VExtractProgress@@@2@V?$shared_ptr@V?$set@IU?$less@I@std@@V?$allocator@I@2@@std@@@2@@Z$5
9B2A0 56 __unwindfunclet$??0ArchiveExtractor@@QAE@IABV?$basic_string@_WU?$char_traits@_W@std@@V?$allocator@_W@2@@std@@V?$shared_ptr@VArchive@@@2@V?$shared_ptr@W4OverwriteAction@@@2@V?$shared_ptr@_N@2@V?$shared_ptr@V?$list@UError@@V?$allocator@UError@@@std@@@std@@@2@V?$shared_ptr@VFileWriteCache@@@2@V?$shared_ptr@VExtractProgress@@@2@V?$shared_ptr@V?$set@IU?$less@I@std@@V?$allocator@I@2@@std@@@2@@Z$6
9B2A8 56 __unwindfunclet$??0ArchiveExtractor@@QAE@IABV?$basic_string@_WU?$char_traits@_W@std@@V?$allocator@_W@2@@std@@V?$shared_ptr@VArchive@@@2@V?$shared_ptr@W4OverwriteAction@@@2@V?$shared_ptr@_N@2@V?$shared_ptr@V?$list@UError@@V?$allocator@UError@@@std@@@std@@@2@V?$shared_ptr@VFileWriteCache@@@2@V?$shared_ptr@VExtractProgress@@@2@V?$shared_ptr@V?$set@IU?$less@I@std@@V?$allocator@I@2@@std@@@2@@Z$7
9B2B3 56 __unwindfunclet$??0ArchiveExtractor@@QAE@IABV?$basic_string@_WU?$char_traits@_W@std@@V?$allocator@_W@2@@std@@V?$shared_ptr@VArchive@@@2@V?$shared_ptr@W4OverwriteAction@@@2@V?$shared_ptr@_N@2@V?$shared_ptr@V?$list@UError@@V?$allocator@UError@@@std@@@std@@@2@V?$shared_ptr@VFileWriteCache@@@2@V?$shared_ptr@VExtractProgress@@@2@V?$shared_ptr@V?$set@IU?$less@I@std@@V?$allocator@I@2@@std@@@2@@Z$8
9B2BE 56 __unwindfunclet$??0ArchiveExtractor@@QAE@IABV?$basic_string@_WU?$char_traits@_W@std@@V?$allocator@_W@2@@std@@V?$shared_ptr@VArchive@@@2@V?$shared_ptr@W4OverwriteAction@@@2@V?$shared_ptr@_N@2@V?$shared_ptr@V?$list@UError@@V?$allocator@UError@@@std@@@std@@@2@V?$shared_ptr@VFileWriteCache@@@2@V?$shared_ptr@VExtractProgress@@@2@V?$shared_ptr@V?$set@IU?$less@I@std@@V?$allocator@I@2@@std@@@2@@Z$9
9B2CE 56 __ehhandler$??0ArchiveExtractor@@QAE@IABV?$basic_string@_WU?$char_traits@_W@std@@V?$allocator@_W@2@@std@@V?$shared_ptr@VArchive@@@2@V?$shared_ptr@W4OverwriteAction@@@2@V?$shared_ptr@_N@2@V?$shared_ptr@V?$list@UError@@V?$allocator@UError@@@std@@@std@@@2@V?$shared_ptr@VFileWriteCache@@@2@V?$shared_ptr@VExtractProgress@@@2@V?$shared_ptr@V?$set@IU?$less@I@std@@V?$allocator@I@2@@std@@@2@@Z
9B2F0 56 __unwindfunclet$?SetTotal@ArchiveExtractor@@UAGJ_K@Z$5
9B2FD 56 __ehhandler$?SetTotal@ArchiveExtractor@@UAGJ_K@Z
9B320 56 __unwindfunclet$?SetCompleted@ArchiveExtractor@@UAGJPB_K@Z$5
9B328 56 __unwindfunclet$?SetCompleted@ArchiveExtractor@@UAGJPB_K@Z$7
9B335 56 __ehhandler$?SetCompleted@ArchiveExtractor@@UAGJPB_K@Z
9B360 56 __unwindfunclet$?GetStream@ArchiveExtractor@@UAGJIPAPAUISequentialOutStream@@H@Z$6
9B368 56 __unwindfunclet$?GetStream@ArchiveExtractor@@UAGJIPAPAUISequentialOutStream@@H@Z$7
9B370 56 __unwindfunclet$?GetStream@ArchiveExtractor@@UAGJIPAPAUISequentialOutStream@@H@Z$8
9B37B 56 __unwindfunclet$?GetStream@ArchiveExtractor@@UAGJIPAPAUISequentialOutStream@@H@Z$15
9B386 56 __unwindfunclet$?GetStream@ArchiveExtractor@@UAGJIPAPAUISequentialOutStream@@H@Z$17
9B38E 56 __unwindfunclet$?GetStream@ArchiveExtractor@@UAGJIPAPAUISequentialOutStream@@H@Z$23
9B39E 56 __ehhandler$?GetStream@ArchiveExtractor@@UAGJIPAPAUISequentialOutStream@@H@Z
9B3D0 56 __unwindfunclet$?PrepareOperation@ArchiveExtractor@@UAGJH@Z$5
9B3DD 56 __ehhandler$?PrepareOperation@ArchiveExtractor@@UAGJH@Z
9B400 56 __unwindfunclet$?SetOperationResult@ArchiveExtractor@@UAGJH@Z$7
9B408 56 __unwindfunclet$?SetOperationResult@ArchiveExtractor@@UAGJH@Z$8
9B410 56 __unwindfunclet$?SetOperationResult@ArchiveExtractor@@UAGJH@Z$9
9B418 56 __unwindfunclet$?SetOperationResult@ArchiveExtractor@@UAGJH@Z$10
9B420 56 __unwindfunclet$?SetOperationResult@ArchiveExtractor@@UAGJH@Z$11
9B428 56 __unwindfunclet$?SetOperationResult@ArchiveExtractor@@UAGJH@Z$12
9B430 56 __unwindfunclet$?SetOperationResult@ArchiveExtractor@@UAGJH@Z$13
9B438 56 __unwindfunclet$?SetOperationResult@ArchiveExtractor@@UAGJH@Z$14
9B440 56 __unwindfunclet$?SetOperationResult@ArchiveExtractor@@UAGJH@Z$15
9B448 56 __unwindfunclet$?SetOperationResult@ArchiveExtractor@@UAGJH@Z$16
9B450 56 __unwindfunclet$?SetOperationResult@ArchiveExtractor@@UAGJH@Z$17
9B45D 56 __ehhandler$?SetOperationResult@ArchiveExtractor@@UAGJH@Z
9B490 56 __unwindfunclet$?CryptoGetTextPassword@ArchiveExtractor@@UAGJPAPA_W@Z$5
9B498 56 __unwindfunclet$?CryptoGetTextPassword@ArchiveExtractor@@UAGJPAPA_W@Z$6
9B4A5 56 __ehhandler$?CryptoGetTextPassword@ArchiveExtractor@@UAGJPAPA_W@Z
9B4D0 56 __unwindfunclet$?prepare_dst_dir@Archive@@AAEXABV?$basic_string@_WU?$char_traits@_W@std@@V?$allocator@_W@2@@std@@@Z$0
9B4DD 56 __ehhandler$?prepare_dst_dir@Archive@@AAEXABV?$basic_string@_WU?$char_traits@_W@std@@V?$allocator@_W@2@@std@@@Z
9B510 56 __unwindfunclet$?do_update_ui@PrepareExtract@@EAEXXZ$0
9B51B 56 __unwindfunclet$?do_update_ui@PrepareExtract@@EAEXXZ$4
9B523 56 __unwindfunclet$?do_update_ui@PrepareExtract@@EAEXXZ$1
9B530 56 __ehhandler$?do_update_ui@PrepareExtract@@EAEXXZ
9B560 56 __unwindfunclet$??R<lambda_1>@?1??prepare_extract@PrepareExtract@@AAEXABU?$pair@V?$_Vector_const_iterator@V?$_Vector_val@U?$_Simple_types@I@std@@@std@@@std@@V12@@std@@ABV?$basic_string@_WU?$char_traits@_W@std@@V?$allocator@_W@2@@4@@Z@QBE@I@Z$4
9B568 56 __unwindfunclet$??R<lambda_1>@?1??prepare_extract@PrepareExtract@@AAEXABU?$pair@V?$_Vector_const_iterator@V?$_Vector_val@U?$_Simple_types@I@std@@@std@@@std@@V12@@std@@ABV?$basic_string@_WU?$char_traits@_W@std@@V?$allocator@_W@2@@4@@Z@QBE@I@Z$5
9B570 56 __unwindfunclet$??R<lambda_1>@?1??prepare_extract@PrepareExtract@@AAEXABU?$pair@V?$_Vector_const_iterator@V?$_Vector_val@U?$_Simple_types@I@std@@@std@@@std@@V12@@std@@ABV?$basic_string@_WU?$char_traits@_W@std@@V?$allocator@_W@2@@4@@Z@QBE@I@Z$6
9B578 56 __unwindfunclet$??R<lambda_1>@?1??prepare_extract@PrepareExtract@@AAEXABU?$pair@V?$_Vector_const_iterator@V?$_Vector_val@U?$_Simple_types@I@std@@@std@@@std@@V12@@std@@ABV?$basic_string@_WU?$char_traits@_W@std@@V?$allocator@_W@2@@4@@Z@QBE@I@Z$8
9B588 56 __ehhandler$??R<lambda_1>@?1??prepare_extract@PrepareExtract@@AAEXABU?$pair@V?$_Vector_const_iterator@V?$_Vector_val@U?$_Simple_types@I@std@@@std@@@std@@V12@@std@@ABV?$basic_string@_WU?$char_traits@_W@std@@V?$allocator@_W@2@@4@@Z@QBE@I@Z
9B5C0 56 __unwindfunclet$??R<lambda_1>@?1??set_dir_attr@SetDirAttr@@AAEXABU?$pair@V?$_Vector_const_iterator@V?$_Vector_val@U?$_Simple_types@I@std@@@std@@@std@@V12@@std@@ABV?$basic_string@_WU?$char_traits@_W@std@@V?$allocator@_W@2@@4@@Z@QBE@I@Z$2
9B5C8 56 __unwindfunclet$??R<lambda_1>@?1??set_dir_attr@SetDirAttr@@AAEXABU?$pair@V?$_Vector_const_iterator@V?$_Vector_val@U?$_Simple_types@I@std@@@std@@@std@@V12@@std@@ABV?$basic_string@_WU?$char_traits@_W@std@@V?$allocator@_W@2@@4@@Z@QBE@I@Z$3
9B5D0 56 __unwindfunclet$??R<lambda_1>@?1??set_dir_attr@SetDirAttr@@AAEXABU?$pair@V?$_Vector_const_iterator@V?$_Vector_val@U?$_Simple_types@I@std@@@std@@@std@@V12@@std@@ABV?$basic_string@_WU?$char_traits@_W@std@@V?$allocator@_W@2@@4@@Z@QBE@I@Z$4
9B5D8 56 __unwindfunclet$??R<lambda_1>@?1??set_dir_attr@SetDirAttr@@AAEXABU?$pair@V?$_Vector_const_iterator@V?$_Vector_val@U?$_Simple_types@I@std@@@std@@@std@@V12@@std@@ABV?$basic_string@_WU?$char_traits@_W@std@@V?$allocator@_W@2@@4@@Z@QBE@I@Z$9
9B5E3 56 __unwindfunclet$??R<lambda_1>@?1??set_dir_attr@SetDirAttr@@AAEXABU?$pair@V?$_Vector_const_iterator@V?$_Vector_val@U?$_Simple_types@I@std@@@std@@@std@@V12@@std@@ABV?$basic_string@_WU?$char_traits@_W@std@@V?$allocator@_W@2@@4@@Z@QBE@I@Z$13
9B5EB 56 __unwindfunclet$??R<lambda_1>@?1??set_dir_attr@SetDirAttr@@AAEXABU?$pair@V?$_Vector_const_iterator@V?$_Vector_val@U?$_Simple_types@I@std@@@std@@@std@@V12@@std@@ABV?$basic_string@_WU?$char_traits@_W@std@@V?$allocator@_W@2@@4@@Z@QBE@I@Z$5
9B5F8 56 __ehhandler$??R<lambda_1>@?1??set_dir_attr@SetDirAttr@@AAEXABU?$pair@V?$_Vector_const_iterator@V?$_Vector_val@U?$_Simple_types@I@std@@@std@@@std@@V12@@std@@ABV?$basic_string@_WU?$char_traits@_W@std@@V?$allocator@_W@2@@4@@Z@QBE@I@Z
9B630 56 __unwindfunclet$?extract@Archive@@QAEXIABV?$vector@IV?$allocator@I@std@@@std@@ABUExtractOptions@@V?$shared_ptr@V?$list@UError@@V?$allocator@UError@@@std@@@std@@@3@PAV23@@Z$0
9B638 56 __unwindfunclet$?extract@Archive@@QAEXIABV?$vector@IV?$allocator@I@std@@@std@@ABUExtractOptions@@V?$shared_ptr@V?$list@UError@@V?$allocator@UError@@@std@@@std@@@3@PAV23@@Z$1
9B643 56 __unwindfunclet$?extract@Archive@@QAEXIABV?$vector@IV?$allocator@I@std@@@std@@ABUExtractOptions@@V?$shared_ptr@V?$list@UError@@V?$allocator@UError@@@std@@@std@@@3@PAV23@@Z$2
9B64E 56 __unwindfunclet$?extract@Archive@@QAEXIABV?$vector@IV?$allocator@I@std@@@std@@ABUExtractOptions@@V?$shared_ptr@V?$list@UError@@V?$allocator@UError@@@std@@@std@@@3@PAV23@@Z$3
9B659 56 __unwindfunclet$?extract@Archive@@QAEXIABV?$vector@IV?$allocator@I@std@@@std@@ABUExtractOptions@@V?$shared_ptr@V?$list@UError@@V?$allocator@UError@@@std@@@std@@@3@PAV23@@Z$4
9B664 56 __unwindfunclet$?extract@Archive@@QAEXIABV?$vector@IV?$allocator@I@std@@@std@@ABUExtractOptions@@V?$shared_ptr@V?$list@UError@@V?$allocator@UError@@@std@@@std@@@3@PAV23@@Z$29
9B66C 56 __unwindfunclet$?extract@Archive@@QAEXIABV?$vector@IV?$allocator@I@std@@@std@@ABUExtractOptions@@V?$shared_ptr@V?$list@UError@@V?$allocator@UError@@@std@@@std@@@3@PAV23@@Z$30
9B677 56 __unwindfunclet$?extract@Archive@@QAEXIABV?$vector@IV?$allocator@I@std@@@std@@ABUExtractOptions@@V?$shared_ptr@V?$list@UError@@V?$allocator@UError@@@std@@@std@@@3@PAV23@@Z$6
9B682 56 __unwindfunclet$?extract@Archive@@QAEXIABV?$vector@IV?$allocator@I@std@@@std@@ABUExtractOptions@@V?$shared_ptr@V?$list@UError@@V?$allocator@UError@@@std@@@std@@@3@PAV23@@Z$36
9B697 56 __unwindfunclet$?extract@Archive@@QAEXIABV?$vector@IV?$allocator@I@std@@@std@@ABUExtractOptions@@V?$shared_ptr@V?$list@UError@@V?$allocator@UError@@@std@@@std@@@3@PAV23@@Z$7
9B6A2 56 __unwindfunclet$?extract@Archive@@QAEXIABV?$vector@IV?$allocator@I@std@@@std@@ABUExtractOptions@@V?$shared_ptr@V?$list@UError@@V?$allocator@UError@@@std@@@std@@@3@PAV23@@Z$8
9B6AD 56 __unwindfunclet$?extract@Archive@@QAEXIABV?$vector@IV?$allocator@I@std@@@std@@ABUExtractOptions@@V?$shared_ptr@V?$list@UError@@V?$allocator@UError@@@std@@@std@@@3@PAV23@@Z$38
9B6C2 56 __unwindfunclet$?extract@Archive@@QAEXIABV?$vector@IV?$allocator@I@std@@@std@@ABUExtractOptions@@V?$shared_ptr@V?$list@UError@@V?$allocator@UError@@@std@@@std@@@3@PAV23@@Z$9
9B6CD 56 __unwindfunclet$?extract@Archive@@QAEXIABV?$vector@IV?$allocator@I@std@@@std@@ABUExtractOptions@@V?$shared_ptr@V?$list@UError@@V?$allocator@UError@@@std@@@std@@@3@PAV23@@Z$52
9B6DF 56 __unwindfunclet$?extract@Archive@@QAEXIABV?$vector@IV?$allocator@I@std@@@std@@ABUExtractOptions@@V?$shared_ptr@V?$list@UError@@V?$allocator@UError@@@std@@@std@@@3@PAV23@@Z$12
9B6EA 56 __unwindfunclet$?extract@Archive@@QAEXIABV?$vector@IV?$allocator@I@std@@@std@@ABUExtractOptions@@V?$shared_ptr@V?$list@UError@@V?$allocator@UError@@@std@@@std@@@3@PAV23@@Z$13
9B6FF 56 __unwindfunclet$?extract@Archive@@QAEXIABV?$vector@IV?$allocator@I@std@@@std@@ABUExtractOptions@@V?$shared_ptr@V?$list@UError@@V?$allocator@UError@@@std@@@std@@@3@PAV23@@Z$14
9B70A 56 __unwindfunclet$?extract@Archive@@QAEXIABV?$vector@IV?$allocator@I@std@@@std@@ABUExtractOptions@@V?$shared_ptr@V?$list@UError@@V?$allocator@UError@@@std@@@std@@@3@PAV23@@Z$15
9B715 56 __unwindfunclet$?extract@Archive@@QAEXIABV?$vector@IV?$allocator@I@std@@@std@@ABUExtractOptions@@V?$shared_ptr@V?$list@UError@@V?$allocator@UError@@@std@@@std@@@3@PAV23@@Z$16
9B720 56 __unwindfunclet$?extract@Archive@@QAEXIABV?$vector@IV?$allocator@I@std@@@std@@ABUExtractOptions@@V?$shared_ptr@V?$list@UError@@V?$allocator@UError@@@std@@@std@@@3@PAV23@@Z$17
9B72B 56 __unwindfunclet$?extract@Archive@@QAEXIABV?$vector@IV?$allocator@I@std@@@std@@ABUExtractOptions@@V?$shared_ptr@V?$list@UError@@V?$allocator@UError@@@std@@@std@@@3@PAV23@@Z$18
9B736 56 __unwindfunclet$?extract@Archive@@QAEXIABV?$vector@IV?$allocator@I@std@@@std@@ABUExtractOptions@@V?$shared_ptr@V?$list@UError@@V?$allocator@UError@@@std@@@std@@@3@PAV23@@Z$19
9B741 56 __unwindfunclet$?extract@Archive@@QAEXIABV?$vector@IV?$allocator@I@std@@@std@@ABUExtractOptions@@V?$shared_ptr@V?$list@UError@@V?$allocator@UError@@@std@@@std@@@3@PAV23@@Z$21
9B74C 56 __unwindfunclet$?extract@Archive@@QAEXIABV?$vector@IV?$allocator@I@std@@@std@@ABUExtractOptions@@V?$shared_ptr@V?$list@UError@@V?$allocator@UError@@@std@@@std@@@3@PAV23@@Z$26
9B754 56 __unwindfunclet$?extract@Archive@@QAEXIABV?$vector@IV?$allocator@I@std@@@std@@ABUExtractOptions@@V?$shared_ptr@V?$list@UError@@V?$allocator@UError@@@std@@@std@@@3@PAV23@@Z$27
9B75C 56 __unwindfunclet$?extract@Archive@@QAEXIABV?$vector@IV?$allocator@I@std@@@std@@ABUExtractOptions@@V?$shared_ptr@V?$list@UError@@V?$allocator@UError@@@std@@@std@@@3@PAV23@@Z$56
9B764 56 __unwindfunclet$?extract@Archive@@QAEXIABV?$vector@IV?$allocator@I@std@@@std@@ABUExtractOptions@@V?$shared_ptr@V?$list@UError@@V?$allocator@UError@@@std@@@std@@@3@PAV23@@Z$57
9B76F 56 __unwindfunclet$?extract@Archive@@QAEXIABV?$vector@IV?$allocator@I@std@@@std@@ABUExtractOptions@@V?$shared_ptr@V?$list@UError@@V?$allocator@UError@@@std@@@std@@@3@PAV23@@Z$24
9B77C 56 __ehhandler$?extract@Archive@@QAEXIABV?$vector@IV?$allocator@I@std@@@std@@ABUExtractOptions@@V?$shared_ptr@V?$list@UError@@V?$allocator@UError@@@std@@@std@@@3@PAV23@@Z
9B7B0 56 __ehhandler$?delete_archive@Archive@@QAEXXZ
9B7E0 56 __unwindfunclet$?push_back@?$list@IV?$allocator@I@std@@@std@@QAEXABI@Z$1
9B7ED 56 __ehhandler$?push_back@?$list@IV?$allocator@I@std@@@std@@QAEXABI@Z
9B810 56 __unwindfunclet$?assign@?$list@UCacheRecord@FileWriteCache@@V?$allocator@UCacheRecord@FileWriteCache@@@std@@@std@@QAEXIABUCacheRecord@FileWriteCache@@@Z$0
9B818 56 __unwindfunclet$?assign@?$list@UCacheRecord@FileWriteCache@@V?$allocator@UCacheRecord@FileWriteCache@@@std@@@std@@QAEXIABUCacheRecord@FileWriteCache@@@Z$1
9B825 56 __ehhandler$?assign@?$list@UCacheRecord@FileWriteCache@@V?$allocator@UCacheRecord@FileWriteCache@@@std@@@std@@QAEXIABUCacheRecord@FileWriteCache@@@Z
9B850 56 __unwindfunclet$??$insert@$0A@$0A@@?$_Tree@V?$_Tset_traits@IU?$less@I@std@@V?$allocator@I@2@$0A@@std@@@std@@QAE?AU?$pair@V?$_Tree_const_iterator@V?$_Tree_val@U?$_Tree_simple_types@I@std@@@std@@@std@@_N@1@ABI@Z$2
9B85D 56 __ehhandler$??$insert@$0A@$0A@@?$_Tree@V?$_Tset_traits@IU?$less@I@std@@V?$allocator@I@2@$0A@@std@@@std@@QAE?AU?$pair@V?$_Tree_const_iterator@V?$_Tree_val@U?$_Tree_simple_types@I@std@@@std@@@std@@_N@1@ABI@Z
9B880 56 __unwindfunclet$??$for_each@V?$_Tree_const_iterator@V?$_Tree_val@U?$_Tree_simple_types@V?$basic_string@_WU?$char_traits@_W@std@@V?$allocator@_W@2@@std@@@std@@@std@@@std@@V<lambda_1>@?1??delete_archive@Archive@@QAEXXZ@@std@@YA?AV<lambda_1>@?1??delete_archive@Archive@@QAEXXZ@V?$_Tree_const_iterator@V?$_Tree_val@U?$_Tree_simple_types@V?$basic_string@_WU?$char_traits@_W@std@@V?$allocator@_W@2@@std@@@std@@@std@@@0@0V1?1??23@QAEXXZ@@Z$0
9B888 56 __unwindfunclet$??$for_each@V?$_Tree_const_iterator@V?$_Tree_val@U?$_Tree_simple_types@V?$basic_string@_WU?$char_traits@_W@std@@V?$allocator@_W@2@@std@@@std@@@std@@@std@@V<lambda_1>@?1??delete_archive@Archive@@QAEXXZ@@std@@YA?AV<lambda_1>@?1??delete_archive@Archive@@QAEXXZ@V?$_Tree_const_iterator@V?$_Tree_val@U?$_Tree_simple_types@V?$basic_string@_WU?$char_traits@_W@std@@V?$allocator@_W@2@@std@@@std@@@std@@@0@0V1?1??23@QAEXXZ@@Z$1
9B895 56 __ehhandler$??$for_each@V?$_Tree_const_iterator@V?$_Tree_val@U?$_Tree_simple_types@V?$basic_string@_WU?$char_traits@_W@std@@V?$allocator@_W@2@@std@@@std@@@std@@@std@@V<lambda_1>@?1??delete_archive@Archive@@QAEXXZ@@std@@YA?AV<lambda_1>@?1??delete_archive@Archive@@QAEXXZ@V?$_Tree_const_iterator@V?$_Tree_val@U?$_Tree_simple_types@V?$basic_string@_WU?$char_traits@_W@std@@V?$allocator@_W@2@@std@@@std@@@std@@@0@0V1?1??23@QAEXXZ@@Z
9B8C0 57 __unwindfunclet$?get_plugin_module_path@Far@@YA?AV?$basic_string@_WU?$char_traits@_W@std@@V?$allocator@_W@2@@std@@XZ$0
9B8C8 57 __unwindfunclet$?get_plugin_module_path@Far@@YA?AV?$basic_string@_WU?$char_traits@_W@std@@V?$allocator@_W@2@@std@@XZ$1
9B8D0 57 __unwindfunclet$?get_plugin_module_path@Far@@YA?AV?$basic_string@_WU?$char_traits@_W@std@@V?$allocator@_W@2@@std@@XZ$2
9B8D8 57 __unwindfunclet$?get_plugin_module_path@Far@@YA?AV?$basic_string@_WU?$char_traits@_W@std@@V?$allocator@_W@2@@std@@XZ$3
9B8E5 57 __ehhandler$?get_plugin_module_path@Far@@YA?AV?$basic_string@_WU?$char_traits@_W@std@@V?$allocator@_W@2@@std@@XZ
9B910 57 __unwindfunclet$?menu@Far@@YAHABU_GUID@@ABV?$basic_string@_WU?$char_traits@_W@std@@V?$allocator@_W@2@@std@@ABVMenuItems@1@PB_W@Z$0
9B91D 57 __ehhandler$?menu@Far@@YAHABU_GUID@@ABV?$basic_string@_WU?$char_traits@_W@std@@V?$allocator@_W@2@@std@@ABVMenuItems@1@PB_W@Z
9B940 57 __unwindfunclet$?get_progress_bar_str@Far@@YA?AV?$basic_string@_WU?$char_traits@_W@std@@V?$allocator@_W@2@@std@@I_K0@Z$0
9B95E 57 __ehhandler$?get_progress_bar_str@Far@@YA?AV?$basic_string@_WU?$char_traits@_W@std@@V?$allocator@_W@2@@std@@I_K0@Z
9B980 57 __unwindfunclet$?get_panel_dir@Far@@YA?AV?$basic_string@_WU?$char_traits@_W@std@@V?$allocator@_W@2@@std@@PAX@Z$0
9B988 57 __unwindfunclet$?get_panel_dir@Far@@YA?AV?$basic_string@_WU?$char_traits@_W@std@@V?$allocator@_W@2@@std@@PAX@Z$2
9B995 57 __ehhandler$?get_panel_dir@Far@@YA?AV?$basic_string@_WU?$char_traits@_W@std@@V?$allocator@_W@2@@std@@PAX@Z
9B9C0 57 __unwindfunclet$?get_panel_item@Far@@YAXPAXW4FILE_CONTROL_COMMANDS@@IAAV?$Buffer@E@@@Z$0
9B9CD 57 __ehhandler$?get_panel_item@Far@@YAXPAXW4FILE_CONTROL_COMMANDS@@IAAV?$Buffer@E@@@Z
9BA00 57 __unwindfunclet$?get_panel_item@Far@@YA?AUPanelItem@1@PAXW4FILE_CONTROL_COMMANDS@@I@Z$0
9BA08 57 __unwindfunclet$?get_panel_item@Far@@YA?AUPanelItem@1@PAXW4FILE_CONTROL_COMMANDS@@I@Z$1
9BA26 57 __ehhandler$?get_panel_item@Far@@YA?AUPanelItem@1@PAXW4FILE_CONTROL_COMMANDS@@I@Z
9BA50 57 __unwindfunclet$?error_dlg@Far@@YAXABV?$basic_string@_WU?$char_traits@_W@std@@V?$allocator@_W@2@@std@@ABUError@@@Z$0
9BA5B 57 __unwindfunclet$?error_dlg@Far@@YAXABV?$basic_string@_WU?$char_traits@_W@std@@V?$allocator@_W@2@@std@@ABUError@@@Z$1
9BA63 57 __unwindfunclet$?error_dlg@Far@@YAXABV?$basic_string@_WU?$char_traits@_W@std@@V?$allocator@_W@2@@std@@ABUError@@@Z$2
9BA6B 57 __unwindfunclet$?error_dlg@Far@@YAXABV?$basic_string@_WU?$char_traits@_W@std@@V?$allocator@_W@2@@std@@ABUError@@@Z$3
9BA73 57 __unwindfunclet$?error_dlg@Far@@YAXABV?$basic_string@_WU?$char_traits@_W@std@@V?$allocator@_W@2@@std@@ABUError@@@Z$4
9BA7B 57 __unwindfunclet$?error_dlg@Far@@YAXABV?$basic_string@_WU?$char_traits@_W@std@@V?$allocator@_W@2@@std@@ABUError@@@Z$5
9BA83 57 __unwindfunclet$?error_dlg@Far@@YAXABV?$basic_string@_WU?$char_traits@_W@std@@V?$allocator@_W@2@@std@@ABUError@@@Z$6
9BA8B 57 __unwindfunclet$?error_dlg@Far@@YAXABV?$basic_string@_WU?$char_traits@_W@std@@V?$allocator@_W@2@@std@@ABUError@@@Z$7
9BA93 57 __unwindfunclet$?error_dlg@Far@@YAXABV?$basic_string@_WU?$char_traits@_W@std@@V?$allocator@_W@2@@std@@ABUError@@@Z$8
9BA9B 57 __unwindfunclet$?error_dlg@Far@@YAXABV?$basic_string@_WU?$char_traits@_W@std@@V?$allocator@_W@2@@std@@ABUError@@@Z$9
9BAA3 57 __unwindfunclet$?error_dlg@Far@@YAXABV?$basic_string@_WU?$char_traits@_W@std@@V?$allocator@_W@2@@std@@ABUError@@@Z$10
9BAB0 57 __ehhandler$?error_dlg@Far@@YAXABV?$basic_string@_WU?$char_traits@_W@std@@V?$allocator@_W@2@@std@@ABUError@@@Z
9BAE0 57 __unwindfunclet$?info_dlg@Far@@YAXABU_GUID@@ABV?$basic_string@_WU?$char_traits@_W@std@@V?$allocator@_W@2@@std@@1@Z$0
9BAE8 57 __unwindfunclet$?info_dlg@Far@@YAXABU_GUID@@ABV?$basic_string@_WU?$char_traits@_W@std@@V?$allocator@_W@2@@std@@1@Z$1
9BAF5 57 __ehhandler$?info_dlg@Far@@YAXABU_GUID@@ABV?$basic_string@_WU?$char_traits@_W@std@@V?$allocator@_W@2@@std@@1@Z
9BB20 57 __unwindfunclet$?input_dlg@Far@@YA_NABU_GUID@@ABV?$basic_string@_WU?$char_traits@_W@std@@V?$allocator@_W@2@@std@@1AAV34@_K@Z$0
9BB2D 57 __ehhandler$?input_dlg@Far@@YA_NABU_GUID@@ABV?$basic_string@_WU?$char_traits@_W@std@@V?$allocator@_W@2@@std@@1AAV34@_K@Z
9BB50 57 __unwindfunclet$?internal_dialog_proc@Dialog@Far@@CGHPAXHH0@Z$5
9BB58 57 __unwindfunclet$?internal_dialog_proc@Dialog@Far@@CGHPAXHH0@Z$6
9BB60 57 __unwindfunclet$?internal_dialog_proc@Dialog@Far@@CGHPAXHH0@Z$7
9BB6D 57 __ehhandler$?internal_dialog_proc@Dialog@Far@@CGHPAXHH0@Z
9BBA0 57 __unwindfunclet$??0Dialog@Far@@QAE@ABV?$basic_string@_WU?$char_traits@_W@std@@V?$allocator@_W@2@@std@@PBU_GUID@@IPB_W_K@Z$0
9BBAB 57 __unwindfunclet$??0Dialog@Far@@QAE@ABV?$basic_string@_WU?$char_traits@_W@std@@V?$allocator@_W@2@@std@@PBU_GUID@@IPB_W_K@Z$1
9BBBB 57 __ehhandler$??0Dialog@Far@@QAE@ABV?$basic_string@_WU?$char_traits@_W@std@@V?$allocator@_W@2@@std@@PBU_GUID@@IPB_W_K@Z
9BBE0 57 __unwindfunclet$?separator@Dialog@Far@@QAEIXZ$0
9BBED 57 __ehhandler$?separator@Dialog@Far@@QAEIXZ
9BC20 57 __unwindfunclet$?show@Dialog@Far@@QAEHXZ$0
9BC28 57 __unwindfunclet$?show@Dialog@Far@@QAEHXZ$1
9BC30 57 __unwindfunclet$?show@Dialog@Far@@QAEHXZ$2
9BC3D 57 __ehhandler$?show@Dialog@Far@@QAEHXZ
9BC60 57 __unwindfunclet$?get_text@Dialog@Far@@QBE?AV?$basic_string@_WU?$char_traits@_W@std@@V?$allocator@_W@2@@std@@I@Z$0
9BC6D 57 __ehhandler$?get_text@Dialog@Far@@QBE?AV?$basic_string@_WU?$char_traits@_W@std@@V?$allocator@_W@2@@std@@I@Z
9BC90 57 __unwindfunclet$?get_absolute_path@Far@@YA?AV?$basic_string@_WU?$char_traits@_W@std@@V?$allocator@_W@2@@std@@ABV23@@Z$0
9BC9D 57 __ehhandler$?get_absolute_path@Far@@YA?AV?$basic_string@_WU?$char_traits@_W@std@@V?$allocator@_W@2@@std@@ABV23@@Z
9BCC0 57 __unwindfunclet$?panel_go_to_file@Far@@YA_NPAXABV?$basic_string@_WU?$char_traits@_W@std@@V?$allocator@_W@2@@std@@@Z$0
9BCC8 57 __unwindfunclet$?panel_go_to_file@Far@@YA_NPAXABV?$basic_string@_WU?$char_traits@_W@std@@V?$allocator@_W@2@@std@@@Z$1
9BCD3 57 __unwindfunclet$?panel_go_to_file@Far@@YA_NPAXABV?$basic_string@_WU?$char_traits@_W@std@@V?$allocator@_W@2@@std@@@Z$2
9BCDB 57 __unwindfunclet$?panel_go_to_file@Far@@YA_NPAXABV?$basic_string@_WU?$char_traits@_W@std@@V?$allocator@_W@2@@std@@@Z$3
9BCE3 57 __unwindfunclet$?panel_go_to_file@Far@@YA_NPAXABV?$basic_string@_WU?$char_traits@_W@std@@V?$allocator@_W@2@@std@@@Z$5
9BCEE 57 __unwindfunclet$?panel_go_to_file@Far@@YA_NPAXABV?$basic_string@_WU?$char_traits@_W@std@@V?$allocator@_W@2@@std@@@Z$6
9BCF6 57 __unwindfunclet$?panel_go_to_file@Far@@YA_NPAXABV?$basic_string@_WU?$char_traits@_W@std@@V?$allocator@_W@2@@std@@@Z$7
9BD01 57 __unwindfunclet$?panel_go_to_file@Far@@YA_NPAXABV?$basic_string@_WU?$char_traits@_W@std@@V?$allocator@_W@2@@std@@@Z$8
9BD09 57 __unwindfunclet$?panel_go_to_file@Far@@YA_NPAXABV?$basic_string@_WU?$char_traits@_W@std@@V?$allocator@_W@2@@std@@@Z$17
9BD19 57 __ehhandler$?panel_go_to_file@Far@@YA_NPAXABV?$basic_string@_WU?$char_traits@_W@std@@V?$allocator@_W@2@@std@@@Z
9BD50 57 __unwindfunclet$?open_help@Far@@YAXABV?$basic_string@_WU?$char_traits@_W@std@@V?$allocator@_W@2@@std@@@Z$0
9BD58 57 __unwindfunclet$?open_help@Far@@YAXABV?$basic_string@_WU?$char_traits@_W@std@@V?$allocator@_W@2@@std@@@Z$1
9BD60 57 __unwindfunclet$?open_help@Far@@YAXABV?$basic_string@_WU?$char_traits@_W@std@@V?$allocator@_W@2@@std@@@Z$2
9BD68 57 __unwindfunclet$?open_help@Far@@YAXABV?$basic_string@_WU?$char_traits@_W@std@@V?$allocator@_W@2@@std@@@Z$3
9BD75 57 __ehhandler$?open_help@Far@@YAXABV?$basic_string@_WU?$char_traits@_W@std@@V?$allocator@_W@2@@std@@@Z
9BDA0 57 __unwindfunclet$?set_dir@Settings@Far@@QAE_NABV?$basic_string@_WU?$char_traits@_W@std@@V?$allocator@_W@2@@std@@@Z$0
9BDAD 57 __ehhandler$?set_dir@Settings@Far@@QAE_NABV?$basic_string@_WU?$char_traits@_W@std@@V?$allocator@_W@2@@std@@@Z
9BDD0 57 __unwindfunclet$?list_dir@Settings@Far@@QAE_NAAV?$vector@V?$basic_string@_WU?$char_traits@_W@std@@V?$allocator@_W@2@@std@@V?$allocator@V?$basic_string@_WU?$char_traits@_W@std@@V?$allocator@_W@2@@std@@@2@@std@@@Z$0
9BDDD 57 __ehhandler$?list_dir@Settings@Far@@QAE_NAAV?$vector@V?$basic_string@_WU?$char_traits@_W@std@@V?$allocator@_W@2@@std@@V?$allocator@V?$basic_string@_WU?$char_traits@_W@std@@V?$allocator@_W@2@@std@@@2@@std@@@Z
9BE10 57 __unwindfunclet$??6?$basic_ostream@_WU?$char_traits@_W@std@@@std@@QAEAAV01@H@Z$4
9BE18 57 __unwindfunclet$??6?$basic_ostream@_WU?$char_traits@_W@std@@@std@@QAEAAV01@H@Z$2
9BE20 57 __unwindfunclet$??6?$basic_ostream@_WU?$char_traits@_W@std@@@std@@QAEAAV01@H@Z$3
9BE2D 57 __ehhandler$??6?$basic_ostream@_WU?$char_traits@_W@std@@@std@@QAEAAV01@H@Z
9BE50 57 __unwindfunclet$?do_put@?$num_put@_WV?$ostreambuf_iterator@_WU?$char_traits@_W@std@@@std@@@std@@MBE?AV?$ostreambuf_iterator@_WU?$char_traits@_W@std@@@2@V32@AAVios_base@2@_WN@Z$0
9BE5D 57 __ehhandler$?do_put@?$num_put@_WV?$ostreambuf_iterator@_WU?$char_traits@_W@std@@@std@@@std@@MBE?AV?$ostreambuf_iterator@_WU?$char_traits@_W@std@@@2@V32@AAVios_base@2@_WN@Z
9BE90 57 __unwindfunclet$?do_put@?$num_put@_WV?$ostreambuf_iterator@_WU?$char_traits@_W@std@@@std@@@std@@MBE?AV?$ostreambuf_iterator@_WU?$char_traits@_W@std@@@2@V32@AAVios_base@2@_W_N@Z$0
9BE98 57 __unwindfunclet$?do_put@?$num_put@_WV?$ostreambuf_iterator@_WU?$char_traits@_W@std@@@std@@@std@@MBE?AV?$ostreambuf_iterator@_WU?$char_traits@_W@std@@@2@V32@AAVios_base@2@_W_N@Z$1
9BEA5 57 __ehhandler$?do_put@?$num_put@_WV?$ostreambuf_iterator@_WU?$char_traits@_W@std@@@std@@@std@@MBE?AV?$ostreambuf_iterator@_WU?$char_traits@_W@std@@@2@V32@AAVios_base@2@_W_N@Z
9BED0 57 __unwindfunclet$?_Iput@?$num_put@_WV?$ostreambuf_iterator@_WU?$char_traits@_W@std@@@std@@@std@@ABA?AV?$ostreambuf_iterator@_WU?$char_traits@_W@std@@@2@V32@AAVios_base@2@_WPADI@Z$0
9BED8 57 __unwindfunclet$?_Iput@?$num_put@_WV?$ostreambuf_iterator@_WU?$char_traits@_W@std@@@std@@@std@@ABA?AV?$ostreambuf_iterator@_WU?$char_traits@_W@std@@@2@V32@AAVios_base@2@_WPADI@Z$1
9BEE0 57 __unwindfunclet$?_Iput@?$num_put@_WV?$ostreambuf_iterator@_WU?$char_traits@_W@std@@@std@@@std@@ABA?AV?$ostreambuf_iterator@_WU?$char_traits@_W@std@@@2@V32@AAVios_base@2@_WPADI@Z$2
9BEE8 57 __unwindfunclet$?_Iput@?$num_put@_WV?$ostreambuf_iterator@_WU?$char_traits@_W@std@@@std@@@std@@ABA?AV?$ostreambuf_iterator@_WU?$char_traits@_W@std@@@2@V32@AAVios_base@2@_WPADI@Z$3
9BEF5 57 __ehhandler$?_Iput@?$num_put@_WV?$ostreambuf_iterator@_WU?$char_traits@_W@std@@@std@@@std@@ABA?AV?$ostreambuf_iterator@_WU?$char_traits@_W@std@@@2@V32@AAVios_base@2@_WPADI@Z
9BF20 57 __unwindfunclet$??$use_facet@V?$num_put@_WV?$ostreambuf_iterator@_WU?$char_traits@_W@std@@@std@@@std@@@std@@YAABV?$num_put@_WV?$ostreambuf_iterator@_WU?$char_traits@_W@std@@@std@@@0@ABVlocale@0@@Z$0
9BF28 57 __unwindfunclet$??$use_facet@V?$num_put@_WV?$ostreambuf_iterator@_WU?$char_traits@_W@std@@@std@@@std@@@std@@YAABV?$num_put@_WV?$ostreambuf_iterator@_WU?$char_traits@_W@std@@@std@@@0@ABVlocale@0@@Z$2
9BF37 57 __unwindfunclet$??$use_facet@V?$num_put@_WV?$ostreambuf_iterator@_WU?$char_traits@_W@std@@@std@@@std@@@std@@YAABV?$num_put@_WV?$ostreambuf_iterator@_WU?$char_traits@_W@std@@@std@@@0@ABVlocale@0@@Z$1
9BF44 57 __ehhandler$??$use_facet@V?$num_put@_WV?$ostreambuf_iterator@_WU?$char_traits@_W@std@@@std@@@std@@@std@@YAABV?$num_put@_WV?$ostreambuf_iterator@_WU?$char_traits@_W@std@@@std@@@0@ABVlocale@0@@Z
9BF70 57 __unwindfunclet$??$_Fput_v3@$0A@@?$num_put@_WV?$ostreambuf_iterator@_WU?$char_traits@_W@std@@@std@@@std@@ABE?AV?$ostreambuf_iterator@_WU?$char_traits@_W@std@@@1@V21@AAVios_base@1@_WPBDI_N@Z$0
9BF78 57 __unwindfunclet$??$_Fput_v3@$0A@@?$num_put@_WV?$ostreambuf_iterator@_WU?$char_traits@_W@std@@@std@@@std@@ABE?AV?$ostreambuf_iterator@_WU?$char_traits@_W@std@@@1@V21@AAVios_base@1@_WPBDI_N@Z$1
9BF80 57 __unwindfunclet$??$_Fput_v3@$0A@@?$num_put@_WV?$ostreambuf_iterator@_WU?$char_traits@_W@std@@@std@@@std@@ABE?AV?$ostreambuf_iterator@_WU?$char_traits@_W@std@@@1@V21@AAVios_base@1@_WPBDI_N@Z$2
9BF88 57 __unwindfunclet$??$_Fput_v3@$0A@@?$num_put@_WV?$ostreambuf_iterator@_WU?$char_traits@_W@std@@@std@@@std@@ABE?AV?$ostreambuf_iterator@_WU?$char_traits@_W@std@@@1@V21@AAVios_base@1@_WPBDI_N@Z$3
9BF95 57 __ehhandler$??$_Fput_v3@$0A@@?$num_put@_WV?$ostreambuf_iterator@_WU?$char_traits@_W@std@@@std@@@std@@ABE?AV?$ostreambuf_iterator@_WU?$char_traits@_W@std@@@1@V21@AAVios_base@1@_WPBDI_N@Z
9BFC0 57 __unwindfunclet$??$use_facet@V?$numpunct@_W@std@@@std@@YAABV?$numpunct@_W@0@ABVlocale@0@@Z$0
9BFC8 57 __unwindfunclet$??$use_facet@V?$numpunct@_W@std@@@std@@YAABV?$numpunct@_W@0@ABVlocale@0@@Z$1
9BFD5 57 __ehhandler$??$use_facet@V?$numpunct@_W@std@@@std@@YAABV?$numpunct@_W@0@ABVlocale@0@@Z
9C000 57 __unwindfunclet$?_Getcat@?$numpunct@_W@std@@SAIPAPBVfacet@locale@2@PBV42@@Z$0
9C00F 57 __unwindfunclet$?_Getcat@?$numpunct@_W@std@@SAIPAPBVfacet@locale@2@PBV42@@Z$1
9C02B 57 __unwindfunclet$?_Getcat@?$numpunct@_W@std@@SAIPAPBVfacet@locale@2@PBV42@@Z$2
9C033 57 __unwindfunclet$?_Getcat@?$numpunct@_W@std@@SAIPAPBVfacet@locale@2@PBV42@@Z$4
9C040 57 __ehhandler$?_Getcat@?$numpunct@_W@std@@SAIPAPBVfacet@locale@2@PBV42@@Z
9C070 277 __unwindfunclet$?create_state_matrix@@YA?AV?$unique_ptr@VStateMatrix@@U?$default_delete@VStateMatrix@@@std@@@std@@ABV?$vector@USigData@@V?$allocator@USigData@@@std@@@2@@Z$1
9C084 277 __ehhandler$?create_state_matrix@@YA?AV?$unique_ptr@VStateMatrix@@U?$default_delete@VStateMatrix@@@std@@@std@@ABV?$vector@USigData@@V?$allocator@USigData@@@std@@@2@@Z
9C0B0 277 __unwindfunclet$?msearch@@YA?AV?$vector@UStrPos@@V?$allocator@UStrPos@@@std@@@std@@PAEIABV?$vector@USigData@@V?$allocator@USigData@@@std@@@2@_N@Z$0
9C0D2 277 __unwindfunclet$?msearch@@YA?AV?$vector@UStrPos@@V?$allocator@UStrPos@@@std@@@std@@PAEIABV?$vector@USigData@@V?$allocator@USigData@@@std@@@2@_N@Z$1
9C0DD 277 __unwindfunclet$?msearch@@YA?AV?$vector@UStrPos@@V?$allocator@UStrPos@@@std@@@std@@PAEIABV?$vector@USigData@@V?$allocator@USigData@@@std@@@2@_N@Z$18
9C0E8 277 __unwindfunclet$?msearch@@YA?AV?$vector@UStrPos@@V?$allocator@UStrPos@@@std@@@std@@PAEIABV?$vector@USigData@@V?$allocator@USigData@@@std@@@2@_N@Z$2
9C0F3 277 __unwindfunclet$?msearch@@YA?AV?$vector@UStrPos@@V?$allocator@UStrPos@@@std@@@std@@PAEIABV?$vector@USigData@@V?$allocator@USigData@@@std@@@2@_N@Z$4
9C0FB 277 __unwindfunclet$?msearch@@YA?AV?$vector@UStrPos@@V?$allocator@UStrPos@@@std@@@std@@PAEIABV?$vector@USigData@@V?$allocator@USigData@@@std@@@2@_N@Z$5
9C103 277 __unwindfunclet$?msearch@@YA?AV?$vector@UStrPos@@V?$allocator@UStrPos@@@std@@@std@@PAEIABV?$vector@USigData@@V?$allocator@USigData@@@std@@@2@_N@Z$10
9C10E 277 __unwindfunclet$?msearch@@YA?AV?$vector@UStrPos@@V?$allocator@UStrPos@@@std@@@std@@PAEIABV?$vector@USigData@@V?$allocator@USigData@@@std@@@2@_N@Z$6
9C116 277 __unwindfunclet$?msearch@@YA?AV?$vector@UStrPos@@V?$allocator@UStrPos@@@std@@@std@@PAEIABV?$vector@USigData@@V?$allocator@USigData@@@std@@@2@_N@Z$11
9C121 277 __unwindfunclet$?msearch@@YA?AV?$vector@UStrPos@@V?$allocator@UStrPos@@@std@@@std@@PAEIABV?$vector@USigData@@V?$allocator@USigData@@@std@@@2@_N@Z$12
9C12C 277 __unwindfunclet$?msearch@@YA?AV?$vector@UStrPos@@V?$allocator@UStrPos@@@std@@@std@@PAEIABV?$vector@USigData@@V?$allocator@USigData@@@std@@@2@_N@Z$7
9C134 277 __unwindfunclet$?msearch@@YA?AV?$vector@UStrPos@@V?$allocator@UStrPos@@@std@@@std@@PAEIABV?$vector@USigData@@V?$allocator@USigData@@@std@@@2@_N@Z$3
9C141 277 __ehhandler$?msearch@@YA?AV?$vector@UStrPos@@V?$allocator@UStrPos@@@std@@@std@@PAEIABV?$vector@USigData@@V?$allocator@USigData@@@std@@@2@_N@Z
9C170 280 __unwindfunclet$??0Archive@@QAE@XZ$0
9C178 280 __unwindfunclet$??0Archive@@QAE@XZ$1
9C183 280 __unwindfunclet$??0Archive@@QAE@XZ$2
9C18E 280 __unwindfunclet$??0Archive@@QAE@XZ$3
9C199 280 __unwindfunclet$??0Archive@@QAE@XZ$4
9C1A4 280 __unwindfunclet$??0Archive@@QAE@XZ$5
9C1AF 280 __unwindfunclet$??0Archive@@QAE@XZ$6
9C1BD 280 __unwindfunclet$??0Archive@@QAE@XZ$7
9C1CB 280 __unwindfunclet$??0Archive@@QAE@XZ$8
9C1D9 280 __unwindfunclet$??0Archive@@QAE@XZ$9
9C1E7 280 __unwindfunclet$??0Archive@@QAE@XZ$10
9C1F5 280 __unwindfunclet$??0Archive@@QAE@XZ$11
9C208 280 __ehhandler$??0Archive@@QAE@XZ
9C230 280 __unwindfunclet$??0OpenOptions@@QAE@XZ$0
9C23D 280 __ehhandler$??0OpenOptions@@QAE@XZ
9C260 280 __unwindfunclet$??0ArchiveOpenStream@@QAE@ABV?$basic_string@_WU?$char_traits@_W@std@@V?$allocator@_W@2@@std@@@Z$0
9C26B 280 __unwindfunclet$??0ArchiveOpenStream@@QAE@ABV?$basic_string@_WU?$char_traits@_W@std@@V?$allocator@_W@2@@std@@@Z$1
9C27B 280 __ehhandler$??0ArchiveOpenStream@@QAE@ABV?$basic_string@_WU?$char_traits@_W@std@@V?$allocator@_W@2@@std@@@Z
9C2A0 280 __unwindfunclet$?Read@ArchiveOpenStream@@UAGJPAXIPAI@Z$5
9C2AD 280 __ehhandler$?Read@ArchiveOpenStream@@UAGJPAXIPAI@Z
9C2D0 280 __ehhandler$?Seek@ArchiveOpenStream@@UAGJ_JIPA_K@Z
9C2F0 280 __unwindfunclet$?do_update_ui@ArchiveOpener@@EAEXXZ$0
9C2FB 280 __unwindfunclet$?do_update_ui@ArchiveOpener@@EAEXXZ$1
9C303 280 __unwindfunclet$?do_update_ui@ArchiveOpener@@EAEXXZ$11
9C30B 280 __unwindfunclet$?do_update_ui@ArchiveOpener@@EAEXXZ$2
9C313 280 __unwindfunclet$?do_update_ui@ArchiveOpener@@EAEXXZ$3
9C31B 280 __unwindfunclet$?do_update_ui@ArchiveOpener@@EAEXXZ$4
9C323 280 __unwindfunclet$?do_update_ui@ArchiveOpener@@EAEXXZ$5
9C32B 280 __unwindfunclet$?do_update_ui@ArchiveOpener@@EAEXXZ$6
9C338 280 __ehhandler$?do_update_ui@ArchiveOpener@@EAEXXZ
9C370 280 __unwindfunclet$??0ArchiveOpener@@QAE@V?$shared_ptr@VArchive@@@std@@@Z$0
9C378 280 __unwindfunclet$??0ArchiveOpener@@QAE@V?$shared_ptr@VArchive@@@std@@@Z$1
9C383 280 __unwindfunclet$??0ArchiveOpener@@QAE@V?$shared_ptr@VArchive@@@std@@@Z$2
9C390 280 __ehhandler$??0ArchiveOpener@@QAE@V?$shared_ptr@VArchive@@@std@@@Z
9C3C0 280 __ehhandler$?SetTotal@ArchiveOpener@@UAGJPB_K0@Z
9C3E0 280 __ehhandler$?SetCompleted@ArchiveOpener@@UAGJPB_K0@Z
9C400 280 __unwindfunclet$?GetProperty@ArchiveOpener@@UAGJKPAUtagPROPVARIANT@@@Z$5
9C40D 280 __ehhandler$?GetProperty@ArchiveOpener@@UAGJKPAUtagPROPVARIANT@@@Z
9C430 280 __unwindfunclet$?GetStream@ArchiveOpener@@UAGJPB_WPAPAUIInStream@@@Z$5
9C438 280 __unwindfunclet$?GetStream@ArchiveOpener@@UAGJPB_WPAPAUIInStream@@@Z$6
9C440 280 __unwindfunclet$?GetStream@ArchiveOpener@@UAGJPB_WPAPAUIInStream@@@Z$7
9C448 280 __unwindfunclet$?GetStream@ArchiveOpener@@UAGJPB_WPAPAUIInStream@@@Z$8
9C450 280 __unwindfunclet$?GetStream@ArchiveOpener@@UAGJPB_WPAPAUIInStream@@@Z$9
9C462 280 __unwindfunclet$?GetStream@ArchiveOpener@@UAGJPB_WPAPAUIInStream@@@Z$10
9C472 280 __ehhandler$?GetStream@ArchiveOpener@@UAGJPB_WPAPAUIInStream@@@Z
9C4A0 280 __unwindfunclet$?CryptoGetTextPassword@ArchiveOpener@@UAGJPAPA_W@Z$5
9C4AD 280 __ehhandler$?CryptoGetTextPassword@ArchiveOpener@@UAGJPAPA_W@Z
9C4D0 280 __unwindfunclet$?get_stream@Archive@@QAE_NIPAPAUIInStream@@@Z$0
9C4D8 280 __unwindfunclet$?get_stream@Archive@@QAE_NIPAPAUIInStream@@@Z$1
9C4E5 280 __ehhandler$?get_stream@Archive@@QAE_NIPAPAUIInStream@@@Z
9C510 280 __unwindfunclet$?open@Archive@@QAE_NPAUIInStream@@ABV?$vector@EV?$allocator@E@std@@@std@@_N@Z$0
9C522 280 __unwindfunclet$?open@Archive@@QAE_NPAUIInStream@@ABV?$vector@EV?$allocator@E@std@@@std@@_N@Z$2
9C52A 280 __unwindfunclet$?open@Archive@@QAE_NPAUIInStream@@ABV?$vector@EV?$allocator@E@std@@@std@@_N@Z$3
9C532 280 __unwindfunclet$?open@Archive@@QAE_NPAUIInStream@@ABV?$vector@EV?$allocator@E@std@@@std@@_N@Z$5
9C53A 280 __unwindfunclet$?open@Archive@@QAE_NPAUIInStream@@ABV?$vector@EV?$allocator@E@std@@@std@@_N@Z$6
9C547 280 __ehhandler$?open@Archive@@QAE_NPAUIInStream@@ABV?$vector@EV?$allocator@E@std@@@std@@_N@Z
9C570 280 __unwindfunclet$?accepted_signature@@YA_NIABUSigData@@PBEIPAUIInStream@@H@Z$0
9C57D 280 __ehhandler$?accepted_signature@@YA_NIABUSigData@@PBEIPAUIInStream@@H@Z
9C5A0 280 __unwindfunclet$?detect@Archive@@CA?AV?$list@UArcEntry@@V?$allocator@UArcEntry@@@std@@@std@@PAEI_NABV?$basic_string@_WU?$char_traits@_W@std@@V?$allocator@_W@2@@3@ABV?$list@V?$vector@EV?$allocator@E@std@@@std@@V?$allocator@V?$vector@EV?$allocator@E@std@@@std@@@2@@3@PAUIInStream@@@Z$0
9C5B9 280 __unwindfunclet$?detect@Archive@@CA?AV?$list@UArcEntry@@V?$allocator@UArcEntry@@@std@@@std@@PAEI_NABV?$basic_string@_WU?$char_traits@_W@std@@V?$allocator@_W@2@@3@ABV?$list@V?$vector@EV?$allocator@E@std@@@std@@V?$allocator@V?$vector@EV?$allocator@E@std@@@std@@@2@@3@PAUIInStream@@@Z$1
9C5C1 280 __unwindfunclet$?detect@Archive@@CA?AV?$list@UArcEntry@@V?$allocator@UArcEntry@@@std@@@std@@PAEI_NABV?$basic_string@_WU?$char_traits@_W@std@@V?$allocator@_W@2@@3@ABV?$list@V?$vector@EV?$allocator@E@std@@@std@@V?$allocator@V?$vector@EV?$allocator@E@std@@@std@@@2@@3@PAUIInStream@@@Z$2
9C5C9 280 __unwindfunclet$?detect@Archive@@CA?AV?$list@UArcEntry@@V?$allocator@UArcEntry@@@std@@@std@@PAEI_NABV?$basic_string@_WU?$char_traits@_W@std@@V?$allocator@_W@2@@3@ABV?$list@V?$vector@EV?$allocator@E@std@@@std@@V?$allocator@V?$vector@EV?$allocator@E@std@@@std@@@2@@3@PAUIInStream@@@Z$3
9C5D1 280 __unwindfunclet$?detect@Archive@@CA?AV?$list@UArcEntry@@V?$allocator@UArcEntry@@@std@@@std@@PAEI_NABV?$basic_string@_WU?$char_traits@_W@std@@V?$allocator@_W@2@@3@ABV?$list@V?$vector@EV?$allocator@E@std@@@std@@V?$allocator@V?$vector@EV?$allocator@E@std@@@std@@@2@@3@PAUIInStream@@@Z$4
9C5D9 280 __unwindfunclet$?detect@Archive@@CA?AV?$list@UArcEntry@@V?$allocator@UArcEntry@@@std@@@std@@PAEI_NABV?$basic_string@_WU?$char_traits@_W@std@@V?$allocator@_W@2@@3@ABV?$list@V?$vector@EV?$allocator@E@std@@@std@@V?$allocator@V?$vector@EV?$allocator@E@std@@@std@@@2@@3@PAUIInStream@@@Z$12
9C5E1 280 __unwindfunclet$?detect@Archive@@CA?AV?$list@UArcEntry@@V?$allocator@UArcEntry@@@std@@@std@@PAEI_NABV?$basic_string@_WU?$char_traits@_W@std@@V?$allocator@_W@2@@3@ABV?$list@V?$vector@EV?$allocator@E@std@@@std@@V?$allocator@V?$vector@EV?$allocator@E@std@@@std@@@2@@3@PAUIInStream@@@Z$17
9C5EE 280 __ehhandler$?detect@Archive@@CA?AV?$list@UArcEntry@@V?$allocator@UArcEntry@@@std@@@std@@PAEI_NABV?$basic_string@_WU?$char_traits@_W@std@@V?$allocator@_W@2@@3@ABV?$list@V?$vector@EV?$allocator@E@std@@@std@@V?$allocator@V?$vector@EV?$allocator@E@std@@@std@@@2@@3@PAUIInStream@@@Z
9C610 280 __unwindfunclet$?get_physize@Archive@@AAE_KXZ$0
9C61D 280 __ehhandler$?get_physize@Archive@@AAE_KXZ
9C640 280 __unwindfunclet$?open@Archive@@CAXABUOpenOptions@@AAV?$vector@V?$shared_ptr@VArchive@@@std@@V?$allocator@V?$shared_ptr@VArchive@@@std@@@2@@std@@@Z$0
9C64B 280 __unwindfunclet$?open@Archive@@CAXABUOpenOptions@@AAV?$vector@V?$shared_ptr@VArchive@@@std@@V?$allocator@V?$shared_ptr@VArchive@@@std@@@2@@std@@@Z$1
9C65D 280 __unwindfunclet$?open@Archive@@CAXABUOpenOptions@@AAV?$vector@V?$shared_ptr@VArchive@@@std@@V?$allocator@V?$shared_ptr@VArchive@@@std@@@2@@std@@@Z$2
9C668 280 __unwindfunclet$?open@Archive@@CAXABUOpenOptions@@AAV?$vector@V?$shared_ptr@VArchive@@@std@@V?$allocator@V?$shared_ptr@VArchive@@@std@@@2@@std@@@Z$3
9C670 280 __unwindfunclet$?open@Archive@@CAXABUOpenOptions@@AAV?$vector@V?$shared_ptr@VArchive@@@std@@V?$allocator@V?$shared_ptr@VArchive@@@std@@@2@@std@@@Z$4
9C678 280 __unwindfunclet$?open@Archive@@CAXABUOpenOptions@@AAV?$vector@V?$shared_ptr@VArchive@@@std@@V?$allocator@V?$shared_ptr@VArchive@@@std@@@2@@std@@@Z$5
9C683 280 __unwindfunclet$?open@Archive@@CAXABUOpenOptions@@AAV?$vector@V?$shared_ptr@VArchive@@@std@@V?$allocator@V?$shared_ptr@VArchive@@@std@@@2@@std@@@Z$11
9C698 280 __unwindfunclet$?open@Archive@@CAXABUOpenOptions@@AAV?$vector@V?$shared_ptr@VArchive@@@std@@V?$allocator@V?$shared_ptr@VArchive@@@std@@@2@@std@@@Z$6
9C6A3 280 __unwindfunclet$?open@Archive@@CAXABUOpenOptions@@AAV?$vector@V?$shared_ptr@VArchive@@@std@@V?$allocator@V?$shared_ptr@VArchive@@@std@@@2@@std@@@Z$28
9C6AE 280 __unwindfunclet$?open@Archive@@CAXABUOpenOptions@@AAV?$vector@V?$shared_ptr@VArchive@@@std@@V?$allocator@V?$shared_ptr@VArchive@@@std@@@2@@std@@@Z$7
9C6C0 280 __unwindfunclet$?open@Archive@@CAXABUOpenOptions@@AAV?$vector@V?$shared_ptr@VArchive@@@std@@V?$allocator@V?$shared_ptr@VArchive@@@std@@@2@@std@@@Z$26
9C6CE 280 __unwindfunclet$?open@Archive@@CAXABUOpenOptions@@AAV?$vector@V?$shared_ptr@VArchive@@@std@@V?$allocator@V?$shared_ptr@VArchive@@@std@@@2@@std@@@Z$8
9C6D9 280 __unwindfunclet$?open@Archive@@CAXABUOpenOptions@@AAV?$vector@V?$shared_ptr@VArchive@@@std@@V?$allocator@V?$shared_ptr@VArchive@@@std@@@2@@std@@@Z$19
9C6E4 280 __unwindfunclet$?open@Archive@@CAXABUOpenOptions@@AAV?$vector@V?$shared_ptr@VArchive@@@std@@V?$allocator@V?$shared_ptr@VArchive@@@std@@@2@@std@@@Z$20
9C6F4 280 __ehhandler$?open@Archive@@CAXABUOpenOptions@@AAV?$vector@V?$shared_ptr@VArchive@@@std@@V?$allocator@V?$shared_ptr@VArchive@@@std@@@2@@std@@@Z
9C720 280 __unwindfunclet$?open@Archive@@SA?AV?$unique_ptr@V?$vector@V?$shared_ptr@VArchive@@@std@@V?$allocator@V?$shared_ptr@VArchive@@@std@@@2@@std@@U?$default_delete@V?$vector@V?$shared_ptr@VArchive@@@std@@V?$allocator@V?$shared_ptr@VArchive@@@std@@@2@@std@@@2@@std@@ABUOpenOptions@@@Z$0
9C73E 280 __ehhandler$?open@Archive@@SA?AV?$unique_ptr@V?$vector@V?$shared_ptr@VArchive@@@std@@V?$allocator@V?$shared_ptr@VArchive@@@std@@@2@@std@@U?$default_delete@V?$vector@V?$shared_ptr@VArchive@@@std@@V?$allocator@V?$shared_ptr@VArchive@@@std@@@2@@std@@@2@@std@@ABUOpenOptions@@@Z
9C760 280 __unwindfunclet$?reopen@Archive@@QAEXXZ$0
9C772 280 __unwindfunclet$?reopen@Archive@@QAEXXZ$1
9C77D 280 __unwindfunclet$?reopen@Archive@@QAEXXZ$2
9C78F 280 __unwindfunclet$?reopen@Archive@@QAEXXZ$9
9C79D 280 __unwindfunclet$?reopen@Archive@@QAEXXZ$4
9C7A8 280 __unwindfunclet$?reopen@Archive@@QAEXXZ$6
9C7B0 280 __unwindfunclet$?reopen@Archive@@QAEXXZ$5
9C7B8 280 __unwindfunclet$?reopen@Archive@@QAEXXZ$3
9C7C5 280 __ehhandler$?reopen@Archive@@QAEXXZ
9C7F0 280 __unwindfunclet$??6?$basic_ostream@_WU?$char_traits@_W@std@@@std@@QAEAAV01@_K@Z$4
9C7F8 280 __unwindfunclet$??6?$basic_ostream@_WU?$char_traits@_W@std@@@std@@QAEAAV01@_K@Z$2
9C800 280 __unwindfunclet$??6?$basic_ostream@_WU?$char_traits@_W@std@@@std@@QAEAAV01@_K@Z$3
9C80D 280 __ehhandler$??6?$basic_ostream@_WU?$char_traits@_W@std@@@std@@QAEAAV01@_K@Z
9C830 280 __unwindfunclet$??$insert@$0A@$0A@@?$_Tree@V?$_Tset_traits@V?$basic_string@_WU?$char_traits@_W@std@@V?$allocator@_W@2@@std@@U?$less@V?$basic_string@_WU?$char_traits@_W@std@@V?$allocator@_W@2@@std@@@2@V?$allocator@V?$basic_string@_WU?$char_traits@_W@std@@V?$allocator@_W@2@@std@@@2@$0A@@std@@@std@@QAE?AU?$pair@V?$_Tree_const_iterator@V?$_Tree_val@U?$_Tree_simple_types@V?$basic_string@_WU?$char_traits@_W@std@@V?$allocator@_W@2@@std@@@std@@@std@@@std@@_N@1@$$QAV?$basic_string@_WU?$char_traits@_W@std@@V?$allocator@_W@2@@1@@Z$2
9C83D 280 __ehhandler$??$insert@$0A@$0A@@?$_Tree@V?$_Tset_traits@V?$basic_string@_WU?$char_traits@_W@std@@V?$allocator@_W@2@@std@@U?$less@V?$basic_string@_WU?$char_traits@_W@std@@V?$allocator@_W@2@@std@@@2@V?$allocator@V?$basic_string@_WU?$char_traits@_W@std@@V?$allocator@_W@2@@std@@@2@$0A@@std@@@std@@QAE?AU?$pair@V?$_Tree_const_iterator@V?$_Tree_val@U?$_Tree_simple_types@V?$basic_string@_WU?$char_traits@_W@std@@V?$allocator@_W@2@@std@@@std@@@std@@@std@@_N@1@$$QAV?$basic_string@_WU?$char_traits@_W@std@@V?$allocator@_W@2@@1@@Z
9C860 280 __unwindfunclet$??$insert@$0A@$0A@@?$_Tree@V?$_Tset_traits@V?$vector@EV?$allocator@E@std@@@std@@U?$less@V?$vector@EV?$allocator@E@std@@@std@@@2@V?$allocator@V?$vector@EV?$allocator@E@std@@@std@@@2@$0A@@std@@@std@@QAE?AU?$pair@V?$_Tree_const_iterator@V?$_Tree_val@U?$_Tree_simple_types@V?$vector@EV?$allocator@E@std@@@std@@@std@@@std@@@std@@_N@1@ABV?$vector@EV?$allocator@E@std@@@1@@Z$2
9C868 280 __unwindfunclet$??$insert@$0A@$0A@@?$_Tree@V?$_Tset_traits@V?$vector@EV?$allocator@E@std@@@std@@U?$less@V?$vector@EV?$allocator@E@std@@@std@@@2@V?$allocator@V?$vector@EV?$allocator@E@std@@@std@@@2@$0A@@std@@@std@@QAE?AU?$pair@V?$_Tree_const_iterator@V?$_Tree_val@U?$_Tree_simple_types@V?$vector@EV?$allocator@E@std@@@std@@@std@@@std@@@std@@_N@1@ABV?$vector@EV?$allocator@E@std@@@1@@Z$1
9C875 280 __ehhandler$??$insert@$0A@$0A@@?$_Tree@V?$_Tset_traits@V?$vector@EV?$allocator@E@std@@@std@@U?$less@V?$vector@EV?$allocator@E@std@@@std@@@2@V?$allocator@V?$vector@EV?$allocator@E@std@@@std@@@2@$0A@@std@@@std@@QAE?AU?$pair@V?$_Tree_const_iterator@V?$_Tree_val@U?$_Tree_simple_types@V?$vector@EV?$allocator@E@std@@@std@@@std@@@std@@@std@@_N@1@ABV?$vector@EV?$allocator@E@std@@@1@@Z
9C8A0 280 __unwindfunclet$??$for_each@V?$_Vector_iterator@V?$_Vector_val@U?$_Simple_types@UStrPos@@@std@@@std@@@std@@V<lambda_2>@?1??detect@Archive@@CA?AV?$list@UArcEntry@@V?$allocator@UArcEntry@@@std@@@2@PAEI_NABV?$basic_string@_WU?$char_traits@_W@std@@V?$allocator@_W@2@@2@ABV?$list@V?$vector@EV?$allocator@E@std@@@std@@V?$allocator@V?$vector@EV?$allocator@E@std@@@std@@@2@@2@PAUIInStream@@@Z@@std@@YA?AV<lambda_2>@?1??detect@Archive@@CA?AV?$list@UArcEntry@@V?$allocator@UArcEntry@@@std@@@0@PAEI_NABV?$basic_string@_WU?$char_traits@_W@std@@V?$allocator@_W@2@@0@ABV?$list@V?$vector@EV?$allocator@E@std@@@std@@V?$allocator@V?$vector@EV?$allocator@E@std@@@std@@@2@@0@PAUIInStream@@@Z@V?$_Vector_iterator@V?$_Vector_val@U?$_Simple_types@UStrPos@@@std@@@std@@@0@5V1?1??23@CA?AV40@0I1234@Z@@Z$1
9C8AD 280 __ehhandler$??$for_each@V?$_Vector_iterator@V?$_Vector_val@U?$_Simple_types@UStrPos@@@std@@@std@@@std@@V<lambda_2>@?1??detect@Archive@@CA?AV?$list@UArcEntry@@V?$allocator@UArcEntry@@@std@@@2@PAEI_NABV?$basic_string@_WU?$char_traits@_W@std@@V?$allocator@_W@2@@2@ABV?$list@V?$vector@EV?$allocator@E@std@@@std@@V?$allocator@V?$vector@EV?$allocator@E@std@@@std@@@2@@2@PAUIInStream@@@Z@@std@@YA?AV<lambda_2>@?1??detect@Archive@@CA?AV?$list@UArcEntry@@V?$allocator@UArcEntry@@@std@@@0@PAEI_NABV?$basic_string@_WU?$char_traits@_W@std@@V?$allocator@_W@2@@0@ABV?$list@V?$vector@EV?$allocator@E@std@@@std@@V?$allocator@V?$vector@EV?$allocator@E@std@@@std@@@2@@0@PAUIInStream@@@Z@V?$_Vector_iterator@V?$_Vector_val@U?$_Simple_types@UStrPos@@@std@@@std@@@0@5V1?1??23@CA?AV40@0I1234@Z@@Z
9C8D0 280 __unwindfunclet$??$_Emplace@ABUArcEntry@@@?$list@UArcEntry@@V?$allocator@UArcEntry@@@std@@@std@@QAEPAU?$_List_node@UArcEntry@@PAX@1@QAU21@ABUArcEntry@@@Z$1
9C8DD 280 __ehhandler$??$_Emplace@ABUArcEntry@@@?$list@UArcEntry@@V?$allocator@UArcEntry@@@std@@@std@@QAEPAU?$_List_node@UArcEntry@@PAX@1@QAU21@ABUArcEntry@@@Z
9C900 280 __unwindfunclet$??$make_shared@VArchive@@$$V@std@@YA?AV?$shared_ptr@VArchive@@@0@XZ$0
9C917 280 __ehhandler$??$make_shared@VArchive@@$$V@std@@YA?AV?$shared_ptr@VArchive@@@0@XZ
9C940 280 __unwindfunclet$??$_Copy_nodes@$0A@@?$_Tree@V?$_Tset_traits@V?$basic_string@_WU?$char_traits@_W@std@@V?$allocator@_W@2@@std@@U?$less@V?$basic_string@_WU?$char_traits@_W@std@@V?$allocator@_W@2@@std@@@2@V?$allocator@V?$basic_string@_WU?$char_traits@_W@std@@V?$allocator@_W@2@@std@@@2@$0A@@std@@@std@@IAEPAU?$_Tree_node@V?$basic_string@_WU?$char_traits@_W@std@@V?$allocator@_W@2@@std@@PAX@1@PAU21@0@Z$2
9C94D 280 __ehhandler$??$_Copy_nodes@$0A@@?$_Tree@V?$_Tset_traits@V?$basic_string@_WU?$char_traits@_W@std@@V?$allocator@_W@2@@std@@U?$less@V?$basic_string@_WU?$char_traits@_W@std@@V?$allocator@_W@2@@std@@@2@V?$allocator@V?$basic_string@_WU?$char_traits@_W@std@@V?$allocator@_W@2@@std@@@2@$0A@@std@@@std@@IAEPAU?$_Tree_node@V?$basic_string@_WU?$char_traits@_W@std@@V?$allocator@_W@2@@std@@PAX@1@PAU21@0@Z
9C970 281 __unwindfunclet$?utf8_to_wstring@@YA?AV?$basic_string@_WU?$char_traits@_W@std@@V?$allocator@_W@2@@std@@Vstr_view@SimpleXML@@@Z$1
9C97D 281 __ehhandler$?utf8_to_wstring@@YA?AV?$basic_string@_WU?$char_traits@_W@std@@V?$allocator@_W@2@@std@@Vstr_view@SimpleXML@@@Z
9C9B0 281 __unwindfunclet$?OnBody@xml_parser@@UBE?AW4cbRet@SimpleXML@@HPBVstr_view@3@ABV43@@Z$0
9C9BD 281 __ehhandler$?OnBody@xml_parser@@UBE?AW4cbRet@SimpleXML@@HPBVstr_view@3@ABV43@@Z
9C9E0 281 __unwindfunclet$?parse@xml_parser@@QAE_NABV?$basic_string@_WU?$char_traits@_W@std@@V?$allocator@_W@2@@std@@@Z$0
9C9ED 281 __ehhandler$?parse@xml_parser@@QAE_NABV?$basic_string@_WU?$char_traits@_W@std@@V?$allocator@_W@2@@std@@@Z
9CA20 281 __unwindfunclet$?load_arclite_xml@@YA_NAAUOptions@@@Z$0
9CA2B 281 __unwindfunclet$?load_arclite_xml@@YA_NAAUOptions@@@Z$1
9CA33 281 __unwindfunclet$?load_arclite_xml@@YA_NAAUOptions@@@Z$2
9CA3B 281 __unwindfunclet$?load_arclite_xml@@YA_NAAUOptions@@@Z$3
9CA43 281 __unwindfunclet$?load_arclite_xml@@YA_NAAUOptions@@@Z$4
9CA4B 281 __unwindfunclet$?load_arclite_xml@@YA_NAAUOptions@@@Z$5
9CA53 281 __unwindfunclet$?load_arclite_xml@@YA_NAAUOptions@@@Z$6
9CA5E 281 __unwindfunclet$?load_arclite_xml@@YA_NAAUOptions@@@Z$7
9CA66 281 __unwindfunclet$?load_arclite_xml@@YA_NAAUOptions@@@Z$8
9CA73 281 __ehhandler$?load_arclite_xml@@YA_NAAUOptions@@@Z
9CAA0 281 __unwindfunclet$?get_str@OptionsKey@@QAE?AV?$basic_string@_WU?$char_traits@_W@std@@V?$allocator@_W@2@@std@@PB_WABV23@@Z$0
9CAAD 281 __ehhandler$?get_str@OptionsKey@@QAE?AV?$basic_string@_WU?$char_traits@_W@std@@V?$allocator@_W@2@@std@@PB_WABV23@@Z
9CAE0 281 __unwindfunclet$??0Options@@QAE@XZ$0
9CAEB 281 __unwindfunclet$??0Options@@QAE@XZ$1
9CAF6 281 __unwindfunclet$??0Options@@QAE@XZ$2
9CB01 281 __unwindfunclet$??0Options@@QAE@XZ$3
9CB0C 281 __unwindfunclet$??0Options@@QAE@XZ$4
9CB1A 281 __unwindfunclet$??0Options@@QAE@XZ$5
9CB28 281 __unwindfunclet$??0Options@@QAE@XZ$6
9CB36 281 __unwindfunclet$??0Options@@QAE@XZ$7
9CB49 281 __ehhandler$??0Options@@QAE@XZ
9CB70 281 __unwindfunclet$?load_sfx_options@@YAXAAVOptionsKey@@AAUSfxOptions@@@Z$0
9CB80 281 __ehhandler$?load_sfx_options@@YAXAAVOptionsKey@@AAUSfxOptions@@@Z
9CBB0 281 __unwindfunclet$?save_sfx_options@@YAXAAVOptionsKey@@ABUSfxOptions@@@Z$0
9CBC0 281 __ehhandler$?save_sfx_options@@YAXAAVOptionsKey@@ABUSfxOptions@@@Z
9CBF0 281 __unwindfunclet$?load@Options@@QAEXXZ$0
9CBFB 281 __unwindfunclet$?load@Options@@QAEXXZ$1
9CC0B 281 __ehhandler$?load@Options@@QAEXXZ
9CC40 281 __unwindfunclet$?save@Options@@QBEXXZ$0
9CC4B 281 __unwindfunclet$?save@Options@@QBEXXZ$1
9CC5B 281 __ehhandler$?save@Options@@QBEXXZ
9CC90 281 __unwindfunclet$?get_profile_key_name@@YA?AV?$basic_string@_WU?$char_traits@_W@std@@V?$allocator@_W@2@@std@@ABV12@@Z$0
9CC98 281 __unwindfunclet$?get_profile_key_name@@YA?AV?$basic_string@_WU?$char_traits@_W@std@@V?$allocator@_W@2@@std@@ABV12@@Z$1
9CCA5 281 __ehhandler$?get_profile_key_name@@YA?AV?$basic_string@_WU?$char_traits@_W@std@@V?$allocator@_W@2@@std@@ABV12@@Z
9CCD0 281 __unwindfunclet$?load@UpdateProfiles@@QAEXXZ$0
9CCDB 281 __unwindfunclet$?load@UpdateProfiles@@QAEXXZ$1
9CCE3 281 __unwindfunclet$?load@UpdateProfiles@@QAEXXZ$2
9CCEE 281 __unwindfunclet$?load@UpdateProfiles@@QAEXXZ$3
9CCF9 281 __unwindfunclet$?load@UpdateProfiles@@QAEXXZ$11
9CD04 281 __unwindfunclet$?load@UpdateProfiles@@QAEXXZ$4
9CD0F 281 __unwindfunclet$?load@UpdateProfiles@@QAEXXZ$5
9CD17 281 __unwindfunclet$?load@UpdateProfiles@@QAEXXZ$33
9CD22 281 __unwindfunclet$?load@UpdateProfiles@@QAEXXZ$35
9CD2A 281 __unwindfunclet$?load@UpdateProfiles@@QAEXXZ$49
9CD32 281 __unwindfunclet$?load@UpdateProfiles@@QAEXXZ$60
9CD3A 281 __unwindfunclet$?load@UpdateProfiles@@QAEXXZ$16
9CD42 281 __unwindfunclet$?load@UpdateProfiles@@QAEXXZ$47
9CD52 281 __ehhandler$?load@UpdateProfiles@@QAEXXZ
9CD80 281 __unwindfunclet$?save@UpdateProfiles@@QBEXXZ$0
9CD8B 281 __unwindfunclet$?save@UpdateProfiles@@QBEXXZ$1
9CD93 281 __unwindfunclet$?save@UpdateProfiles@@QBEXXZ$2
9CD9B 281 __unwindfunclet$?save@UpdateProfiles@@QBEXXZ$3
9CDAB 281 __ehhandler$?save@UpdateProfiles@@QBEXXZ
9CDE0 281 __unwindfunclet$?find_by_name@UpdateProfiles@@QAEIABV?$basic_string@_WU?$char_traits@_W@std@@V?$allocator@_W@2@@std@@@Z$0
9CDFE 281 __ehhandler$?find_by_name@UpdateProfiles@@QAEIABV?$basic_string@_WU?$char_traits@_W@std@@V?$allocator@_W@2@@std@@@Z
9CE30 281 __unwindfunclet$??R<lambda_1>@?1??sort_by_name@UpdateProfiles@@QAEXXZ@QBE_NABUUpdateProfile@@0@Z$0
9CE3D 281 __ehhandler$??R<lambda_1>@?1??sort_by_name@UpdateProfiles@@QAEXXZ@QBE_NABUUpdateProfile@@0@Z
9CE70 281 __unwindfunclet$?update@UpdateProfiles@@QAEXABV?$basic_string@_WU?$char_traits@_W@std@@V?$allocator@_W@2@@std@@ABUUpdateOptions@@@Z$1
9CE7B 281 __unwindfunclet$?update@UpdateProfiles@@QAEXABV?$basic_string@_WU?$char_traits@_W@std@@V?$allocator@_W@2@@std@@ABUUpdateOptions@@@Z$0
9CE8B 281 __ehhandler$?update@UpdateProfiles@@QAEXABV?$basic_string@_WU?$char_traits@_W@std@@V?$allocator@_W@2@@std@@ABUUpdateOptions@@@Z
9CEC0 281 __unwindfunclet$?push_back@?$vector@UUpdateProfile@@V?$allocator@UUpdateProfile@@@std@@@std@@QAEXABUUpdateProfile@@@Z$0
9CECD 281 __ehhandler$?push_back@?$vector@UUpdateProfile@@V?$allocator@UUpdateProfile@@@std@@@std@@QAEXABUUpdateProfile@@@Z
9CEF0 281 __unwindfunclet$??$for_each@V?$_Vector_const_iterator@V?$_Vector_val@U?$_Simple_types@UUpdateProfile@@@std@@@std@@@std@@V<lambda_1>@?1??save@UpdateProfiles@@QBEXXZ@@std@@YA?AV<lambda_1>@?1??save@UpdateProfiles@@QBEXXZ@V?$_Vector_const_iterator@V?$_Vector_val@U?$_Simple_types@UUpdateProfile@@@std@@@std@@@0@0V1?1??23@QBEXXZ@@Z$0
9CEFD 281 __ehhandler$??$for_each@V?$_Vector_const_iterator@V?$_Vector_val@U?$_Simple_types@UUpdateProfile@@@std@@@std@@@std@@V<lambda_1>@?1??save@UpdateProfiles@@QBEXXZ@@std@@YA?AV<lambda_1>@?1??save@UpdateProfiles@@QBEXXZ@V?$_Vector_const_iterator@V?$_Vector_val@U?$_Simple_types@UUpdateProfile@@@std@@@std@@@0@0V1?1??23@QBEXXZ@@Z
9CF30 281 __unwindfunclet$??$_Sort_unchecked@PAUUpdateProfile@@V<lambda_1>@?1??sort_by_name@UpdateProfiles@@QAEXXZ@@std@@YAXPAUUpdateProfile@@0HV<lambda_1>@?1??sort_by_name@UpdateProfiles@@QAEXXZ@@Z$0
9CF3B 281 __unwindfunclet$??$_Sort_unchecked@PAUUpdateProfile@@V<lambda_1>@?1??sort_by_name@UpdateProfiles@@QAEXXZ@@std@@YAXPAUUpdateProfile@@0HV<lambda_1>@?1??sort_by_name@UpdateProfiles@@QAEXXZ@@Z$7
9CF4B 281 __ehhandler$??$_Sort_unchecked@PAUUpdateProfile@@V<lambda_1>@?1??sort_by_name@UpdateProfiles@@QAEXXZ@@std@@YAXPAUUpdateProfile@@0HV<lambda_1>@?1??sort_by_name@UpdateProfiles@@QAEXXZ@@Z
9CF80 281 __ehhandler$??$_Emplace_reallocate@ABUExternalCodec@@@?$vector@UExternalCodec@@V?$allocator@UExternalCodec@@@std@@@std@@AAEPAUExternalCodec@@QAU2@ABU2@@Z
9CFA0 281 __unwindfunclet$??$_Emplace_reallocate@ABUUpdateProfile@@@?$vector@UUpdateProfile@@V?$allocator@UUpdateProfile@@@std@@@std@@AAEPAUUpdateProfile@@QAU2@ABU2@@Z$2
9CFAD 281 __ehhandler$??$_Emplace_reallocate@ABUUpdateProfile@@@?$vector@UUpdateProfile@@V?$allocator@UUpdateProfile@@@std@@@std@@AAEPAUUpdateProfile@@QAU2@ABU2@@Z
9CFD0 281 __unwindfunclet$??$_Insertion_sort_unchecked@PAUUpdateProfile@@V<lambda_1>@?1??sort_by_name@UpdateProfiles@@QAEXXZ@@std@@YAPAUUpdateProfile@@QAU1@0V<lambda_1>@?1??sort_by_name@UpdateProfiles@@QAEXXZ@@Z$0
9CFDB 281 __unwindfunclet$??$_Insertion_sort_unchecked@PAUUpdateProfile@@V<lambda_1>@?1??sort_by_name@UpdateProfiles@@QAEXXZ@@std@@YAPAUUpdateProfile@@QAU1@0V<lambda_1>@?1??sort_by_name@UpdateProfiles@@QAEXXZ@@Z$5
9CFE3 281 __unwindfunclet$??$_Insertion_sort_unchecked@PAUUpdateProfile@@V<lambda_1>@?1??sort_by_name@UpdateProfiles@@QAEXXZ@@std@@YAPAUUpdateProfile@@QAU1@0V<lambda_1>@?1??sort_by_name@UpdateProfiles@@QAEXXZ@@Z$7
9CFEE 281 __unwindfunclet$??$_Insertion_sort_unchecked@PAUUpdateProfile@@V<lambda_1>@?1??sort_by_name@UpdateProfiles@@QAEXXZ@@std@@YAPAUUpdateProfile@@QAU1@0V<lambda_1>@?1??sort_by_name@UpdateProfiles@@QAEXXZ@@Z$14
9CFF6 281 __unwindfunclet$??$_Insertion_sort_unchecked@PAUUpdateProfile@@V<lambda_1>@?1??sort_by_name@UpdateProfiles@@QAEXXZ@@std@@YAPAUUpdateProfile@@QAU1@0V<lambda_1>@?1??sort_by_name@UpdateProfiles@@QAEXXZ@@Z$16
9D006 281 __ehhandler$??$_Insertion_sort_unchecked@PAUUpdateProfile@@V<lambda_1>@?1??sort_by_name@UpdateProfiles@@QAEXXZ@@std@@YAPAUUpdateProfile@@QAU1@0V<lambda_1>@?1??sort_by_name@UpdateProfiles@@QAEXXZ@@Z
9D030 281 __unwindfunclet$??$_Partition_by_median_guess_unchecked@PAUUpdateProfile@@V<lambda_1>@?1??sort_by_name@UpdateProfiles@@QAEXXZ@@std@@YA?AU?$pair@PAUUpdateProfile@@PAU1@@0@PAUUpdateProfile@@0V<lambda_1>@?1??sort_by_name@UpdateProfiles@@QAEXXZ@@Z$78
9D038 281 __unwindfunclet$??$_Partition_by_median_guess_unchecked@PAUUpdateProfile@@V<lambda_1>@?1??sort_by_name@UpdateProfiles@@QAEXXZ@@std@@YA?AU?$pair@PAUUpdateProfile@@PAU1@@0@PAUUpdateProfile@@0V<lambda_1>@?1??sort_by_name@UpdateProfiles@@QAEXXZ@@Z$82
9D040 281 __unwindfunclet$??$_Partition_by_median_guess_unchecked@PAUUpdateProfile@@V<lambda_1>@?1??sort_by_name@UpdateProfiles@@QAEXXZ@@std@@YA?AU?$pair@PAUUpdateProfile@@PAU1@@0@PAUUpdateProfile@@0V<lambda_1>@?1??sort_by_name@UpdateProfiles@@QAEXXZ@@Z$80
9D048 281 __unwindfunclet$??$_Partition_by_median_guess_unchecked@PAUUpdateProfile@@V<lambda_1>@?1??sort_by_name@UpdateProfiles@@QAEXXZ@@std@@YA?AU?$pair@PAUUpdateProfile@@PAU1@@0@PAUUpdateProfile@@0V<lambda_1>@?1??sort_by_name@UpdateProfiles@@QAEXXZ@@Z$84
9D050 281 __unwindfunclet$??$_Partition_by_median_guess_unchecked@PAUUpdateProfile@@V<lambda_1>@?1??sort_by_name@UpdateProfiles@@QAEXXZ@@std@@YA?AU?$pair@PAUUpdateProfile@@PAU1@@0@PAUUpdateProfile@@0V<lambda_1>@?1??sort_by_name@UpdateProfiles@@QAEXXZ@@Z$38
9D05B 281 __unwindfunclet$??$_Partition_by_median_guess_unchecked@PAUUpdateProfile@@V<lambda_1>@?1??sort_by_name@UpdateProfiles@@QAEXXZ@@std@@YA?AU?$pair@PAUUpdateProfile@@PAU1@@0@PAUUpdateProfile@@0V<lambda_1>@?1??sort_by_name@UpdateProfiles@@QAEXXZ@@Z$36
9D063 281 __unwindfunclet$??$_Partition_by_median_guess_unchecked@PAUUpdateProfile@@V<lambda_1>@?1??sort_by_name@UpdateProfiles@@QAEXXZ@@std@@YA?AU?$pair@PAUUpdateProfile@@PAU1@@0@PAUUpdateProfile@@0V<lambda_1>@?1??sort_by_name@UpdateProfiles@@QAEXXZ@@Z$43
9D06E 281 __unwindfunclet$??$_Partition_by_median_guess_unchecked@PAUUpdateProfile@@V<lambda_1>@?1??sort_by_name@UpdateProfiles@@QAEXXZ@@std@@YA?AU?$pair@PAUUpdateProfile@@PAU1@@0@PAUUpdateProfile@@0V<lambda_1>@?1??sort_by_name@UpdateProfiles@@QAEXXZ@@Z$66
9D079 281 __unwindfunclet$??$_Partition_by_median_guess_unchecked@PAUUpdateProfile@@V<lambda_1>@?1??sort_by_name@UpdateProfiles@@QAEXXZ@@std@@YA?AU?$pair@PAUUpdateProfile@@PAU1@@0@PAUUpdateProfile@@0V<lambda_1>@?1??sort_by_name@UpdateProfiles@@QAEXXZ@@Z$64
9D081 281 __unwindfunclet$??$_Partition_by_median_guess_unchecked@PAUUpdateProfile@@V<lambda_1>@?1??sort_by_name@UpdateProfiles@@QAEXXZ@@std@@YA?AU?$pair@PAUUpdateProfile@@PAU1@@0@PAUUpdateProfile@@0V<lambda_1>@?1??sort_by_name@UpdateProfiles@@QAEXXZ@@Z$71
9D08C 281 __unwindfunclet$??$_Partition_by_median_guess_unchecked@PAUUpdateProfile@@V<lambda_1>@?1??sort_by_name@UpdateProfiles@@QAEXXZ@@std@@YA?AU?$pair@PAUUpdateProfile@@PAU1@@0@PAUUpdateProfile@@0V<lambda_1>@?1??sort_by_name@UpdateProfiles@@QAEXXZ@@Z$0
9D094 281 __unwindfunclet$??$_Partition_by_median_guess_unchecked@PAUUpdateProfile@@V<lambda_1>@?1??sort_by_name@UpdateProfiles@@QAEXXZ@@std@@YA?AU?$pair@PAUUpdateProfile@@PAU1@@0@PAUUpdateProfile@@0V<lambda_1>@?1??sort_by_name@UpdateProfiles@@QAEXXZ@@Z$4
9D0A1 281 __ehhandler$??$_Partition_by_median_guess_unchecked@PAUUpdateProfile@@V<lambda_1>@?1??sort_by_name@UpdateProfiles@@QAEXXZ@@std@@YA?AU?$pair@PAUUpdateProfile@@PAU1@@0@PAUUpdateProfile@@0V<lambda_1>@?1??sort_by_name@UpdateProfiles@@QAEXXZ@@Z
9D0D0 281 __unwindfunclet$??$_Pop_heap_hole_by_index@PAUUpdateProfile@@U1@V<lambda_1>@?1??sort_by_name@UpdateProfiles@@QAEXXZ@@std@@YAXPAUUpdateProfile@@HH$$QAU1@V<lambda_1>@?1??sort_by_name@UpdateProfiles@@QAEXXZ@@Z$0
9D0D8 281 __unwindfunclet$??$_Pop_heap_hole_by_index@PAUUpdateProfile@@U1@V<lambda_1>@?1??sort_by_name@UpdateProfiles@@QAEXXZ@@std@@YAXPAUUpdateProfile@@HH$$QAU1@V<lambda_1>@?1??sort_by_name@UpdateProfiles@@QAEXXZ@@Z$4
9D0E5 281 __ehhandler$??$_Pop_heap_hole_by_index@PAUUpdateProfile@@U1@V<lambda_1>@?1??sort_by_name@UpdateProfiles@@QAEXXZ@@std@@YAXPAUUpdateProfile@@HH$$QAU1@V<lambda_1>@?1??sort_by_name@UpdateProfiles@@QAEXXZ@@Z
9D110 281 __unwindfunclet$??0ProfileOptions@@QAE@ABU0@@Z$0
9D118 281 __unwindfunclet$??0ProfileOptions@@QAE@ABU0@@Z$1
9D123 281 __unwindfunclet$??0ProfileOptions@@QAE@ABU0@@Z$2
9D12E 281 __unwindfunclet$??0ProfileOptions@@QAE@ABU0@@Z$3
9D139 281 __unwindfunclet$??0ProfileOptions@@QAE@ABU0@@Z$4
9D144 281 __unwindfunclet$??0ProfileOptions@@QAE@ABU0@@Z$5
9D157 281 __ehhandler$??0ProfileOptions@@QAE@ABU0@@Z
9D180 281 __unwindfunclet$??0SfxOptions@@QAE@ABU0@@Z$0
9D188 281 __unwindfunclet$??0SfxOptions@@QAE@ABU0@@Z$1
9D193 281 __unwindfunclet$??0SfxOptions@@QAE@ABU0@@Z$4
9D19B 281 __unwindfunclet$??0SfxOptions@@QAE@ABU0@@Z$5
9D1A6 281 __unwindfunclet$??0SfxOptions@@QAE@ABU0@@Z$6
9D1B1 281 __unwindfunclet$??0SfxOptions@@QAE@ABU0@@Z$7
9D1BC 281 __unwindfunclet$??0SfxOptions@@QAE@ABU0@@Z$8
9D1C7 281 __unwindfunclet$??0SfxOptions@@QAE@ABU0@@Z$2
9D1D2 281 __unwindfunclet$??0SfxOptions@@QAE@ABU0@@Z$10
9D1DA 281 __unwindfunclet$??0SfxOptions@@QAE@ABU0@@Z$11
9D1E5 281 __unwindfunclet$??0SfxOptions@@QAE@ABU0@@Z$12
9D1F0 281 __unwindfunclet$??0SfxOptions@@QAE@ABU0@@Z$13
9D1FB 281 __unwindfunclet$??0SfxOptions@@QAE@ABU0@@Z$14
9D206 281 __unwindfunclet$??0SfxOptions@@QAE@ABU0@@Z$15
9D216 281 __ehhandler$??0SfxOptions@@QAE@ABU0@@Z
9D240 282 __unwindfunclet$?long_path@@YA?AV?$basic_string@_WU?$char_traits@_W@std@@V?$allocator@_W@2@@std@@ABV12@@Z$1
9D248 282 __unwindfunclet$?long_path@@YA?AV?$basic_string@_WU?$char_traits@_W@std@@V?$allocator@_W@2@@std@@ABV12@@Z$2
9D255 282 __ehhandler$?long_path@@YA?AV?$basic_string@_WU?$char_traits@_W@std@@V?$allocator@_W@2@@std@@ABV12@@Z
9D280 282 __unwindfunclet$?extract_file_path@@YA?AV?$basic_string@_WU?$char_traits@_W@std@@V?$allocator@_W@2@@std@@ABV12@@Z$0
9D28D 282 __ehhandler$?extract_file_path@@YA?AV?$basic_string@_WU?$char_traits@_W@std@@V?$allocator@_W@2@@std@@ABV12@@Z
9D2C0 282 __unwindfunclet$?correct_filename@@YA?AV?$basic_string@_WU?$char_traits@_W@std@@V?$allocator@_W@2@@std@@ABV12@H_N@Z$0
9D2DE 282 __ehhandler$?correct_filename@@YA?AV?$basic_string@_WU?$char_traits@_W@std@@V?$allocator@_W@2@@std@@ABV12@H_N@Z
9D310 283 __unwindfunclet$??0Error@@QAE@ABV?$basic_string@_WU?$char_traits@_W@std@@V?$allocator@_W@2@@std@@0PBDH@Z$0
9D31B 283 __unwindfunclet$??0Error@@QAE@ABV?$basic_string@_WU?$char_traits@_W@std@@V?$allocator@_W@2@@std@@0PBDH@Z$1
9D323 283 __unwindfunclet$??0Error@@QAE@ABV?$basic_string@_WU?$char_traits@_W@std@@V?$allocator@_W@2@@std@@0PBDH@Z$3
9D336 283 __unwindfunclet$??0Error@@QAE@ABV?$basic_string@_WU?$char_traits@_W@std@@V?$allocator@_W@2@@std@@0PBDH@Z$4
9D346 283 __ehhandler$??0Error@@QAE@ABV?$basic_string@_WU?$char_traits@_W@std@@V?$allocator@_W@2@@std@@0PBDH@Z
9D370 283 __unwindfunclet$??0Plugin@@QAE@_N@Z$0
9D382 283 __unwindfunclet$??0Plugin@@QAE@_N@Z$9
9D38F 283 __ehhandler$??0Plugin@@QAE@_N@Z
9D3B0 283 __unwindfunclet$?open@Plugin@@SAPAV1@ABV?$vector@V?$shared_ptr@VArchive@@@std@@V?$allocator@V?$shared_ptr@VArchive@@@std@@@2@@std@@_N@Z$0
9D3B8 283 __unwindfunclet$?open@Plugin@@SAPAV1@ABV?$vector@V?$shared_ptr@VArchive@@@std@@V?$allocator@V?$shared_ptr@VArchive@@@std@@@2@@std@@_N@Z$1
9D3C0 283 __unwindfunclet$?open@Plugin@@SAPAV1@ABV?$vector@V?$shared_ptr@VArchive@@@std@@V?$allocator@V?$shared_ptr@VArchive@@@std@@@2@@std@@_N@Z$2
9D3C8 283 __unwindfunclet$?open@Plugin@@SAPAV1@ABV?$vector@V?$shared_ptr@VArchive@@@std@@V?$allocator@V?$shared_ptr@VArchive@@@std@@@2@@std@@_N@Z$9
9D3DF 283 __ehhandler$?open@Plugin@@SAPAV1@ABV?$vector@V?$shared_ptr@VArchive@@@std@@V?$allocator@V?$shared_ptr@VArchive@@@std@@@2@@std@@_N@Z
9D410 283 __unwindfunclet$?guess_fs_ext@Plugin@@QAEPB_WI@Z$0
9D420 283 __ehhandler$?guess_fs_ext@Plugin@@QAEPB_WI@Z
9D450 283 __unwindfunclet$?correct_part_root_name@Plugin@@QAEXAAV?$basic_string@_WU?$char_traits@_W@std@@V?$allocator@_W@2@@std@@IK_K1@Z$0
9D458 283 __unwindfunclet$?correct_part_root_name@Plugin@@QAEXAAV?$basic_string@_WU?$char_traits@_W@std@@V?$allocator@_W@2@@std@@IK_K1@Z$1
9D465 283 __ehhandler$?correct_part_root_name@Plugin@@QAEXAAV?$basic_string@_WU?$char_traits@_W@std@@V?$allocator@_W@2@@std@@IK_K1@Z
9D490 283 __unwindfunclet$?set_partition@Plugin@@QAE_NABUPanelItem@Far@@@Z$0
9D498 283 __unwindfunclet$?set_partition@Plugin@@QAE_NABUPanelItem@Far@@@Z$1
9D4A0 283 __unwindfunclet$?set_partition@Plugin@@QAE_NABUPanelItem@Far@@@Z$3
9D4A8 283 __unwindfunclet$?set_partition@Plugin@@QAE_NABUPanelItem@Far@@@Z$7
9D4B0 283 __unwindfunclet$?set_partition@Plugin@@QAE_NABUPanelItem@Far@@@Z$8
9D4B8 283 __unwindfunclet$?set_partition@Plugin@@QAE_NABUPanelItem@Far@@@Z$13
9D4C0 283 __unwindfunclet$?set_partition@Plugin@@QAE_NABUPanelItem@Far@@@Z$17
9D4D7 283 __ehhandler$?set_partition@Plugin@@QAE_NABUPanelItem@Far@@@Z
9D510 283 __unwindfunclet$?info@Plugin@@QAEXPAUOpenPanelInfo@@@Z$1
9D518 283 __unwindfunclet$?info@Plugin@@QAEXPAUOpenPanelInfo@@@Z$2
9D523 283 __unwindfunclet$?info@Plugin@@QAEXPAUOpenPanelInfo@@@Z$3
9D52E 283 __unwindfunclet$?info@Plugin@@QAEXPAUOpenPanelInfo@@@Z$4
9D536 283 __unwindfunclet$?info@Plugin@@QAEXPAUOpenPanelInfo@@@Z$5
9D53E 283 __unwindfunclet$?info@Plugin@@QAEXPAUOpenPanelInfo@@@Z$6
9D54B 283 __ehhandler$?info@Plugin@@QAEXPAUOpenPanelInfo@@@Z
9D580 283 __unwindfunclet$?set_dir@Plugin@@QAEXABV?$basic_string@_WU?$char_traits@_W@std@@V?$allocator@_W@2@@std@@@Z$0
9D588 283 __unwindfunclet$?set_dir@Plugin@@QAEXABV?$basic_string@_WU?$char_traits@_W@std@@V?$allocator@_W@2@@std@@@Z$2
9D590 283 __unwindfunclet$?set_dir@Plugin@@QAEXABV?$basic_string@_WU?$char_traits@_W@std@@V?$allocator@_W@2@@std@@@Z$3
9D598 283 __unwindfunclet$?set_dir@Plugin@@QAEXABV?$basic_string@_WU?$char_traits@_W@std@@V?$allocator@_W@2@@std@@@Z$12
9D5A3 283 __unwindfunclet$?set_dir@Plugin@@QAEXABV?$basic_string@_WU?$char_traits@_W@std@@V?$allocator@_W@2@@std@@@Z$4
9D5AE 283 __unwindfunclet$?set_dir@Plugin@@QAEXABV?$basic_string@_WU?$char_traits@_W@std@@V?$allocator@_W@2@@std@@@Z$5
9D5BB 283 __ehhandler$?set_dir@Plugin@@QAEXABV?$basic_string@_WU?$char_traits@_W@std@@V?$allocator@_W@2@@std@@@Z
9D5F0 283 __unwindfunclet$?list@Plugin@@QAEXPAPAUPluginPanelItem@@PAI@Z$0
9D5FD 283 __ehhandler$?list@Plugin@@QAEXPAPAUPluginPanelItem@@PAI@Z
9D620 283 __unwindfunclet$?get_separate_dir_path@Plugin@@SA?AV?$basic_string@_WU?$char_traits@_W@std@@V?$allocator@_W@2@@std@@ABV23@0@Z$0
9D628 283 __unwindfunclet$?get_separate_dir_path@Plugin@@SA?AV?$basic_string@_WU?$char_traits@_W@std@@V?$allocator@_W@2@@std@@ABV23@0@Z$1
9D641 283 __unwindfunclet$?get_separate_dir_path@Plugin@@SA?AV?$basic_string@_WU?$char_traits@_W@std@@V?$allocator@_W@2@@std@@ABV23@0@Z$2
9D64E 283 __ehhandler$?get_separate_dir_path@Plugin@@SA?AV?$basic_string@_WU?$char_traits@_W@std@@V?$allocator@_W@2@@std@@ABV23@0@Z
9D680 283 __unwindfunclet$?extract@Plugin@@QAEXABVPluginPanelItemAccessor@1@AAV?$basic_string@_WU?$char_traits@_W@std@@V?$allocator@_W@2@@std@@_N_K@Z$0
9D68B 283 __unwindfunclet$?extract@Plugin@@QAEXABVPluginPanelItemAccessor@1@AAV?$basic_string@_WU?$char_traits@_W@std@@V?$allocator@_W@2@@std@@_N_K@Z$3
9D696 283 __unwindfunclet$?extract@Plugin@@QAEXABVPluginPanelItemAccessor@1@AAV?$basic_string@_WU?$char_traits@_W@std@@V?$allocator@_W@2@@std@@_N_K@Z$9
9D6A8 283 __unwindfunclet$?extract@Plugin@@QAEXABVPluginPanelItemAccessor@1@AAV?$basic_string@_WU?$char_traits@_W@std@@V?$allocator@_W@2@@std@@_N_K@Z$4
9D6B3 283 __unwindfunclet$?extract@Plugin@@QAEXABVPluginPanelItemAccessor@1@AAV?$basic_string@_WU?$char_traits@_W@std@@V?$allocator@_W@2@@std@@_N_K@Z$5
9D6BE 283 __unwindfunclet$?extract@Plugin@@QAEXABVPluginPanelItemAccessor@1@AAV?$basic_string@_WU?$char_traits@_W@std@@V?$allocator@_W@2@@std@@_N_K@Z$7
9D6C6 283 __unwindfunclet$?extract@Plugin@@QAEXABVPluginPanelItemAccessor@1@AAV?$basic_string@_WU?$char_traits@_W@std@@V?$allocator@_W@2@@std@@_N_K@Z$8
9D6D3 283 __ehhandler$?extract@Plugin@@QAEXABVPluginPanelItemAccessor@1@AAV?$basic_string@_WU?$char_traits@_W@std@@V?$allocator@_W@2@@std@@_N_K@Z
9D700 283 __unwindfunclet$??R<lambda_1>@?1??extract@Plugin@@QAEXABVPluginPanelItemAccessor@2@AAV?$basic_string@_WU?$char_traits@_W@std@@V?$allocator@_W@2@@std@@_N_K@Z@QBE@XZ$0
9D70D 283 __ehhandler$??R<lambda_1>@?1??extract@Plugin@@QAEXABVPluginPanelItemAccessor@2@AAV?$basic_string@_WU?$char_traits@_W@std@@V?$allocator@_W@2@@std@@_N_K@Z@QBE@XZ
9D740 283 __unwindfunclet$?extract@Plugin@@SAXABV?$vector@V?$basic_string@_WU?$char_traits@_W@std@@V?$allocator@_W@2@@std@@V?$allocator@V?$basic_string@_WU?$char_traits@_W@std@@V?$allocator@_W@2@@std@@@2@@std@@UExtractOptions@@@Z$2
9D748 283 __unwindfunclet$?extract@Plugin@@SAXABV?$vector@V?$basic_string@_WU?$char_traits@_W@std@@V?$allocator@_W@2@@std@@V?$allocator@V?$basic_string@_WU?$char_traits@_W@std@@V?$allocator@_W@2@@std@@@2@@std@@UExtractOptions@@@Z$3
9D753 283 __unwindfunclet$?extract@Plugin@@SAXABV?$vector@V?$basic_string@_WU?$char_traits@_W@std@@V?$allocator@_W@2@@std@@V?$allocator@V?$basic_string@_WU?$char_traits@_W@std@@V?$allocator@_W@2@@std@@@2@@std@@UExtractOptions@@@Z$4
9D75E 283 __unwindfunclet$?extract@Plugin@@SAXABV?$vector@V?$basic_string@_WU?$char_traits@_W@std@@V?$allocator@_W@2@@std@@V?$allocator@V?$basic_string@_WU?$char_traits@_W@std@@V?$allocator@_W@2@@std@@@2@@std@@UExtractOptions@@@Z$40
9D770 283 __unwindfunclet$?extract@Plugin@@SAXABV?$vector@V?$basic_string@_WU?$char_traits@_W@std@@V?$allocator@_W@2@@std@@V?$allocator@V?$basic_string@_WU?$char_traits@_W@std@@V?$allocator@_W@2@@std@@@2@@std@@UExtractOptions@@@Z$5
9D77B 283 __unwindfunclet$?extract@Plugin@@SAXABV?$vector@V?$basic_string@_WU?$char_traits@_W@std@@V?$allocator@_W@2@@std@@V?$allocator@V?$basic_string@_WU?$char_traits@_W@std@@V?$allocator@_W@2@@std@@@2@@std@@UExtractOptions@@@Z$6
9D786 283 __unwindfunclet$?extract@Plugin@@SAXABV?$vector@V?$basic_string@_WU?$char_traits@_W@std@@V?$allocator@_W@2@@std@@V?$allocator@V?$basic_string@_WU?$char_traits@_W@std@@V?$allocator@_W@2@@std@@@2@@std@@UExtractOptions@@@Z$19
9D78E 283 __unwindfunclet$?extract@Plugin@@SAXABV?$vector@V?$basic_string@_WU?$char_traits@_W@std@@V?$allocator@_W@2@@std@@V?$allocator@V?$basic_string@_WU?$char_traits@_W@std@@V?$allocator@_W@2@@std@@@2@@std@@UExtractOptions@@@Z$7
9D796 283 __unwindfunclet$?extract@Plugin@@SAXABV?$vector@V?$basic_string@_WU?$char_traits@_W@std@@V?$allocator@_W@2@@std@@V?$allocator@V?$basic_string@_WU?$char_traits@_W@std@@V?$allocator@_W@2@@std@@@2@@std@@UExtractOptions@@@Z$29
9D7B8 283 __unwindfunclet$?extract@Plugin@@SAXABV?$vector@V?$basic_string@_WU?$char_traits@_W@std@@V?$allocator@_W@2@@std@@V?$allocator@V?$basic_string@_WU?$char_traits@_W@std@@V?$allocator@_W@2@@std@@@2@@std@@UExtractOptions@@@Z$11
9D7C3 283 __unwindfunclet$?extract@Plugin@@SAXABV?$vector@V?$basic_string@_WU?$char_traits@_W@std@@V?$allocator@_W@2@@std@@V?$allocator@V?$basic_string@_WU?$char_traits@_W@std@@V?$allocator@_W@2@@std@@@2@@std@@UExtractOptions@@@Z$12
9D7CB 283 __unwindfunclet$?extract@Plugin@@SAXABV?$vector@V?$basic_string@_WU?$char_traits@_W@std@@V?$allocator@_W@2@@std@@V?$allocator@V?$basic_string@_WU?$char_traits@_W@std@@V?$allocator@_W@2@@std@@@2@@std@@UExtractOptions@@@Z$36
9D7D6 283 __unwindfunclet$?extract@Plugin@@SAXABV?$vector@V?$basic_string@_WU?$char_traits@_W@std@@V?$allocator@_W@2@@std@@V?$allocator@V?$basic_string@_WU?$char_traits@_W@std@@V?$allocator@_W@2@@std@@@2@@std@@UExtractOptions@@@Z$13
9D7E1 283 __unwindfunclet$?extract@Plugin@@SAXABV?$vector@V?$basic_string@_WU?$char_traits@_W@std@@V?$allocator@_W@2@@std@@V?$allocator@V?$basic_string@_WU?$char_traits@_W@std@@V?$allocator@_W@2@@std@@@2@@std@@UExtractOptions@@@Z$16
9D7E9 283 __unwindfunclet$?extract@Plugin@@SAXABV?$vector@V?$basic_string@_WU?$char_traits@_W@std@@V?$allocator@_W@2@@std@@V?$allocator@V?$basic_string@_WU?$char_traits@_W@std@@V?$allocator@_W@2@@std@@@2@@std@@UExtractOptions@@@Z$17
9D7F4 283 __unwindfunclet$?extract@Plugin@@SAXABV?$vector@V?$basic_string@_WU?$char_traits@_W@std@@V?$allocator@_W@2@@std@@V?$allocator@V?$basic_string@_WU?$char_traits@_W@std@@V?$allocator@_W@2@@std@@@2@@std@@UExtractOptions@@@Z$10
9D804 283 __ehhandler$?extract@Plugin@@SAXABV?$vector@V?$basic_string@_WU?$char_traits@_W@std@@V?$allocator@_W@2@@std@@V?$allocator@V?$basic_string@_WU?$char_traits@_W@std@@V?$allocator@_W@2@@std@@@2@@std@@UExtractOptions@@@Z
9D830 283 __unwindfunclet$?bulk_extract@Plugin@@SAXABV?$vector@V?$basic_string@_WU?$char_traits@_W@std@@V?$allocator@_W@2@@std@@V?$allocator@V?$basic_string@_WU?$char_traits@_W@std@@V?$allocator@_W@2@@std@@@2@@std@@@Z$0
9D838 283 __unwindfunclet$?bulk_extract@Plugin@@SAXABV?$vector@V?$basic_string@_WU?$char_traits@_W@std@@V?$allocator@_W@2@@std@@V?$allocator@V?$basic_string@_WU?$char_traits@_W@std@@V?$allocator@_W@2@@std@@@2@@std@@@Z$10
9D848 283 __ehhandler$?bulk_extract@Plugin@@SAXABV?$vector@V?$basic_string@_WU?$char_traits@_W@std@@V?$allocator@_W@2@@std@@V?$allocator@V?$basic_string@_WU?$char_traits@_W@std@@V?$allocator@_W@2@@std@@@2@@std@@@Z
9D880 283 __unwindfunclet$?cmdline_extract@Plugin@@SAXABUExtractCommand@@@Z$0
9D888 283 __unwindfunclet$?cmdline_extract@Plugin@@SAXABUExtractCommand@@@Z$6
9D890 283 __unwindfunclet$?cmdline_extract@Plugin@@SAXABUExtractCommand@@@Z$1
9D898 283 __unwindfunclet$?cmdline_extract@Plugin@@SAXABUExtractCommand@@@Z$9
9D8A5 283 __ehhandler$?cmdline_extract@Plugin@@SAXABUExtractCommand@@@Z
9D8D0 283 __unwindfunclet$?delete_items@Plugin@@SAXABV?$basic_string@_WU?$char_traits@_W@std@@V?$allocator@_W@2@@std@@ABUExtractOptions@@ABV?$vector@V?$basic_string@_WU?$char_traits@_W@std@@V?$allocator@_W@2@@std@@V?$allocator@V?$basic_string@_WU?$char_traits@_W@std@@V?$allocator@_W@2@@std@@@2@@3@@Z$0
9D8DB 283 __unwindfunclet$?delete_items@Plugin@@SAXABV?$basic_string@_WU?$char_traits@_W@std@@V?$allocator@_W@2@@std@@ABUExtractOptions@@ABV?$vector@V?$basic_string@_WU?$char_traits@_W@std@@V?$allocator@_W@2@@std@@V?$allocator@V?$basic_string@_WU?$char_traits@_W@std@@V?$allocator@_W@2@@std@@@2@@3@@Z$1
9D8E3 283 __unwindfunclet$?delete_items@Plugin@@SAXABV?$basic_string@_WU?$char_traits@_W@std@@V?$allocator@_W@2@@std@@ABUExtractOptions@@ABV?$vector@V?$basic_string@_WU?$char_traits@_W@std@@V?$allocator@_W@2@@std@@V?$allocator@V?$basic_string@_WU?$char_traits@_W@std@@V?$allocator@_W@2@@std@@@2@@3@@Z$9
9D8FF 283 __unwindfunclet$?delete_items@Plugin@@SAXABV?$basic_string@_WU?$char_traits@_W@std@@V?$allocator@_W@2@@std@@ABUExtractOptions@@ABV?$vector@V?$basic_string@_WU?$char_traits@_W@std@@V?$allocator@_W@2@@std@@V?$allocator@V?$basic_string@_WU?$char_traits@_W@std@@V?$allocator@_W@2@@std@@@2@@3@@Z$5
9D90A 283 __unwindfunclet$?delete_items@Plugin@@SAXABV?$basic_string@_WU?$char_traits@_W@std@@V?$allocator@_W@2@@std@@ABUExtractOptions@@ABV?$vector@V?$basic_string@_WU?$char_traits@_W@std@@V?$allocator@_W@2@@std@@V?$allocator@V?$basic_string@_WU?$char_traits@_W@std@@V?$allocator@_W@2@@std@@@2@@3@@Z$6
9D915 283 __unwindfunclet$?delete_items@Plugin@@SAXABV?$basic_string@_WU?$char_traits@_W@std@@V?$allocator@_W@2@@std@@ABUExtractOptions@@ABV?$vector@V?$basic_string@_WU?$char_traits@_W@std@@V?$allocator@_W@2@@std@@V?$allocator@V?$basic_string@_WU?$char_traits@_W@std@@V?$allocator@_W@2@@std@@@2@@3@@Z$7
9D91D 283 __unwindfunclet$?delete_items@Plugin@@SAXABV?$basic_string@_WU?$char_traits@_W@std@@V?$allocator@_W@2@@std@@ABUExtractOptions@@ABV?$vector@V?$basic_string@_WU?$char_traits@_W@std@@V?$allocator@_W@2@@std@@V?$allocator@V?$basic_string@_WU?$char_traits@_W@std@@V?$allocator@_W@2@@std@@@2@@3@@Z$4
9D92A 283 __ehhandler$?delete_items@Plugin@@SAXABV?$basic_string@_WU?$char_traits@_W@std@@V?$allocator@_W@2@@std@@ABUExtractOptions@@ABV?$vector@V?$basic_string@_WU?$char_traits@_W@std@@V?$allocator@_W@2@@std@@V?$allocator@V?$basic_string@_WU?$char_traits@_W@std@@V?$allocator@_W@2@@std@@@2@@3@@Z
9D960 283 __unwindfunclet$?extract_items@Plugin@@SAXABV?$basic_string@_WU?$char_traits@_W@std@@V?$allocator@_W@2@@std@@ABUExtractOptions@@ABV?$vector@V?$basic_string@_WU?$char_traits@_W@std@@V?$allocator@_W@2@@std@@V?$allocator@V?$basic_string@_WU?$char_traits@_W@std@@V?$allocator@_W@2@@std@@@2@@3@@Z$0
9D96B 283 __unwindfunclet$?extract_items@Plugin@@SAXABV?$basic_string@_WU?$char_traits@_W@std@@V?$allocator@_W@2@@std@@ABUExtractOptions@@ABV?$vector@V?$basic_string@_WU?$char_traits@_W@std@@V?$allocator@_W@2@@std@@V?$allocator@V?$basic_string@_WU?$char_traits@_W@std@@V?$allocator@_W@2@@std@@@2@@3@@Z$1
9D976 283 __unwindfunclet$?extract_items@Plugin@@SAXABV?$basic_string@_WU?$char_traits@_W@std@@V?$allocator@_W@2@@std@@ABUExtractOptions@@ABV?$vector@V?$basic_string@_WU?$char_traits@_W@std@@V?$allocator@_W@2@@std@@V?$allocator@V?$basic_string@_WU?$char_traits@_W@std@@V?$allocator@_W@2@@std@@@2@@3@@Z$14
9D998 283 __unwindfunclet$?extract_items@Plugin@@SAXABV?$basic_string@_WU?$char_traits@_W@std@@V?$allocator@_W@2@@std@@ABUExtractOptions@@ABV?$vector@V?$basic_string@_WU?$char_traits@_W@std@@V?$allocator@_W@2@@std@@V?$allocator@V?$basic_string@_WU?$char_traits@_W@std@@V?$allocator@_W@2@@std@@@2@@3@@Z$5
9D9A3 283 __unwindfunclet$?extract_items@Plugin@@SAXABV?$basic_string@_WU?$char_traits@_W@std@@V?$allocator@_W@2@@std@@ABUExtractOptions@@ABV?$vector@V?$basic_string@_WU?$char_traits@_W@std@@V?$allocator@_W@2@@std@@V?$allocator@V?$basic_string@_WU?$char_traits@_W@std@@V?$allocator@_W@2@@std@@@2@@3@@Z$6
9D9AB 283 __unwindfunclet$?extract_items@Plugin@@SAXABV?$basic_string@_WU?$char_traits@_W@std@@V?$allocator@_W@2@@std@@ABUExtractOptions@@ABV?$vector@V?$basic_string@_WU?$char_traits@_W@std@@V?$allocator@_W@2@@std@@V?$allocator@V?$basic_string@_WU?$char_traits@_W@std@@V?$allocator@_W@2@@std@@@2@@3@@Z$7
9D9B3 283 __unwindfunclet$?extract_items@Plugin@@SAXABV?$basic_string@_WU?$char_traits@_W@std@@V?$allocator@_W@2@@std@@ABUExtractOptions@@ABV?$vector@V?$basic_string@_WU?$char_traits@_W@std@@V?$allocator@_W@2@@std@@V?$allocator@V?$basic_string@_WU?$char_traits@_W@std@@V?$allocator@_W@2@@std@@@2@@3@@Z$12
9D9C5 283 __unwindfunclet$?extract_items@Plugin@@SAXABV?$basic_string@_WU?$char_traits@_W@std@@V?$allocator@_W@2@@std@@ABUExtractOptions@@ABV?$vector@V?$basic_string@_WU?$char_traits@_W@std@@V?$allocator@_W@2@@std@@V?$allocator@V?$basic_string@_WU?$char_traits@_W@std@@V?$allocator@_W@2@@std@@@2@@3@@Z$8
9D9D0 283 __unwindfunclet$?extract_items@Plugin@@SAXABV?$basic_string@_WU?$char_traits@_W@std@@V?$allocator@_W@2@@std@@ABUExtractOptions@@ABV?$vector@V?$basic_string@_WU?$char_traits@_W@std@@V?$allocator@_W@2@@std@@V?$allocator@V?$basic_string@_WU?$char_traits@_W@std@@V?$allocator@_W@2@@std@@@2@@3@@Z$9
9D9D8 283 __unwindfunclet$?extract_items@Plugin@@SAXABV?$basic_string@_WU?$char_traits@_W@std@@V?$allocator@_W@2@@std@@ABUExtractOptions@@ABV?$vector@V?$basic_string@_WU?$char_traits@_W@std@@V?$allocator@_W@2@@std@@V?$allocator@V?$basic_string@_WU?$char_traits@_W@std@@V?$allocator@_W@2@@std@@@2@@3@@Z$4
9D9E5 283 __ehhandler$?extract_items@Plugin@@SAXABV?$basic_string@_WU?$char_traits@_W@std@@V?$allocator@_W@2@@std@@ABUExtractOptions@@ABV?$vector@V?$basic_string@_WU?$char_traits@_W@std@@V?$allocator@_W@2@@std@@V?$allocator@V?$basic_string@_WU?$char_traits@_W@std@@V?$allocator@_W@2@@std@@@2@@3@@Z
9DA10 283 __unwindfunclet$?cmdline_extract@Plugin@@SAXABUExtractItemsCommand@@@Z$0
9DA18 283 __unwindfunclet$?cmdline_extract@Plugin@@SAXABUExtractItemsCommand@@@Z$4
9DA20 283 __unwindfunclet$?cmdline_extract@Plugin@@SAXABUExtractItemsCommand@@@Z$1
9DA2D 283 __ehhandler$?cmdline_extract@Plugin@@SAXABUExtractItemsCommand@@@Z
9DA60 283 __unwindfunclet$?cmdline_delete@Plugin@@SAXABUExtractItemsCommand@@@Z$0
9DA68 283 __unwindfunclet$?cmdline_delete@Plugin@@SAXABUExtractItemsCommand@@@Z$2
9DA70 283 __unwindfunclet$?cmdline_delete@Plugin@@SAXABUExtractItemsCommand@@@Z$1
9DA7D 283 __ehhandler$?cmdline_delete@Plugin@@SAXABUExtractItemsCommand@@@Z
9DAB0 283 __unwindfunclet$?test_files@Plugin@@QAEXPAUPluginPanelItem@@H_K@Z$2
9DABB 283 __unwindfunclet$?test_files@Plugin@@QAEXPAUPluginPanelItem@@H_K@Z$4
9DACE 283 __unwindfunclet$?test_files@Plugin@@QAEXPAUPluginPanelItem@@H_K@Z$19
9DAE7 283 __unwindfunclet$?test_files@Plugin@@QAEXPAUPluginPanelItem@@H_K@Z$20
9DB00 283 __unwindfunclet$?test_files@Plugin@@QAEXPAUPluginPanelItem@@H_K@Z$7
9DB08 283 __unwindfunclet$?test_files@Plugin@@QAEXPAUPluginPanelItem@@H_K@Z$8
9DB10 283 __unwindfunclet$?test_files@Plugin@@QAEXPAUPluginPanelItem@@H_K@Z$9
9DB1D 283 __ehhandler$?test_files@Plugin@@QAEXPAUPluginPanelItem@@H_K@Z
9DB50 283 __unwindfunclet$?bulk_test@Plugin@@SAXABV?$vector@V?$basic_string@_WU?$char_traits@_W@std@@V?$allocator@_W@2@@std@@V?$allocator@V?$basic_string@_WU?$char_traits@_W@std@@V?$allocator@_W@2@@std@@@2@@std@@@Z$4
9DB5B 283 __unwindfunclet$?bulk_test@Plugin@@SAXABV?$vector@V?$basic_string@_WU?$char_traits@_W@std@@V?$allocator@_W@2@@std@@V?$allocator@V?$basic_string@_WU?$char_traits@_W@std@@V?$allocator@_W@2@@std@@@2@@std@@@Z$5
9DB66 283 __unwindfunclet$?bulk_test@Plugin@@SAXABV?$vector@V?$basic_string@_WU?$char_traits@_W@std@@V?$allocator@_W@2@@std@@V?$allocator@V?$basic_string@_WU?$char_traits@_W@std@@V?$allocator@_W@2@@std@@@2@@std@@@Z$28
9DB71 283 __unwindfunclet$?bulk_test@Plugin@@SAXABV?$vector@V?$basic_string@_WU?$char_traits@_W@std@@V?$allocator@_W@2@@std@@V?$allocator@V?$basic_string@_WU?$char_traits@_W@std@@V?$allocator@_W@2@@std@@@2@@std@@@Z$29
9DB7C 283 __unwindfunclet$?bulk_test@Plugin@@SAXABV?$vector@V?$basic_string@_WU?$char_traits@_W@std@@V?$allocator@_W@2@@std@@V?$allocator@V?$basic_string@_WU?$char_traits@_W@std@@V?$allocator@_W@2@@std@@@2@@std@@@Z$6
9DB87 283 __unwindfunclet$?bulk_test@Plugin@@SAXABV?$vector@V?$basic_string@_WU?$char_traits@_W@std@@V?$allocator@_W@2@@std@@V?$allocator@V?$basic_string@_WU?$char_traits@_W@std@@V?$allocator@_W@2@@std@@@2@@std@@@Z$8
9DB9A 283 __unwindfunclet$?bulk_test@Plugin@@SAXABV?$vector@V?$basic_string@_WU?$char_traits@_W@std@@V?$allocator@_W@2@@std@@V?$allocator@V?$basic_string@_WU?$char_traits@_W@std@@V?$allocator@_W@2@@std@@@2@@std@@@Z$33
9DBA2 283 __unwindfunclet$?bulk_test@Plugin@@SAXABV?$vector@V?$basic_string@_WU?$char_traits@_W@std@@V?$allocator@_W@2@@std@@V?$allocator@V?$basic_string@_WU?$char_traits@_W@std@@V?$allocator@_W@2@@std@@@2@@std@@@Z$19
9DBAD 283 __unwindfunclet$?bulk_test@Plugin@@SAXABV?$vector@V?$basic_string@_WU?$char_traits@_W@std@@V?$allocator@_W@2@@std@@V?$allocator@V?$basic_string@_WU?$char_traits@_W@std@@V?$allocator@_W@2@@std@@@2@@std@@@Z$9
9DBB8 283 __unwindfunclet$?bulk_test@Plugin@@SAXABV?$vector@V?$basic_string@_WU?$char_traits@_W@std@@V?$allocator@_W@2@@std@@V?$allocator@V?$basic_string@_WU?$char_traits@_W@std@@V?$allocator@_W@2@@std@@@2@@std@@@Z$35
9DBDA 283 __unwindfunclet$?bulk_test@Plugin@@SAXABV?$vector@V?$basic_string@_WU?$char_traits@_W@std@@V?$allocator@_W@2@@std@@V?$allocator@V?$basic_string@_WU?$char_traits@_W@std@@V?$allocator@_W@2@@std@@@2@@std@@@Z$13
9DBE5 283 __unwindfunclet$?bulk_test@Plugin@@SAXABV?$vector@V?$basic_string@_WU?$char_traits@_W@std@@V?$allocator@_W@2@@std@@V?$allocator@V?$basic_string@_WU?$char_traits@_W@std@@V?$allocator@_W@2@@std@@@2@@std@@@Z$43
9DC07 283 __unwindfunclet$?bulk_test@Plugin@@SAXABV?$vector@V?$basic_string@_WU?$char_traits@_W@std@@V?$allocator@_W@2@@std@@V?$allocator@V?$basic_string@_WU?$char_traits@_W@std@@V?$allocator@_W@2@@std@@@2@@std@@@Z$44
9DC29 283 __unwindfunclet$?bulk_test@Plugin@@SAXABV?$vector@V?$basic_string@_WU?$char_traits@_W@std@@V?$allocator@_W@2@@std@@V?$allocator@V?$basic_string@_WU?$char_traits@_W@std@@V?$allocator@_W@2@@std@@@2@@std@@@Z$16
9DC31 283 __unwindfunclet$?bulk_test@Plugin@@SAXABV?$vector@V?$basic_string@_WU?$char_traits@_W@std@@V?$allocator@_W@2@@std@@V?$allocator@V?$basic_string@_WU?$char_traits@_W@std@@V?$allocator@_W@2@@std@@@2@@std@@@Z$17
9DC39 283 __unwindfunclet$?bulk_test@Plugin@@SAXABV?$vector@V?$basic_string@_WU?$char_traits@_W@std@@V?$allocator@_W@2@@std@@V?$allocator@V?$basic_string@_WU?$char_traits@_W@std@@V?$allocator@_W@2@@std@@@2@@std@@@Z$18
9DC41 283 __unwindfunclet$?bulk_test@Plugin@@SAXABV?$vector@V?$basic_string@_WU?$char_traits@_W@std@@V?$allocator@_W@2@@std@@V?$allocator@V?$basic_string@_WU?$char_traits@_W@std@@V?$allocator@_W@2@@std@@@2@@std@@@Z$12
9DC51 283 __ehhandler$?bulk_test@Plugin@@SAXABV?$vector@V?$basic_string@_WU?$char_traits@_W@std@@V?$allocator@_W@2@@std@@V?$allocator@V?$basic_string@_WU?$char_traits@_W@std@@V?$allocator@_W@2@@std@@@2@@std@@@Z
9DC80 283 __unwindfunclet$?cmdline_test@Plugin@@SAXABUTestCommand@@@Z$0
9DC8D 283 __ehhandler$?cmdline_test@Plugin@@SAXABUTestCommand@@@Z
9DCB0 283 __unwindfunclet$?put_files@Plugin@@QAEXPBUPluginPanelItem@@HHPB_W_K@Z$0
9DCBB 283 __unwindfunclet$?put_files@Plugin@@QAEXPBUPluginPanelItem@@HHPB_W_K@Z$14
9DCC6 283 __unwindfunclet$?put_files@Plugin@@QAEXPBUPluginPanelItem@@HHPB_W_K@Z$4
9DCCE 283 __unwindfunclet$?put_files@Plugin@@QAEXPBUPluginPanelItem@@HHPB_W_K@Z$6
9DCD6 283 __unwindfunclet$?put_files@Plugin@@QAEXPBUPluginPanelItem@@HHPB_W_K@Z$7
9DCF8 283 __unwindfunclet$?put_files@Plugin@@QAEXPBUPluginPanelItem@@HHPB_W_K@Z$8
9DD1A 283 __unwindfunclet$?put_files@Plugin@@QAEXPBUPluginPanelItem@@HHPB_W_K@Z$9
9DD3C 283 __unwindfunclet$?put_files@Plugin@@QAEXPBUPluginPanelItem@@HHPB_W_K@Z$10
9DD44 283 __unwindfunclet$?put_files@Plugin@@QAEXPBUPluginPanelItem@@HHPB_W_K@Z$11
9DD4C 283 __unwindfunclet$?put_files@Plugin@@QAEXPBUPluginPanelItem@@HHPB_W_K@Z$13
9DD57 283 __unwindfunclet$?put_files@Plugin@@QAEXPBUPluginPanelItem@@HHPB_W_K@Z$37
9DD62 283 __unwindfunclet$?put_files@Plugin@@QAEXPBUPluginPanelItem@@HHPB_W_K@Z$15
9DD6D 283 __unwindfunclet$?put_files@Plugin@@QAEXPBUPluginPanelItem@@HHPB_W_K@Z$16
9DD78 283 __unwindfunclet$?put_files@Plugin@@QAEXPBUPluginPanelItem@@HHPB_W_K@Z$17
9DD83 283 __unwindfunclet$?put_files@Plugin@@QAEXPBUPluginPanelItem@@HHPB_W_K@Z$18
9DD8E 283 __unwindfunclet$?put_files@Plugin@@QAEXPBUPluginPanelItem@@HHPB_W_K@Z$19
9DD99 283 __unwindfunclet$?put_files@Plugin@@QAEXPBUPluginPanelItem@@HHPB_W_K@Z$20
9DDA1 283 __unwindfunclet$?put_files@Plugin@@QAEXPBUPluginPanelItem@@HHPB_W_K@Z$21
9DDAC 283 __unwindfunclet$?put_files@Plugin@@QAEXPBUPluginPanelItem@@HHPB_W_K@Z$22
9DDB4 283 __unwindfunclet$?put_files@Plugin@@QAEXPBUPluginPanelItem@@HHPB_W_K@Z$23
9DDBC 283 __unwindfunclet$?put_files@Plugin@@QAEXPBUPluginPanelItem@@HHPB_W_K@Z$24
9DDC4 283 __unwindfunclet$?put_files@Plugin@@QAEXPBUPluginPanelItem@@HHPB_W_K@Z$25
9DDCF 283 __unwindfunclet$?put_files@Plugin@@QAEXPBUPluginPanelItem@@HHPB_W_K@Z$26
9DDD7 283 __unwindfunclet$?put_files@Plugin@@QAEXPBUPluginPanelItem@@HHPB_W_K@Z$27
9DDDF 283 __unwindfunclet$?put_files@Plugin@@QAEXPBUPluginPanelItem@@HHPB_W_K@Z$42
9DDF1 283 __unwindfunclet$?put_files@Plugin@@QAEXPBUPluginPanelItem@@HHPB_W_K@Z$29
9DDFC 283 __unwindfunclet$?put_files@Plugin@@QAEXPBUPluginPanelItem@@HHPB_W_K@Z$31
9DE04 283 __unwindfunclet$?put_files@Plugin@@QAEXPBUPluginPanelItem@@HHPB_W_K@Z$33
9DE0F 283 __unwindfunclet$?put_files@Plugin@@QAEXPBUPluginPanelItem@@HHPB_W_K@Z$34
9DE17 283 __unwindfunclet$?put_files@Plugin@@QAEXPBUPluginPanelItem@@HHPB_W_K@Z$35
9DE22 283 __unwindfunclet$?put_files@Plugin@@QAEXPBUPluginPanelItem@@HHPB_W_K@Z$1
9DE32 283 __ehhandler$?put_files@Plugin@@QAEXPBUPluginPanelItem@@HHPB_W_K@Z
9DE60 283 __unwindfunclet$?create_archive@Plugin@@SAXXZ$0
9DE6B 283 __unwindfunclet$?create_archive@Plugin@@SAXXZ$1
9DE73 283 __unwindfunclet$?create_archive@Plugin@@SAXXZ$2
9DE7E 283 __unwindfunclet$?create_archive@Plugin@@SAXXZ$3
9DE89 283 __unwindfunclet$?create_archive@Plugin@@SAXXZ$5
9DE94 283 __unwindfunclet$?create_archive@Plugin@@SAXXZ$23
9DE9F 283 __unwindfunclet$?create_archive@Plugin@@SAXXZ$6
9DEA7 283 __unwindfunclet$?create_archive@Plugin@@SAXXZ$31
9DEB2 283 __unwindfunclet$?create_archive@Plugin@@SAXXZ$7
9DEBA 283 __unwindfunclet$?create_archive@Plugin@@SAXXZ$8
9DEC2 283 __unwindfunclet$?create_archive@Plugin@@SAXXZ$9
9DECD 283 __unwindfunclet$?create_archive@Plugin@@SAXXZ$10
9DED5 283 __unwindfunclet$?create_archive@Plugin@@SAXXZ$11
9DEDD 283 __unwindfunclet$?create_archive@Plugin@@SAXXZ$12
9DEE8 283 __unwindfunclet$?create_archive@Plugin@@SAXXZ$13
9DEF3 283 __unwindfunclet$?create_archive@Plugin@@SAXXZ$15
9DEFB 283 __unwindfunclet$?create_archive@Plugin@@SAXXZ$16
9DF03 283 __unwindfunclet$?create_archive@Plugin@@SAXXZ$17
9DF0E 283 __unwindfunclet$?create_archive@Plugin@@SAXXZ$19
9DF16 283 __unwindfunclet$?create_archive@Plugin@@SAXXZ$20
9DF1E 283 __unwindfunclet$?create_archive@Plugin@@SAXXZ$21
9DF2E 283 __ehhandler$?create_archive@Plugin@@SAXXZ
9DF60 283 __unwindfunclet$?cmdline_update@Plugin@@SAXABUUpdateCommand@@@Z$31
9DF6B 283 __unwindfunclet$?cmdline_update@Plugin@@SAXABUUpdateCommand@@@Z$0
9DF76 283 __unwindfunclet$?cmdline_update@Plugin@@SAXABUUpdateCommand@@@Z$2
9DF81 283 __unwindfunclet$?cmdline_update@Plugin@@SAXABUUpdateCommand@@@Z$3
9DF89 283 __unwindfunclet$?cmdline_update@Plugin@@SAXABUUpdateCommand@@@Z$4
9DF91 283 __unwindfunclet$?cmdline_update@Plugin@@SAXABUUpdateCommand@@@Z$5
9DF9C 283 __unwindfunclet$?cmdline_update@Plugin@@SAXABUUpdateCommand@@@Z$6
9DFA4 283 __unwindfunclet$?cmdline_update@Plugin@@SAXABUUpdateCommand@@@Z$27
9DFAF 283 __unwindfunclet$?cmdline_update@Plugin@@SAXABUUpdateCommand@@@Z$8
9DFBA 283 __unwindfunclet$?cmdline_update@Plugin@@SAXABUUpdateCommand@@@Z$9
9DFC5 283 __unwindfunclet$?cmdline_update@Plugin@@SAXABUUpdateCommand@@@Z$11
9DFCD 283 __unwindfunclet$?cmdline_update@Plugin@@SAXABUUpdateCommand@@@Z$12
9DFD8 283 __unwindfunclet$?cmdline_update@Plugin@@SAXABUUpdateCommand@@@Z$13
9DFE3 283 __unwindfunclet$?cmdline_update@Plugin@@SAXABUUpdateCommand@@@Z$15
9DFEB 283 __unwindfunclet$?cmdline_update@Plugin@@SAXABUUpdateCommand@@@Z$16
9DFF6 283 __unwindfunclet$?cmdline_update@Plugin@@SAXABUUpdateCommand@@@Z$17
9E001 283 __unwindfunclet$?cmdline_update@Plugin@@SAXABUUpdateCommand@@@Z$19
9E00C 283 __unwindfunclet$?cmdline_update@Plugin@@SAXABUUpdateCommand@@@Z$21
9E017 283 __unwindfunclet$?cmdline_update@Plugin@@SAXABUUpdateCommand@@@Z$23
9E022 283 __unwindfunclet$?cmdline_update@Plugin@@SAXABUUpdateCommand@@@Z$24
9E02A 283 __unwindfunclet$?cmdline_update@Plugin@@SAXABUUpdateCommand@@@Z$25
9E032 283 __unwindfunclet$?cmdline_update@Plugin@@SAXABUUpdateCommand@@@Z$7
9E03A 283 __unwindfunclet$?cmdline_update@Plugin@@SAXABUUpdateCommand@@@Z$22
9E047 283 __ehhandler$?cmdline_update@Plugin@@SAXABUUpdateCommand@@@Z
9E080 283 __unwindfunclet$?delete_files@Plugin@@QAEXPBUPluginPanelItem@@H_K@Z$2
9E088 283 __unwindfunclet$?delete_files@Plugin@@QAEXPBUPluginPanelItem@@H_K@Z$3
9E090 283 __unwindfunclet$?delete_files@Plugin@@QAEXPBUPluginPanelItem@@H_K@Z$4
9E09B 283 __unwindfunclet$?delete_files@Plugin@@QAEXPBUPluginPanelItem@@H_K@Z$5
9E0A3 283 __unwindfunclet$?delete_files@Plugin@@QAEXPBUPluginPanelItem@@H_K@Z$6
9E0AB 283 __unwindfunclet$?delete_files@Plugin@@QAEXPBUPluginPanelItem@@H_K@Z$1
9E0B3 283 __unwindfunclet$?delete_files@Plugin@@QAEXPBUPluginPanelItem@@H_K@Z$0
9E0C0 283 __ehhandler$?delete_files@Plugin@@QAEXPBUPluginPanelItem@@H_K@Z
9E0F0 283 __unwindfunclet$?create_dir@Plugin@@QAEXPAPB_W_K@Z$1
9E0F8 283 __unwindfunclet$?create_dir@Plugin@@QAEXPAPB_W_K@Z$2
9E100 283 __unwindfunclet$?create_dir@Plugin@@QAEXPAPB_W_K@Z$3
9E108 283 __unwindfunclet$?create_dir@Plugin@@QAEXPAPB_W_K@Z$0
9E115 283 __ehhandler$?create_dir@Plugin@@QAEXPAPB_W_K@Z
9E140 283 __unwindfunclet$?show_attr@Plugin@@QAEXXZ$0
9E14B 283 __unwindfunclet$?show_attr@Plugin@@QAEXXZ$1
9E156 283 __unwindfunclet$?show_attr@Plugin@@QAEXXZ$6
9E15E 283 __unwindfunclet$?show_attr@Plugin@@QAEXXZ$5
9E16E 283 __ehhandler$?show_attr@Plugin@@QAEXXZ
9E1A0 283 __unwindfunclet$_GetPluginInfoW@4$5
9E1A8 283 __unwindfunclet$_GetPluginInfoW@4$6
9E1B0 283 __unwindfunclet$_GetPluginInfoW@4$7
9E1BD 283 __ehhandler$_GetPluginInfoW@4
9E1F0 283 __unwindfunclet$?analyse_open@@YAPAXPBUAnalyseInfo@@_N@Z$15
9E1FB 283 __unwindfunclet$?analyse_open@@YAPAXPBUAnalyseInfo@@_N@Z$0
9E206 283 __unwindfunclet$?analyse_open@@YAPAXPBUAnalyseInfo@@_N@Z$1
9E211 283 __unwindfunclet$?analyse_open@@YAPAXPBUAnalyseInfo@@_N@Z$3
9E230 283 __unwindfunclet$?analyse_open@@YAPAXPBUAnalyseInfo@@_N@Z$4
9E24F 283 __unwindfunclet$?analyse_open@@YAPAXPBUAnalyseInfo@@_N@Z$5
9E26E 283 __unwindfunclet$?analyse_open@@YAPAXPBUAnalyseInfo@@_N@Z$6
9E28D 283 __unwindfunclet$?analyse_open@@YAPAXPBUAnalyseInfo@@_N@Z$7
9E298 283 __unwindfunclet$?analyse_open@@YAPAXPBUAnalyseInfo@@_N@Z$8
9E2A0 283 __unwindfunclet$?analyse_open@@YAPAXPBUAnalyseInfo@@_N@Z$9
9E2AB 283 __unwindfunclet$?analyse_open@@YAPAXPBUAnalyseInfo@@_N@Z$10
9E2B6 283 __unwindfunclet$?analyse_open@@YAPAXPBUAnalyseInfo@@_N@Z$11
9E2BE 283 __unwindfunclet$?analyse_open@@YAPAXPBUAnalyseInfo@@_N@Z$12
9E2CE 283 __ehhandler$?analyse_open@@YAPAXPBUAnalyseInfo@@_N@Z
9E300 283 __ehhandler$_AnalyseW@4
9E320 283 __unwindfunclet$_OpenW@4$9
9E32B 283 __unwindfunclet$_OpenW@4$10
9E333 283 __unwindfunclet$_OpenW@4$11
9E33B 283 __unwindfunclet$_OpenW@4$12
9E343 283 __unwindfunclet$_OpenW@4$13
9E34B 283 __unwindfunclet$_OpenW@4$14
9E353 283 __unwindfunclet$_OpenW@4$15
9E35B 283 __unwindfunclet$_OpenW@4$16
9E363 283 __unwindfunclet$_OpenW@4$25
9E36B 283 __unwindfunclet$_OpenW@4$26
9E373 283 __unwindfunclet$_OpenW@4$27
9E37E 283 __unwindfunclet$_OpenW@4$28
9E386 283 __unwindfunclet$_OpenW@4$29
9E38E 283 __unwindfunclet$_OpenW@4$109
9E399 283 __unwindfunclet$_OpenW@4$17
9E3A4 283 __unwindfunclet$_OpenW@4$18
9E3AF 283 __unwindfunclet$_OpenW@4$20
9E3B7 283 __unwindfunclet$_OpenW@4$21
9E3BF 283 __unwindfunclet$_OpenW@4$24
9E3CA 283 __unwindfunclet$_OpenW@4$19
9E3D2 283 __unwindfunclet$_OpenW@4$30
9E3DA 283 __unwindfunclet$_OpenW@4$31
9E3E5 283 __unwindfunclet$_OpenW@4$32
9E3F0 283 __unwindfunclet$_OpenW@4$33
9E3FB 283 __unwindfunclet$_OpenW@4$35
9E406 283 __unwindfunclet$_OpenW@4$36
9E411 283 __unwindfunclet$_OpenW@4$37
9E41C 283 __unwindfunclet$_OpenW@4$38
9E427 283 __unwindfunclet$_OpenW@4$39
9E432 283 __unwindfunclet$_OpenW@4$40
9E43A 283 __unwindfunclet$_OpenW@4$41
9E442 283 __unwindfunclet$_OpenW@4$42
9E44D 283 __unwindfunclet$_OpenW@4$43
9E458 283 __unwindfunclet$_OpenW@4$44
9E463 283 __unwindfunclet$_OpenW@4$45
9E46E 283 __unwindfunclet$_OpenW@4$46
9E479 283 __unwindfunclet$_OpenW@4$47
9E481 283 __unwindfunclet$_OpenW@4$48
9E48C 283 __unwindfunclet$_OpenW@4$49
9E4A1 283 __unwindfunclet$_OpenW@4$50
9E4AC 283 __unwindfunclet$_OpenW@4$52
9E4B7 283 __unwindfunclet$_OpenW@4$53
9E4BF 283 __unwindfunclet$_OpenW@4$54
9E4CA 283 __unwindfunclet$_OpenW@4$55
9E4D7 283 __ehhandler$_OpenW@4
9E510 283 __ehhandler$_ClosePanelW@4
9E530 283 __unwindfunclet$_GetOpenPanelInfoW@4$5
9E538 283 __unwindfunclet$_GetOpenPanelInfoW@4$6
9E540 283 __unwindfunclet$_GetOpenPanelInfoW@4$7
9E548 283 __unwindfunclet$_GetOpenPanelInfoW@4$8
9E555 283 __ehhandler$_GetOpenPanelInfoW@4
9E580 283 __unwindfunclet$_SetDirectoryW@4$5
9E588 283 __unwindfunclet$_SetDirectoryW@4$6
9E590 283 __unwindfunclet$_SetDirectoryW@4$7
9E598 283 __unwindfunclet$_SetDirectoryW@4$8
9E5A5 283 __ehhandler$_SetDirectoryW@4
9E5D0 283 __unwindfunclet$_GetFindDataW@4$5
9E5D8 283 __unwindfunclet$_GetFindDataW@4$6
9E5E0 283 __unwindfunclet$_GetFindDataW@4$7
9E5ED 283 __ehhandler$_GetFindDataW@4
9E620 283 __ehhandler$_FreeFindDataW@4
9E640 283 __unwindfunclet$_GetFilesW@4$5
9E648 283 __unwindfunclet$_GetFilesW@4$6
9E650 283 __unwindfunclet$_GetFilesW@4$7
9E65D 283 __ehhandler$_GetFilesW@4
9E690 283 __unwindfunclet$_PutFilesW@4$5
9E698 283 __unwindfunclet$_PutFilesW@4$6
9E6A0 283 __unwindfunclet$_PutFilesW@4$7
9E6AD 283 __ehhandler$_PutFilesW@4
9E6E0 283 __unwindfunclet$_DeleteFilesW@4$5
9E6E8 283 __unwindfunclet$_DeleteFilesW@4$6
9E6F0 283 __unwindfunclet$_DeleteFilesW@4$7
9E6FD 283 __ehhandler$_DeleteFilesW@4
9E730 283 __unwindfunclet$_MakeDirectoryW@4$5
9E738 283 __unwindfunclet$_MakeDirectoryW@4$6
9E740 283 __unwindfunclet$_MakeDirectoryW@4$7
9E74D 283 __ehhandler$_MakeDirectoryW@4
9E780 283 __unwindfunclet$_ProcessHostFileW@4$5
9E788 283 __unwindfunclet$_ProcessHostFileW@4$6
9E790 283 __unwindfunclet$_ProcessHostFileW@4$7
9E798 283 __unwindfunclet$_ProcessHostFileW@4$8
9E7A0 283 __unwindfunclet$_ProcessHostFileW@4$9
9E7A8 283 __unwindfunclet$_ProcessHostFileW@4$10
9E7B5 283 __ehhandler$_ProcessHostFileW@4
9E7E0 283 __unwindfunclet$_ProcessPanelInputW@4$12
9E7E8 283 __unwindfunclet$_ProcessPanelInputW@4$10
9E7F3 283 __unwindfunclet$_ProcessPanelInputW@4$11
9E7FB 283 __unwindfunclet$_ProcessPanelInputW@4$5
9E806 283 __unwindfunclet$_ProcessPanelInputW@4$6
9E80E 283 __unwindfunclet$_ProcessPanelInputW@4$7
9E819 283 __unwindfunclet$_ProcessPanelInputW@4$8
9E821 283 __unwindfunclet$_ProcessPanelInputW@4$13
9E82E 283 __ehhandler$_ProcessPanelInputW@4
9E860 283 __unwindfunclet$_ConfigureW@4$5
9E86B 283 __unwindfunclet$_ConfigureW@4$6
9E876 283 __unwindfunclet$_ConfigureW@4$7
9E881 283 __unwindfunclet$_ConfigureW@4$8
9E891 283 __ehhandler$_ConfigureW@4
9E8C0 283 __unwindfunclet$??$for_each@V?$_Vector_const_iterator@V?$_Vector_val@U?$_Simple_types@I@std@@@std@@@std@@V<lambda_1>@?1??list@Plugin@@QAEXPAPAUPluginPanelItem@@PAI@Z@@std@@YA?AV<lambda_1>@?1??list@Plugin@@QAEXPAPAUPluginPanelItem@@PAI@Z@V?$_Vector_const_iterator@V?$_Vector_val@U?$_Simple_types@I@std@@@std@@@0@2V1?1??23@QAEX01@Z@@Z$0
9E8CD 283 __ehhandler$??$for_each@V?$_Vector_const_iterator@V?$_Vector_val@U?$_Simple_types@I@std@@@std@@@std@@V<lambda_1>@?1??list@Plugin@@QAEXPAPAUPluginPanelItem@@PAI@Z@@std@@YA?AV<lambda_1>@?1??list@Plugin@@QAEXPAPAUPluginPanelItem@@PAI@Z@V?$_Vector_const_iterator@V?$_Vector_val@U?$_Simple_types@I@std@@@std@@@0@2V1?1??23@QAEX01@Z@@Z
9E8F0 283 __unwindfunclet$??$make_shared@V?$list@UError@@V?$allocator@UError@@@std@@@std@@$$V@std@@YA?AV?$shared_ptr@V?$list@UError@@V?$allocator@UError@@@std@@@std@@@0@XZ$0
9E904 283 __ehhandler$??$make_shared@V?$list@UError@@V?$allocator@UError@@@std@@@std@@$$V@std@@YA?AV?$shared_ptr@V?$list@UError@@V?$allocator@UError@@@std@@@std@@@0@XZ
9E930 283 __unwindfunclet$??$for_each@V?$_Vector_const_iterator@V?$_Vector_val@U?$_Simple_types@V?$basic_string@_WU?$char_traits@_W@std@@V?$allocator@_W@2@@std@@@std@@@std@@@std@@V<lambda_2>@?1??cmdline_update@Plugin@@SAXABUUpdateCommand@@@Z@@std@@YA?AV<lambda_2>@?1??cmdline_update@Plugin@@SAXABUUpdateCommand@@@Z@V?$_Vector_const_iterator@V?$_Vector_val@U?$_Simple_types@V?$basic_string@_WU?$char_traits@_W@std@@V?$allocator@_W@2@@std@@@std@@@std@@@0@1V1?1??23@SAX0@Z@@Z$0
9E938 283 __unwindfunclet$??$for_each@V?$_Vector_const_iterator@V?$_Vector_val@U?$_Simple_types@V?$basic_string@_WU?$char_traits@_W@std@@V?$allocator@_W@2@@std@@@std@@@std@@@std@@V<lambda_2>@?1??cmdline_update@Plugin@@SAXABUUpdateCommand@@@Z@@std@@YA?AV<lambda_2>@?1??cmdline_update@Plugin@@SAXABUUpdateCommand@@@Z@V?$_Vector_const_iterator@V?$_Vector_val@U?$_Simple_types@V?$basic_string@_WU?$char_traits@_W@std@@V?$allocator@_W@2@@std@@@std@@@std@@@0@1V1?1??23@SAX0@Z@@Z$1
9E940 283 __unwindfunclet$??$for_each@V?$_Vector_const_iterator@V?$_Vector_val@U?$_Simple_types@V?$basic_string@_WU?$char_traits@_W@std@@V?$allocator@_W@2@@std@@@std@@@std@@@std@@V<lambda_2>@?1??cmdline_update@Plugin@@SAXABUUpdateCommand@@@Z@@std@@YA?AV<lambda_2>@?1??cmdline_update@Plugin@@SAXABUUpdateCommand@@@Z@V?$_Vector_const_iterator@V?$_Vector_val@U?$_Simple_types@V?$basic_string@_WU?$char_traits@_W@std@@V?$allocator@_W@2@@std@@@std@@@std@@@0@1V1?1??23@SAX0@Z@@Z$2
9E948 283 __unwindfunclet$??$for_each@V?$_Vector_const_iterator@V?$_Vector_val@U?$_Simple_types@V?$basic_string@_WU?$char_traits@_W@std@@V?$allocator@_W@2@@std@@@std@@@std@@@std@@V<lambda_2>@?1??cmdline_update@Plugin@@SAXABUUpdateCommand@@@Z@@std@@YA?AV<lambda_2>@?1??cmdline_update@Plugin@@SAXABUUpdateCommand@@@Z@V?$_Vector_const_iterator@V?$_Vector_val@U?$_Simple_types@V?$basic_string@_WU?$char_traits@_W@std@@V?$allocator@_W@2@@std@@@std@@@std@@@0@1V1?1??23@SAX0@Z@@Z$4
9E955 283 __ehhandler$??$for_each@V?$_Vector_const_iterator@V?$_Vector_val@U?$_Simple_types@V?$basic_string@_WU?$char_traits@_W@std@@V?$allocator@_W@2@@std@@@std@@@std@@@std@@V<lambda_2>@?1??cmdline_update@Plugin@@SAXABUUpdateCommand@@@Z@@std@@YA?AV<lambda_2>@?1??cmdline_update@Plugin@@SAXABUUpdateCommand@@@Z@V?$_Vector_const_iterator@V?$_Vector_val@U?$_Simple_types@V?$basic_string@_WU?$char_traits@_W@std@@V?$allocator@_W@2@@std@@@std@@@std@@@0@1V1?1??23@SAX0@Z@@Z
9E980 283 __unwindfunclet$??$for_each@V?$_Vector_iterator@V?$_Vector_val@U?$_Simple_types@V?$basic_string@_WU?$char_traits@_W@std@@V?$allocator@_W@2@@std@@@std@@@std@@@std@@V<lambda_3>@?1??cmdline_update@Plugin@@SAXABUUpdateCommand@@@Z@@std@@YA?AV<lambda_3>@?1??cmdline_update@Plugin@@SAXABUUpdateCommand@@@Z@V?$_Vector_iterator@V?$_Vector_val@U?$_Simple_types@V?$basic_string@_WU?$char_traits@_W@std@@V?$allocator@_W@2@@std@@@std@@@std@@@0@1V1?1??23@SAX0@Z@@Z$3
9E988 283 __unwindfunclet$??$for_each@V?$_Vector_iterator@V?$_Vector_val@U?$_Simple_types@V?$basic_string@_WU?$char_traits@_W@std@@V?$allocator@_W@2@@std@@@std@@@std@@@std@@V<lambda_3>@?1??cmdline_update@Plugin@@SAXABUUpdateCommand@@@Z@@std@@YA?AV<lambda_3>@?1??cmdline_update@Plugin@@SAXABUUpdateCommand@@@Z@V?$_Vector_iterator@V?$_Vector_val@U?$_Simple_types@V?$basic_string@_WU?$char_traits@_W@std@@V?$allocator@_W@2@@std@@@std@@@std@@@0@1V1?1??23@SAX0@Z@@Z$10
9E995 283 __ehhandler$??$for_each@V?$_Vector_iterator@V?$_Vector_val@U?$_Simple_types@V?$basic_string@_WU?$char_traits@_W@std@@V?$allocator@_W@2@@std@@@std@@@std@@@std@@V<lambda_3>@?1??cmdline_update@Plugin@@SAXABUUpdateCommand@@@Z@@std@@YA?AV<lambda_3>@?1??cmdline_update@Plugin@@SAXABUUpdateCommand@@@Z@V?$_Vector_iterator@V?$_Vector_val@U?$_Simple_types@V?$basic_string@_WU?$char_traits@_W@std@@V?$allocator@_W@2@@std@@@std@@@std@@@0@1V1?1??23@SAX0@Z@@Z
9E9C0 283 __unwindfunclet$??$_Emplace@ABUError@@@?$list@UError@@V?$allocator@UError@@@std@@@std@@QAEPAU?$_List_node@UError@@PAX@1@QAU21@ABUError@@@Z$1
9E9C8 283 __unwindfunclet$??$_Emplace@ABUError@@@?$list@UError@@V?$allocator@UError@@@std@@@std@@QAEPAU?$_List_node@UError@@PAX@1@QAU21@ABUError@@@Z$2
9E9D3 283 __unwindfunclet$??$_Emplace@ABUError@@@?$list@UError@@V?$allocator@UError@@@std@@@std@@QAEPAU?$_List_node@UError@@PAX@1@QAU21@ABUError@@@Z$3
9E9E3 283 __ehhandler$??$_Emplace@ABUError@@@?$list@UError@@V?$allocator@UError@@@std@@@std@@QAEPAU?$_List_node@UError@@PAX@1@QAU21@ABUError@@@Z
9EA00 283 __unwindfunclet$??$_Assign_unchecked@V?$_List_unchecked_const_iterator@V?$_List_val@U?$_List_simple_types@UAttr@@@std@@@std@@U_Iterator_base0@2@@std@@V12@@?$list@UAttr@@V?$allocator@UAttr@@@std@@@std@@AAEXV?$_List_unchecked_const_iterator@V?$_List_val@U?$_List_simple_types@UAttr@@@std@@@std@@U_Iterator_base0@2@@1@V21@@Z$0
9EA08 283 __unwindfunclet$??$_Assign_unchecked@V?$_List_unchecked_const_iterator@V?$_List_val@U?$_List_simple_types@UAttr@@@std@@@std@@U_Iterator_base0@2@@std@@V12@@?$list@UAttr@@V?$allocator@UAttr@@@std@@@std@@AAEXV?$_List_unchecked_const_iterator@V?$_List_val@U?$_List_simple_types@UAttr@@@std@@@std@@U_Iterator_base0@2@@1@V21@@Z$1
9EA10 283 __unwindfunclet$??$_Assign_unchecked@V?$_List_unchecked_const_iterator@V?$_List_val@U?$_List_simple_types@UAttr@@@std@@@std@@U_Iterator_base0@2@@std@@V12@@?$list@UAttr@@V?$allocator@UAttr@@@std@@@std@@AAEXV?$_List_unchecked_const_iterator@V?$_List_val@U?$_List_simple_types@UAttr@@@std@@@std@@U_Iterator_base0@2@@1@V21@@Z$4
9EA18 283 __unwindfunclet$??$_Assign_unchecked@V?$_List_unchecked_const_iterator@V?$_List_val@U?$_List_simple_types@UAttr@@@std@@@std@@U_Iterator_base0@2@@std@@V12@@?$list@UAttr@@V?$allocator@UAttr@@@std@@@std@@AAEXV?$_List_unchecked_const_iterator@V?$_List_val@U?$_List_simple_types@UAttr@@@std@@@std@@U_Iterator_base0@2@@1@V21@@Z$2
9EA25 283 __ehhandler$??$_Assign_unchecked@V?$_List_unchecked_const_iterator@V?$_List_val@U?$_List_simple_types@UAttr@@@std@@@std@@U_Iterator_base0@2@@std@@V12@@?$list@UAttr@@V?$allocator@UAttr@@@std@@@std@@AAEXV?$_List_unchecked_const_iterator@V?$_List_val@U?$_List_simple_types@UAttr@@@std@@@std@@U_Iterator_base0@2@@1@V21@@Z
9EA50 283 __unwindfunclet$??$?0ABV?$basic_string@_WU?$char_traits@_W@std@@V?$allocator@_W@2@@std@@@?$_Tree_temp_node@V?$allocator@U?$_Tree_node@V?$basic_string@_WU?$char_traits@_W@std@@V?$allocator@_W@2@@std@@PAX@std@@@std@@@std@@QAE@AAV?$allocator@U?$_Tree_node@V?$basic_string@_WU?$char_traits@_W@std@@V?$allocator@_W@2@@std@@PAX@std@@@1@PAU?$_Tree_node@V?$basic_string@_WU?$char_traits@_W@std@@V?$allocator@_W@2@@std@@PAX@1@ABV?$basic_string@_WU?$char_traits@_W@std@@V?$allocator@_W@2@@1@@Z$1
9EA58 283 __unwindfunclet$??$?0ABV?$basic_string@_WU?$char_traits@_W@std@@V?$allocator@_W@2@@std@@@?$_Tree_temp_node@V?$allocator@U?$_Tree_node@V?$basic_string@_WU?$char_traits@_W@std@@V?$allocator@_W@2@@std@@PAX@std@@@std@@@std@@QAE@AAV?$allocator@U?$_Tree_node@V?$basic_string@_WU?$char_traits@_W@std@@V?$allocator@_W@2@@std@@PAX@std@@@1@PAU?$_Tree_node@V?$basic_string@_WU?$char_traits@_W@std@@V?$allocator@_W@2@@std@@PAX@1@ABV?$basic_string@_WU?$char_traits@_W@std@@V?$allocator@_W@2@@1@@Z$0
9EA65 283 __ehhandler$??$?0ABV?$basic_string@_WU?$char_traits@_W@std@@V?$allocator@_W@2@@std@@@?$_Tree_temp_node@V?$allocator@U?$_Tree_node@V?$basic_string@_WU?$char_traits@_W@std@@V?$allocator@_W@2@@std@@PAX@std@@@std@@@std@@QAE@AAV?$allocator@U?$_Tree_node@V?$basic_string@_WU?$char_traits@_W@std@@V?$allocator@_W@2@@std@@PAX@std@@@1@PAU?$_Tree_node@V?$basic_string@_WU?$char_traits@_W@std@@V?$allocator@_W@2@@std@@PAX@1@ABV?$basic_string@_WU?$char_traits@_W@std@@V?$allocator@_W@2@@1@@Z
9EA90 284 __unwindfunclet$?load_icon_file@@YA?AV?$list@UIconImage@@V?$allocator@UIconImage@@@std@@@std@@ABV?$basic_string@_WU?$char_traits@_W@std@@V?$allocator@_W@2@@2@@Z$0
9EAB2 284 __unwindfunclet$?load_icon_file@@YA?AV?$list@UIconImage@@V?$allocator@UIconImage@@@std@@@std@@ABV?$basic_string@_WU?$char_traits@_W@std@@V?$allocator@_W@2@@2@@Z$16
9EABA 284 __unwindfunclet$?load_icon_file@@YA?AV?$list@UIconImage@@V?$allocator@UIconImage@@@std@@@std@@ABV?$basic_string@_WU?$char_traits@_W@std@@V?$allocator@_W@2@@2@@Z$1
9EAC2 284 __unwindfunclet$?load_icon_file@@YA?AV?$list@UIconImage@@V?$allocator@UIconImage@@@std@@@std@@ABV?$basic_string@_WU?$char_traits@_W@std@@V?$allocator@_W@2@@2@@Z$2
9EACA 284 __unwindfunclet$?load_icon_file@@YA?AV?$list@UIconImage@@V?$allocator@UIconImage@@@std@@@std@@ABV?$basic_string@_WU?$char_traits@_W@std@@V?$allocator@_W@2@@2@@Z$4
9EAD5 284 __unwindfunclet$?load_icon_file@@YA?AV?$list@UIconImage@@V?$allocator@UIconImage@@@std@@@std@@ABV?$basic_string@_WU?$char_traits@_W@std@@V?$allocator@_W@2@@2@@Z$9
9EAE0 284 __unwindfunclet$?load_icon_file@@YA?AV?$list@UIconImage@@V?$allocator@UIconImage@@@std@@@std@@ABV?$basic_string@_WU?$char_traits@_W@std@@V?$allocator@_W@2@@2@@Z$3
9EAED 284 __ehhandler$?load_icon_file@@YA?AV?$list@UIconImage@@V?$allocator@UIconImage@@@std@@@std@@ABV?$basic_string@_WU?$char_traits@_W@std@@V?$allocator@_W@2@@2@@Z
9EB20 284 __unwindfunclet$?load_icon_rsrc@@YA?AUIconRsrc@@PAUHINSTANCE__@@PB_WG@Z$4
9EB28 284 __unwindfunclet$?load_icon_rsrc@@YA?AUIconRsrc@@PAUHINSTANCE__@@PB_WG@Z$2
9EB30 284 __unwindfunclet$?load_icon_rsrc@@YA?AUIconRsrc@@PAUHINSTANCE__@@PB_WG@Z$0
9EB49 284 __unwindfunclet$?load_icon_rsrc@@YA?AUIconRsrc@@PAUHINSTANCE__@@PB_WG@Z$1
9EB56 284 __ehhandler$?load_icon_rsrc@@YA?AUIconRsrc@@PAUHINSTANCE__@@PB_WG@Z
9EB80 284 __unwindfunclet$?enum_names_proc@@YGHPAUHINSTANCE__@@PB_WPA_WJ@Z$3
9EB88 284 __unwindfunclet$?enum_names_proc@@YGHPAUHINSTANCE__@@PB_WPA_WJ@Z$2
9EB90 284 __unwindfunclet$?enum_names_proc@@YGHPAUHINSTANCE__@@PB_WPA_WJ@Z$8
9EB9D 284 __ehhandler$?enum_names_proc@@YGHPAUHINSTANCE__@@PB_WPA_WJ@Z
9EBD0 284 __unwindfunclet$?enum_langs_proc@@YGHPAUHINSTANCE__@@PB_W1GJ@Z$3
9EBDD 284 __ehhandler$?enum_langs_proc@@YGHPAUHINSTANCE__@@PB_W1GJ@Z
9EC00 284 __unwindfunclet$?replace_icon@@YAXABV?$basic_string@_WU?$char_traits@_W@std@@V?$allocator@_W@2@@std@@0@Z$0
9EC08 284 __unwindfunclet$?replace_icon@@YAXABV?$basic_string@_WU?$char_traits@_W@std@@V?$allocator@_W@2@@std@@0@Z$1
9EC10 284 __unwindfunclet$?replace_icon@@YAXABV?$basic_string@_WU?$char_traits@_W@std@@V?$allocator@_W@2@@std@@0@Z$2
9EC18 284 __unwindfunclet$?replace_icon@@YAXABV?$basic_string@_WU?$char_traits@_W@std@@V?$allocator@_W@2@@std@@0@Z$3
9EC20 284 __unwindfunclet$?replace_icon@@YAXABV?$basic_string@_WU?$char_traits@_W@std@@V?$allocator@_W@2@@std@@0@Z$4
9EC2B 284 __unwindfunclet$?replace_icon@@YAXABV?$basic_string@_WU?$char_traits@_W@std@@V?$allocator@_W@2@@std@@0@Z$10
9EC33 284 __unwindfunclet$?replace_icon@@YAXABV?$basic_string@_WU?$char_traits@_W@std@@V?$allocator@_W@2@@std@@0@Z$8
9EC3B 284 __unwindfunclet$?replace_icon@@YAXABV?$basic_string@_WU?$char_traits@_W@std@@V?$allocator@_W@2@@std@@0@Z$5
9EC48 284 __ehhandler$?replace_icon@@YAXABV?$basic_string@_WU?$char_traits@_W@std@@V?$allocator@_W@2@@std@@0@Z
9EC80 284 __unwindfunclet$??R<lambda_1>@?1??replace_icon@@YAXABV?$basic_string@_WU?$char_traits@_W@std@@V?$allocator@_W@2@@std@@0@Z@QBE@ABVRsrcId@@@Z$0
9EC88 284 __unwindfunclet$??R<lambda_1>@?1??replace_icon@@YAXABV?$basic_string@_WU?$char_traits@_W@std@@V?$allocator@_W@2@@std@@0@Z@QBE@ABVRsrcId@@@Z$2
9EC90 284 __unwindfunclet$??R<lambda_1>@?1??replace_icon@@YAXABV?$basic_string@_WU?$char_traits@_W@std@@V?$allocator@_W@2@@std@@0@Z@QBE@ABVRsrcId@@@Z$4
9EC9D 284 __ehhandler$??R<lambda_1>@?1??replace_icon@@YAXABV?$basic_string@_WU?$char_traits@_W@std@@V?$allocator@_W@2@@std@@0@Z@QBE@ABVRsrcId@@@Z
9ECD0 284 __unwindfunclet$??R<lambda_5>@?1??replace_icon@@YAXABV?$basic_string@_WU?$char_traits@_W@std@@V?$allocator@_W@2@@std@@0@Z@QBE@ABUIconRsrc@@@Z$0
9ECDD 284 __ehhandler$??R<lambda_5>@?1??replace_icon@@YAXABV?$basic_string@_WU?$char_traits@_W@std@@V?$allocator@_W@2@@std@@0@Z@QBE@ABUIconRsrc@@@Z
9ED00 284 __unwindfunclet$?replace_ver_info@@YAXABV?$basic_string@_WU?$char_traits@_W@std@@V?$allocator@_W@2@@std@@ABUSfxVersionInfo@@@Z$0
9ED0B 284 __unwindfunclet$?replace_ver_info@@YAXABV?$basic_string@_WU?$char_traits@_W@std@@V?$allocator@_W@2@@std@@ABUSfxVersionInfo@@@Z$1
9ED16 284 __unwindfunclet$?replace_ver_info@@YAXABV?$basic_string@_WU?$char_traits@_W@std@@V?$allocator@_W@2@@std@@ABUSfxVersionInfo@@@Z$2
9ED1E 284 __unwindfunclet$?replace_ver_info@@YAXABV?$basic_string@_WU?$char_traits@_W@std@@V?$allocator@_W@2@@std@@ABUSfxVersionInfo@@@Z$3
9ED29 284 __unwindfunclet$?replace_ver_info@@YAXABV?$basic_string@_WU?$char_traits@_W@std@@V?$allocator@_W@2@@std@@ABUSfxVersionInfo@@@Z$22
9ED31 284 __unwindfunclet$?replace_ver_info@@YAXABV?$basic_string@_WU?$char_traits@_W@std@@V?$allocator@_W@2@@std@@ABUSfxVersionInfo@@@Z$4
9ED39 284 __unwindfunclet$?replace_ver_info@@YAXABV?$basic_string@_WU?$char_traits@_W@std@@V?$allocator@_W@2@@std@@ABUSfxVersionInfo@@@Z$5
9ED41 284 __unwindfunclet$?replace_ver_info@@YAXABV?$basic_string@_WU?$char_traits@_W@std@@V?$allocator@_W@2@@std@@ABUSfxVersionInfo@@@Z$6
9ED4C 284 __unwindfunclet$?replace_ver_info@@YAXABV?$basic_string@_WU?$char_traits@_W@std@@V?$allocator@_W@2@@std@@ABUSfxVersionInfo@@@Z$7
9ED54 284 __unwindfunclet$?replace_ver_info@@YAXABV?$basic_string@_WU?$char_traits@_W@std@@V?$allocator@_W@2@@std@@ABUSfxVersionInfo@@@Z$8
9ED5C 284 __unwindfunclet$?replace_ver_info@@YAXABV?$basic_string@_WU?$char_traits@_W@std@@V?$allocator@_W@2@@std@@ABUSfxVersionInfo@@@Z$9
9ED64 284 __unwindfunclet$?replace_ver_info@@YAXABV?$basic_string@_WU?$char_traits@_W@std@@V?$allocator@_W@2@@std@@ABUSfxVersionInfo@@@Z$10
9ED6C 284 __unwindfunclet$?replace_ver_info@@YAXABV?$basic_string@_WU?$char_traits@_W@std@@V?$allocator@_W@2@@std@@ABUSfxVersionInfo@@@Z$11
9ED74 284 __unwindfunclet$?replace_ver_info@@YAXABV?$basic_string@_WU?$char_traits@_W@std@@V?$allocator@_W@2@@std@@ABUSfxVersionInfo@@@Z$12
9ED7C 284 __unwindfunclet$?replace_ver_info@@YAXABV?$basic_string@_WU?$char_traits@_W@std@@V?$allocator@_W@2@@std@@ABUSfxVersionInfo@@@Z$13
9ED84 284 __unwindfunclet$?replace_ver_info@@YAXABV?$basic_string@_WU?$char_traits@_W@std@@V?$allocator@_W@2@@std@@ABUSfxVersionInfo@@@Z$14
9ED8C 284 __unwindfunclet$?replace_ver_info@@YAXABV?$basic_string@_WU?$char_traits@_W@std@@V?$allocator@_W@2@@std@@ABUSfxVersionInfo@@@Z$15
9ED94 284 __unwindfunclet$?replace_ver_info@@YAXABV?$basic_string@_WU?$char_traits@_W@std@@V?$allocator@_W@2@@std@@ABUSfxVersionInfo@@@Z$16
9EDA1 284 __ehhandler$?replace_ver_info@@YAXABV?$basic_string@_WU?$char_traits@_W@std@@V?$allocator@_W@2@@std@@ABUSfxVersionInfo@@@Z
9EDD0 284 __unwindfunclet$??R<lambda_1>@?1??replace_ver_info@@YAXABV?$basic_string@_WU?$char_traits@_W@std@@V?$allocator@_W@2@@std@@ABUSfxVersionInfo@@@Z@QBE@ABVRsrcId@@@Z$0
9EDD8 284 __unwindfunclet$??R<lambda_1>@?1??replace_ver_info@@YAXABV?$basic_string@_WU?$char_traits@_W@std@@V?$allocator@_W@2@@std@@ABUSfxVersionInfo@@@Z@QBE@ABVRsrcId@@@Z$4
9EDE0 284 __unwindfunclet$??R<lambda_1>@?1??replace_ver_info@@YAXABV?$basic_string@_WU?$char_traits@_W@std@@V?$allocator@_W@2@@std@@ABUSfxVersionInfo@@@Z@QBE@ABVRsrcId@@@Z$2
9EDE8 284 __unwindfunclet$??R<lambda_1>@?1??replace_ver_info@@YAXABV?$basic_string@_WU?$char_traits@_W@std@@V?$allocator@_W@2@@std@@ABUSfxVersionInfo@@@Z@QBE@ABVRsrcId@@@Z$9
9EDF5 284 __ehhandler$??R<lambda_1>@?1??replace_ver_info@@YAXABV?$basic_string@_WU?$char_traits@_W@std@@V?$allocator@_W@2@@std@@ABUSfxVersionInfo@@@Z@QBE@ABVRsrcId@@@Z
9EE20 284 __unwindfunclet$??6?$basic_ostream@_WU?$char_traits@_W@std@@@std@@QAEAAV01@G@Z$4
9EE28 284 __unwindfunclet$??6?$basic_ostream@_WU?$char_traits@_W@std@@@std@@QAEAAV01@G@Z$2
9EE30 284 __unwindfunclet$??6?$basic_ostream@_WU?$char_traits@_W@std@@@std@@QAEAAV01@G@Z$3
9EE3D 284 __ehhandler$??6?$basic_ostream@_WU?$char_traits@_W@std@@@std@@QAEAAV01@G@Z
9EE60 284 __unwindfunclet$??$for_each@V?$_List_const_iterator@V?$_List_val@U?$_List_simple_types@UIconImage@@@std@@@std@@@std@@V<lambda_3>@?1??replace_icon@@YAXABV?$basic_string@_WU?$char_traits@_W@std@@V?$allocator@_W@2@@2@0@Z@@std@@YA?AV<lambda_3>@?1??replace_icon@@YAXABV?$basic_string@_WU?$char_traits@_W@std@@V?$allocator@_W@2@@0@0@Z@V?$_List_const_iterator@V?$_List_val@U?$_List_simple_types@UIconImage@@@std@@@std@@@0@1V1?1??2@YAX00@Z@@Z$0
9EE6D 284 __ehhandler$??$for_each@V?$_List_const_iterator@V?$_List_val@U?$_List_simple_types@UIconImage@@@std@@@std@@@std@@V<lambda_3>@?1??replace_icon@@YAXABV?$basic_string@_WU?$char_traits@_W@std@@V?$allocator@_W@2@@2@0@Z@@std@@YA?AV<lambda_3>@?1??replace_icon@@YAXABV?$basic_string@_WU?$char_traits@_W@std@@V?$allocator@_W@2@@0@0@Z@V?$_List_const_iterator@V?$_List_val@U?$_List_simple_types@UIconImage@@@std@@@std@@@0@1V1?1??2@YAX00@Z@@Z
9EE90 284 __unwindfunclet$??$for_each@V?$_Tree_const_iterator@V?$_Tree_val@U?$_Tree_simple_types@U?$pair@$$CBV?$basic_string@_WU?$char_traits@_W@std@@V?$allocator@_W@2@@std@@V12@@std@@@std@@@std@@@std@@V<lambda_2>@?1??replace_ver_info@@YAXABV?$basic_string@_WU?$char_traits@_W@std@@V?$allocator@_W@2@@2@ABUSfxVersionInfo@@@Z@@std@@YA?AV<lambda_2>@?1??replace_ver_info@@YAXABV?$basic_string@_WU?$char_traits@_W@std@@V?$allocator@_W@2@@0@ABUSfxVersionInfo@@@Z@V?$_Tree_const_iterator@V?$_Tree_val@U?$_Tree_simple_types@U?$pair@$$CBV?$basic_string@_WU?$char_traits@_W@std@@V?$allocator@_W@2@@std@@V12@@std@@@std@@@std@@@0@2V1?1??2@YAX01@Z@@Z$1
9EE98 284 __unwindfunclet$??$for_each@V?$_Tree_const_iterator@V?$_Tree_val@U?$_Tree_simple_types@U?$pair@$$CBV?$basic_string@_WU?$char_traits@_W@std@@V?$allocator@_W@2@@std@@V12@@std@@@std@@@std@@@std@@V<lambda_2>@?1??replace_ver_info@@YAXABV?$basic_string@_WU?$char_traits@_W@std@@V?$allocator@_W@2@@2@ABUSfxVersionInfo@@@Z@@std@@YA?AV<lambda_2>@?1??replace_ver_info@@YAXABV?$basic_string@_WU?$char_traits@_W@std@@V?$allocator@_W@2@@0@ABUSfxVersionInfo@@@Z@V?$_Tree_const_iterator@V?$_Tree_val@U?$_Tree_simple_types@U?$pair@$$CBV?$basic_string@_WU?$char_traits@_W@std@@V?$allocator@_W@2@@std@@V12@@std@@@std@@@std@@@0@2V1?1??2@YAX01@Z@@Z$0
9EEA5 284 __ehhandler$??$for_each@V?$_Tree_const_iterator@V?$_Tree_val@U?$_Tree_simple_types@U?$pair@$$CBV?$basic_string@_WU?$char_traits@_W@std@@V?$allocator@_W@2@@std@@V12@@std@@@std@@@std@@@std@@V<lambda_2>@?1??replace_ver_info@@YAXABV?$basic_string@_WU?$char_traits@_W@std@@V?$allocator@_W@2@@2@ABUSfxVersionInfo@@@Z@@std@@YA?AV<lambda_2>@?1??replace_ver_info@@YAXABV?$basic_string@_WU?$char_traits@_W@std@@V?$allocator@_W@2@@0@ABUSfxVersionInfo@@@Z@V?$_Tree_const_iterator@V?$_Tree_val@U?$_Tree_simple_types@U?$pair@$$CBV?$basic_string@_WU?$char_traits@_W@std@@V?$allocator@_W@2@@std@@V12@@std@@@std@@@std@@@0@2V1?1??2@YAX01@Z@@Z
9EED0 284 __unwindfunclet$??$_Emplace@ABUIconRsrc@@@?$list@UIconRsrc@@V?$allocator@UIconRsrc@@@std@@@std@@QAEPAU?$_List_node@UIconRsrc@@PAX@1@QAU21@ABUIconRsrc@@@Z$1
9EEDD 284 __ehhandler$??$_Emplace@ABUIconRsrc@@@?$list@UIconRsrc@@V?$allocator@UIconRsrc@@@std@@@std@@QAEPAU?$_List_node@UIconRsrc@@PAX@1@QAU21@ABUIconRsrc@@@Z
9EF00 284 __unwindfunclet$??0IconRsrc@@QAE@ABU0@@Z$0
9EF08 284 __unwindfunclet$??0IconRsrc@@QAE@ABU0@@Z$3
9EF10 284 __unwindfunclet$??0IconRsrc@@QAE@ABU0@@Z$4
9EF18 284 __unwindfunclet$??0IconRsrc@@QAE@ABU0@@Z$7
9EF25 284 __ehhandler$??0IconRsrc@@QAE@ABU0@@Z
9EF50 285 __unwindfunclet$?do_update_ui@AttachSfxModuleProgress@@EAEXXZ$0
9EF5B 285 __unwindfunclet$?do_update_ui@AttachSfxModuleProgress@@EAEXXZ$5
9EF63 285 __unwindfunclet$?do_update_ui@AttachSfxModuleProgress@@EAEXXZ$1
9EF6B 285 __unwindfunclet$?do_update_ui@AttachSfxModuleProgress@@EAEXXZ$2
9EF78 285 __ehhandler$?do_update_ui@AttachSfxModuleProgress@@EAEXXZ
9EFB0 285 __unwindfunclet$?generate_install_config@@YA?AV?$vector@EV?$allocator@E@std@@@std@@ABUSfxInstallConfig@@@Z$0
9EFB8 285 __unwindfunclet$?generate_install_config@@YA?AV?$vector@EV?$allocator@E@std@@@std@@ABUSfxInstallConfig@@@Z$1
9EFC0 285 __unwindfunclet$?generate_install_config@@YA?AV?$vector@EV?$allocator@E@std@@@std@@ABUSfxInstallConfig@@@Z$2
9EFC8 285 __unwindfunclet$?generate_install_config@@YA?AV?$vector@EV?$allocator@E@std@@@std@@ABUSfxInstallConfig@@@Z$3
9EFD0 285 __unwindfunclet$?generate_install_config@@YA?AV?$vector@EV?$allocator@E@std@@@std@@ABUSfxInstallConfig@@@Z$4
9EFD8 285 __unwindfunclet$?generate_install_config@@YA?AV?$vector@EV?$allocator@E@std@@@std@@ABUSfxInstallConfig@@@Z$5
9EFE0 285 __unwindfunclet$?generate_install_config@@YA?AV?$vector@EV?$allocator@E@std@@@std@@ABUSfxInstallConfig@@@Z$6
9EFE8 285 __unwindfunclet$?generate_install_config@@YA?AV?$vector@EV?$allocator@E@std@@@std@@ABUSfxInstallConfig@@@Z$7
9EFF0 285 __unwindfunclet$?generate_install_config@@YA?AV?$vector@EV?$allocator@E@std@@@std@@ABUSfxInstallConfig@@@Z$8
9EFF8 285 __unwindfunclet$?generate_install_config@@YA?AV?$vector@EV?$allocator@E@std@@@std@@ABUSfxInstallConfig@@@Z$9
9F000 285 __unwindfunclet$?generate_install_config@@YA?AV?$vector@EV?$allocator@E@std@@@std@@ABUSfxInstallConfig@@@Z$10
9F008 285 __unwindfunclet$?generate_install_config@@YA?AV?$vector@EV?$allocator@E@std@@@std@@ABUSfxInstallConfig@@@Z$11
9F010 285 __unwindfunclet$?generate_install_config@@YA?AV?$vector@EV?$allocator@E@std@@@std@@ABUSfxInstallConfig@@@Z$12
9F018 285 __unwindfunclet$?generate_install_config@@YA?AV?$vector@EV?$allocator@E@std@@@std@@ABUSfxInstallConfig@@@Z$13
9F020 285 __unwindfunclet$?generate_install_config@@YA?AV?$vector@EV?$allocator@E@std@@@std@@ABUSfxInstallConfig@@@Z$14
9F028 285 __unwindfunclet$?generate_install_config@@YA?AV?$vector@EV?$allocator@E@std@@@std@@ABUSfxInstallConfig@@@Z$21
9F033 285 __unwindfunclet$?generate_install_config@@YA?AV?$vector@EV?$allocator@E@std@@@std@@ABUSfxInstallConfig@@@Z$15
9F040 285 __ehhandler$?generate_install_config@@YA?AV?$vector@EV?$allocator@E@std@@@std@@ABUSfxInstallConfig@@@Z
9F070 285 __unwindfunclet$?create_sfx_module@@YAXABV?$basic_string@_WU?$char_traits@_W@std@@V?$allocator@_W@2@@std@@ABUSfxOptions@@@Z$1
9F078 285 __unwindfunclet$?create_sfx_module@@YAXABV?$basic_string@_WU?$char_traits@_W@std@@V?$allocator@_W@2@@std@@ABUSfxOptions@@@Z$2
9F080 285 __unwindfunclet$?create_sfx_module@@YAXABV?$basic_string@_WU?$char_traits@_W@std@@V?$allocator@_W@2@@std@@ABUSfxOptions@@@Z$10
9F088 285 __unwindfunclet$?create_sfx_module@@YAXABV?$basic_string@_WU?$char_traits@_W@std@@V?$allocator@_W@2@@std@@ABUSfxOptions@@@Z$3
9F090 285 __unwindfunclet$?create_sfx_module@@YAXABV?$basic_string@_WU?$char_traits@_W@std@@V?$allocator@_W@2@@std@@ABUSfxOptions@@@Z$4
9F098 285 __unwindfunclet$?create_sfx_module@@YAXABV?$basic_string@_WU?$char_traits@_W@std@@V?$allocator@_W@2@@std@@ABUSfxOptions@@@Z$5
9F0A3 285 __unwindfunclet$?create_sfx_module@@YAXABV?$basic_string@_WU?$char_traits@_W@std@@V?$allocator@_W@2@@std@@ABUSfxOptions@@@Z$0
9F0B0 285 __ehhandler$?create_sfx_module@@YAXABV?$basic_string@_WU?$char_traits@_W@std@@V?$allocator@_W@2@@std@@ABUSfxOptions@@@Z
9F0E0 285 __unwindfunclet$?attach_sfx_module@@YAXABV?$basic_string@_WU?$char_traits@_W@std@@V?$allocator@_W@2@@std@@ABUSfxOptions@@@Z$12
9F0E8 285 __unwindfunclet$?attach_sfx_module@@YAXABV?$basic_string@_WU?$char_traits@_W@std@@V?$allocator@_W@2@@std@@ABUSfxOptions@@@Z$13
9F0F3 285 __unwindfunclet$?attach_sfx_module@@YAXABV?$basic_string@_WU?$char_traits@_W@std@@V?$allocator@_W@2@@std@@ABUSfxOptions@@@Z$2
9F0FE 285 __unwindfunclet$?attach_sfx_module@@YAXABV?$basic_string@_WU?$char_traits@_W@std@@V?$allocator@_W@2@@std@@ABUSfxOptions@@@Z$3
9F109 285 __unwindfunclet$?attach_sfx_module@@YAXABV?$basic_string@_WU?$char_traits@_W@std@@V?$allocator@_W@2@@std@@ABUSfxOptions@@@Z$4
9F114 285 __unwindfunclet$?attach_sfx_module@@YAXABV?$basic_string@_WU?$char_traits@_W@std@@V?$allocator@_W@2@@std@@ABUSfxOptions@@@Z$7
9F11C 285 __unwindfunclet$?attach_sfx_module@@YAXABV?$basic_string@_WU?$char_traits@_W@std@@V?$allocator@_W@2@@std@@ABUSfxOptions@@@Z$22
9F124 285 __unwindfunclet$?attach_sfx_module@@YAXABV?$basic_string@_WU?$char_traits@_W@std@@V?$allocator@_W@2@@std@@ABUSfxOptions@@@Z$8
9F12C 285 __unwindfunclet$?attach_sfx_module@@YAXABV?$basic_string@_WU?$char_traits@_W@std@@V?$allocator@_W@2@@std@@ABUSfxOptions@@@Z$26
9F134 285 __unwindfunclet$?attach_sfx_module@@YAXABV?$basic_string@_WU?$char_traits@_W@std@@V?$allocator@_W@2@@std@@ABUSfxOptions@@@Z$9
9F13C 285 __unwindfunclet$?attach_sfx_module@@YAXABV?$basic_string@_WU?$char_traits@_W@std@@V?$allocator@_W@2@@std@@ABUSfxOptions@@@Z$10
9F147 285 __unwindfunclet$?attach_sfx_module@@YAXABV?$basic_string@_WU?$char_traits@_W@std@@V?$allocator@_W@2@@std@@ABUSfxOptions@@@Z$6
9F14F 285 __unwindfunclet$?attach_sfx_module@@YAXABV?$basic_string@_WU?$char_traits@_W@std@@V?$allocator@_W@2@@std@@ABUSfxOptions@@@Z$5
9F157 285 __unwindfunclet$?attach_sfx_module@@YAXABV?$basic_string@_WU?$char_traits@_W@std@@V?$allocator@_W@2@@std@@ABUSfxOptions@@@Z$11
9F164 285 __ehhandler$?attach_sfx_module@@YAXABV?$basic_string@_WU?$char_traits@_W@std@@V?$allocator@_W@2@@std@@ABUSfxOptions@@@Z
9F190 285 __unwindfunclet$?set_control_state@SfxOptionsDialog@@AAEXXZ$0
9F19D 285 __ehhandler$?set_control_state@SfxOptionsDialog@@AAEXXZ
9F1C0 285 __unwindfunclet$?read_controls@SfxOptionsDialog@@AAE?AUSfxOptions@@XZ$0
9F1D9 285 __unwindfunclet$?read_controls@SfxOptionsDialog@@AAE?AUSfxOptions@@XZ$4
9F1E1 285 __unwindfunclet$?read_controls@SfxOptionsDialog@@AAE?AUSfxOptions@@XZ$1
9F1EE 285 __ehhandler$?read_controls@SfxOptionsDialog@@AAE?AUSfxOptions@@XZ
9F220 285 __unwindfunclet$?write_controls@SfxOptionsDialog@@AAEXABUSfxOptions@@@Z$0
9F22D 285 __ehhandler$?write_controls@SfxOptionsDialog@@AAEXABUSfxOptions@@@Z
9F260 285 __unwindfunclet$?dialog_proc@SfxOptionsDialog@@EAEHHHPAX@Z$3
9F26B 285 __unwindfunclet$?dialog_proc@SfxOptionsDialog@@EAEHHHPAX@Z$5
9F27B 285 __ehhandler$?dialog_proc@SfxOptionsDialog@@EAEHHHPAX@Z
9F2B0 285 __unwindfunclet$??0SfxOptionsDialog@@QAE@AAUSfxOptions@@ABUUpdateProfiles@@@Z$0
9F2B8 285 __unwindfunclet$??0SfxOptionsDialog@@QAE@AAUSfxOptions@@ABUUpdateProfiles@@@Z$1
9F2C3 285 __unwindfunclet$??0SfxOptionsDialog@@QAE@AAUSfxOptions@@ABUUpdateProfiles@@@Z$2
9F2D1 285 __unwindfunclet$??0SfxOptionsDialog@@QAE@AAUSfxOptions@@ABUUpdateProfiles@@@Z$7
9F2DC 285 __unwindfunclet$??0SfxOptionsDialog@@QAE@AAUSfxOptions@@ABUUpdateProfiles@@@Z$11
9F2EC 285 __ehhandler$??0SfxOptionsDialog@@QAE@AAUSfxOptions@@ABUUpdateProfiles@@@Z
9F320 285 __unwindfunclet$?show@SfxOptionsDialog@@QAE_NXZ$0
9F328 285 __unwindfunclet$?show@SfxOptionsDialog@@QAE_NXZ$1
9F330 285 __unwindfunclet$?show@SfxOptionsDialog@@QAE_NXZ$2
9F338 285 __unwindfunclet$?show@SfxOptionsDialog@@QAE_NXZ$3
9F340 285 __unwindfunclet$?show@SfxOptionsDialog@@QAE_NXZ$4
9F348 285 __unwindfunclet$?show@SfxOptionsDialog@@QAE_NXZ$5
9F350 285 __unwindfunclet$?show@SfxOptionsDialog@@QAE_NXZ$6
9F358 285 __unwindfunclet$?show@SfxOptionsDialog@@QAE_NXZ$7
9F360 285 __unwindfunclet$?show@SfxOptionsDialog@@QAE_NXZ$8
9F368 285 __unwindfunclet$?show@SfxOptionsDialog@@QAE_NXZ$9
9F370 285 __unwindfunclet$?show@SfxOptionsDialog@@QAE_NXZ$10
9F378 285 __unwindfunclet$?show@SfxOptionsDialog@@QAE_NXZ$11
9F380 285 __unwindfunclet$?show@SfxOptionsDialog@@QAE_NXZ$12
9F388 285 __unwindfunclet$?show@SfxOptionsDialog@@QAE_NXZ$13
9F390 285 __unwindfunclet$?show@SfxOptionsDialog@@QAE_NXZ$14
9F398 285 __unwindfunclet$?show@SfxOptionsDialog@@QAE_NXZ$15
9F3A0 285 __unwindfunclet$?show@SfxOptionsDialog@@QAE_NXZ$16
9F3A8 285 __unwindfunclet$?show@SfxOptionsDialog@@QAE_NXZ$17
9F3B0 285 __unwindfunclet$?show@SfxOptionsDialog@@QAE_NXZ$18
9F3B8 285 __unwindfunclet$?show@SfxOptionsDialog@@QAE_NXZ$19
9F3C0 285 __unwindfunclet$?show@SfxOptionsDialog@@QAE_NXZ$20
9F3C8 285 __unwindfunclet$?show@SfxOptionsDialog@@QAE_NXZ$21
9F3D0 285 __unwindfunclet$?show@SfxOptionsDialog@@QAE_NXZ$22
9F3D8 285 __unwindfunclet$?show@SfxOptionsDialog@@QAE_NXZ$23
9F3E0 285 __unwindfunclet$?show@SfxOptionsDialog@@QAE_NXZ$24
9F3E8 285 __unwindfunclet$?show@SfxOptionsDialog@@QAE_NXZ$25
9F3F5 285 __ehhandler$?show@SfxOptionsDialog@@QAE_NXZ
9F420 285 __unwindfunclet$?sfx_options_dialog@@YA_NAAUSfxOptions@@ABUUpdateProfiles@@@Z$0
9F430 285 __ehhandler$?sfx_options_dialog@@YA_NAAUSfxOptions@@ABUUpdateProfiles@@@Z
9F450 285 __unwindfunclet$??$_Emplace_reallocate@ABUSfxProfile@@@?$vector@USfxProfile@@V?$allocator@USfxProfile@@@std@@@std@@AAEPAUSfxProfile@@QAU2@ABU2@@Z$2
9F45D 285 __ehhandler$??$_Emplace_reallocate@ABUSfxProfile@@@?$vector@USfxProfile@@V?$allocator@USfxProfile@@@std@@@std@@AAEPAUSfxProfile@@QAU2@ABU2@@Z
9F480 47 __ehhandler$?parse@SimpleXML@@YA?AW4parseRet@1@PBDIPBVIParseCallback@1@@Z
9F4B0 286 __unwindfunclet$?word_wrap@@YA?AV?$basic_string@_WU?$char_traits@_W@std@@V?$allocator@_W@2@@std@@ABV12@I@Z$0
9F4CE 286 __ehhandler$?word_wrap@@YA?AV?$basic_string@_WU?$char_traits@_W@std@@V?$allocator@_W@2@@std@@ABV12@I@Z
9F4F0 286 __unwindfunclet$?split@@YA?AV?$list@V?$basic_string@_WU?$char_traits@_W@std@@V?$allocator@_W@2@@std@@V?$allocator@V?$basic_string@_WU?$char_traits@_W@std@@V?$allocator@_W@2@@std@@@2@@std@@ABV?$basic_string@_WU?$char_traits@_W@std@@V?$allocator@_W@2@@2@_W@Z$0
9F509 286 __unwindfunclet$?split@@YA?AV?$list@V?$basic_string@_WU?$char_traits@_W@std@@V?$allocator@_W@2@@std@@V?$allocator@V?$basic_string@_WU?$char_traits@_W@std@@V?$allocator@_W@2@@std@@@2@@std@@ABV?$basic_string@_WU?$char_traits@_W@std@@V?$allocator@_W@2@@2@_W@Z$1
9F511 286 __unwindfunclet$?split@@YA?AV?$list@V?$basic_string@_WU?$char_traits@_W@std@@V?$allocator@_W@2@@std@@V?$allocator@V?$basic_string@_WU?$char_traits@_W@std@@V?$allocator@_W@2@@std@@@2@@std@@ABV?$basic_string@_WU?$char_traits@_W@std@@V?$allocator@_W@2@@2@_W@Z$6
9F51E 286 __ehhandler$?split@@YA?AV?$list@V?$basic_string@_WU?$char_traits@_W@std@@V?$allocator@_W@2@@std@@V?$allocator@V?$basic_string@_WU?$char_traits@_W@std@@V?$allocator@_W@2@@std@@@2@@std@@ABV?$basic_string@_WU?$char_traits@_W@std@@V?$allocator@_W@2@@2@_W@Z
9F550 286 __unwindfunclet$?format_data_size@@YA?AV?$basic_string@_WU?$char_traits@_W@std@@V?$allocator@_W@2@@std@@_KQAPB_W@Z$0
9F577 286 __ehhandler$?format_data_size@@YA?AV?$basic_string@_WU?$char_traits@_W@std@@V?$allocator@_W@2@@std@@_KQAPB_W@Z
9F5B0 287 __unwindfunclet$??0Error@@QAE@JABV?$basic_string@_WU?$char_traits@_W@std@@V?$allocator@_W@2@@std@@PBDH@Z$0
9F5BB 287 __unwindfunclet$??0Error@@QAE@JABV?$basic_string@_WU?$char_traits@_W@std@@V?$allocator@_W@2@@std@@PBDH@Z$2
9F5CE 287 __unwindfunclet$??0Error@@QAE@JABV?$basic_string@_WU?$char_traits@_W@std@@V?$allocator@_W@2@@std@@PBDH@Z$3
9F5DE 287 __ehhandler$??0Error@@QAE@JABV?$basic_string@_WU?$char_traits@_W@std@@V?$allocator@_W@2@@std@@PBDH@Z
9F610 287 __unwindfunclet$?get_system_message@@YA?AV?$basic_string@_WU?$char_traits@_W@std@@V?$allocator@_W@2@@std@@JK@Z$2
9F61B 287 __unwindfunclet$?get_system_message@@YA?AV?$basic_string@_WU?$char_traits@_W@std@@V?$allocator@_W@2@@std@@JK@Z$3
9F623 287 __unwindfunclet$?get_system_message@@YA?AV?$basic_string@_WU?$char_traits@_W@std@@V?$allocator@_W@2@@std@@JK@Z$4
9F630 287 __ehhandler$?get_system_message@@YA?AV?$basic_string@_WU?$char_traits@_W@std@@V?$allocator@_W@2@@std@@JK@Z
9F660 287 __unwindfunclet$?ansi_to_unicode@@YA?AV?$basic_string@_WU?$char_traits@_W@std@@V?$allocator@_W@2@@std@@ABV?$basic_string@DU?$char_traits@D@std@@V?$allocator@D@2@@2@I@Z$1
9F66D 287 __ehhandler$?ansi_to_unicode@@YA?AV?$basic_string@_WU?$char_traits@_W@std@@V?$allocator@_W@2@@std@@ABV?$basic_string@DU?$char_traits@D@std@@V?$allocator@D@2@@2@I@Z
9F690 287 __unwindfunclet$?expand_env_vars@@YA?AV?$basic_string@_WU?$char_traits@_W@std@@V?$allocator@_W@2@@std@@ABV12@@Z$0
9F69D 287 __ehhandler$?expand_env_vars@@YA?AV?$basic_string@_WU?$char_traits@_W@std@@V?$allocator@_W@2@@std@@ABV12@@Z
9F6C0 287 __ehhandler$?open_nt@File@@QAE_NABV?$basic_string@_WU?$char_traits@_W@std@@V?$allocator@_W@2@@std@@KKKK@Z
9F6F0 287 __ehhandler$?copy_ctime_from@File@@QAE_NABV?$basic_string@_WU?$char_traits@_W@std@@V?$allocator@_W@2@@std@@@Z
9F720 287 __ehhandler$?exists@File@@SA_NABV?$basic_string@_WU?$char_traits@_W@std@@V?$allocator@_W@2@@std@@@Z
9F750 287 __ehhandler$?delete_file@File@@SAXABV?$basic_string@_WU?$char_traits@_W@std@@V?$allocator@_W@2@@std@@@Z
9F780 287 __ehhandler$?create_dir_nt@File@@SA_NABV?$basic_string@_WU?$char_traits@_W@std@@V?$allocator@_W@2@@std@@@Z
9F7B0 287 __ehhandler$?move_file@File@@SAXABV?$basic_string@_WU?$char_traits@_W@std@@V?$allocator@_W@2@@std@@0K@Z
9F7E0 287 __ehhandler$?get_find_data_nt@File@@SA_NABV?$basic_string@_WU?$char_traits@_W@std@@V?$allocator@_W@2@@std@@AAUFindData@@@Z
9F810 287 __ehhandler$?query_str_nt@Key@@QAE_NAAV?$basic_string@_WU?$char_traits@_W@std@@V?$allocator@_W@2@@std@@PB_W@Z
9F830 287 __unwindfunclet$?find_cb@@YGHPBUPluginPanelItem@@PB_WPAX@Z$1
9F83D 287 __ehhandler$?find_cb@@YGHPBUPluginPanelItem@@PB_WPAX@Z
9F860 287 __ehhandler$?next_nt@FileEnum@@QAE_NAA_N@Z
9F890 287 __ehhandler$??0DirList@@QAE@ABV?$basic_string@_WU?$char_traits@_W@std@@V?$allocator@_W@2@@std@@@Z
9F8C0 287 __unwindfunclet$??0TempFile@@QAE@XZ$0
9F8C8 287 __unwindfunclet$??0TempFile@@QAE@XZ$1
9F8D0 287 __unwindfunclet$??0TempFile@@QAE@XZ$6
9F8D8 287 __unwindfunclet$??0TempFile@@QAE@XZ$2
9F8E0 287 __unwindfunclet$??0TempFile@@QAE@XZ$7
9F8ED 287 __ehhandler$??0TempFile@@QAE@XZ
9F920 287 __unwindfunclet$?format_file_time@@YA?AV?$basic_string@_WU?$char_traits@_W@std@@V?$allocator@_W@2@@std@@ABU_FILETIME@@@Z$0
9F92B 287 __unwindfunclet$?format_file_time@@YA?AV?$basic_string@_WU?$char_traits@_W@std@@V?$allocator@_W@2@@std@@ABU_FILETIME@@@Z$1
9F933 287 __unwindfunclet$?format_file_time@@YA?AV?$basic_string@_WU?$char_traits@_W@std@@V?$allocator@_W@2@@std@@ABU_FILETIME@@@Z$2
9F93B 287 __unwindfunclet$?format_file_time@@YA?AV?$basic_string@_WU?$char_traits@_W@std@@V?$allocator@_W@2@@std@@ABU_FILETIME@@@Z$3
9F948 287 __ehhandler$?format_file_time@@YA?AV?$basic_string@_WU?$char_traits@_W@std@@V?$allocator@_W@2@@std@@ABU_FILETIME@@@Z
9F980 287 __unwindfunclet$?upcase@@YA?AV?$basic_string@_WU?$char_traits@_W@std@@V?$allocator@_W@2@@std@@ABV12@@Z$0
9F98D 287 __ehhandler$?upcase@@YA?AV?$basic_string@_WU?$char_traits@_W@std@@V?$allocator@_W@2@@std@@ABV12@@Z
9F9B0 287 __unwindfunclet$?search_path@@YA?AV?$basic_string@_WU?$char_traits@_W@std@@V?$allocator@_W@2@@std@@ABV12@@Z$0
9F9B8 287 __unwindfunclet$?search_path@@YA?AV?$basic_string@_WU?$char_traits@_W@std@@V?$allocator@_W@2@@std@@ABV12@@Z$1
9F9C5 287 __ehhandler$?search_path@@YA?AV?$basic_string@_WU?$char_traits@_W@std@@V?$allocator@_W@2@@std@@ABV12@@Z
9F9F0 287 __unwindfunclet$??6?$basic_ostream@_WU?$char_traits@_W@std@@@std@@QAEAAV01@J@Z$4
9F9F8 287 __unwindfunclet$??6?$basic_ostream@_WU?$char_traits@_W@std@@@std@@QAEAAV01@J@Z$2
9FA00 287 __unwindfunclet$??6?$basic_ostream@_WU?$char_traits@_W@std@@@std@@QAEAAV01@J@Z$3
9FA0D 287 __ehhandler$??6?$basic_ostream@_WU?$char_traits@_W@std@@@std@@QAEAAV01@J@Z
9FA30 288 __unwindfunclet$?do_update_ui@ArchiveTester@@EAEXXZ$0
9FA3B 288 __unwindfunclet$?do_update_ui@ArchiveTester@@EAEXXZ$8
9FA43 288 __unwindfunclet$?do_update_ui@ArchiveTester@@EAEXXZ$1
9FA4B 288 __unwindfunclet$?do_update_ui@ArchiveTester@@EAEXXZ$2
9FA53 288 __unwindfunclet$?do_update_ui@ArchiveTester@@EAEXXZ$3
9FA5B 288 __unwindfunclet$?do_update_ui@ArchiveTester@@EAEXXZ$4
9FA63 288 __unwindfunclet$?do_update_ui@ArchiveTester@@EAEXXZ$5
9FA70 288 __ehhandler$?do_update_ui@ArchiveTester@@EAEXXZ
9FAA0 288 __unwindfunclet$??0ArchiveTester@@QAE@IV?$shared_ptr@VArchive@@@std@@@Z$0
9FAA8 288 __unwindfunclet$??0ArchiveTester@@QAE@IV?$shared_ptr@VArchive@@@std@@@Z$1
9FAB3 288 __unwindfunclet$??0ArchiveTester@@QAE@IV?$shared_ptr@VArchive@@@std@@@Z$2
9FAC0 288 __ehhandler$??0ArchiveTester@@QAE@IV?$shared_ptr@VArchive@@@std@@@Z
9FAF0 288 __ehhandler$?SetTotal@ArchiveTester@@UAGJ_K@Z
9FB10 288 __ehhandler$?SetCompleted@ArchiveTester@@UAGJPB_K@Z
9FB30 288 __ehhandler$?GetStream@ArchiveTester@@UAGJIPAPAUISequentialOutStream@@H@Z
9FB50 288 __unwindfunclet$?SetOperationResult@ArchiveTester@@UAGJH@Z$5
9FB58 288 __unwindfunclet$?SetOperationResult@ArchiveTester@@UAGJH@Z$6
9FB60 288 __unwindfunclet$?SetOperationResult@ArchiveTester@@UAGJH@Z$7
9FB68 288 __unwindfunclet$?SetOperationResult@ArchiveTester@@UAGJH@Z$8
9FB70 288 __unwindfunclet$?SetOperationResult@ArchiveTester@@UAGJH@Z$9
9FB7D 288 __ehhandler$?SetOperationResult@ArchiveTester@@UAGJH@Z
9FBB0 288 __unwindfunclet$?CryptoGetTextPassword@ArchiveTester@@UAGJPAPA_W@Z$5
9FBBD 288 __ehhandler$?CryptoGetTextPassword@ArchiveTester@@UAGJPAPA_W@Z
9FBE0 288 __unwindfunclet$?test@Archive@@QAEXIABV?$vector@IV?$allocator@I@std@@@std@@@Z$0
9FBE8 288 __unwindfunclet$?test@Archive@@QAEXIABV?$vector@IV?$allocator@I@std@@@std@@@Z$1
9FBF0 288 __unwindfunclet$?test@Archive@@QAEXIABV?$vector@IV?$allocator@I@std@@@std@@@Z$2
9FBF8 288 __unwindfunclet$?test@Archive@@QAEXIABV?$vector@IV?$allocator@I@std@@@std@@@Z$3
9FC0A 288 __unwindfunclet$?test@Archive@@QAEXIABV?$vector@IV?$allocator@I@std@@@std@@@Z$5
9FC12 288 __unwindfunclet$?test@Archive@@QAEXIABV?$vector@IV?$allocator@I@std@@@std@@@Z$7
9FC1A 288 __unwindfunclet$?test@Archive@@QAEXIABV?$vector@IV?$allocator@I@std@@@std@@@Z$8
9FC27 288 __ehhandler$?test@Archive@@QAEXIABV?$vector@IV?$allocator@I@std@@@std@@@Z
9FC50 289 __unwindfunclet$??0ProgressMonitor@@QAE@ABV?$basic_string@_WU?$char_traits@_W@std@@V?$allocator@_W@2@@std@@_N1@Z$0
9FC5B 289 __unwindfunclet$??0ProgressMonitor@@QAE@ABV?$basic_string@_WU?$char_traits@_W@std@@V?$allocator@_W@2@@std@@_N1@Z$1
9FC66 289 __unwindfunclet$??0ProgressMonitor@@QAE@ABV?$basic_string@_WU?$char_traits@_W@std@@V?$allocator@_W@2@@std@@_N1@Z$2
9FC71 289 __unwindfunclet$??0ProgressMonitor@@QAE@ABV?$basic_string@_WU?$char_traits@_W@std@@V?$allocator@_W@2@@std@@_N1@Z$10
9FC79 289 __unwindfunclet$??0ProgressMonitor@@QAE@ABV?$basic_string@_WU?$char_traits@_W@std@@V?$allocator@_W@2@@std@@_N1@Z$3
9FC86 289 __ehhandler$??0ProgressMonitor@@QAE@ABV?$basic_string@_WU?$char_traits@_W@std@@V?$allocator@_W@2@@std@@_N1@Z
9FCB0 289 __ehhandler$??1ProgressMonitor@@UAE@XZ
9FCD0 289 __unwindfunclet$?display@ProgressMonitor@@AAEXXZ$0
9FCDB 289 __unwindfunclet$?display@ProgressMonitor@@AAEXXZ$1
9FCE6 289 __unwindfunclet$?display@ProgressMonitor@@AAEXXZ$2
9FCF1 289 __unwindfunclet$?display@ProgressMonitor@@AAEXXZ$3
9FCFC 289 __unwindfunclet$?display@ProgressMonitor@@AAEXXZ$4
9FD07 289 __unwindfunclet$?display@ProgressMonitor@@AAEXXZ$5
9FD12 289 __unwindfunclet$?display@ProgressMonitor@@AAEXXZ$6
9FD1D 289 __unwindfunclet$?display@ProgressMonitor@@AAEXXZ$7
9FD28 289 __unwindfunclet$?display@ProgressMonitor@@AAEXXZ$8
9FD33 289 __unwindfunclet$?display@ProgressMonitor@@AAEXXZ$9
9FD3E 289 __unwindfunclet$?display@ProgressMonitor@@AAEXXZ$10
9FD49 289 __unwindfunclet$?display@ProgressMonitor@@AAEXXZ$11
9FD59 289 __ehhandler$?display@ProgressMonitor@@AAEXXZ
9FD90 289 __unwindfunclet$?update_ui@ProgressMonitor@@QAEX_N@Z$1
9FD9D 289 __ehhandler$?update_ui@ProgressMonitor@@QAEX_N@Z
9FDD0 289 __unwindfunclet$?handle_esc@ProgressMonitor@@IAEXXZ$0
9FDDB 289 __unwindfunclet$?handle_esc@ProgressMonitor@@IAEXXZ$1
9FDE3 289 __unwindfunclet$?handle_esc@ProgressMonitor@@IAEXXZ$2
9FDEB 289 __unwindfunclet$?handle_esc@ProgressMonitor@@IAEXXZ$3
9FDF3 289 __unwindfunclet$?handle_esc@ProgressMonitor@@IAEXXZ$4
9FE00 289 __ehhandler$?handle_esc@ProgressMonitor@@IAEXXZ
9FE30 289 __unwindfunclet$?show@PasswordDialog@@QAE_NXZ$5
9FE38 289 __unwindfunclet$?show@PasswordDialog@@QAE_NXZ$0
9FE40 289 __unwindfunclet$?show@PasswordDialog@@QAE_NXZ$1
9FE48 289 __unwindfunclet$?show@PasswordDialog@@QAE_NXZ$2
9FE50 289 __unwindfunclet$?show@PasswordDialog@@QAE_NXZ$3
9FE5D 289 __ehhandler$?show@PasswordDialog@@QAE_NXZ
9FE90 289 __unwindfunclet$?password_dialog@@YA_NAAV?$basic_string@_WU?$char_traits@_W@std@@V?$allocator@_W@2@@std@@ABV12@@Z$1
9FE98 289 __unwindfunclet$?password_dialog@@YA_NAAV?$basic_string@_WU?$char_traits@_W@std@@V?$allocator@_W@2@@std@@ABV12@@Z$2
9FEA3 289 __unwindfunclet$?password_dialog@@YA_NAAV?$basic_string@_WU?$char_traits@_W@std@@V?$allocator@_W@2@@std@@ABV12@@Z$0
9FEB3 289 __ehhandler$?password_dialog@@YA_NAAV?$basic_string@_WU?$char_traits@_W@std@@V?$allocator@_W@2@@std@@ABV12@@Z
9FEE0 289 __unwindfunclet$?show@OverwriteDialog@@QAE_NXZ$17
9FEE8 289 __unwindfunclet$?show@OverwriteDialog@@QAE_NXZ$0
9FEF0 289 __unwindfunclet$?show@OverwriteDialog@@QAE_NXZ$1
9FEF8 289 __unwindfunclet$?show@OverwriteDialog@@QAE_NXZ$2
9FF00 289 __unwindfunclet$?show@OverwriteDialog@@QAE_NXZ$3
9FF08 289 __unwindfunclet$?show@OverwriteDialog@@QAE_NXZ$4
9FF10 289 __unwindfunclet$?show@OverwriteDialog@@QAE_NXZ$5
9FF1B 289 __unwindfunclet$?show@OverwriteDialog@@QAE_NXZ$6
9FF23 289 __unwindfunclet$?show@OverwriteDialog@@QAE_NXZ$7
9FF2B 289 __unwindfunclet$?show@OverwriteDialog@@QAE_NXZ$8
9FF33 289 __unwindfunclet$?show@OverwriteDialog@@QAE_NXZ$9
9FF3B 289 __unwindfunclet$?show@OverwriteDialog@@QAE_NXZ$10
9FF43 289 __unwindfunclet$?show@OverwriteDialog@@QAE_NXZ$11
9FF4B 289 __unwindfunclet$?show@OverwriteDialog@@QAE_NXZ$12
9FF53 289 __unwindfunclet$?show@OverwriteDialog@@QAE_NXZ$13
9FF5B 289 __unwindfunclet$?show@OverwriteDialog@@QAE_NXZ$14
9FF63 289 __unwindfunclet$?show@OverwriteDialog@@QAE_NXZ$15
9FF70 289 __ehhandler$?show@OverwriteDialog@@QAE_NXZ
9FFA0 289 __unwindfunclet$?overwrite_dialog@@YA_NABV?$basic_string@_WU?$char_traits@_W@std@@V?$allocator@_W@2@@std@@ABUOverwriteFileInfo@@1W4OverwriteDialogKind@@AAUOverwriteOptions@@@Z$1
9FFA8 289 __unwindfunclet$?overwrite_dialog@@YA_NABV?$basic_string@_WU?$char_traits@_W@std@@V?$allocator@_W@2@@std@@ABUOverwriteFileInfo@@1W4OverwriteDialogKind@@AAUOverwriteOptions@@@Z$2
9FFB3 289 __unwindfunclet$?overwrite_dialog@@YA_NABV?$basic_string@_WU?$char_traits@_W@std@@V?$allocator@_W@2@@std@@ABUOverwriteFileInfo@@1W4OverwriteDialogKind@@AAUOverwriteOptions@@@Z$0
9FFC3 289 __ehhandler$?overwrite_dialog@@YA_NABV?$basic_string@_WU?$char_traits@_W@std@@V?$allocator@_W@2@@std@@ABUOverwriteFileInfo@@1W4OverwriteDialogKind@@AAUOverwriteOptions@@@Z
9FFF0 289 __unwindfunclet$?read_controls@ExtractDialog@@AAEXAAUExtractOptions@@@Z$0
9FFF8 289 __unwindfunclet$?read_controls@ExtractDialog@@AAEXAAUExtractOptions@@@Z$1
A0000 289 __unwindfunclet$?read_controls@ExtractDialog@@AAEXAAUExtractOptions@@@Z$2
A000B 289 __unwindfunclet$?read_controls@ExtractDialog@@AAEXAAUExtractOptions@@@Z$3
A0013 289 __unwindfunclet$?read_controls@ExtractDialog@@AAEXAAUExtractOptions@@@Z$4
A001B 289 __unwindfunclet$?read_controls@ExtractDialog@@AAEXAAUExtractOptions@@@Z$5
A0023 289 __unwindfunclet$?read_controls@ExtractDialog@@AAEXAAUExtractOptions@@@Z$7
A0047 289 __ehhandler$?read_controls@ExtractDialog@@AAEXAAUExtractOptions@@@Z
A0080 289 __unwindfunclet$?dialog_proc@ExtractDialog@@EAEHHHPAX@Z$0
A0088 289 __unwindfunclet$?dialog_proc@ExtractDialog@@EAEHHHPAX@Z$1
A0093 289 __unwindfunclet$?dialog_proc@ExtractDialog@@EAEHHHPAX@Z$2
A00A0 289 __ehhandler$?dialog_proc@ExtractDialog@@EAEHHHPAX@Z
A00D0 289 __unwindfunclet$?show@ExtractDialog@@QAE_NXZ$0
A00D8 289 __unwindfunclet$?show@ExtractDialog@@QAE_NXZ$1
A00E0 289 __unwindfunclet$?show@ExtractDialog@@QAE_NXZ$2
A00E8 289 __unwindfunclet$?show@ExtractDialog@@QAE_NXZ$3
A00F0 289 __unwindfunclet$?show@ExtractDialog@@QAE_NXZ$4
A00F8 289 __unwindfunclet$?show@ExtractDialog@@QAE_NXZ$5
A0100 289 __unwindfunclet$?show@ExtractDialog@@QAE_NXZ$6
A0108 289 __unwindfunclet$?show@ExtractDialog@@QAE_NXZ$7
A0110 289 __unwindfunclet$?show@ExtractDialog@@QAE_NXZ$8
A0118 289 __unwindfunclet$?show@ExtractDialog@@QAE_NXZ$9
A0120 289 __unwindfunclet$?show@ExtractDialog@@QAE_NXZ$10
A0128 289 __unwindfunclet$?show@ExtractDialog@@QAE_NXZ$11
A0130 289 __unwindfunclet$?show@ExtractDialog@@QAE_NXZ$12
A0138 289 __unwindfunclet$?show@ExtractDialog@@QAE_NXZ$13
A0140 289 __unwindfunclet$?show@ExtractDialog@@QAE_NXZ$14
A0148 289 __unwindfunclet$?show@ExtractDialog@@QAE_NXZ$15
A0150 289 __unwindfunclet$?show@ExtractDialog@@QAE_NXZ$16
A0158 289 __unwindfunclet$?show@ExtractDialog@@QAE_NXZ$17
A0165 289 __ehhandler$?show@ExtractDialog@@QAE_NXZ
A0190 289 __unwindfunclet$?extract_dialog@@YA_NAAUExtractOptions@@@Z$1
A0198 289 __unwindfunclet$?extract_dialog@@YA_NAAUExtractOptions@@@Z$0
A01A8 289 __ehhandler$?extract_dialog@@YA_NAAUExtractOptions@@@Z
A01E0 289 __unwindfunclet$?retry_or_ignore_error@@YAXABUError@@AA_N1AAV?$list@UError@@V?$allocator@UError@@@std@@@std@@AAVProgressMonitor@@_N4@Z$0
A01EB 289 __unwindfunclet$?retry_or_ignore_error@@YAXABUError@@AA_N1AAV?$list@UError@@V?$allocator@UError@@@std@@@std@@AAVProgressMonitor@@_N4@Z$1
A01F3 289 __unwindfunclet$?retry_or_ignore_error@@YAXABUError@@AA_N1AAV?$list@UError@@V?$allocator@UError@@@std@@@std@@AAVProgressMonitor@@_N4@Z$2
A01FB 289 __unwindfunclet$?retry_or_ignore_error@@YAXABUError@@AA_N1AAV?$list@UError@@V?$allocator@UError@@@std@@@std@@AAVProgressMonitor@@_N4@Z$3
A0203 289 __unwindfunclet$?retry_or_ignore_error@@YAXABUError@@AA_N1AAV?$list@UError@@V?$allocator@UError@@@std@@@std@@AAVProgressMonitor@@_N4@Z$4
A020B 289 __unwindfunclet$?retry_or_ignore_error@@YAXABUError@@AA_N1AAV?$list@UError@@V?$allocator@UError@@@std@@@std@@AAVProgressMonitor@@_N4@Z$5
A0213 289 __unwindfunclet$?retry_or_ignore_error@@YAXABUError@@AA_N1AAV?$list@UError@@V?$allocator@UError@@@std@@@std@@AAVProgressMonitor@@_N4@Z$6
A021B 289 __unwindfunclet$?retry_or_ignore_error@@YAXABUError@@AA_N1AAV?$list@UError@@V?$allocator@UError@@@std@@@std@@AAVProgressMonitor@@_N4@Z$7
A0223 289 __unwindfunclet$?retry_or_ignore_error@@YAXABUError@@AA_N1AAV?$list@UError@@V?$allocator@UError@@@std@@@std@@AAVProgressMonitor@@_N4@Z$8
A022B 289 __unwindfunclet$?retry_or_ignore_error@@YAXABUError@@AA_N1AAV?$list@UError@@V?$allocator@UError@@@std@@@std@@AAVProgressMonitor@@_N4@Z$9
A0233 289 __unwindfunclet$?retry_or_ignore_error@@YAXABUError@@AA_N1AAV?$list@UError@@V?$allocator@UError@@@std@@@std@@AAVProgressMonitor@@_N4@Z$10
A023B 289 __unwindfunclet$?retry_or_ignore_error@@YAXABUError@@AA_N1AAV?$list@UError@@V?$allocator@UError@@@std@@@std@@AAVProgressMonitor@@_N4@Z$11
A0243 289 __unwindfunclet$?retry_or_ignore_error@@YAXABUError@@AA_N1AAV?$list@UError@@V?$allocator@UError@@@std@@@std@@AAVProgressMonitor@@_N4@Z$12
A024E 289 __unwindfunclet$?retry_or_ignore_error@@YAXABUError@@AA_N1AAV?$list@UError@@V?$allocator@UError@@@std@@@std@@AAVProgressMonitor@@_N4@Z$13
A025B 289 __ehhandler$?retry_or_ignore_error@@YAXABUError@@AA_N1AAV?$list@UError@@V?$allocator@UError@@@std@@@std@@AAVProgressMonitor@@_N4@Z
A0290 289 __unwindfunclet$?show_error_log@@YAXABV?$list@UError@@V?$allocator@UError@@@std@@@std@@@Z$0
A0298 289 __unwindfunclet$?show_error_log@@YAXABV?$list@UError@@V?$allocator@UError@@@std@@@std@@@Z$1
A02A0 289 __unwindfunclet$?show_error_log@@YAXABV?$list@UError@@V?$allocator@UError@@@std@@@std@@@Z$2
A02A8 289 __unwindfunclet$?show_error_log@@YAXABV?$list@UError@@V?$allocator@UError@@@std@@@std@@@Z$3
A02B0 289 __unwindfunclet$?show_error_log@@YAXABV?$list@UError@@V?$allocator@UError@@@std@@@std@@@Z$4
A02B8 289 __unwindfunclet$?show_error_log@@YAXABV?$list@UError@@V?$allocator@UError@@@std@@@std@@@Z$5
A02C0 289 __unwindfunclet$?show_error_log@@YAXABV?$list@UError@@V?$allocator@UError@@@std@@@std@@@Z$6
A02C8 289 __unwindfunclet$?show_error_log@@YAXABV?$list@UError@@V?$allocator@UError@@@std@@@std@@@Z$7
A02D0 289 __unwindfunclet$?show_error_log@@YAXABV?$list@UError@@V?$allocator@UError@@@std@@@std@@@Z$8
A02D8 289 __unwindfunclet$?show_error_log@@YAXABV?$list@UError@@V?$allocator@UError@@@std@@@std@@@Z$9
A02E3 289 __unwindfunclet$?show_error_log@@YAXABV?$list@UError@@V?$allocator@UError@@@std@@@std@@@Z$10
A02EB 289 __unwindfunclet$?show_error_log@@YAXABV?$list@UError@@V?$allocator@UError@@@std@@@std@@@Z$74
A02F6 289 __unwindfunclet$?show_error_log@@YAXABV?$list@UError@@V?$allocator@UError@@@std@@@std@@@Z$11
A0301 289 __unwindfunclet$?show_error_log@@YAXABV?$list@UError@@V?$allocator@UError@@@std@@@std@@@Z$12
A0309 289 __unwindfunclet$?show_error_log@@YAXABV?$list@UError@@V?$allocator@UError@@@std@@@std@@@Z$13
A0311 289 __unwindfunclet$?show_error_log@@YAXABV?$list@UError@@V?$allocator@UError@@@std@@@std@@@Z$14
A0319 289 __unwindfunclet$?show_error_log@@YAXABV?$list@UError@@V?$allocator@UError@@@std@@@std@@@Z$15
A0321 289 __unwindfunclet$?show_error_log@@YAXABV?$list@UError@@V?$allocator@UError@@@std@@@std@@@Z$16
A0329 289 __unwindfunclet$?show_error_log@@YAXABV?$list@UError@@V?$allocator@UError@@@std@@@std@@@Z$17
A0331 289 __unwindfunclet$?show_error_log@@YAXABV?$list@UError@@V?$allocator@UError@@@std@@@std@@@Z$18
A033E 289 __ehhandler$?show_error_log@@YAXABV?$list@UError@@V?$allocator@UError@@@std@@@std@@@Z
A0370 289 __unwindfunclet$?get_default_ext@UpdateDialog@@ABE?AV?$basic_string@_WU?$char_traits@_W@std@@V?$allocator@_W@2@@std@@XZ$0
A038E 289 __ehhandler$?get_default_ext@UpdateDialog@@ABE?AV?$basic_string@_WU?$char_traits@_W@std@@V?$allocator@_W@2@@std@@XZ
A03C0 289 __unwindfunclet$?change_extension@UpdateDialog@@AAE_NXZ$0
A03C8 289 __unwindfunclet$?change_extension@UpdateDialog@@AAE_NXZ$1
A03D0 289 __unwindfunclet$?change_extension@UpdateDialog@@AAE_NXZ$2
A03DB 289 __unwindfunclet$?change_extension@UpdateDialog@@AAE_NXZ$3
A03E6 289 __unwindfunclet$?change_extension@UpdateDialog@@AAE_NXZ$4
A03F1 289 __unwindfunclet$?change_extension@UpdateDialog@@AAE_NXZ$5
A03F9 289 __unwindfunclet$?change_extension@UpdateDialog@@AAE_NXZ$6
A0406 289 __ehhandler$?change_extension@UpdateDialog@@AAE_NXZ
A0430 289 __unwindfunclet$?arc_levels@UpdateDialog@@AAE_ND@Z$0
A0438 289 __unwindfunclet$?arc_levels@UpdateDialog@@AAE_ND@Z$3
A0443 289 __unwindfunclet$?arc_levels@UpdateDialog@@AAE_ND@Z$4
A044B 289 __unwindfunclet$?arc_levels@UpdateDialog@@AAE_ND@Z$5
A0458 289 __ehhandler$?arc_levels@UpdateDialog@@AAE_ND@Z
A0490 289 __unwindfunclet$?update_level_list@UpdateDialog@@AAEXXZ$0
A049D 289 __ehhandler$?update_level_list@UpdateDialog@@AAEXXZ
A04D0 289 __unwindfunclet$?set_control_state@UpdateDialog@@AAEXXZ$0
A04DD 289 __ehhandler$?set_control_state@UpdateDialog@@AAEXXZ
A0500 289 __unwindfunclet$?eval_arc_path@UpdateDialog@@AAE?AV?$basic_string@_WU?$char_traits@_W@std@@V?$allocator@_W@2@@std@@XZ$0
A0508 289 __unwindfunclet$?eval_arc_path@UpdateDialog@@AAE?AV?$basic_string@_WU?$char_traits@_W@std@@V?$allocator@_W@2@@std@@XZ$1
A0510 289 __unwindfunclet$?eval_arc_path@UpdateDialog@@AAE?AV?$basic_string@_WU?$char_traits@_W@std@@V?$allocator@_W@2@@std@@XZ$2
A051B 289 __unwindfunclet$?eval_arc_path@UpdateDialog@@AAE?AV?$basic_string@_WU?$char_traits@_W@std@@V?$allocator@_W@2@@std@@XZ$3
A0526 289 __unwindfunclet$?eval_arc_path@UpdateDialog@@AAE?AV?$basic_string@_WU?$char_traits@_W@std@@V?$allocator@_W@2@@std@@XZ$4
A0531 289 __unwindfunclet$?eval_arc_path@UpdateDialog@@AAE?AV?$basic_string@_WU?$char_traits@_W@std@@V?$allocator@_W@2@@std@@XZ$5
A0539 289 __unwindfunclet$?eval_arc_path@UpdateDialog@@AAE?AV?$basic_string@_WU?$char_traits@_W@std@@V?$allocator@_W@2@@std@@XZ$6
A0541 289 __unwindfunclet$?eval_arc_path@UpdateDialog@@AAE?AV?$basic_string@_WU?$char_traits@_W@std@@V?$allocator@_W@2@@std@@XZ$7
A0549 289 __unwindfunclet$?eval_arc_path@UpdateDialog@@AAE?AV?$basic_string@_WU?$char_traits@_W@std@@V?$allocator@_W@2@@std@@XZ$8
A0551 289 __unwindfunclet$?eval_arc_path@UpdateDialog@@AAE?AV?$basic_string@_WU?$char_traits@_W@std@@V?$allocator@_W@2@@std@@XZ$9
A0559 289 __unwindfunclet$?eval_arc_path@UpdateDialog@@AAE?AV?$basic_string@_WU?$char_traits@_W@std@@V?$allocator@_W@2@@std@@XZ$10
A057B 289 __unwindfunclet$?eval_arc_path@UpdateDialog@@AAE?AV?$basic_string@_WU?$char_traits@_W@std@@V?$allocator@_W@2@@std@@XZ$11
A059F 289 __ehhandler$?eval_arc_path@UpdateDialog@@AAE?AV?$basic_string@_WU?$char_traits@_W@std@@V?$allocator@_W@2@@std@@XZ
A05D0 289 __unwindfunclet$?read_controls@UpdateDialog@@AAEXAAUUpdateOptions@@@Z$1
A05D8 289 __unwindfunclet$?read_controls@UpdateDialog@@AAEXAAUUpdateOptions@@@Z$2
A05F1 289 __unwindfunclet$?read_controls@UpdateDialog@@AAEXAAUUpdateOptions@@@Z$3
A060A 289 __unwindfunclet$?read_controls@UpdateDialog@@AAEXAAUUpdateOptions@@@Z$4
A0612 289 __unwindfunclet$?read_controls@UpdateDialog@@AAEXAAUUpdateOptions@@@Z$8
A061A 289 __unwindfunclet$?read_controls@UpdateDialog@@AAEXAAUUpdateOptions@@@Z$9
A0622 289 __unwindfunclet$?read_controls@UpdateDialog@@AAEXAAUUpdateOptions@@@Z$10
A062A 289 __unwindfunclet$?read_controls@UpdateDialog@@AAEXAAUUpdateOptions@@@Z$11
A0632 289 __unwindfunclet$?read_controls@UpdateDialog@@AAEXAAUUpdateOptions@@@Z$12
A063A 289 __unwindfunclet$?read_controls@UpdateDialog@@AAEXAAUUpdateOptions@@@Z$13
A0642 289 __unwindfunclet$?read_controls@UpdateDialog@@AAEXAAUUpdateOptions@@@Z$15
A064A 289 __unwindfunclet$?read_controls@UpdateDialog@@AAEXAAUUpdateOptions@@@Z$0
A0657 289 __ehhandler$?read_controls@UpdateDialog@@AAEXAAUUpdateOptions@@@Z
A0690 289 __unwindfunclet$?write_controls@UpdateDialog@@AAEXABUProfileOptions@@@Z$0
A069B 289 __unwindfunclet$?write_controls@UpdateDialog@@AAEXABUProfileOptions@@@Z$1
A06BA 289 __unwindfunclet$?write_controls@UpdateDialog@@AAEXABUProfileOptions@@@Z$2
A06DC 289 __unwindfunclet$?write_controls@UpdateDialog@@AAEXABUProfileOptions@@@Z$3
A06E4 289 __unwindfunclet$?write_controls@UpdateDialog@@AAEXABUProfileOptions@@@Z$4
A0703 289 __unwindfunclet$?write_controls@UpdateDialog@@AAEXABUProfileOptions@@@Z$5
A0727 289 __ehhandler$?write_controls@UpdateDialog@@AAEXABUProfileOptions@@@Z
A0760 289 __unwindfunclet$?populate_profile_list@UpdateDialog@@AAEXXZ$0
A0768 289 __unwindfunclet$?populate_profile_list@UpdateDialog@@AAEXXZ$1
A0775 289 __ehhandler$?populate_profile_list@UpdateDialog@@AAEXXZ
A07A0 289 __unwindfunclet$?dialog_proc@UpdateDialog@@EAEHHHPAX@Z$3
A07A8 289 __unwindfunclet$?dialog_proc@UpdateDialog@@EAEHHHPAX@Z$4
A07B0 289 __unwindfunclet$?dialog_proc@UpdateDialog@@EAEHHHPAX@Z$5
A07B8 289 __unwindfunclet$?dialog_proc@UpdateDialog@@EAEHHHPAX@Z$6
A07C0 289 __unwindfunclet$?dialog_proc@UpdateDialog@@EAEHHHPAX@Z$7
A07C8 289 __unwindfunclet$?dialog_proc@UpdateDialog@@EAEHHHPAX@Z$8
A07D3 289 __unwindfunclet$?dialog_proc@UpdateDialog@@EAEHHHPAX@Z$9
A07DB 289 __unwindfunclet$?dialog_proc@UpdateDialog@@EAEHHHPAX@Z$10
A07E3 289 __unwindfunclet$?dialog_proc@UpdateDialog@@EAEHHHPAX@Z$11
A07EB 289 __unwindfunclet$?dialog_proc@UpdateDialog@@EAEHHHPAX@Z$25
A07F6 289 __unwindfunclet$?dialog_proc@UpdateDialog@@EAEHHHPAX@Z$12
A0801 289 __unwindfunclet$?dialog_proc@UpdateDialog@@EAEHHHPAX@Z$13
A0809 289 __unwindfunclet$?dialog_proc@UpdateDialog@@EAEHHHPAX@Z$14
A0814 289 __unwindfunclet$?dialog_proc@UpdateDialog@@EAEHHHPAX@Z$15
A081C 289 __unwindfunclet$?dialog_proc@UpdateDialog@@EAEHHHPAX@Z$16
A0827 289 __unwindfunclet$?dialog_proc@UpdateDialog@@EAEHHHPAX@Z$17
A082F 289 __unwindfunclet$?dialog_proc@UpdateDialog@@EAEHHHPAX@Z$18
A083A 289 __unwindfunclet$?dialog_proc@UpdateDialog@@EAEHHHPAX@Z$19
A0842 289 __unwindfunclet$?dialog_proc@UpdateDialog@@EAEHHHPAX@Z$94
A084D 289 __unwindfunclet$?dialog_proc@UpdateDialog@@EAEHHHPAX@Z$21
A0855 289 __unwindfunclet$?dialog_proc@UpdateDialog@@EAEHHHPAX@Z$22
A0860 289 __unwindfunclet$?dialog_proc@UpdateDialog@@EAEHHHPAX@Z$23
A0868 289 __unwindfunclet$?dialog_proc@UpdateDialog@@EAEHHHPAX@Z$24
A0873 289 __unwindfunclet$?dialog_proc@UpdateDialog@@EAEHHHPAX@Z$26
A0883 289 __ehhandler$?dialog_proc@UpdateDialog@@EAEHHHPAX@Z
A08B0 289 __unwindfunclet$??0UpdateDialog@@QAE@_N0AAUUpdateOptions@@AAUUpdateProfiles@@@Z$0
A08B8 289 __unwindfunclet$??0UpdateDialog@@QAE@_N0AAUUpdateOptions@@AAUUpdateProfiles@@@Z$1
A08C0 289 __unwindfunclet$??0UpdateDialog@@QAE@_N0AAUUpdateOptions@@AAUUpdateProfiles@@@Z$2
A08CB 289 __unwindfunclet$??0UpdateDialog@@QAE@_N0AAUUpdateOptions@@AAUUpdateProfiles@@@Z$3
A08D6 289 __unwindfunclet$??0UpdateDialog@@QAE@_N0AAUUpdateOptions@@AAUUpdateProfiles@@@Z$4
A08E1 289 __unwindfunclet$??0UpdateDialog@@QAE@_N0AAUUpdateOptions@@AAUUpdateProfiles@@@Z$5
A08F4 289 __ehhandler$??0UpdateDialog@@QAE@_N0AAUUpdateOptions@@AAUUpdateProfiles@@@Z
A0920 289 __unwindfunclet$?show@UpdateDialog@@QAE_NXZ$1
A0928 289 __unwindfunclet$?show@UpdateDialog@@QAE_NXZ$2
A0933 289 __unwindfunclet$?show@UpdateDialog@@QAE_NXZ$3
A093E 289 __unwindfunclet$?show@UpdateDialog@@QAE_NXZ$4
A0949 289 __unwindfunclet$?show@UpdateDialog@@QAE_NXZ$5
A0954 289 __unwindfunclet$?show@UpdateDialog@@QAE_NXZ$6
A095C 289 __unwindfunclet$?show@UpdateDialog@@QAE_NXZ$7
A0964 289 __unwindfunclet$?show@UpdateDialog@@QAE_NXZ$8
A096C 289 __unwindfunclet$?show@UpdateDialog@@QAE_NXZ$9
A0974 289 __unwindfunclet$?show@UpdateDialog@@QAE_NXZ$10
A097C 289 __unwindfunclet$?show@UpdateDialog@@QAE_NXZ$11
A0984 289 __unwindfunclet$?show@UpdateDialog@@QAE_NXZ$179
A098F 289 __unwindfunclet$?show@UpdateDialog@@QAE_NXZ$12
A0997 289 __unwindfunclet$?show@UpdateDialog@@QAE_NXZ$13
A099F 289 __unwindfunclet$?show@UpdateDialog@@QAE_NXZ$14
A09A7 289 __unwindfunclet$?show@UpdateDialog@@QAE_NXZ$15
A09AF 289 __unwindfunclet$?show@UpdateDialog@@QAE_NXZ$16
A09B7 289 __unwindfunclet$?show@UpdateDialog@@QAE_NXZ$17
A09BF 289 __unwindfunclet$?show@UpdateDialog@@QAE_NXZ$18
A09DE 289 __unwindfunclet$?show@UpdateDialog@@QAE_NXZ$20
A09E9 289 __unwindfunclet$?show@UpdateDialog@@QAE_NXZ$21
A09F1 289 __unwindfunclet$?show@UpdateDialog@@QAE_NXZ$22
A0A13 289 __unwindfunclet$?show@UpdateDialog@@QAE_NXZ$23
A0A35 289 __unwindfunclet$?show@UpdateDialog@@QAE_NXZ$24
A0A3D 289 __unwindfunclet$?show@UpdateDialog@@QAE_NXZ$26
A0A45 289 __unwindfunclet$?show@UpdateDialog@@QAE_NXZ$27
A0A4D 289 __unwindfunclet$?show@UpdateDialog@@QAE_NXZ$28
A0A55 289 __unwindfunclet$?show@UpdateDialog@@QAE_NXZ$29
A0A5D 289 __unwindfunclet$?show@UpdateDialog@@QAE_NXZ$30
A0A65 289 __unwindfunclet$?show@UpdateDialog@@QAE_NXZ$31
A0A6D 289 __unwindfunclet$?show@UpdateDialog@@QAE_NXZ$32
A0A75 289 __unwindfunclet$?show@UpdateDialog@@QAE_NXZ$33
A0A7D 289 __unwindfunclet$?show@UpdateDialog@@QAE_NXZ$34
A0A85 289 __unwindfunclet$?show@UpdateDialog@@QAE_NXZ$35
A0A8D 289 __unwindfunclet$?show@UpdateDialog@@QAE_NXZ$36
A0A95 289 __unwindfunclet$?show@UpdateDialog@@QAE_NXZ$37
A0A9D 289 __unwindfunclet$?show@UpdateDialog@@QAE_NXZ$38
A0AA5 289 __unwindfunclet$?show@UpdateDialog@@QAE_NXZ$39
A0AAD 289 __unwindfunclet$?show@UpdateDialog@@QAE_NXZ$40
A0AB5 289 __unwindfunclet$?show@UpdateDialog@@QAE_NXZ$41
A0ABD 289 __unwindfunclet$?show@UpdateDialog@@QAE_NXZ$42
A0AC5 289 __unwindfunclet$?show@UpdateDialog@@QAE_NXZ$43
A0ACD 289 __unwindfunclet$?show@UpdateDialog@@QAE_NXZ$44
A0AD5 289 __unwindfunclet$?show@UpdateDialog@@QAE_NXZ$45
A0ADD 289 __unwindfunclet$?show@UpdateDialog@@QAE_NXZ$46
A0AE5 289 __unwindfunclet$?show@UpdateDialog@@QAE_NXZ$47
A0AED 289 __unwindfunclet$?show@UpdateDialog@@QAE_NXZ$48
A0AF5 289 __unwindfunclet$?show@UpdateDialog@@QAE_NXZ$49
A0AFD 289 __unwindfunclet$?show@UpdateDialog@@QAE_NXZ$50
A0B0A 289 __ehhandler$?show@UpdateDialog@@QAE_NXZ
A0B40 289 __unwindfunclet$?update_dialog@@YA_N_N0AAUUpdateOptions@@AAUUpdateProfiles@@@Z$0
A0B50 289 __ehhandler$?update_dialog@@YA_N_N0AAUUpdateOptions@@AAUUpdateProfiles@@@Z
A0B80 289 __unwindfunclet$?estimate_column_widths@MultiSelectDialog@@AAE?AV?$vector@IV?$allocator@I@std@@@std@@ABV?$vector@V?$basic_string@_WU?$char_traits@_W@std@@V?$allocator@_W@2@@std@@V?$allocator@V?$basic_string@_WU?$char_traits@_W@std@@V?$allocator@_W@2@@std@@@2@@3@@Z$0
A0B9E 289 __ehhandler$?estimate_column_widths@MultiSelectDialog@@AAE?AV?$vector@IV?$allocator@I@std@@@std@@ABV?$vector@V?$basic_string@_WU?$char_traits@_W@std@@V?$allocator@_W@2@@std@@V?$allocator@V?$basic_string@_WU?$char_traits@_W@std@@V?$allocator@_W@2@@std@@@2@@3@@Z
A0BC0 289 __unwindfunclet$?dialog_proc@MultiSelectDialog@@EAEHHHPAX@Z$0
A0BCD 289 __ehhandler$?dialog_proc@MultiSelectDialog@@EAEHHHPAX@Z
A0C00 289 __unwindfunclet$??0MultiSelectDialog@@QAE@ABV?$basic_string@_WU?$char_traits@_W@std@@V?$allocator@_W@2@@std@@0AAV12@@Z$0
A0C0D 289 __ehhandler$??0MultiSelectDialog@@QAE@ABV?$basic_string@_WU?$char_traits@_W@std@@V?$allocator@_W@2@@std@@0AAV12@@Z
A0C30 289 __unwindfunclet$?show@MultiSelectDialog@@QAE_NXZ$0
A0C38 289 __unwindfunclet$?show@MultiSelectDialog@@QAE_NXZ$1
A0C40 289 __unwindfunclet$?show@MultiSelectDialog@@QAE_NXZ$2
A0C48 289 __unwindfunclet$?show@MultiSelectDialog@@QAE_NXZ$3
A0C50 289 __unwindfunclet$?show@MultiSelectDialog@@QAE_NXZ$4
A0C58 289 __unwindfunclet$?show@MultiSelectDialog@@QAE_NXZ$5
A0C65 289 __ehhandler$?show@MultiSelectDialog@@QAE_NXZ
A0C90 289 __unwindfunclet$?get_formats@FormatLibraryInfoDialog@@AAE?AV?$basic_string@_WU?$char_traits@_W@std@@V?$allocator@_W@2@@std@@I@Z$0
A0CAE 289 __ehhandler$?get_formats@FormatLibraryInfoDialog@@AAE?AV?$basic_string@_WU?$char_traits@_W@std@@V?$allocator@_W@2@@std@@I@Z
A0CD0 289 __unwindfunclet$?dialog_proc@FormatLibraryInfoDialog@@EAEHHHPAX@Z$1
A0CD8 289 __unwindfunclet$?dialog_proc@FormatLibraryInfoDialog@@EAEHHHPAX@Z$2
A0CE0 289 __unwindfunclet$?dialog_proc@FormatLibraryInfoDialog@@EAEHHHPAX@Z$3
A0CE8 289 __unwindfunclet$?dialog_proc@FormatLibraryInfoDialog@@EAEHHHPAX@Z$4
A0CF3 289 __unwindfunclet$?dialog_proc@FormatLibraryInfoDialog@@EAEHHHPAX@Z$12
A0D12 289 __unwindfunclet$?dialog_proc@FormatLibraryInfoDialog@@EAEHHHPAX@Z$6
A0D1D 289 __unwindfunclet$?dialog_proc@FormatLibraryInfoDialog@@EAEHHHPAX@Z$7
A0D28 289 __unwindfunclet$?dialog_proc@FormatLibraryInfoDialog@@EAEHHHPAX@Z$0
A0D35 289 __ehhandler$?dialog_proc@FormatLibraryInfoDialog@@EAEHHHPAX@Z
A0D60 289 __unwindfunclet$?show@FormatLibraryInfoDialog@@QAEXXZ$0
A0D6B 289 __unwindfunclet$?show@FormatLibraryInfoDialog@@QAEXXZ$1
A0D76 289 __unwindfunclet$?show@FormatLibraryInfoDialog@@QAEXXZ$2
A0D81 289 __unwindfunclet$?show@FormatLibraryInfoDialog@@QAEXXZ$3
A0D8C 289 __unwindfunclet$?show@FormatLibraryInfoDialog@@QAEXXZ$4
A0D97 289 __unwindfunclet$?show@FormatLibraryInfoDialog@@QAEXXZ$5
A0DA2 289 __unwindfunclet$?show@FormatLibraryInfoDialog@@QAEXXZ$6
A0DAD 289 __unwindfunclet$?show@FormatLibraryInfoDialog@@QAEXXZ$7
A0DB8 289 __unwindfunclet$?show@FormatLibraryInfoDialog@@QAEXXZ$8
A0DC3 289 __unwindfunclet$?show@FormatLibraryInfoDialog@@QAEXXZ$9
A0DCE 289 __unwindfunclet$?show@FormatLibraryInfoDialog@@QAEXXZ$10
A0DD9 289 __unwindfunclet$?show@FormatLibraryInfoDialog@@QAEXXZ$11
A0DE4 289 __unwindfunclet$?show@FormatLibraryInfoDialog@@QAEXXZ$12
A0DEF 289 __unwindfunclet$?show@FormatLibraryInfoDialog@@QAEXXZ$13
A0DFA 289 __unwindfunclet$?show@FormatLibraryInfoDialog@@QAEXXZ$14
A0E05 289 __unwindfunclet$?show@FormatLibraryInfoDialog@@QAEXXZ$15
A0E15 289 __ehhandler$?show@FormatLibraryInfoDialog@@QAEXXZ
A0E40 289 __unwindfunclet$?dialog_proc@SettingsDialog@@EAEHHHPAX@Z$0
A0E48 289 __unwindfunclet$?dialog_proc@SettingsDialog@@EAEHHHPAX@Z$2
A0E50 289 __unwindfunclet$?dialog_proc@SettingsDialog@@EAEHHHPAX@Z$8
A0E58 289 __unwindfunclet$?dialog_proc@SettingsDialog@@EAEHHHPAX@Z$9
A0E60 289 __unwindfunclet$?dialog_proc@SettingsDialog@@EAEHHHPAX@Z$10
A0E6B 289 __unwindfunclet$?dialog_proc@SettingsDialog@@EAEHHHPAX@Z$12
A0E73 289 __unwindfunclet$?dialog_proc@SettingsDialog@@EAEHHHPAX@Z$13
A0E7B 289 __unwindfunclet$?dialog_proc@SettingsDialog@@EAEHHHPAX@Z$14
A0E86 289 __unwindfunclet$?dialog_proc@SettingsDialog@@EAEHHHPAX@Z$25
A0E91 289 __unwindfunclet$?dialog_proc@SettingsDialog@@EAEHHHPAX@Z$16
A0E99 289 __unwindfunclet$?dialog_proc@SettingsDialog@@EAEHHHPAX@Z$17
A0EA1 289 __unwindfunclet$?dialog_proc@SettingsDialog@@EAEHHHPAX@Z$18
A0EA9 289 __unwindfunclet$?dialog_proc@SettingsDialog@@EAEHHHPAX@Z$19
A0EB4 289 __unwindfunclet$?dialog_proc@SettingsDialog@@EAEHHHPAX@Z$20
A0EBC 289 __unwindfunclet$?dialog_proc@SettingsDialog@@EAEHHHPAX@Z$21
A0EC4 289 __unwindfunclet$?dialog_proc@SettingsDialog@@EAEHHHPAX@Z$22
A0ECC 289 __unwindfunclet$?dialog_proc@SettingsDialog@@EAEHHHPAX@Z$23
A0ED7 289 __unwindfunclet$?dialog_proc@SettingsDialog@@EAEHHHPAX@Z$26
A0EDF 289 __unwindfunclet$?dialog_proc@SettingsDialog@@EAEHHHPAX@Z$27
A0EEA 289 __unwindfunclet$?dialog_proc@SettingsDialog@@EAEHHHPAX@Z$28
A0EF2 289 __unwindfunclet$?dialog_proc@SettingsDialog@@EAEHHHPAX@Z$24
A0EFD 289 __unwindfunclet$?dialog_proc@SettingsDialog@@EAEHHHPAX@Z$11
A0F1C 289 __unwindfunclet$?dialog_proc@SettingsDialog@@EAEHHHPAX@Z$15
A0F40 289 __ehhandler$?dialog_proc@SettingsDialog@@EAEHHHPAX@Z
A0F70 289 __unwindfunclet$?get_available_formats@SettingsDialog@@AAE?AV?$basic_string@_WU?$char_traits@_W@std@@V?$allocator@_W@2@@std@@XZ$0
A0F78 289 __unwindfunclet$?get_available_formats@SettingsDialog@@AAE?AV?$basic_string@_WU?$char_traits@_W@std@@V?$allocator@_W@2@@std@@XZ$1
A0F96 289 __ehhandler$?get_available_formats@SettingsDialog@@AAE?AV?$basic_string@_WU?$char_traits@_W@std@@V?$allocator@_W@2@@std@@XZ
A0FC0 289 __unwindfunclet$?show@SettingsDialog@@QAE_NXZ$0
A0FCB 289 __unwindfunclet$?show@SettingsDialog@@QAE_NXZ$1
A0FD6 289 __unwindfunclet$?show@SettingsDialog@@QAE_NXZ$2
A0FE1 289 __unwindfunclet$?show@SettingsDialog@@QAE_NXZ$3
A0FE9 289 __unwindfunclet$?show@SettingsDialog@@QAE_NXZ$4
A0FF1 289 __unwindfunclet$?show@SettingsDialog@@QAE_NXZ$5
A0FF9 289 __unwindfunclet$?show@SettingsDialog@@QAE_NXZ$8
A1004 289 __unwindfunclet$?show@SettingsDialog@@QAE_NXZ$11
A100F 289 __unwindfunclet$?show@SettingsDialog@@QAE_NXZ$12
A1017 289 __unwindfunclet$?show@SettingsDialog@@QAE_NXZ$13
A101F 289 __unwindfunclet$?show@SettingsDialog@@QAE_NXZ$14
A1027 289 __unwindfunclet$?show@SettingsDialog@@QAE_NXZ$15
A102F 289 __unwindfunclet$?show@SettingsDialog@@QAE_NXZ$16
A1037 289 __unwindfunclet$?show@SettingsDialog@@QAE_NXZ$17
A103F 289 __unwindfunclet$?show@SettingsDialog@@QAE_NXZ$18
A1047 289 __unwindfunclet$?show@SettingsDialog@@QAE_NXZ$19
A104F 289 __unwindfunclet$?show@SettingsDialog@@QAE_NXZ$20
A1057 289 __unwindfunclet$?show@SettingsDialog@@QAE_NXZ$21
A105F 289 __unwindfunclet$?show@SettingsDialog@@QAE_NXZ$22
A1067 289 __unwindfunclet$?show@SettingsDialog@@QAE_NXZ$23
A106F 289 __unwindfunclet$?show@SettingsDialog@@QAE_NXZ$24
A1077 289 __unwindfunclet$?show@SettingsDialog@@QAE_NXZ$25
A107F 289 __unwindfunclet$?show@SettingsDialog@@QAE_NXZ$26
A108A 289 __unwindfunclet$?show@SettingsDialog@@QAE_NXZ$27
A1095 289 __unwindfunclet$?show@SettingsDialog@@QAE_NXZ$28
A10A0 289 __unwindfunclet$?show@SettingsDialog@@QAE_NXZ$29
A10AB 289 __unwindfunclet$?show@SettingsDialog@@QAE_NXZ$30
A10BB 289 __ehhandler$?show@SettingsDialog@@QAE_NXZ
A10F0 289 __unwindfunclet$?settings_dialog@@YA_NAAUPluginSettings@@@Z$1
A10F8 289 __unwindfunclet$?settings_dialog@@YA_NAAUPluginSettings@@@Z$0
A1108 289 __ehhandler$?settings_dialog@@YA_NAAUPluginSettings@@@Z
A1140 289 __unwindfunclet$?dialog_proc@AttrDialog@@EAEHHHPAX@Z$0
A114D 289 __ehhandler$?dialog_proc@AttrDialog@@EAEHHHPAX@Z
A1180 289 __unwindfunclet$??$for_each@V?$_List_const_iterator@V?$_List_val@U?$_List_simple_types@V?$basic_string@_WU?$char_traits@_W@std@@V?$allocator@_W@2@@std@@@std@@@std@@@std@@V<lambda_1>@?1???R3?1??generate_masks@SettingsDialog@@AAEXXZ@QBE@ABU?$pair@$$CBV?$vector@EV?$allocator@E@std@@@std@@UArcFormat@@@2@@Z@@std@@YA?AV<lambda_1>@?1???R1?1??generate_masks@SettingsDialog@@AAEXXZ@QBE@ABU?$pair@$$CBV?$vector@EV?$allocator@E@std@@@std@@UArcFormat@@@0@@Z@V?$_List_const_iterator@V?$_List_val@U?$_List_simple_types@V?$basic_string@_WU?$char_traits@_W@std@@V?$allocator@_W@2@@std@@@std@@@std@@@0@1V1?1???R1?1??23@AAEXXZ@QBE@0@Z@@Z$0
A1188 289 __unwindfunclet$??$for_each@V?$_List_const_iterator@V?$_List_val@U?$_List_simple_types@V?$basic_string@_WU?$char_traits@_W@std@@V?$allocator@_W@2@@std@@@std@@@std@@@std@@V<lambda_1>@?1???R3?1??generate_masks@SettingsDialog@@AAEXXZ@QBE@ABU?$pair@$$CBV?$vector@EV?$allocator@E@std@@@std@@UArcFormat@@@2@@Z@@std@@YA?AV<lambda_1>@?1???R1?1??generate_masks@SettingsDialog@@AAEXXZ@QBE@ABU?$pair@$$CBV?$vector@EV?$allocator@E@std@@@std@@UArcFormat@@@0@@Z@V?$_List_const_iterator@V?$_List_val@U?$_List_simple_types@V?$basic_string@_WU?$char_traits@_W@std@@V?$allocator@_W@2@@std@@@std@@@std@@@0@1V1?1???R1?1??23@AAEXXZ@QBE@0@Z@@Z$1
A1195 289 __ehhandler$??$for_each@V?$_List_const_iterator@V?$_List_val@U?$_List_simple_types@V?$basic_string@_WU?$char_traits@_W@std@@V?$allocator@_W@2@@std@@@std@@@std@@@std@@V<lambda_1>@?1???R3?1??generate_masks@SettingsDialog@@AAEXXZ@QBE@ABU?$pair@$$CBV?$vector@EV?$allocator@E@std@@@std@@UArcFormat@@@2@@Z@@std@@YA?AV<lambda_1>@?1???R1?1??generate_masks@SettingsDialog@@AAEXXZ@QBE@ABU?$pair@$$CBV?$vector@EV?$allocator@E@std@@@std@@UArcFormat@@@0@@Z@V?$_List_const_iterator@V?$_List_val@U?$_List_simple_types@V?$basic_string@_WU?$char_traits@_W@std@@V?$allocator@_W@2@@std@@@std@@@std@@@0@1V1?1???R1?1??23@AAEXXZ@QBE@0@Z@@Z
A11C0 289 __unwindfunclet$??$_Find_lower_bound@V?$basic_string@_WU?$char_traits@_W@std@@V?$allocator@_W@2@@std@@@?$_Tree@V?$_Tset_traits@V?$basic_string@_WU?$char_traits@_W@std@@V?$allocator@_W@2@@std@@UItemCompare@?1??show@MultiSelectDialog@@QAE_NXZ@V?$allocator@V?$basic_string@_WU?$char_traits@_W@std@@V?$allocator@_W@2@@std@@@2@$0A@@std@@@std@@IBE?AU?$_Tree_find_result@PAU?$_Tree_node@V?$basic_string@_WU?$char_traits@_W@std@@V?$allocator@_W@2@@std@@PAX@std@@@1@ABV?$basic_string@_WU?$char_traits@_W@std@@V?$allocator@_W@2@@1@@Z$0
A11CD 289 __ehhandler$??$_Find_lower_bound@V?$basic_string@_WU?$char_traits@_W@std@@V?$allocator@_W@2@@std@@@?$_Tree@V?$_Tset_traits@V?$basic_string@_WU?$char_traits@_W@std@@V?$allocator@_W@2@@std@@UItemCompare@?1??show@MultiSelectDialog@@QAE_NXZ@V?$allocator@V?$basic_string@_WU?$char_traits@_W@std@@V?$allocator@_W@2@@std@@@2@$0A@@std@@@std@@IBE?AU?$_Tree_find_result@PAU?$_Tree_node@V?$basic_string@_WU?$char_traits@_W@std@@V?$allocator@_W@2@@std@@PAX@std@@@1@ABV?$basic_string@_WU?$char_traits@_W@std@@V?$allocator@_W@2@@1@@Z
A1200 289 __unwindfunclet$??$_Sort_unchecked@PAV?$vector@EV?$allocator@E@std@@@std@@V<lambda_2>@?4??show@UpdateDialog@@QAE_NXZ@@std@@YAXPAV?$vector@EV?$allocator@E@std@@@0@0HV<lambda_2>@?4??show@UpdateDialog@@QAE_NXZ@@Z$0
A1208 289 __unwindfunclet$??$_Sort_unchecked@PAV?$vector@EV?$allocator@E@std@@@std@@V<lambda_2>@?4??show@UpdateDialog@@QAE_NXZ@@std@@YAXPAV?$vector@EV?$allocator@E@std@@@0@0HV<lambda_2>@?4??show@UpdateDialog@@QAE_NXZ@@Z$1
A1215 289 __ehhandler$??$_Sort_unchecked@PAV?$vector@EV?$allocator@E@std@@@std@@V<lambda_2>@?4??show@UpdateDialog@@QAE_NXZ@@std@@YAXPAV?$vector@EV?$allocator@E@std@@@0@0HV<lambda_2>@?4??show@UpdateDialog@@QAE_NXZ@@Z
A1240 289 __unwindfunclet$??$_Assign_counted_range@V?$_List_unchecked_const_iterator@V?$_List_val@U?$_List_simple_types@V?$basic_string@_WU?$char_traits@_W@std@@V?$allocator@_W@2@@std@@@std@@@std@@U_Iterator_base0@2@@std@@@?$vector@V?$basic_string@_WU?$char_traits@_W@std@@V?$allocator@_W@2@@std@@V?$allocator@V?$basic_string@_WU?$char_traits@_W@std@@V?$allocator@_W@2@@std@@@2@@std@@AAEXV?$_List_unchecked_const_iterator@V?$_List_val@U?$_List_simple_types@V?$basic_string@_WU?$char_traits@_W@std@@V?$allocator@_W@2@@std@@@std@@@std@@U_Iterator_base0@2@@1@I@Z$0
A124D 289 __ehhandler$??$_Assign_counted_range@V?$_List_unchecked_const_iterator@V?$_List_val@U?$_List_simple_types@V?$basic_string@_WU?$char_traits@_W@std@@V?$allocator@_W@2@@std@@@std@@@std@@U_Iterator_base0@2@@std@@@?$vector@V?$basic_string@_WU?$char_traits@_W@std@@V?$allocator@_W@2@@std@@V?$allocator@V?$basic_string@_WU?$char_traits@_W@std@@V?$allocator@_W@2@@std@@@2@@std@@AAEXV?$_List_unchecked_const_iterator@V?$_List_val@U?$_List_simple_types@V?$basic_string@_WU?$char_traits@_W@std@@V?$allocator@_W@2@@std@@@std@@@std@@U_Iterator_base0@2@@1@I@Z
A1270 289 __unwindfunclet$??$_Sort_unchecked@PAV?$basic_string@_WU?$char_traits@_W@std@@V?$allocator@_W@2@@std@@UItemCompare@?1??show@MultiSelectDialog@@QAE_NXZ@@std@@YAXPAV?$basic_string@_WU?$char_traits@_W@std@@V?$allocator@_W@2@@0@0HUItemCompare@?1??show@MultiSelectDialog@@QAE_NXZ@@Z$0
A1278 289 __unwindfunclet$??$_Sort_unchecked@PAV?$basic_string@_WU?$char_traits@_W@std@@V?$allocator@_W@2@@std@@UItemCompare@?1??show@MultiSelectDialog@@QAE_NXZ@@std@@YAXPAV?$basic_string@_WU?$char_traits@_W@std@@V?$allocator@_W@2@@0@0HUItemCompare@?1??show@MultiSelectDialog@@QAE_NXZ@@Z$5
A1285 289 __ehhandler$??$_Sort_unchecked@PAV?$basic_string@_WU?$char_traits@_W@std@@V?$allocator@_W@2@@std@@UItemCompare@?1??show@MultiSelectDialog@@QAE_NXZ@@std@@YAXPAV?$basic_string@_WU?$char_traits@_W@std@@V?$allocator@_W@2@@0@0HUItemCompare@?1??show@MultiSelectDialog@@QAE_NXZ@@Z
A12B0 289 __unwindfunclet$??$_Insertion_sort_unchecked@PAV?$vector@EV?$allocator@E@std@@@std@@V<lambda_2>@?4??show@UpdateDialog@@QAE_NXZ@@std@@YAPAV?$vector@EV?$allocator@E@std@@@0@QAV10@0V<lambda_2>@?4??show@UpdateDialog@@QAE_NXZ@@Z$0
A12BD 289 __ehhandler$??$_Insertion_sort_unchecked@PAV?$vector@EV?$allocator@E@std@@@std@@V<lambda_2>@?4??show@UpdateDialog@@QAE_NXZ@@std@@YAPAV?$vector@EV?$allocator@E@std@@@0@QAV10@0V<lambda_2>@?4??show@UpdateDialog@@QAE_NXZ@@Z
A12E0 289 __unwindfunclet$??$_Uninitialized_copy_n@V?$_List_unchecked_const_iterator@V?$_List_val@U?$_List_simple_types@V?$basic_string@_WU?$char_traits@_W@std@@V?$allocator@_W@2@@std@@@std@@@std@@U_Iterator_base0@2@@std@@V?$allocator@V?$basic_string@_WU?$char_traits@_W@std@@V?$allocator@_W@2@@std@@@2@@std@@YAPAV?$basic_string@_WU?$char_traits@_W@std@@V?$allocator@_W@2@@0@V?$_List_unchecked_const_iterator@V?$_List_val@U?$_List_simple_types@V?$basic_string@_WU?$char_traits@_W@std@@V?$allocator@_W@2@@std@@@std@@@std@@U_Iterator_base0@2@@0@IPAV10@AAV?$allocator@V?$basic_string@_WU?$char_traits@_W@std@@V?$allocator@_W@2@@std@@@0@@Z$0
A12ED 289 __ehhandler$??$_Uninitialized_copy_n@V?$_List_unchecked_const_iterator@V?$_List_val@U?$_List_simple_types@V?$basic_string@_WU?$char_traits@_W@std@@V?$allocator@_W@2@@std@@@std@@@std@@U_Iterator_base0@2@@std@@V?$allocator@V?$basic_string@_WU?$char_traits@_W@std@@V?$allocator@_W@2@@std@@@2@@std@@YAPAV?$basic_string@_WU?$char_traits@_W@std@@V?$allocator@_W@2@@0@V?$_List_unchecked_const_iterator@V?$_List_val@U?$_List_simple_types@V?$basic_string@_WU?$char_traits@_W@std@@V?$allocator@_W@2@@std@@@std@@@std@@U_Iterator_base0@2@@0@IPAV10@AAV?$allocator@V?$basic_string@_WU?$char_traits@_W@std@@V?$allocator@_W@2@@std@@@0@@Z
A1310 289 __unwindfunclet$??$_Insertion_sort_unchecked@PAV?$basic_string@_WU?$char_traits@_W@std@@V?$allocator@_W@2@@std@@UItemCompare@?1??show@MultiSelectDialog@@QAE_NXZ@@std@@YAPAV?$basic_string@_WU?$char_traits@_W@std@@V?$allocator@_W@2@@0@QAV10@0UItemCompare@?1??show@MultiSelectDialog@@QAE_NXZ@@Z$0
A1318 289 __unwindfunclet$??$_Insertion_sort_unchecked@PAV?$basic_string@_WU?$char_traits@_W@std@@V?$allocator@_W@2@@std@@UItemCompare@?1??show@MultiSelectDialog@@QAE_NXZ@@std@@YAPAV?$basic_string@_WU?$char_traits@_W@std@@V?$allocator@_W@2@@0@QAV10@0UItemCompare@?1??show@MultiSelectDialog@@QAE_NXZ@@Z$4
A1320 289 __unwindfunclet$??$_Insertion_sort_unchecked@PAV?$basic_string@_WU?$char_traits@_W@std@@V?$allocator@_W@2@@std@@UItemCompare@?1??show@MultiSelectDialog@@QAE_NXZ@@std@@YAPAV?$basic_string@_WU?$char_traits@_W@std@@V?$allocator@_W@2@@0@QAV10@0UItemCompare@?1??show@MultiSelectDialog@@QAE_NXZ@@Z$6
A132B 289 __unwindfunclet$??$_Insertion_sort_unchecked@PAV?$basic_string@_WU?$char_traits@_W@std@@V?$allocator@_W@2@@std@@UItemCompare@?1??show@MultiSelectDialog@@QAE_NXZ@@std@@YAPAV?$basic_string@_WU?$char_traits@_W@std@@V?$allocator@_W@2@@0@QAV10@0UItemCompare@?1??show@MultiSelectDialog@@QAE_NXZ@@Z$13
A1333 289 __unwindfunclet$??$_Insertion_sort_unchecked@PAV?$basic_string@_WU?$char_traits@_W@std@@V?$allocator@_W@2@@std@@UItemCompare@?1??show@MultiSelectDialog@@QAE_NXZ@@std@@YAPAV?$basic_string@_WU?$char_traits@_W@std@@V?$allocator@_W@2@@0@QAV10@0UItemCompare@?1??show@MultiSelectDialog@@QAE_NXZ@@Z$15
A1343 289 __ehhandler$??$_Insertion_sort_unchecked@PAV?$basic_string@_WU?$char_traits@_W@std@@V?$allocator@_W@2@@std@@UItemCompare@?1??show@MultiSelectDialog@@QAE_NXZ@@std@@YAPAV?$basic_string@_WU?$char_traits@_W@std@@V?$allocator@_W@2@@0@QAV10@0UItemCompare@?1??show@MultiSelectDialog@@QAE_NXZ@@Z
A1370 289 __unwindfunclet$??$_Partition_by_median_guess_unchecked@PAV?$basic_string@_WU?$char_traits@_W@std@@V?$allocator@_W@2@@std@@UItemCompare@?1??show@MultiSelectDialog@@QAE_NXZ@@std@@YA?AU?$pair@PAV?$basic_string@_WU?$char_traits@_W@std@@V?$allocator@_W@2@@std@@PAV12@@0@PAV?$basic_string@_WU?$char_traits@_W@std@@V?$allocator@_W@2@@0@0UItemCompare@?1??show@MultiSelectDialog@@QAE_NXZ@@Z$16
A1378 289 __unwindfunclet$??$_Partition_by_median_guess_unchecked@PAV?$basic_string@_WU?$char_traits@_W@std@@V?$allocator@_W@2@@std@@UItemCompare@?1??show@MultiSelectDialog@@QAE_NXZ@@std@@YA?AU?$pair@PAV?$basic_string@_WU?$char_traits@_W@std@@V?$allocator@_W@2@@std@@PAV12@@0@PAV?$basic_string@_WU?$char_traits@_W@std@@V?$allocator@_W@2@@0@0UItemCompare@?1??show@MultiSelectDialog@@QAE_NXZ@@Z$23
A1380 289 __unwindfunclet$??$_Partition_by_median_guess_unchecked@PAV?$basic_string@_WU?$char_traits@_W@std@@V?$allocator@_W@2@@std@@UItemCompare@?1??show@MultiSelectDialog@@QAE_NXZ@@std@@YA?AU?$pair@PAV?$basic_string@_WU?$char_traits@_W@std@@V?$allocator@_W@2@@std@@PAV12@@0@PAV?$basic_string@_WU?$char_traits@_W@std@@V?$allocator@_W@2@@0@0UItemCompare@?1??show@MultiSelectDialog@@QAE_NXZ@@Z$20
A1388 289 __unwindfunclet$??$_Partition_by_median_guess_unchecked@PAV?$basic_string@_WU?$char_traits@_W@std@@V?$allocator@_W@2@@std@@UItemCompare@?1??show@MultiSelectDialog@@QAE_NXZ@@std@@YA?AU?$pair@PAV?$basic_string@_WU?$char_traits@_W@std@@V?$allocator@_W@2@@std@@PAV12@@0@PAV?$basic_string@_WU?$char_traits@_W@std@@V?$allocator@_W@2@@0@0UItemCompare@?1??show@MultiSelectDialog@@QAE_NXZ@@Z$25
A1390 289 __unwindfunclet$??$_Partition_by_median_guess_unchecked@PAV?$basic_string@_WU?$char_traits@_W@std@@V?$allocator@_W@2@@std@@UItemCompare@?1??show@MultiSelectDialog@@QAE_NXZ@@std@@YA?AU?$pair@PAV?$basic_string@_WU?$char_traits@_W@std@@V?$allocator@_W@2@@std@@PAV12@@0@PAV?$basic_string@_WU?$char_traits@_W@std@@V?$allocator@_W@2@@0@0UItemCompare@?1??show@MultiSelectDialog@@QAE_NXZ@@Z$8
A1398 289 __unwindfunclet$??$_Partition_by_median_guess_unchecked@PAV?$basic_string@_WU?$char_traits@_W@std@@V?$allocator@_W@2@@std@@UItemCompare@?1??show@MultiSelectDialog@@QAE_NXZ@@std@@YA?AU?$pair@PAV?$basic_string@_WU?$char_traits@_W@std@@V?$allocator@_W@2@@std@@PAV12@@0@PAV?$basic_string@_WU?$char_traits@_W@std@@V?$allocator@_W@2@@0@0UItemCompare@?1??show@MultiSelectDialog@@QAE_NXZ@@Z$12
A13A0 289 __unwindfunclet$??$_Partition_by_median_guess_unchecked@PAV?$basic_string@_WU?$char_traits@_W@std@@V?$allocator@_W@2@@std@@UItemCompare@?1??show@MultiSelectDialog@@QAE_NXZ@@std@@YA?AU?$pair@PAV?$basic_string@_WU?$char_traits@_W@std@@V?$allocator@_W@2@@std@@PAV12@@0@PAV?$basic_string@_WU?$char_traits@_W@std@@V?$allocator@_W@2@@0@0UItemCompare@?1??show@MultiSelectDialog@@QAE_NXZ@@Z$0
A13A8 289 __unwindfunclet$??$_Partition_by_median_guess_unchecked@PAV?$basic_string@_WU?$char_traits@_W@std@@V?$allocator@_W@2@@std@@UItemCompare@?1??show@MultiSelectDialog@@QAE_NXZ@@std@@YA?AU?$pair@PAV?$basic_string@_WU?$char_traits@_W@std@@V?$allocator@_W@2@@std@@PAV12@@0@PAV?$basic_string@_WU?$char_traits@_W@std@@V?$allocator@_W@2@@0@0UItemCompare@?1??show@MultiSelectDialog@@QAE_NXZ@@Z$4
A13B5 289 __ehhandler$??$_Partition_by_median_guess_unchecked@PAV?$basic_string@_WU?$char_traits@_W@std@@V?$allocator@_W@2@@std@@UItemCompare@?1??show@MultiSelectDialog@@QAE_NXZ@@std@@YA?AU?$pair@PAV?$basic_string@_WU?$char_traits@_W@std@@V?$allocator@_W@2@@std@@PAV12@@0@PAV?$basic_string@_WU?$char_traits@_W@std@@V?$allocator@_W@2@@0@0UItemCompare@?1??show@MultiSelectDialog@@QAE_NXZ@@Z
A13E0 289 __unwindfunclet$??$_Pop_heap_hole_by_index@PAV?$basic_string@_WU?$char_traits@_W@std@@V?$allocator@_W@2@@std@@V12@UItemCompare@?1??show@MultiSelectDialog@@QAE_NXZ@@std@@YAXPAV?$basic_string@_WU?$char_traits@_W@std@@V?$allocator@_W@2@@0@HH$$QAV10@UItemCompare@?1??show@MultiSelectDialog@@QAE_NXZ@@Z$0
A13ED 289 __ehhandler$??$_Pop_heap_hole_by_index@PAV?$basic_string@_WU?$char_traits@_W@std@@V?$allocator@_W@2@@std@@V12@UItemCompare@?1??show@MultiSelectDialog@@QAE_NXZ@@std@@YAXPAV?$basic_string@_WU?$char_traits@_W@std@@V?$allocator@_W@2@@0@HH$$QAV10@UItemCompare@?1??show@MultiSelectDialog@@QAE_NXZ@@Z
A1420 289 __unwindfunclet$??$_Push_heap_by_index@PAV?$basic_string@_WU?$char_traits@_W@std@@V?$allocator@_W@2@@std@@V12@UItemCompare@?1??show@MultiSelectDialog@@QAE_NXZ@@std@@YAXPAV?$basic_string@_WU?$char_traits@_W@std@@V?$allocator@_W@2@@0@HH$$QAV10@UItemCompare@?1??show@MultiSelectDialog@@QAE_NXZ@@Z$0
A142D 289 __ehhandler$??$_Push_heap_by_index@PAV?$basic_string@_WU?$char_traits@_W@std@@V?$allocator@_W@2@@std@@V12@UItemCompare@?1??show@MultiSelectDialog@@QAE_NXZ@@std@@YAXPAV?$basic_string@_WU?$char_traits@_W@std@@V?$allocator@_W@2@@0@HH$$QAV10@UItemCompare@?1??show@MultiSelectDialog@@QAE_NXZ@@Z
A1460 290 __unwindfunclet$?do_update_ui@ArchiveUpdateProgress@@EAEXXZ$0
A146B 290 __unwindfunclet$?do_update_ui@ArchiveUpdateProgress@@EAEXXZ$16
A1473 290 __unwindfunclet$?do_update_ui@ArchiveUpdateProgress@@EAEXXZ$1
A147B 290 __unwindfunclet$?do_update_ui@ArchiveUpdateProgress@@EAEXXZ$22
A1483 290 __unwindfunclet$?do_update_ui@ArchiveUpdateProgress@@EAEXXZ$2
A148B 290 __unwindfunclet$?do_update_ui@ArchiveUpdateProgress@@EAEXXZ$3
A1493 290 __unwindfunclet$?do_update_ui@ArchiveUpdateProgress@@EAEXXZ$4
A149B 290 __unwindfunclet$?do_update_ui@ArchiveUpdateProgress@@EAEXXZ$5
A14A3 290 __unwindfunclet$?do_update_ui@ArchiveUpdateProgress@@EAEXXZ$6
A14AB 290 __unwindfunclet$?do_update_ui@ArchiveUpdateProgress@@EAEXXZ$7
A14B3 290 __unwindfunclet$?do_update_ui@ArchiveUpdateProgress@@EAEXXZ$8
A14BB 290 __unwindfunclet$?do_update_ui@ArchiveUpdateProgress@@EAEXXZ$30
A14C6 290 __unwindfunclet$?do_update_ui@ArchiveUpdateProgress@@EAEXXZ$9
A14CE 290 __unwindfunclet$?do_update_ui@ArchiveUpdateProgress@@EAEXXZ$10
A14D6 290 __unwindfunclet$?do_update_ui@ArchiveUpdateProgress@@EAEXXZ$11
A14DE 290 __unwindfunclet$?do_update_ui@ArchiveUpdateProgress@@EAEXXZ$12
A14EB 290 __ehhandler$?do_update_ui@ArchiveUpdateProgress@@EAEXXZ
A1520 290 __unwindfunclet$?on_write_archive@ArchiveUpdateProgress@@QAEXI@Z$0
A152D 290 __ehhandler$?on_write_archive@ArchiveUpdateProgress@@QAEXI@Z
A1550 290 __unwindfunclet$??0SimpleUpdateStream@@QAE@ABV?$basic_string@_WU?$char_traits@_W@std@@V?$allocator@_W@2@@std@@V?$shared_ptr@VArchiveUpdateProgress@@@2@@Z$2
A1558 290 __unwindfunclet$??0SimpleUpdateStream@@QAE@ABV?$basic_string@_WU?$char_traits@_W@std@@V?$allocator@_W@2@@std@@V?$shared_ptr@VArchiveUpdateProgress@@@2@@Z$4
A1560 290 __unwindfunclet$??0SimpleUpdateStream@@QAE@ABV?$basic_string@_WU?$char_traits@_W@std@@V?$allocator@_W@2@@std@@V?$shared_ptr@VArchiveUpdateProgress@@@2@@Z$5
A156B 290 __unwindfunclet$??0SimpleUpdateStream@@QAE@ABV?$basic_string@_WU?$char_traits@_W@std@@V?$allocator@_W@2@@std@@V?$shared_ptr@VArchiveUpdateProgress@@@2@@Z$6
A1576 290 __unwindfunclet$??0SimpleUpdateStream@@QAE@ABV?$basic_string@_WU?$char_traits@_W@std@@V?$allocator@_W@2@@std@@V?$shared_ptr@VArchiveUpdateProgress@@@2@@Z$7
A1583 290 __ehhandler$??0SimpleUpdateStream@@QAE@ABV?$basic_string@_WU?$char_traits@_W@std@@V?$allocator@_W@2@@std@@V?$shared_ptr@VArchiveUpdateProgress@@@2@@Z
A15A0 290 __unwindfunclet$?Write@SfxUpdateStream@@UAGJPBXIPAI@Z$7
A15AD 290 __ehhandler$?Write@SfxUpdateStream@@UAGJPBXIPAI@Z
A15D0 290 __ehhandler$?Seek@SimpleUpdateStream@@UAGJ_JIPA_K@Z
A15F0 290 __unwindfunclet$?SetSize@SimpleUpdateStream@@UAGJ_K@Z$7
A15FD 290 __ehhandler$?SetSize@SimpleUpdateStream@@UAGJ_K@Z
A1620 290 __unwindfunclet$??0SfxUpdateStream@@QAE@ABV?$basic_string@_WU?$char_traits@_W@std@@V?$allocator@_W@2@@std@@ABUSfxOptions@@V?$shared_ptr@VArchiveUpdateProgress@@@2@@Z$4
A1628 290 __unwindfunclet$??0SfxUpdateStream@@QAE@ABV?$basic_string@_WU?$char_traits@_W@std@@V?$allocator@_W@2@@std@@ABUSfxOptions@@V?$shared_ptr@VArchiveUpdateProgress@@@2@@Z$6
A1630 290 __unwindfunclet$??0SfxUpdateStream@@QAE@ABV?$basic_string@_WU?$char_traits@_W@std@@V?$allocator@_W@2@@std@@ABUSfxOptions@@V?$shared_ptr@VArchiveUpdateProgress@@@2@@Z$7
A163B 290 __unwindfunclet$??0SfxUpdateStream@@QAE@ABV?$basic_string@_WU?$char_traits@_W@std@@V?$allocator@_W@2@@std@@ABUSfxOptions@@V?$shared_ptr@VArchiveUpdateProgress@@@2@@Z$8
A1646 290 __unwindfunclet$??0SfxUpdateStream@@QAE@ABV?$basic_string@_WU?$char_traits@_W@std@@V?$allocator@_W@2@@std@@ABUSfxOptions@@V?$shared_ptr@VArchiveUpdateProgress@@@2@@Z$9
A1653 290 __ehhandler$??0SfxUpdateStream@@QAE@ABV?$basic_string@_WU?$char_traits@_W@std@@V?$allocator@_W@2@@std@@ABUSfxOptions@@V?$shared_ptr@VArchiveUpdateProgress@@@2@@Z
A1670 290 __ehhandler$?Seek@SfxUpdateStream@@UAGJ_JIPA_K@Z
A1690 290 __unwindfunclet$?SetSize@SfxUpdateStream@@UAGJ_K@Z$7
A169D 290 __ehhandler$?SetSize@SfxUpdateStream@@UAGJ_K@Z
A16C0 290 __unwindfunclet$?get_volume_path@MultiVolumeUpdateStream@@AAE?AV?$basic_string@_WU?$char_traits@_W@std@@V?$allocator@_W@2@@std@@_K@Z$0
A16C8 290 __unwindfunclet$?get_volume_path@MultiVolumeUpdateStream@@AAE?AV?$basic_string@_WU?$char_traits@_W@std@@V?$allocator@_W@2@@std@@_K@Z$1
A16D0 290 __unwindfunclet$?get_volume_path@MultiVolumeUpdateStream@@AAE?AV?$basic_string@_WU?$char_traits@_W@std@@V?$allocator@_W@2@@std@@_K@Z$2
A16DD 290 __ehhandler$?get_volume_path@MultiVolumeUpdateStream@@AAE?AV?$basic_string@_WU?$char_traits@_W@std@@V?$allocator@_W@2@@std@@_K@Z
A1710 290 __unwindfunclet$??0MultiVolumeUpdateStream@@QAE@ABV?$basic_string@_WU?$char_traits@_W@std@@V?$allocator@_W@2@@std@@_KV?$shared_ptr@VArchiveUpdateProgress@@@2@@Z$2
A1718 290 __unwindfunclet$??0MultiVolumeUpdateStream@@QAE@ABV?$basic_string@_WU?$char_traits@_W@std@@V?$allocator@_W@2@@std@@_KV?$shared_ptr@VArchiveUpdateProgress@@@2@@Z$4
A1720 290 __unwindfunclet$??0MultiVolumeUpdateStream@@QAE@ABV?$basic_string@_WU?$char_traits@_W@std@@V?$allocator@_W@2@@std@@_KV?$shared_ptr@VArchiveUpdateProgress@@@2@@Z$5
A172B 290 __unwindfunclet$??0MultiVolumeUpdateStream@@QAE@ABV?$basic_string@_WU?$char_traits@_W@std@@V?$allocator@_W@2@@std@@_KV?$shared_ptr@VArchiveUpdateProgress@@@2@@Z$6
A1736 290 __unwindfunclet$??0MultiVolumeUpdateStream@@QAE@ABV?$basic_string@_WU?$char_traits@_W@std@@V?$allocator@_W@2@@std@@_KV?$shared_ptr@VArchiveUpdateProgress@@@2@@Z$7
A1741 290 __unwindfunclet$??0MultiVolumeUpdateStream@@QAE@ABV?$basic_string@_WU?$char_traits@_W@std@@V?$allocator@_W@2@@std@@_KV?$shared_ptr@VArchiveUpdateProgress@@@2@@Z$8
A1749 290 __unwindfunclet$??0MultiVolumeUpdateStream@@QAE@ABV?$basic_string@_WU?$char_traits@_W@std@@V?$allocator@_W@2@@std@@_KV?$shared_ptr@VArchiveUpdateProgress@@@2@@Z$9
A1756 290 __ehhandler$??0MultiVolumeUpdateStream@@QAE@ABV?$basic_string@_WU?$char_traits@_W@std@@V?$allocator@_W@2@@std@@_KV?$shared_ptr@VArchiveUpdateProgress@@@2@@Z
A1780 290 __unwindfunclet$?Write@MultiVolumeUpdateStream@@UAGJPBXIPAI@Z$17
A1788 290 __unwindfunclet$?Write@MultiVolumeUpdateStream@@UAGJPBXIPAI@Z$18
A1790 290 __unwindfunclet$?Write@MultiVolumeUpdateStream@@UAGJPBXIPAI@Z$19
A1798 290 __unwindfunclet$?Write@MultiVolumeUpdateStream@@UAGJPBXIPAI@Z$20
A17A0 290 __unwindfunclet$?Write@MultiVolumeUpdateStream@@UAGJPBXIPAI@Z$21
A17A8 290 __unwindfunclet$?Write@MultiVolumeUpdateStream@@UAGJPBXIPAI@Z$23
A17B0 290 __unwindfunclet$?Write@MultiVolumeUpdateStream@@UAGJPBXIPAI@Z$24
A17B8 290 __unwindfunclet$?Write@MultiVolumeUpdateStream@@UAGJPBXIPAI@Z$25
A17C0 290 __unwindfunclet$?Write@MultiVolumeUpdateStream@@UAGJPBXIPAI@Z$26
A17C8 290 __unwindfunclet$?Write@MultiVolumeUpdateStream@@UAGJPBXIPAI@Z$27
A17D0 290 __unwindfunclet$?Write@MultiVolumeUpdateStream@@UAGJPBXIPAI@Z$22
A17D8 290 __unwindfunclet$?Write@MultiVolumeUpdateStream@@UAGJPBXIPAI@Z$28
A17E5 290 __ehhandler$?Write@MultiVolumeUpdateStream@@UAGJPBXIPAI@Z
A1810 290 __ehhandler$?Seek@MultiVolumeUpdateStream@@UAGJ_JIPA_K@Z
A1830 290 __unwindfunclet$?SetSize@MultiVolumeUpdateStream@@UAGJ_K@Z$9
A1838 290 __unwindfunclet$?SetSize@MultiVolumeUpdateStream@@UAGJ_K@Z$10
A1840 290 __unwindfunclet$?SetSize@MultiVolumeUpdateStream@@UAGJ_K@Z$11
A1848 290 __unwindfunclet$?SetSize@MultiVolumeUpdateStream@@UAGJ_K@Z$12
A1850 290 __unwindfunclet$?SetSize@MultiVolumeUpdateStream@@UAGJ_K@Z$14
A1858 290 __unwindfunclet$?SetSize@MultiVolumeUpdateStream@@UAGJ_K@Z$13
A1865 290 __ehhandler$?SetSize@MultiVolumeUpdateStream@@UAGJ_K@Z
A1890 290 __ehhandler$?clean_files@MultiVolumeUpdateStream@@UAEXXZ
A18C0 290 __unwindfunclet$?Read@FileReadStream@@UAGJPAXIPAI@Z$6
A18CD 290 __ehhandler$?Read@FileReadStream@@UAGJPAXIPAI@Z
A18F0 290 __ehhandler$?Seek@FileReadStream@@UAGJ_JIPA_K@Z
A1910 290 __ehhandler$?GetSize@FileReadStream@@UAGJPA_K@Z
A1930 290 __unwindfunclet$?process_file@PrepareUpdate@@AAE_NABV?$basic_string@_WU?$char_traits@_W@std@@V?$allocator@_W@2@@std@@ABUFindData@@IAAI@Z$0
A193B 290 __unwindfunclet$?process_file@PrepareUpdate@@AAE_NABV?$basic_string@_WU?$char_traits@_W@std@@V?$allocator@_W@2@@std@@ABUFindData@@IAAI@Z$1
A1943 290 __unwindfunclet$?process_file@PrepareUpdate@@AAE_NABV?$basic_string@_WU?$char_traits@_W@std@@V?$allocator@_W@2@@std@@ABUFindData@@IAAI@Z$2
A194E 290 __unwindfunclet$?process_file@PrepareUpdate@@AAE_NABV?$basic_string@_WU?$char_traits@_W@std@@V?$allocator@_W@2@@std@@ABUFindData@@IAAI@Z$3
A1956 290 __unwindfunclet$?process_file@PrepareUpdate@@AAE_NABV?$basic_string@_WU?$char_traits@_W@std@@V?$allocator@_W@2@@std@@ABUFindData@@IAAI@Z$4
A1963 290 __ehhandler$?process_file@PrepareUpdate@@AAE_NABV?$basic_string@_WU?$char_traits@_W@std@@V?$allocator@_W@2@@std@@ABUFindData@@IAAI@Z
A1990 290 __unwindfunclet$?process_file_enum@PrepareUpdate@@AAE_NAAVFileEnum@@ABV?$basic_string@_WU?$char_traits@_W@std@@V?$allocator@_W@2@@std@@I@Z$2
A1998 290 __unwindfunclet$?process_file_enum@PrepareUpdate@@AAE_NAAVFileEnum@@ABV?$basic_string@_WU?$char_traits@_W@std@@V?$allocator@_W@2@@std@@I@Z$3
A19A0 290 __unwindfunclet$?process_file_enum@PrepareUpdate@@AAE_NAAVFileEnum@@ABV?$basic_string@_WU?$char_traits@_W@std@@V?$allocator@_W@2@@std@@I@Z$4
A19A8 290 __unwindfunclet$?process_file_enum@PrepareUpdate@@AAE_NAAVFileEnum@@ABV?$basic_string@_WU?$char_traits@_W@std@@V?$allocator@_W@2@@std@@I@Z$5
A19B0 290 __unwindfunclet$?process_file_enum@PrepareUpdate@@AAE_NAAVFileEnum@@ABV?$basic_string@_WU?$char_traits@_W@std@@V?$allocator@_W@2@@std@@I@Z$6
A19C0 290 __ehhandler$?process_file_enum@PrepareUpdate@@AAE_NAAVFileEnum@@ABV?$basic_string@_WU?$char_traits@_W@std@@V?$allocator@_W@2@@std@@I@Z
A19F0 290 __unwindfunclet$??0PrepareUpdate@@QAE@ABV?$basic_string@_WU?$char_traits@_W@std@@V?$allocator@_W@2@@std@@ABV?$vector@V?$basic_string@_WU?$char_traits@_W@std@@V?$allocator@_W@2@@std@@V?$allocator@V?$basic_string@_WU?$char_traits@_W@std@@V?$allocator@_W@2@@std@@@2@@2@IAAVArchive@@AAV?$map@IUFileIndexInfo@@U?$less@I@std@@V?$allocator@U?$pair@$$CBIUFileIndexInfo@@@std@@@3@@2@AAIW4OverwriteAction@@AA_NAAV?$list@UError@@V?$allocator@UError@@@std@@@2@PAVFileFilter@Far@@6@Z$0
A19F8 290 __unwindfunclet$??0PrepareUpdate@@QAE@ABV?$basic_string@_WU?$char_traits@_W@std@@V?$allocator@_W@2@@std@@ABV?$vector@V?$basic_string@_WU?$char_traits@_W@std@@V?$allocator@_W@2@@std@@V?$allocator@V?$basic_string@_WU?$char_traits@_W@std@@V?$allocator@_W@2@@std@@@2@@2@IAAVArchive@@AAV?$map@IUFileIndexInfo@@U?$less@I@std@@V?$allocator@U?$pair@$$CBIUFileIndexInfo@@@std@@@3@@2@AAIW4OverwriteAction@@AA_NAAV?$list@UError@@V?$allocator@UError@@@std@@@2@PAVFileFilter@Far@@6@Z$1
A1A03 290 __unwindfunclet$??0PrepareUpdate@@QAE@ABV?$basic_string@_WU?$char_traits@_W@std@@V?$allocator@_W@2@@std@@ABV?$vector@V?$basic_string@_WU?$char_traits@_W@std@@V?$allocator@_W@2@@std@@V?$allocator@V?$basic_string@_WU?$char_traits@_W@std@@V?$allocator@_W@2@@std@@@2@@2@IAAVArchive@@AAV?$map@IUFileIndexInfo@@U?$less@I@std@@V?$allocator@U?$pair@$$CBIUFileIndexInfo@@@std@@@3@@2@AAIW4OverwriteAction@@AA_NAAV?$list@UError@@V?$allocator@UError@@@std@@@2@PAVFileFilter@Far@@6@Z$2
A1A14 290 __unwindfunclet$??0PrepareUpdate@@QAE@ABV?$basic_string@_WU?$char_traits@_W@std@@V?$allocator@_W@2@@std@@ABV?$vector@V?$basic_string@_WU?$char_traits@_W@std@@V?$allocator@_W@2@@std@@V?$allocator@V?$basic_string@_WU?$char_traits@_W@std@@V?$allocator@_W@2@@std@@@2@@2@IAAVArchive@@AAV?$map@IUFileIndexInfo@@U?$less@I@std@@V?$allocator@U?$pair@$$CBIUFileIndexInfo@@@std@@@3@@2@AAIW4OverwriteAction@@AA_NAAV?$list@UError@@V?$allocator@UError@@@std@@@2@PAVFileFilter@Far@@6@Z$3
A1A1C 290 __unwindfunclet$??0PrepareUpdate@@QAE@ABV?$basic_string@_WU?$char_traits@_W@std@@V?$allocator@_W@2@@std@@ABV?$vector@V?$basic_string@_WU?$char_traits@_W@std@@V?$allocator@_W@2@@std@@V?$allocator@V?$basic_string@_WU?$char_traits@_W@std@@V?$allocator@_W@2@@std@@@2@@2@IAAVArchive@@AAV?$map@IUFileIndexInfo@@U?$less@I@std@@V?$allocator@U?$pair@$$CBIUFileIndexInfo@@@std@@@3@@2@AAIW4OverwriteAction@@AA_NAAV?$list@UError@@V?$allocator@UError@@@std@@@2@PAVFileFilter@Far@@6@Z$4
A1A24 290 __unwindfunclet$??0PrepareUpdate@@QAE@ABV?$basic_string@_WU?$char_traits@_W@std@@V?$allocator@_W@2@@std@@ABV?$vector@V?$basic_string@_WU?$char_traits@_W@std@@V?$allocator@_W@2@@std@@V?$allocator@V?$basic_string@_WU?$char_traits@_W@std@@V?$allocator@_W@2@@std@@@2@@2@IAAVArchive@@AAV?$map@IUFileIndexInfo@@U?$less@I@std@@V?$allocator@U?$pair@$$CBIUFileIndexInfo@@@std@@@3@@2@AAIW4OverwriteAction@@AA_NAAV?$list@UError@@V?$allocator@UError@@@std@@@2@PAVFileFilter@Far@@6@Z$5
A1A2F 290 __unwindfunclet$??0PrepareUpdate@@QAE@ABV?$basic_string@_WU?$char_traits@_W@std@@V?$allocator@_W@2@@std@@ABV?$vector@V?$basic_string@_WU?$char_traits@_W@std@@V?$allocator@_W@2@@std@@V?$allocator@V?$basic_string@_WU?$char_traits@_W@std@@V?$allocator@_W@2@@std@@@2@@2@IAAVArchive@@AAV?$map@IUFileIndexInfo@@U?$less@I@std@@V?$allocator@U?$pair@$$CBIUFileIndexInfo@@@std@@@3@@2@AAIW4OverwriteAction@@AA_NAAV?$list@UError@@V?$allocator@UError@@@std@@@2@PAVFileFilter@Far@@6@Z$6
A1A3C 290 __ehhandler$??0PrepareUpdate@@QAE@ABV?$basic_string@_WU?$char_traits@_W@std@@V?$allocator@_W@2@@std@@ABV?$vector@V?$basic_string@_WU?$char_traits@_W@std@@V?$allocator@_W@2@@std@@V?$allocator@V?$basic_string@_WU?$char_traits@_W@std@@V?$allocator@_W@2@@std@@@2@@2@IAAVArchive@@AAV?$map@IUFileIndexInfo@@U?$less@I@std@@V?$allocator@U?$pair@$$CBIUFileIndexInfo@@@std@@@3@@2@AAIW4OverwriteAction@@AA_NAAV?$list@UError@@V?$allocator@UError@@@std@@@2@PAVFileFilter@Far@@6@Z
A1A70 290 __unwindfunclet$??0ArchiveUpdater@@QAE@ABV?$basic_string@_WU?$char_traits@_W@std@@V?$allocator@_W@2@@std@@0IV?$shared_ptr@V?$map@IUFileIndexInfo@@U?$less@I@std@@V?$allocator@U?$pair@$$CBIUFileIndexInfo@@@std@@@3@@std@@@2@ABUUpdateOptions@@V?$shared_ptr@_N@2@V?$shared_ptr@V?$list@UError@@V?$allocator@UError@@@std@@@std@@@2@V?$shared_ptr@VArchiveUpdateProgress@@@2@@Z$0
A1A78 290 __unwindfunclet$??0ArchiveUpdater@@QAE@ABV?$basic_string@_WU?$char_traits@_W@std@@V?$allocator@_W@2@@std@@0IV?$shared_ptr@V?$map@IUFileIndexInfo@@U?$less@I@std@@V?$allocator@U?$pair@$$CBIUFileIndexInfo@@@std@@@3@@std@@@2@ABUUpdateOptions@@V?$shared_ptr@_N@2@V?$shared_ptr@V?$list@UError@@V?$allocator@UError@@@std@@@std@@@2@V?$shared_ptr@VArchiveUpdateProgress@@@2@@Z$1
A1A80 290 __unwindfunclet$??0ArchiveUpdater@@QAE@ABV?$basic_string@_WU?$char_traits@_W@std@@V?$allocator@_W@2@@std@@0IV?$shared_ptr@V?$map@IUFileIndexInfo@@U?$less@I@std@@V?$allocator@U?$pair@$$CBIUFileIndexInfo@@@std@@@3@@std@@@2@ABUUpdateOptions@@V?$shared_ptr@_N@2@V?$shared_ptr@V?$list@UError@@V?$allocator@UError@@@std@@@std@@@2@V?$shared_ptr@VArchiveUpdateProgress@@@2@@Z$2
A1A88 290 __unwindfunclet$??0ArchiveUpdater@@QAE@ABV?$basic_string@_WU?$char_traits@_W@std@@V?$allocator@_W@2@@std@@0IV?$shared_ptr@V?$map@IUFileIndexInfo@@U?$less@I@std@@V?$allocator@U?$pair@$$CBIUFileIndexInfo@@@std@@@3@@std@@@2@ABUUpdateOptions@@V?$shared_ptr@_N@2@V?$shared_ptr@V?$list@UError@@V?$allocator@UError@@@std@@@std@@@2@V?$shared_ptr@VArchiveUpdateProgress@@@2@@Z$3
A1A90 290 __unwindfunclet$??0ArchiveUpdater@@QAE@ABV?$basic_string@_WU?$char_traits@_W@std@@V?$allocator@_W@2@@std@@0IV?$shared_ptr@V?$map@IUFileIndexInfo@@U?$less@I@std@@V?$allocator@U?$pair@$$CBIUFileIndexInfo@@@std@@@3@@std@@@2@ABUUpdateOptions@@V?$shared_ptr@_N@2@V?$shared_ptr@V?$list@UError@@V?$allocator@UError@@@std@@@std@@@2@V?$shared_ptr@VArchiveUpdateProgress@@@2@@Z$4
A1A9B 290 __unwindfunclet$??0ArchiveUpdater@@QAE@ABV?$basic_string@_WU?$char_traits@_W@std@@V?$allocator@_W@2@@std@@0IV?$shared_ptr@V?$map@IUFileIndexInfo@@U?$less@I@std@@V?$allocator@U?$pair@$$CBIUFileIndexInfo@@@std@@@3@@std@@@2@ABUUpdateOptions@@V?$shared_ptr@_N@2@V?$shared_ptr@V?$list@UError@@V?$allocator@UError@@@std@@@std@@@2@V?$shared_ptr@VArchiveUpdateProgress@@@2@@Z$5
A1AAB 290 __ehhandler$??0ArchiveUpdater@@QAE@ABV?$basic_string@_WU?$char_traits@_W@std@@V?$allocator@_W@2@@std@@0IV?$shared_ptr@V?$map@IUFileIndexInfo@@U?$less@I@std@@V?$allocator@U?$pair@$$CBIUFileIndexInfo@@@std@@@3@@std@@@2@ABUUpdateOptions@@V?$shared_ptr@_N@2@V?$shared_ptr@V?$list@UError@@V?$allocator@UError@@@std@@@std@@@2@V?$shared_ptr@VArchiveUpdateProgress@@@2@@Z
A1AD0 290 __unwindfunclet$?SetTotal@ArchiveUpdater@@UAGJ_K@Z$5
A1AD8 290 __unwindfunclet$?SetTotal@ArchiveUpdater@@UAGJ_K@Z$7
A1AE5 290 __ehhandler$?SetTotal@ArchiveUpdater@@UAGJ_K@Z
A1B10 290 __unwindfunclet$?SetCompleted@ArchiveUpdater@@UAGJPB_K@Z$5
A1B18 290 __unwindfunclet$?SetCompleted@ArchiveUpdater@@UAGJPB_K@Z$7
A1B25 290 __ehhandler$?SetCompleted@ArchiveUpdater@@UAGJPB_K@Z
A1B50 290 __ehhandler$?GetUpdateItemInfo@ArchiveUpdater@@UAGJIPAH0PAI@Z
A1B70 290 __unwindfunclet$?GetProperty@ArchiveUpdater@@UAGJIKPAUtagPROPVARIANT@@@Z$5
A1B7B 290 __unwindfunclet$?GetProperty@ArchiveUpdater@@UAGJIKPAUtagPROPVARIANT@@@Z$6
A1B83 290 __unwindfunclet$?GetProperty@ArchiveUpdater@@UAGJIKPAUtagPROPVARIANT@@@Z$7
A1B8B 290 __unwindfunclet$?GetProperty@ArchiveUpdater@@UAGJIKPAUtagPROPVARIANT@@@Z$8
A1B93 290 __unwindfunclet$?GetProperty@ArchiveUpdater@@UAGJIKPAUtagPROPVARIANT@@@Z$9
A1BA0 290 __ehhandler$?GetProperty@ArchiveUpdater@@UAGJIKPAUtagPROPVARIANT@@@Z
A1BD0 290 __unwindfunclet$?GetStream@ArchiveUpdater@@UAGJIPAPAUISequentialInStream@@@Z$7
A1BD8 290 __unwindfunclet$?GetStream@ArchiveUpdater@@UAGJIPAPAUISequentialInStream@@@Z$8
A1BE0 290 __unwindfunclet$?GetStream@ArchiveUpdater@@UAGJIPAPAUISequentialInStream@@@Z$9
A1BE8 290 __unwindfunclet$?GetStream@ArchiveUpdater@@UAGJIPAPAUISequentialInStream@@@Z$10
A1BF0 290 __unwindfunclet$?GetStream@ArchiveUpdater@@UAGJIPAPAUISequentialInStream@@@Z$24
A1BFB 290 __unwindfunclet$?GetStream@ArchiveUpdater@@UAGJIPAPAUISequentialInStream@@@Z$11
A1C06 290 __unwindfunclet$?GetStream@ArchiveUpdater@@UAGJIPAPAUISequentialInStream@@@Z$12
A1C18 290 __unwindfunclet$?GetStream@ArchiveUpdater@@UAGJIPAPAUISequentialInStream@@@Z$30
A1C20 290 __unwindfunclet$?GetStream@ArchiveUpdater@@UAGJIPAPAUISequentialInStream@@@Z$31
A1C2E 290 __unwindfunclet$?GetStream@ArchiveUpdater@@UAGJIPAPAUISequentialInStream@@@Z$32
A1C3C 290 __unwindfunclet$?GetStream@ArchiveUpdater@@UAGJIPAPAUISequentialInStream@@@Z$33
A1C4F 290 __ehhandler$?GetStream@ArchiveUpdater@@UAGJIPAPAUISequentialInStream@@@Z
A1C80 290 __unwindfunclet$?SetOperationResult@ArchiveUpdater@@UAGJH@Z$5
A1C88 290 __unwindfunclet$?SetOperationResult@ArchiveUpdater@@UAGJH@Z$6
A1C95 290 __ehhandler$?SetOperationResult@ArchiveUpdater@@UAGJH@Z
A1CC0 290 __unwindfunclet$?CryptoGetTextPassword2@ArchiveUpdater@@UAGJPAHPAPA_W@Z$5
A1CCD 290 __ehhandler$?CryptoGetTextPassword2@ArchiveUpdater@@UAGJPAHPAPA_W@Z
A1CF0 290 __unwindfunclet$?set_properties@Archive@@AAEXPAUIOutArchive@@ABUUpdateOptions@@@Z$0
A1CFB 290 __unwindfunclet$?set_properties@Archive@@AAEXPAUIOutArchive@@ABUUpdateOptions@@@Z$1
A1D06 290 __unwindfunclet$?set_properties@Archive@@AAEXPAUIOutArchive@@ABUUpdateOptions@@@Z$2
A1D11 290 __unwindfunclet$?set_properties@Archive@@AAEXPAUIOutArchive@@ABUUpdateOptions@@@Z$3
A1D19 290 __unwindfunclet$?set_properties@Archive@@AAEXPAUIOutArchive@@ABUUpdateOptions@@@Z$5
A1D24 290 __unwindfunclet$?set_properties@Archive@@AAEXPAUIOutArchive@@ABUUpdateOptions@@@Z$6
A1D2C 290 __unwindfunclet$?set_properties@Archive@@AAEXPAUIOutArchive@@ABUUpdateOptions@@@Z$7
A1D37 290 __unwindfunclet$?set_properties@Archive@@AAEXPAUIOutArchive@@ABUUpdateOptions@@@Z$8
A1D42 290 __unwindfunclet$?set_properties@Archive@@AAEXPAUIOutArchive@@ABUUpdateOptions@@@Z$117
A1D4D 290 __unwindfunclet$?set_properties@Archive@@AAEXPAUIOutArchive@@ABUUpdateOptions@@@Z$10
A1D58 290 __unwindfunclet$?set_properties@Archive@@AAEXPAUIOutArchive@@ABUUpdateOptions@@@Z$11
A1D63 290 __unwindfunclet$?set_properties@Archive@@AAEXPAUIOutArchive@@ABUUpdateOptions@@@Z$12
A1D6B 290 __unwindfunclet$?set_properties@Archive@@AAEXPAUIOutArchive@@ABUUpdateOptions@@@Z$13
A1D76 290 __unwindfunclet$?set_properties@Archive@@AAEXPAUIOutArchive@@ABUUpdateOptions@@@Z$14
A1D7E 290 __unwindfunclet$?set_properties@Archive@@AAEXPAUIOutArchive@@ABUUpdateOptions@@@Z$15
A1D89 290 __unwindfunclet$?set_properties@Archive@@AAEXPAUIOutArchive@@ABUUpdateOptions@@@Z$16
A1D94 290 __unwindfunclet$?set_properties@Archive@@AAEXPAUIOutArchive@@ABUUpdateOptions@@@Z$17
A1D9F 290 __unwindfunclet$?set_properties@Archive@@AAEXPAUIOutArchive@@ABUUpdateOptions@@@Z$18
A1DA7 290 __unwindfunclet$?set_properties@Archive@@AAEXPAUIOutArchive@@ABUUpdateOptions@@@Z$19
A1DB2 290 __unwindfunclet$?set_properties@Archive@@AAEXPAUIOutArchive@@ABUUpdateOptions@@@Z$20
A1DBA 290 __unwindfunclet$?set_properties@Archive@@AAEXPAUIOutArchive@@ABUUpdateOptions@@@Z$21
A1DC5 290 __unwindfunclet$?set_properties@Archive@@AAEXPAUIOutArchive@@ABUUpdateOptions@@@Z$22
A1DCD 290 __unwindfunclet$?set_properties@Archive@@AAEXPAUIOutArchive@@ABUUpdateOptions@@@Z$23
A1DD8 290 __unwindfunclet$?set_properties@Archive@@AAEXPAUIOutArchive@@ABUUpdateOptions@@@Z$24
A1DE0 290 __unwindfunclet$?set_properties@Archive@@AAEXPAUIOutArchive@@ABUUpdateOptions@@@Z$25
A1DEB 290 __unwindfunclet$?set_properties@Archive@@AAEXPAUIOutArchive@@ABUUpdateOptions@@@Z$26
A1DF3 290 __unwindfunclet$?set_properties@Archive@@AAEXPAUIOutArchive@@ABUUpdateOptions@@@Z$27
A1DFE 290 __unwindfunclet$?set_properties@Archive@@AAEXPAUIOutArchive@@ABUUpdateOptions@@@Z$28
A1E20 290 __unwindfunclet$?set_properties@Archive@@AAEXPAUIOutArchive@@ABUUpdateOptions@@@Z$29
A1E42 290 __unwindfunclet$?set_properties@Archive@@AAEXPAUIOutArchive@@ABUUpdateOptions@@@Z$30
A1E4D 290 __unwindfunclet$?set_properties@Archive@@AAEXPAUIOutArchive@@ABUUpdateOptions@@@Z$33
A1E58 290 __unwindfunclet$?set_properties@Archive@@AAEXPAUIOutArchive@@ABUUpdateOptions@@@Z$36
A1E63 290 __unwindfunclet$?set_properties@Archive@@AAEXPAUIOutArchive@@ABUUpdateOptions@@@Z$37
A1E8A 290 __unwindfunclet$?set_properties@Archive@@AAEXPAUIOutArchive@@ABUUpdateOptions@@@Z$57
A1EB1 290 __unwindfunclet$?set_properties@Archive@@AAEXPAUIOutArchive@@ABUUpdateOptions@@@Z$40
A1EBC 290 __unwindfunclet$?set_properties@Archive@@AAEXPAUIOutArchive@@ABUUpdateOptions@@@Z$41
A1ECC 290 __ehhandler$?set_properties@Archive@@AAEXPAUIOutArchive@@ABUUpdateOptions@@@Z
A1F00 290 __ehhandler$?delete_src_file@DeleteSrcFiles@@AAEXABV?$basic_string@_WU?$char_traits@_W@std@@V?$allocator@_W@2@@std@@@Z
A1F20 290 __unwindfunclet$?delete_src_dir@DeleteSrcFiles@@AAEXABV?$basic_string@_WU?$char_traits@_W@std@@V?$allocator@_W@2@@std@@@Z$4
A1F2B 290 __unwindfunclet$?delete_src_dir@DeleteSrcFiles@@AAEXABV?$basic_string@_WU?$char_traits@_W@std@@V?$allocator@_W@2@@std@@@Z$5
A1F33 290 __unwindfunclet$?delete_src_dir@DeleteSrcFiles@@AAEXABV?$basic_string@_WU?$char_traits@_W@std@@V?$allocator@_W@2@@std@@@Z$6
A1F40 290 __ehhandler$?delete_src_dir@DeleteSrcFiles@@AAEXABV?$basic_string@_WU?$char_traits@_W@std@@V?$allocator@_W@2@@std@@@Z
A1F70 290 __unwindfunclet$??0DeleteSrcFiles@@QAE@ABV?$basic_string@_WU?$char_traits@_W@std@@V?$allocator@_W@2@@std@@ABV?$vector@V?$basic_string@_WU?$char_traits@_W@std@@V?$allocator@_W@2@@std@@V?$allocator@V?$basic_string@_WU?$char_traits@_W@std@@V?$allocator@_W@2@@std@@@2@@2@AA_NAAV?$list@UError@@V?$allocator@UError@@@std@@@2@@Z$0
A1F78 290 __unwindfunclet$??0DeleteSrcFiles@@QAE@ABV?$basic_string@_WU?$char_traits@_W@std@@V?$allocator@_W@2@@std@@ABV?$vector@V?$basic_string@_WU?$char_traits@_W@std@@V?$allocator@_W@2@@std@@V?$allocator@V?$basic_string@_WU?$char_traits@_W@std@@V?$allocator@_W@2@@std@@@2@@2@AA_NAAV?$list@UError@@V?$allocator@UError@@@std@@@2@@Z$1
A1F83 290 __unwindfunclet$??0DeleteSrcFiles@@QAE@ABV?$basic_string@_WU?$char_traits@_W@std@@V?$allocator@_W@2@@std@@ABV?$vector@V?$basic_string@_WU?$char_traits@_W@std@@V?$allocator@_W@2@@std@@V?$allocator@V?$basic_string@_WU?$char_traits@_W@std@@V?$allocator@_W@2@@std@@@2@@2@AA_NAAV?$list@UError@@V?$allocator@UError@@@std@@@2@@Z$2
A1F8B 290 __unwindfunclet$??0DeleteSrcFiles@@QAE@ABV?$basic_string@_WU?$char_traits@_W@std@@V?$allocator@_W@2@@std@@ABV?$vector@V?$basic_string@_WU?$char_traits@_W@std@@V?$allocator@_W@2@@std@@V?$allocator@V?$basic_string@_WU?$char_traits@_W@std@@V?$allocator@_W@2@@std@@@2@@2@AA_NAAV?$list@UError@@V?$allocator@UError@@@std@@@2@@Z$3
A1F98 290 __ehhandler$??0DeleteSrcFiles@@QAE@ABV?$basic_string@_WU?$char_traits@_W@std@@V?$allocator@_W@2@@std@@ABV?$vector@V?$basic_string@_WU?$char_traits@_W@std@@V?$allocator@_W@2@@std@@V?$allocator@V?$basic_string@_WU?$char_traits@_W@std@@V?$allocator@_W@2@@std@@@2@@2@AA_NAAV?$list@UError@@V?$allocator@UError@@@std@@@2@@Z
A1FD0 290 __unwindfunclet$?create@Archive@@QAEXABV?$basic_string@_WU?$char_traits@_W@std@@V?$allocator@_W@2@@std@@ABV?$vector@V?$basic_string@_WU?$char_traits@_W@std@@V?$allocator@_W@2@@std@@V?$allocator@V?$basic_string@_WU?$char_traits@_W@std@@V?$allocator@_W@2@@std@@@2@@3@ABUUpdateOptions@@V?$shared_ptr@V?$list@UError@@V?$allocator@UError@@@std@@@std@@@3@@Z$2
A1FD8 290 __unwindfunclet$?create@Archive@@QAEXABV?$basic_string@_WU?$char_traits@_W@std@@V?$allocator@_W@2@@std@@ABV?$vector@V?$basic_string@_WU?$char_traits@_W@std@@V?$allocator@_W@2@@std@@V?$allocator@V?$basic_string@_WU?$char_traits@_W@std@@V?$allocator@_W@2@@std@@@2@@3@ABUUpdateOptions@@V?$shared_ptr@V?$list@UError@@V?$allocator@UError@@@std@@@std@@@3@@Z$3
A1FE3 290 __unwindfunclet$?create@Archive@@QAEXABV?$basic_string@_WU?$char_traits@_W@std@@V?$allocator@_W@2@@std@@ABV?$vector@V?$basic_string@_WU?$char_traits@_W@std@@V?$allocator@_W@2@@std@@V?$allocator@V?$basic_string@_WU?$char_traits@_W@std@@V?$allocator@_W@2@@std@@@2@@3@ABUUpdateOptions@@V?$shared_ptr@V?$list@UError@@V?$allocator@UError@@@std@@@std@@@3@@Z$4
A1FEE 290 __unwindfunclet$?create@Archive@@QAEXABV?$basic_string@_WU?$char_traits@_W@std@@V?$allocator@_W@2@@std@@ABV?$vector@V?$basic_string@_WU?$char_traits@_W@std@@V?$allocator@_W@2@@std@@V?$allocator@V?$basic_string@_WU?$char_traits@_W@std@@V?$allocator@_W@2@@std@@@2@@3@ABUUpdateOptions@@V?$shared_ptr@V?$list@UError@@V?$allocator@UError@@@std@@@std@@@3@@Z$5
A1FF9 290 __unwindfunclet$?create@Archive@@QAEXABV?$basic_string@_WU?$char_traits@_W@std@@V?$allocator@_W@2@@std@@ABV?$vector@V?$basic_string@_WU?$char_traits@_W@std@@V?$allocator@_W@2@@std@@V?$allocator@V?$basic_string@_WU?$char_traits@_W@std@@V?$allocator@_W@2@@std@@@2@@3@ABUUpdateOptions@@V?$shared_ptr@V?$list@UError@@V?$allocator@UError@@@std@@@std@@@3@@Z$7
A2004 290 __unwindfunclet$?create@Archive@@QAEXABV?$basic_string@_WU?$char_traits@_W@std@@V?$allocator@_W@2@@std@@ABV?$vector@V?$basic_string@_WU?$char_traits@_W@std@@V?$allocator@_W@2@@std@@V?$allocator@V?$basic_string@_WU?$char_traits@_W@std@@V?$allocator@_W@2@@std@@@2@@3@ABUUpdateOptions@@V?$shared_ptr@V?$list@UError@@V?$allocator@UError@@@std@@@std@@@3@@Z$32
A2019 290 __unwindfunclet$?create@Archive@@QAEXABV?$basic_string@_WU?$char_traits@_W@std@@V?$allocator@_W@2@@std@@ABV?$vector@V?$basic_string@_WU?$char_traits@_W@std@@V?$allocator@_W@2@@std@@V?$allocator@V?$basic_string@_WU?$char_traits@_W@std@@V?$allocator@_W@2@@std@@@2@@3@ABUUpdateOptions@@V?$shared_ptr@V?$list@UError@@V?$allocator@UError@@@std@@@std@@@3@@Z$8
A2024 290 __unwindfunclet$?create@Archive@@QAEXABV?$basic_string@_WU?$char_traits@_W@std@@V?$allocator@_W@2@@std@@ABV?$vector@V?$basic_string@_WU?$char_traits@_W@std@@V?$allocator@_W@2@@std@@V?$allocator@V?$basic_string@_WU?$char_traits@_W@std@@V?$allocator@_W@2@@std@@@2@@3@ABUUpdateOptions@@V?$shared_ptr@V?$list@UError@@V?$allocator@UError@@@std@@@std@@@3@@Z$9
A2036 290 __unwindfunclet$?create@Archive@@QAEXABV?$basic_string@_WU?$char_traits@_W@std@@V?$allocator@_W@2@@std@@ABV?$vector@V?$basic_string@_WU?$char_traits@_W@std@@V?$allocator@_W@2@@std@@V?$allocator@V?$basic_string@_WU?$char_traits@_W@std@@V?$allocator@_W@2@@std@@@2@@3@ABUUpdateOptions@@V?$shared_ptr@V?$list@UError@@V?$allocator@UError@@@std@@@std@@@3@@Z$10
A2055 290 __unwindfunclet$?create@Archive@@QAEXABV?$basic_string@_WU?$char_traits@_W@std@@V?$allocator@_W@2@@std@@ABV?$vector@V?$basic_string@_WU?$char_traits@_W@std@@V?$allocator@_W@2@@std@@V?$allocator@V?$basic_string@_WU?$char_traits@_W@std@@V?$allocator@_W@2@@std@@@2@@3@ABUUpdateOptions@@V?$shared_ptr@V?$list@UError@@V?$allocator@UError@@@std@@@std@@@3@@Z$15
A2060 290 __unwindfunclet$?create@Archive@@QAEXABV?$basic_string@_WU?$char_traits@_W@std@@V?$allocator@_W@2@@std@@ABV?$vector@V?$basic_string@_WU?$char_traits@_W@std@@V?$allocator@_W@2@@std@@V?$allocator@V?$basic_string@_WU?$char_traits@_W@std@@V?$allocator@_W@2@@std@@@2@@3@ABUUpdateOptions@@V?$shared_ptr@V?$list@UError@@V?$allocator@UError@@@std@@@std@@@3@@Z$16
A2068 290 __unwindfunclet$?create@Archive@@QAEXABV?$basic_string@_WU?$char_traits@_W@std@@V?$allocator@_W@2@@std@@ABV?$vector@V?$basic_string@_WU?$char_traits@_W@std@@V?$allocator@_W@2@@std@@V?$allocator@V?$basic_string@_WU?$char_traits@_W@std@@V?$allocator@_W@2@@std@@@2@@3@ABUUpdateOptions@@V?$shared_ptr@V?$list@UError@@V?$allocator@UError@@@std@@@std@@@3@@Z$17
A207A 290 __unwindfunclet$?create@Archive@@QAEXABV?$basic_string@_WU?$char_traits@_W@std@@V?$allocator@_W@2@@std@@ABV?$vector@V?$basic_string@_WU?$char_traits@_W@std@@V?$allocator@_W@2@@std@@V?$allocator@V?$basic_string@_WU?$char_traits@_W@std@@V?$allocator@_W@2@@std@@@2@@3@ABUUpdateOptions@@V?$shared_ptr@V?$list@UError@@V?$allocator@UError@@@std@@@std@@@3@@Z$19
A208C 290 __unwindfunclet$?create@Archive@@QAEXABV?$basic_string@_WU?$char_traits@_W@std@@V?$allocator@_W@2@@std@@ABV?$vector@V?$basic_string@_WU?$char_traits@_W@std@@V?$allocator@_W@2@@std@@V?$allocator@V?$basic_string@_WU?$char_traits@_W@std@@V?$allocator@_W@2@@std@@@2@@3@ABUUpdateOptions@@V?$shared_ptr@V?$list@UError@@V?$allocator@UError@@@std@@@std@@@3@@Z$21
A209E 290 __unwindfunclet$?create@Archive@@QAEXABV?$basic_string@_WU?$char_traits@_W@std@@V?$allocator@_W@2@@std@@ABV?$vector@V?$basic_string@_WU?$char_traits@_W@std@@V?$allocator@_W@2@@std@@V?$allocator@V?$basic_string@_WU?$char_traits@_W@std@@V?$allocator@_W@2@@std@@@2@@3@ABUUpdateOptions@@V?$shared_ptr@V?$list@UError@@V?$allocator@UError@@@std@@@std@@@3@@Z$23
A20A9 290 __unwindfunclet$?create@Archive@@QAEXABV?$basic_string@_WU?$char_traits@_W@std@@V?$allocator@_W@2@@std@@ABV?$vector@V?$basic_string@_WU?$char_traits@_W@std@@V?$allocator@_W@2@@std@@V?$allocator@V?$basic_string@_WU?$char_traits@_W@std@@V?$allocator@_W@2@@std@@@2@@3@ABUUpdateOptions@@V?$shared_ptr@V?$list@UError@@V?$allocator@UError@@@std@@@std@@@3@@Z$27
A20B1 290 __unwindfunclet$?create@Archive@@QAEXABV?$basic_string@_WU?$char_traits@_W@std@@V?$allocator@_W@2@@std@@ABV?$vector@V?$basic_string@_WU?$char_traits@_W@std@@V?$allocator@_W@2@@std@@V?$allocator@V?$basic_string@_WU?$char_traits@_W@std@@V?$allocator@_W@2@@std@@@2@@3@ABUUpdateOptions@@V?$shared_ptr@V?$list@UError@@V?$allocator@UError@@@std@@@std@@@3@@Z$28
A20BE 290 __ehhandler$?create@Archive@@QAEXABV?$basic_string@_WU?$char_traits@_W@std@@V?$allocator@_W@2@@std@@ABV?$vector@V?$basic_string@_WU?$char_traits@_W@std@@V?$allocator@_W@2@@std@@V?$allocator@V?$basic_string@_WU?$char_traits@_W@std@@V?$allocator@_W@2@@std@@@2@@3@ABUUpdateOptions@@V?$shared_ptr@V?$list@UError@@V?$allocator@UError@@@std@@@std@@@3@@Z
A20F0 290 __unwindfunclet$?update@Archive@@QAEXABV?$basic_string@_WU?$char_traits@_W@std@@V?$allocator@_W@2@@std@@ABV?$vector@V?$basic_string@_WU?$char_traits@_W@std@@V?$allocator@_W@2@@std@@V?$allocator@V?$basic_string@_WU?$char_traits@_W@std@@V?$allocator@_W@2@@std@@@2@@3@0ABUUpdateOptions@@V?$shared_ptr@V?$list@UError@@V?$allocator@UError@@@std@@@std@@@3@@Z$2
A20F8 290 __unwindfunclet$?update@Archive@@QAEXABV?$basic_string@_WU?$char_traits@_W@std@@V?$allocator@_W@2@@std@@ABV?$vector@V?$basic_string@_WU?$char_traits@_W@std@@V?$allocator@_W@2@@std@@V?$allocator@V?$basic_string@_WU?$char_traits@_W@std@@V?$allocator@_W@2@@std@@@2@@3@0ABUUpdateOptions@@V?$shared_ptr@V?$list@UError@@V?$allocator@UError@@@std@@@std@@@3@@Z$3
A2103 290 __unwindfunclet$?update@Archive@@QAEXABV?$basic_string@_WU?$char_traits@_W@std@@V?$allocator@_W@2@@std@@ABV?$vector@V?$basic_string@_WU?$char_traits@_W@std@@V?$allocator@_W@2@@std@@V?$allocator@V?$basic_string@_WU?$char_traits@_W@std@@V?$allocator@_W@2@@std@@@2@@3@0ABUUpdateOptions@@V?$shared_ptr@V?$list@UError@@V?$allocator@UError@@@std@@@std@@@3@@Z$4
A210E 290 __unwindfunclet$?update@Archive@@QAEXABV?$basic_string@_WU?$char_traits@_W@std@@V?$allocator@_W@2@@std@@ABV?$vector@V?$basic_string@_WU?$char_traits@_W@std@@V?$allocator@_W@2@@std@@V?$allocator@V?$basic_string@_WU?$char_traits@_W@std@@V?$allocator@_W@2@@std@@@2@@3@0ABUUpdateOptions@@V?$shared_ptr@V?$list@UError@@V?$allocator@UError@@@std@@@std@@@3@@Z$5
A2119 290 __unwindfunclet$?update@Archive@@QAEXABV?$basic_string@_WU?$char_traits@_W@std@@V?$allocator@_W@2@@std@@ABV?$vector@V?$basic_string@_WU?$char_traits@_W@std@@V?$allocator@_W@2@@std@@V?$allocator@V?$basic_string@_WU?$char_traits@_W@std@@V?$allocator@_W@2@@std@@@2@@3@0ABUUpdateOptions@@V?$shared_ptr@V?$list@UError@@V?$allocator@UError@@@std@@@std@@@3@@Z$7
A2121 290 __unwindfunclet$?update@Archive@@QAEXABV?$basic_string@_WU?$char_traits@_W@std@@V?$allocator@_W@2@@std@@ABV?$vector@V?$basic_string@_WU?$char_traits@_W@std@@V?$allocator@_W@2@@std@@V?$allocator@V?$basic_string@_WU?$char_traits@_W@std@@V?$allocator@_W@2@@std@@@2@@3@0ABUUpdateOptions@@V?$shared_ptr@V?$list@UError@@V?$allocator@UError@@@std@@@std@@@3@@Z$8
A212C 290 __unwindfunclet$?update@Archive@@QAEXABV?$basic_string@_WU?$char_traits@_W@std@@V?$allocator@_W@2@@std@@ABV?$vector@V?$basic_string@_WU?$char_traits@_W@std@@V?$allocator@_W@2@@std@@V?$allocator@V?$basic_string@_WU?$char_traits@_W@std@@V?$allocator@_W@2@@std@@@2@@3@0ABUUpdateOptions@@V?$shared_ptr@V?$list@UError@@V?$allocator@UError@@@std@@@std@@@3@@Z$32
A2141 290 __unwindfunclet$?update@Archive@@QAEXABV?$basic_string@_WU?$char_traits@_W@std@@V?$allocator@_W@2@@std@@ABV?$vector@V?$basic_string@_WU?$char_traits@_W@std@@V?$allocator@_W@2@@std@@V?$allocator@V?$basic_string@_WU?$char_traits@_W@std@@V?$allocator@_W@2@@std@@@2@@3@0ABUUpdateOptions@@V?$shared_ptr@V?$list@UError@@V?$allocator@UError@@@std@@@std@@@3@@Z$9
A214C 290 __unwindfunclet$?update@Archive@@QAEXABV?$basic_string@_WU?$char_traits@_W@std@@V?$allocator@_W@2@@std@@ABV?$vector@V?$basic_string@_WU?$char_traits@_W@std@@V?$allocator@_W@2@@std@@V?$allocator@V?$basic_string@_WU?$char_traits@_W@std@@V?$allocator@_W@2@@std@@@2@@3@0ABUUpdateOptions@@V?$shared_ptr@V?$list@UError@@V?$allocator@UError@@@std@@@std@@@3@@Z$10
A215E 290 __unwindfunclet$?update@Archive@@QAEXABV?$basic_string@_WU?$char_traits@_W@std@@V?$allocator@_W@2@@std@@ABV?$vector@V?$basic_string@_WU?$char_traits@_W@std@@V?$allocator@_W@2@@std@@V?$allocator@V?$basic_string@_WU?$char_traits@_W@std@@V?$allocator@_W@2@@std@@@2@@3@0ABUUpdateOptions@@V?$shared_ptr@V?$list@UError@@V?$allocator@UError@@@std@@@std@@@3@@Z$15
A2169 290 __unwindfunclet$?update@Archive@@QAEXABV?$basic_string@_WU?$char_traits@_W@std@@V?$allocator@_W@2@@std@@ABV?$vector@V?$basic_string@_WU?$char_traits@_W@std@@V?$allocator@_W@2@@std@@V?$allocator@V?$basic_string@_WU?$char_traits@_W@std@@V?$allocator@_W@2@@std@@@2@@3@0ABUUpdateOptions@@V?$shared_ptr@V?$list@UError@@V?$allocator@UError@@@std@@@std@@@3@@Z$16
A217B 290 __unwindfunclet$?update@Archive@@QAEXABV?$basic_string@_WU?$char_traits@_W@std@@V?$allocator@_W@2@@std@@ABV?$vector@V?$basic_string@_WU?$char_traits@_W@std@@V?$allocator@_W@2@@std@@V?$allocator@V?$basic_string@_WU?$char_traits@_W@std@@V?$allocator@_W@2@@std@@@2@@3@0ABUUpdateOptions@@V?$shared_ptr@V?$list@UError@@V?$allocator@UError@@@std@@@std@@@3@@Z$18
A2186 290 __unwindfunclet$?update@Archive@@QAEXABV?$basic_string@_WU?$char_traits@_W@std@@V?$allocator@_W@2@@std@@ABV?$vector@V?$basic_string@_WU?$char_traits@_W@std@@V?$allocator@_W@2@@std@@V?$allocator@V?$basic_string@_WU?$char_traits@_W@std@@V?$allocator@_W@2@@std@@@2@@3@0ABUUpdateOptions@@V?$shared_ptr@V?$list@UError@@V?$allocator@UError@@@std@@@std@@@3@@Z$22
A2191 290 __unwindfunclet$?update@Archive@@QAEXABV?$basic_string@_WU?$char_traits@_W@std@@V?$allocator@_W@2@@std@@ABV?$vector@V?$basic_string@_WU?$char_traits@_W@std@@V?$allocator@_W@2@@std@@V?$allocator@V?$basic_string@_WU?$char_traits@_W@std@@V?$allocator@_W@2@@std@@@2@@3@0ABUUpdateOptions@@V?$shared_ptr@V?$list@UError@@V?$allocator@UError@@@std@@@std@@@3@@Z$23
A219C 290 __unwindfunclet$?update@Archive@@QAEXABV?$basic_string@_WU?$char_traits@_W@std@@V?$allocator@_W@2@@std@@ABV?$vector@V?$basic_string@_WU?$char_traits@_W@std@@V?$allocator@_W@2@@std@@V?$allocator@V?$basic_string@_WU?$char_traits@_W@std@@V?$allocator@_W@2@@std@@@2@@3@0ABUUpdateOptions@@V?$shared_ptr@V?$list@UError@@V?$allocator@UError@@@std@@@std@@@3@@Z$26
A21A7 290 __unwindfunclet$?update@Archive@@QAEXABV?$basic_string@_WU?$char_traits@_W@std@@V?$allocator@_W@2@@std@@ABV?$vector@V?$basic_string@_WU?$char_traits@_W@std@@V?$allocator@_W@2@@std@@V?$allocator@V?$basic_string@_WU?$char_traits@_W@std@@V?$allocator@_W@2@@std@@@2@@3@0ABUUpdateOptions@@V?$shared_ptr@V?$list@UError@@V?$allocator@UError@@@std@@@std@@@3@@Z$27
A21B7 290 __ehhandler$?update@Archive@@QAEXABV?$basic_string@_WU?$char_traits@_W@std@@V?$allocator@_W@2@@std@@ABV?$vector@V?$basic_string@_WU?$char_traits@_W@std@@V?$allocator@_W@2@@std@@V?$allocator@V?$basic_string@_WU?$char_traits@_W@std@@V?$allocator@_W@2@@std@@@2@@3@0ABUUpdateOptions@@V?$shared_ptr@V?$list@UError@@V?$allocator@UError@@@std@@@std@@@3@@Z
A21F0 290 __unwindfunclet$?create_dir@Archive@@QAEXABV?$basic_string@_WU?$char_traits@_W@std@@V?$allocator@_W@2@@std@@0@Z$2
A21FB 290 __unwindfunclet$?create_dir@Archive@@QAEXABV?$basic_string@_WU?$char_traits@_W@std@@V?$allocator@_W@2@@std@@0@Z$3
A2206 290 __unwindfunclet$?create_dir@Archive@@QAEXABV?$basic_string@_WU?$char_traits@_W@std@@V?$allocator@_W@2@@std@@0@Z$5
A2211 290 __unwindfunclet$?create_dir@Archive@@QAEXABV?$basic_string@_WU?$char_traits@_W@std@@V?$allocator@_W@2@@std@@0@Z$6
A221C 290 __unwindfunclet$?create_dir@Archive@@QAEXABV?$basic_string@_WU?$char_traits@_W@std@@V?$allocator@_W@2@@std@@0@Z$7
A2224 290 __unwindfunclet$?create_dir@Archive@@QAEXABV?$basic_string@_WU?$char_traits@_W@std@@V?$allocator@_W@2@@std@@0@Z$8
A222F 290 __unwindfunclet$?create_dir@Archive@@QAEXABV?$basic_string@_WU?$char_traits@_W@std@@V?$allocator@_W@2@@std@@0@Z$9
A223A 290 __unwindfunclet$?create_dir@Archive@@QAEXABV?$basic_string@_WU?$char_traits@_W@std@@V?$allocator@_W@2@@std@@0@Z$10
A2245 290 __unwindfunclet$?create_dir@Archive@@QAEXABV?$basic_string@_WU?$char_traits@_W@std@@V?$allocator@_W@2@@std@@0@Z$36
A225A 290 __unwindfunclet$?create_dir@Archive@@QAEXABV?$basic_string@_WU?$char_traits@_W@std@@V?$allocator@_W@2@@std@@0@Z$11
A2265 290 __unwindfunclet$?create_dir@Archive@@QAEXABV?$basic_string@_WU?$char_traits@_W@std@@V?$allocator@_W@2@@std@@0@Z$12
A2277 290 __unwindfunclet$?create_dir@Archive@@QAEXABV?$basic_string@_WU?$char_traits@_W@std@@V?$allocator@_W@2@@std@@0@Z$13
A2296 290 __unwindfunclet$?create_dir@Archive@@QAEXABV?$basic_string@_WU?$char_traits@_W@std@@V?$allocator@_W@2@@std@@0@Z$18
A22A1 290 __unwindfunclet$?create_dir@Archive@@QAEXABV?$basic_string@_WU?$char_traits@_W@std@@V?$allocator@_W@2@@std@@0@Z$19
A22B3 290 __unwindfunclet$?create_dir@Archive@@QAEXABV?$basic_string@_WU?$char_traits@_W@std@@V?$allocator@_W@2@@std@@0@Z$21
A22BE 290 __unwindfunclet$?create_dir@Archive@@QAEXABV?$basic_string@_WU?$char_traits@_W@std@@V?$allocator@_W@2@@std@@0@Z$24
A22C6 290 __unwindfunclet$?create_dir@Archive@@QAEXABV?$basic_string@_WU?$char_traits@_W@std@@V?$allocator@_W@2@@std@@0@Z$25
A22D3 290 __ehhandler$?create_dir@Archive@@QAEXABV?$basic_string@_WU?$char_traits@_W@std@@V?$allocator@_W@2@@std@@0@Z
A2300 290 __unwindfunclet$??A?$map@IUFileIndexInfo@@U?$less@I@std@@V?$allocator@U?$pair@$$CBIUFileIndexInfo@@@std@@@3@@std@@QAEAAUFileIndexInfo@@ABI@Z$2
A230D 290 __ehhandler$??A?$map@IUFileIndexInfo@@U?$less@I@std@@V?$allocator@U?$pair@$$CBIUFileIndexInfo@@@std@@@3@@std@@QAEAAUFileIndexInfo@@ABI@Z
A2330 290 __unwindfunclet$??6?$basic_ostream@_WU?$char_traits@_W@std@@@std@@QAEAAV01@I@Z$4
A2338 290 __unwindfunclet$??6?$basic_ostream@_WU?$char_traits@_W@std@@@std@@QAEAAV01@I@Z$2
A2340 290 __unwindfunclet$??6?$basic_ostream@_WU?$char_traits@_W@std@@@std@@QAEAAV01@I@Z$3
A234D 290 __ehhandler$??6?$basic_ostream@_WU?$char_traits@_W@std@@@std@@QAEAAV01@I@Z
A2370 290 __ehhandler$??$_Destroy_range@V?$allocator@VPropVariant@@@std@@@std@@YAXPAVPropVariant@@QAV1@AAV?$allocator@VPropVariant@@@0@@Z
A2390 290 __ehhandler$??$_Emplace_reallocate@AAV?$basic_string@_WU?$char_traits@_W@std@@V?$allocator@_W@2@@std@@@?$vector@VPropVariant@@V?$allocator@VPropVariant@@@std@@@std@@AAEPAVPropVariant@@QAV2@AAV?$basic_string@_WU?$char_traits@_W@std@@V?$allocator@_W@2@@1@@Z
A23B0 290 __ehhandler$??$_Emplace_reallocate@VPropVariant@@@?$vector@VPropVariant@@V?$allocator@VPropVariant@@@std@@@std@@AAEPAVPropVariant@@QAV2@$$QAV2@@Z
A23D0 290 __unwindfunclet$??$_Uninitialized_copy@PAVPropVariant@@PAV1@V?$allocator@VPropVariant@@@std@@@std@@YAPAVPropVariant@@PAV1@00AAV?$allocator@VPropVariant@@@0@@Z$0
A23DD 290 __ehhandler$??$_Uninitialized_copy@PAVPropVariant@@PAV1@V?$allocator@VPropVariant@@@std@@@std@@YAPAVPropVariant@@PAV1@00AAV?$allocator@VPropVariant@@@0@@Z
A23FA 65 __ehhandler$?_Tidy@ios_base@std@@AAEXXZ
A2417 68 __unwindfunclet$?_Init@locale@std@@CAPAV_Locimp@12@_N@Z$0
A2424 68 __ehhandler$?_Init@locale@std@@CAPAV_Locimp@12@_N@Z
A2441 254 __ehhandler$?CallUnexpected@@YAXPBU_s_ESTypeList@@@Z
A245E 272 __unwindfunclet$?getDecoratedName@UnDecorator@@CA?AVDName@@XZ$0
A246B 272 __ehhandler$?getDecoratedName@UnDecorator@@CA?AVDName@@XZ
A2488 121 __ehhandler$?common_exit@@YAXHW4_crt_exit_cleanup_mode@@W4_crt_exit_return_mode@@@Z
A24A5 118 __ehhandler$___dcrt_uninitialize_environments_nolock
A24C2 194 __ehhandler$__execute_onexit_table
A24DF 183 __ehhandler$?_mbstowcs_l_helper@@YAIPA_WPBDIAAV__crt_cached_ptd_host@@@Z
A24FC 246 __ehhandler$?write_double_translated_ansi_nolock@@YA?AUwrite_result@?A0x17268360@@HQBDIAAV__crt_cached_ptd_host@@@Z
A2530 49 ??__Fc_7z@@YAXXZ
A2590 49 ??__Fc_zip@@YAXXZ
A25F0 49 ??__Fc_bzip2@@YAXXZ
A2650 49 ??__Fc_gzip@@YAXXZ
A26B0 49 ??__Fc_xz@@YAXXZ
A2710 49 ??__Fc_iso@@YAXXZ
A2770 49 ??__Fc_udf@@YAXXZ
A27D0 49 ??__Fc_rar@@YAXXZ
A2830 49 ??__Fc_split@@YAXXZ
A2890 49 ??__Fc_wim@@YAXXZ
A28F0 49 ??__Fc_tar@@YAXXZ
A2950 49 ??__Fc_SWFc@@YAXXZ
A29B0 49 ??__Fc_dmg@@YAXXZ
A2A10 49 ??__Fc_hfs@@YAXXZ
A2A70 49 ??__Fc_fat@@YAXXZ
A2AD0 49 ??__Fc_ntfs@@YAXXZ
A2B30 49 ??__Fc_ext4@@YAXXZ
A2B90 49 ??__Fc_apfs@@YAXXZ
A2BF0 49 ??__Fc_mbr@@YAXXZ
A2C50 49 ??__Fc_gpt@@YAXXZ
A2CB0 49 ??__Fc_xfat@@YAXXZ
A2D10 54 ??__Fg_com_error@@YAXXZ
A2D60 281 ??__Fg_options@@YAXXZ
A2D70 281 ??__Fg_profiles@@YAXXZ
A2E00 283 ??__Fg_plugin_prefix@@YAXXZ
A2E60 283 ??__Fbatch_options@?1??extract@Plugin@@QAEXABVPluginPanelItemAccessor@1@AAV?$basic_string@_WU?$char_traits@_W@std@@V?$allocator@_W@2@@std@@_N_K@Z@YAXXZ
A2E70 287 ??__Fsync@?1??GetSync@@YAAAVCriticalSection@@XZ@YAXXZ
A2E90 287 ??__Fsync@?1??GetExportSync@@YAAAVCriticalSection@@XZ@YAXXZ
A2EB0 289 ??__Fmsg_texts@?1??get_suffixes@@YAPAPB_WH@Z@YAXXZ
A2ED0 290 ??__Fdefopts@?4??set_properties@Archive@@AAEXPAUIOutArchive@@ABUUpdateOptions@@@Z@YAXXZ
A2EDA 68 ??__F_Fac_tidy_reg@std@@YAXXZ
A2EE4 68 ??__Fclassic_locale@std@@YAXXZ
A2EEE 76 ??__Finitlocks@std@@YAXXZ
A2EF8 66 ??__Finit_atexit@@YAXXZ
A2F02 66 ??__Finitlocks@std@@YAXXZ
A3000 48 __imp__RegQueryValueExW@24
A3004 48 __imp__RegOpenKeyExW@20
A3008 48 __imp__RegCloseKey@4
A300C 48 \177ADVAPI32_NULL_THUNK_DATA
A3010 59 __imp__LeaveCriticalSection@4
A3014 59 __imp__SetThreadExecutionState@4
A3018 59 __imp__GlobalMemoryStatusEx@4
A301C 59 __imp__VirtualAlloc@16
A3020 59 __imp__GetLastError@0
A3024 59 __imp__VirtualFree@12
A3028 59 __imp__GetDiskFreeSpaceW@20
A302C 59 __imp__DeviceIoControl@32
A3030 59 __imp__MultiByteToWideChar@24
A3034 59 __imp__WideCharToMultiByte@32
A3038 59 __imp__VirtualQuery@12
A303C 59 __imp__VirtualProtect@16
A3040 59 __imp__GetModuleHandleA@4
