MINIMAP

FILES
0 *
1 <absolute>
2 <common>
3 <linker-defined>
4 LIBCMT:alloca16.obj
5 LIBCMT:argv_mode.obj
6 LIBCMT:checkcfg.obj
7 LIBCMT:chkstk.obj
8 LIBCMT:cpu_disp.obj
9 LIBCMT:default_local_stdio_options.obj
10 LIBCMT:delete_array.obj
11 LIBCMT:delete_scalar.obj
12 LIBCMT:delete_scalar_size.obj
13 LIBCMT:dll_dllmain.obj
14 LIBCMT:dll_dllmain_stub.obj
15 LIBCMT:dyn_tls_init.obj
16 LIBCMT:ehprolg3.obj
17 LIBCMT:ehvecdtr.obj
18 LIBCMT:fltused.obj
19 LIBCMT:ftol2.obj
20 LIBCMT:gs_cookie.obj
21 LIBCMT:gs_report.obj
22 LIBCMT:gs_support.obj
23 LIBCMT:guard_support.obj
24 LIBCMT:initializers.obj
25 LIBCMT:initsect.obj
26 LIBCMT:lconv_unsigned_char.obj
27 LIBCMT:lldiv.obj
28 LIBCMT:llmul.obj
29 LIBCMT:llshl.obj
30 LIBCMT:loadcfg.obj
31 LIBCMT:new_array.obj
32 LIBCMT:new_scalar.obj
33 LIBCMT:pesect.obj
34 LIBCMT:secchk.obj
35 LIBCMT:sehprolg4.obj
36 LIBCMT:std_type_info_static.obj
37 LIBCMT:tncleanup.obj
38 LIBCMT:ucrt_detection.obj
39 LIBCMT:ulldvrm.obj
40 LIBCMT:ullshr.obj
41 LIBCMT:utility.obj
42 LIBCMT:utility_desktop.obj
43 LIBCMT:x86_exception_filter.obj
44 Pcfg.obj
45 Pclass.obj
46 Plist.obj
47 Pmix.obj
48 ProcList.exp
49 ProcList.res
50 Proclist.obj
51 advapi32:ADVAPI32.dll
52 fileio.obj
53 format.obj
54 handles.obj
55 kernel32:KERNEL32.dll
56 libcpmt:StlLCMapStringA.obj
57 libcpmt:asan_noop.obj
58 libcpmt:iosptrs.obj
59 libcpmt:locale.obj
60 libcpmt:locale0.obj
61 libcpmt:syserror.obj
62 libcpmt:syserror_import_lib.obj
63 libcpmt:wlocale.obj
64 libcpmt:xlocale.obj
65 libcpmt:xlock.obj
66 libcpmt:xmbtowc.obj
67 libcpmt:xmtx.obj
68 libcpmt:xstoul.obj
69 libcpmt:xstoull.obj
70 libcpmt:xthrow.obj
71 libcpmt:xwctomb.obj
72 libucrt:87disp.obj
73 libucrt:87except.obj
74 libucrt:87tran.obj
75 libucrt:_fenvutils.obj
76 libucrt:_file.obj
77 libucrt:_freebuf.obj
78 libucrt:_norm.obj
79 libucrt:_sftbuf.obj
80 libucrt:_strnicm.obj
81 libucrt:_test.obj
82 libucrt:_unscale.obj
83 libucrt:_values.obj
84 libucrt:_wctype.obj
85 libucrt:abort.obj
86 libucrt:argv_data.obj
87 libucrt:argv_parsing.obj
88 libucrt:argv_wildcards.obj
89 libucrt:atox.obj
90 libucrt:c16rtomb.obj
91 libucrt:c32rtomb.obj
92 libucrt:calloc.obj
93 libucrt:calloc_base.obj
94 libucrt:ceil.obj
95 libucrt:ceil_pentium4.obj
96 libucrt:close.obj
97 libucrt:closeall.obj
98 libucrt:commit.obj
99 libucrt:common.obj
100 libucrt:common_utf8.obj
101 libucrt:console_output_initializer.obj
102 libucrt:ctype.obj
103 libucrt:environment_initialization.obj
104 libucrt:errno.obj
105 libucrt:exception_filter.obj
106 libucrt:exit.obj
107 libucrt:fclose.obj
108 libucrt:fegetexceptflag.obj
109 libucrt:fegetround.obj
110 libucrt:fesetexceptflag.obj
111 libucrt:fetestexcept.obj
112 libucrt:fflush.obj
113 libucrt:fileno.obj
114 libucrt:fp_flags.obj
115 libucrt:fpctrl.obj
116 libucrt:fpexcept.obj
117 libucrt:free.obj
118 libucrt:free_base.obj
119 libucrt:frnd.obj
120 libucrt:genexcep.obj
121 libucrt:get_environment_from_os.obj
122 libucrt:get_qualified_locale.obj
123 libucrt:getlocaleinfoa.obj
124 libucrt:getmodulefilenamea.obj
125 libucrt:getqloc_downlevel.obj
126 libucrt:getstringtypea.obj
127 libucrt:getstringtypew.obj
128 libucrt:glstatus.obj
129 libucrt:heap_handle.obj
130 libucrt:ieeemisc.obj
131 libucrt:initcon.obj
132 libucrt:initctype.obj
133 libucrt:initialization.obj
134 libucrt:initmon.obj
135 libucrt:initnum.obj
136 libucrt:initterm.obj
137 libucrt:inittime.obj
138 libucrt:invalid_parameter.obj
139 libucrt:ioinit.obj
140 libucrt:isatty.obj
141 libucrt:ismbbyte.obj
142 libucrt:iswctype.obj
143 libucrt:lcidtoname_downlevel.obj
144 libucrt:lcmapstringa.obj
145 libucrt:lcmapstringw.obj
146 libucrt:lconv_unsigned_char_initialization.obj
147 libucrt:libm_error.obj
148 libucrt:locale_initializer.obj
149 libucrt:locale_refcounting.obj
150 libucrt:locale_update.obj
151 libucrt:localeconv.obj
152 libucrt:locks.obj
153 libucrt:log10_impl.obj
154 libucrt:log10_pentium4.obj
155 libucrt:log10_tables.obj
156 libucrt:log2d.obj
157 libucrt:lseek.obj
158 libucrt:malloc.obj
159 libucrt:malloc_base.obj
160 libucrt:matherr.obj
161 libucrt:mathfcns.obj
162 libucrt:mbctype.obj
163 libucrt:mbrtoc32.obj
164 libucrt:mbrtowc.obj
165 libucrt:mbsdec.obj
166 libucrt:mbstowcs.obj
167 libucrt:mbtowc.obj
168 libucrt:modf.obj
169 libucrt:modf_pentium4.obj
170 libucrt:msize.obj
171 libucrt:multibyte_initializer.obj
172 libucrt:multibytetowidechar.obj
173 libucrt:nan.obj
174 libucrt:nanf.obj
175 libucrt:nanl.obj
176 libucrt:new_handler.obj
177 libucrt:new_mode.obj
178 libucrt:nlsdata.obj
179 libucrt:onexit.obj
180 libucrt:osfinfo.obj
181 libucrt:output.obj
182 libucrt:peb_access.obj
183 libucrt:per_thread_data.obj
184 libucrt:pow_impl.obj
185 libucrt:pow_pentium4.obj
186 libucrt:pow_tables.obj
187 libucrt:powhlp.obj
188 libucrt:putwch.obj
189 libucrt:qsort.obj
190 libucrt:read.obj
191 libucrt:realloc_base.obj
192 libucrt:recalloc.obj
193 libucrt:report_runtime_error.obj
194 libucrt:round.obj
195 libucrt:setlocale.obj
196 libucrt:shared_initialization.obj
197 libucrt:signal.obj
198 libucrt:sse2_initializer.obj
199 libucrt:stdio_initializer.obj
200 libucrt:strcpy_s.obj
201 libucrt:strcspn.obj
202 libucrt:stream.obj
203 libucrt:strftime.obj
204 libucrt:strncmp.obj
205 libucrt:strncnt.obj
206 libucrt:strncpy_s.obj
207 libucrt:strnlen.obj
208 libucrt:strpbrk.obj
209 libucrt:terminate.obj
210 libucrt:timeset.obj
211 libucrt:timeset_initializer.obj
212 libucrt:towlower.obj
213 libucrt:tzset.obj
214 libucrt:util.obj
215 libucrt:wcrtomb.obj
216 libucrt:wcscat_s.obj
217 libucrt:wcscpy_s.obj
218 libucrt:wcscspn.obj
219 libucrt:wcsdup.obj
220 libucrt:wcsicmp.obj
221 libucrt:wcsncat_s.obj
222 libucrt:wcsncmp.obj
223 libucrt:wcsncpy_s.obj
224 libucrt:wcsnicmp.obj
225 libucrt:wcspbrk.obj
226 libucrt:wcstok.obj
227 libucrt:wcstok_s.obj
228 libucrt:wcstombs.obj
229 libucrt:widechartomultibyte.obj
230 libucrt:win_policies.obj
231 libucrt:winapi_thunks.obj
232 libucrt:write.obj
233 libucrt:wsetlocale.obj
234 libucrt:xtoa.obj
235 libvcruntime:chandler4.obj
236 libvcruntime:ehhelpers.obj
237 libvcruntime:ehstate.obj
238 libvcruntime:exsup.obj
239 libvcruntime:exsup4.obj
240 libvcruntime:frame.obj
241 libvcruntime:initialization.obj
242 libvcruntime:jbcxrval.obj
243 libvcruntime:locks.obj
244 libvcruntime:lowhelpr.obj
245 libvcruntime:memcmp.obj
246 libvcruntime:memcpy.obj
247 libvcruntime:memset.obj
248 libvcruntime:per_thread_data.obj
249 libvcruntime:purevirt.obj
250 libvcruntime:purevirt_data.obj
251 libvcruntime:std_exception.obj
252 libvcruntime:std_type_info.obj
253 libvcruntime:throw.obj
254 libvcruntime:trnsctrl.obj
255 libvcruntime:undname.obj
256 libvcruntime:unexpected.obj
257 libvcruntime:wcschr.obj
258 libvcruntime:winapi_downlevel.obj
259 mpr:MPR.dll
260 ole32:ole32.dll
261 oleaut32:OLEAUT32.dll
262 perfthread.obj
263 psapi:PSAPI.DLL
264 user32:USER32.dll
265 vc_crt_fix.obj
266 vc_crt_fix_impl.obj
267 version:VERSION.dll
268 wbemuuid:wbemcli_i.obj
269 wmi.obj

SYMBOLS
0 1 ___AbsoluteZero
64 1 ___safe_se_handler_count
100 1 ___guard_flags
1000 52 ??__F?m_PanelModesDataLocal@Plist@@0V?$vector@Umode@@V?$allocator@Umode@@@std@@@std@@A@@YAXXZ
1010 52 ??__F?m_PanelModesDataRemote@Plist@@0V?$vector@Umode@@V?$allocator@Umode@@@std@@@std@@A@@YAXXZ
1020 46 ??__FhDebugToken@@YAXXZ
102C 65 ??__Einitlocks@std@@YAXXZ
1042 60 ??__Eclassic_locale@std@@YAXXZ
104E 60 ??__F_Fac_tidy_reg@std@@YAXXZ
105A 58 ??__Einitlocks@std@@YAXXZ
1070 58 ??__Finit_atexit@@YAXXZ
1080 52 ?WriteToFile@@YAIPAXABV?$basic_string_view@_WU?$char_traits@_W@std@@@std@@@Z
10B0 52 ??1?$vector@Umode@@V?$allocator@Umode@@@std@@@std@@QAE@XZ
1140 52 ??1?$basic_string@_WU?$char_traits@_W@std@@V?$allocator@_W@2@@std@@QAE@XZ
11A0 52 ??$_Destroy_range@V?$allocator@Umode@@@std@@@std@@YAXPAUmode@@QAU1@AAV?$allocator@Umode@@@0@@Z
11D0 52 ??1mode@@QAE@XZ
11F0 52 ??1columns@@QAE@XZ
12E0 53 ?fpclassify@@YAHN@Z
1300 53 ?fpclassify@@YAHO@Z
1320 53 ___local_stdio_printf_options
1330 53 ??0exception@std@@QAE@QBD@Z
1370 53 ??0exception@std@@QAE@ABV01@@Z
13A0 53 ?what@exception@std@@UBEPBDXZ
13B0 0 ??_Ebad_alloc@std@@UAEPAXI@Z
13E0 53 ??0bad_alloc@std@@QAE@XZ
1400 53 ??1bad_alloc@std@@UAE@XZ
1420 53 ??0bad_array_new_length@std@@QAE@XZ
1440 53 ?_Throw_bad_array_new_length@std@@YAXXZ
1460 53 ??0bad_array_new_length@std@@QAE@ABV01@@Z
14A0 53 ??0bad_alloc@std@@QAE@ABV01@@Z
14E0 53 ?_Xlen_string@std@@YAXXZ
14F0 53 ??0runtime_error@std@@QAE@PBD@Z
1530 53 ??0runtime_error@std@@QAE@ABV01@@Z
1570 53 ?digits2@detail@v11@fmt@@YAPBDI@Z
1590 53 ??1?$basic_string@DU?$char_traits@D@std@@V?$allocator@D@2@@std@@QAE@XZ
15E0 53 ?umul128_upper64@dragonbox@detail@v11@fmt@@YA_K_K0@Z
1650 53 ?umul192_upper128@dragonbox@detail@v11@fmt@@YA?AVuint128_fallback@234@_KV5234@@Z
1770 53 ?needs_escape@detail@v11@fmt@@YA_NI@Z
1870 53 ?prefix_append@detail@v11@fmt@@YAXAAII@Z
18A0 53 ?adjust_precision@detail@v11@fmt@@YAXAAHH@Z
1960 53 ??_3bigint@detail@v11@fmt@@QAEAAV0123@H@Z
1A00 53 ?compare@detail@v11@fmt@@YAHABVbigint@123@0@Z
1AA0 53 ?add_compare@detail@v11@fmt@@YAHABVbigint@123@00@Z
1C30 53 ?assign_pow10@bigint@detail@v11@fmt@@QAEXH@Z
1D00 53 ?square@bigint@detail@v11@fmt@@QAEXXZ
20D0 53 ?divmod_assign@bigint@detail@v11@fmt@@QAEHABV1234@@Z
22F0 53 ?format_dragon@detail@v11@fmt@@YAXU?$basic_fp@Vuint128_fallback@detail@v11@fmt@@@123@IHAAV?$buffer@D@123@AAH@Z
2D20 53 ??1?$basic_memory_buffer@D$0BPE@U?$allocator@D@detail@v11@fmt@@@v11@fmt@@QAE@XZ
2D40 53 ??0bad_cast@std@@QAE@XZ
2D60 53 ?_Throw_bad_cast@std@@YAXXZ
2D80 53 ??0bad_cast@std@@QAE@ABV01@@Z
2DC0 0 ??_E_Facet_base@std@@UAEPAXI@Z
2DF0 53 ??0_Locinfo@std@@QAE@PBD@Z
2EA0 53 ??1_Locinfo@std@@QAE@XZ
2F80 53 ?_Incref@facet@locale@std@@UAEXXZ
2F90 53 ?_Decref@facet@locale@std@@UAEPAV_Facet_base@3@XZ
2FB0 53 ??1facet@locale@std@@MAE@XZ
2FC0 53 ??1locale@std@@QAE@XZ
2FE0 53 ??$_Maklocstr@_W@std@@YAPA_WPBDPA_WABU_Cvtvec@@@Z
30B0 53 ?report_error@v11@fmt@@YAXPBD@Z
3150 53 ?compute_mul_parity@?$cache_accessor@M@dragonbox@detail@v11@fmt@@SA?AUcompute_mul_parity_result@12345@IAB_KH@Z
31B0 53 ?get_cached_power@?$cache_accessor@N@dragonbox@detail@v11@fmt@@SA?AVuint128_fallback@345@H@Z
33F0 53 ?compute_mul_parity@?$cache_accessor@N@dragonbox@detail@v11@fmt@@SA?AUcompute_mul_parity_result@12345@_KABVuint128_fallback@345@H@Z
3510 53 ?remove_trailing_zeros@dragonbox@detail@v11@fmt@@YAHAAIH@Z
3570 53 ?remove_trailing_zeros@dragonbox@detail@v11@fmt@@YAHAA_K@Z
3740 53 ?is_printable@detail@v11@fmt@@YA_NGPBUsingleton@123@IPBE1I@Z
3800 53 ?do_truename@?$numpunct@_W@std@@MBE?AV?$basic_string@_WU?$char_traits@_W@std@@V?$allocator@_W@2@@2@XZ
3850 53 ?do_falsename@?$numpunct@_W@std@@MBE?AV?$basic_string@_WU?$char_traits@_W@std@@V?$allocator@_W@2@@2@XZ
38A0 53 ?do_grouping@?$numpunct@_W@std@@MBE?AV?$basic_string@DU?$char_traits@D@std@@V?$allocator@D@2@@2@XZ
38E0 53 ?do_thousands_sep@?$numpunct@_W@std@@MBE_WXZ
38F0 53 ?do_decimal_point@?$numpunct@_W@std@@MBE_WXZ
3900 53 ??1?$_Yarn@D@std@@QAE@XZ
3920 53 ??0?$basic_string@DU?$char_traits@D@std@@V?$allocator@D@2@@std@@QAE@ABV01@@Z
39E0 53 ?try_resize@?$buffer@D@detail@v11@fmt@@QAEXI@Z
3A20 0 ??_E?$numpunct@_W@std@@MAEPAXI@Z
3A70 53 ?grow@?$basic_memory_buffer@H$0BPE@U?$allocator@H@detail@v11@fmt@@@v11@fmt@@CAXAAV?$buffer@H@detail@23@I@Z
3B70 53 ?grow@?$basic_memory_buffer@D$0BPE@U?$allocator@D@detail@v11@fmt@@@v11@fmt@@CAXAAV?$buffer@D@detail@23@I@Z
3C50 53 ?grow@?$basic_memory_buffer@_W$0BPE@U?$allocator@_W@detail@v11@fmt@@@v11@fmt@@CAXAAV?$buffer@_W@detail@23@I@Z
3D40 53 ??0?$basic_string@_WU?$char_traits@_W@std@@V?$allocator@_W@2@@std@@QAE@QB_W@Z
3D90 53 ??$assign@_K$0A@@bigint@detail@v11@fmt@@AAEX_K@Z
3E00 53 ??$?XH@bigint@detail@v11@fmt@@QAEAAV0123@H@Z
3E80 53 ??$?4Vuint128_fallback@detail@v11@fmt@@@bigint@detail@v11@fmt@@QAEXVuint128_fallback@123@@Z
3F10 53 ??$format_decimal@DIV?$basic_appender@D@v11@fmt@@$0A@@detail@v11@fmt@@YA?AV?$basic_appender@D@12@V312@IH@Z
3FC0 53 ??$use_facet@V?$numpunct@_W@std@@@std@@YAABV?$numpunct@_W@0@ABVlocale@0@@Z
40E0 53 ??$to_decimal@M@dragonbox@detail@v11@fmt@@YA?AU?$decimal_fp@M@0123@M@Z
4390 53 ??$to_decimal@N@dragonbox@detail@v11@fmt@@YA?AU?$decimal_fp@N@0123@N@Z
47F0 53 ??$append@D@?$buffer@D@detail@v11@fmt@@QAEXPBD0@Z
4870 53 ??$append@_W@?$buffer@_W@detail@v11@fmt@@QAEXPB_W0@Z
48F0 53 ??$_Construct@$00PB_W@?$basic_string@_WU?$char_traits@_W@std@@V?$allocator@_W@2@@std@@AAEXQB_WI@Z
4990 53 ??$_Construct@$00PBD@?$basic_string@DU?$char_traits@D@std@@V?$allocator@D@2@@std@@AAEXQBDI@Z
4A20 53 ??0format_error@v11@fmt@@QAE@ABV012@@Z
4A60 53 ??1?$unique_ptr@V_Facet_base@std@@U?$default_delete@V_Facet_base@std@@@2@@std@@QAE@XZ
4A70 53 ?_Getcat@?$numpunct@_W@std@@SAIPAPBVfacet@locale@2@PBV42@@Z
4C60 53 ??1?$_Tidy_guard@V?$numpunct@_W@std@@@std@@QAE@XZ
4C90 53 ??$multiply@Vuint128_fallback@detail@v11@fmt@@$0A@@bigint@detail@v11@fmt@@AAEXVuint128_fallback@123@@Z
4EC0 53 ??$do_format_decimal@DI@detail@v11@fmt@@YAPADPADIH@Z
4F30 53 ??$do_format_decimal@D_K@detail@v11@fmt@@YAPADPAD_KH@Z
5040 53 ??$_Allocate_for_capacity@$0A@@?$basic_string@_WU?$char_traits@_W@std@@V?$allocator@_W@2@@std@@CAPA_WAAV?$allocator@_W@1@AAI@Z
50A0 53 ??$_Allocate_for_capacity@$0A@@?$basic_string@DU?$char_traits@D@std@@V?$allocator@D@2@@std@@CAPADAAV?$allocator@D@1@AAI@Z
5100 53 ??$format_decimal@D_KV?$basic_appender@D@v11@fmt@@$0A@@detail@v11@fmt@@YA?AV?$basic_appender@D@12@V312@_KH@Z
51B0 53 ??$count_digits@$03_K@detail@v11@fmt@@YAH_K@Z
51E0 53 ??$format_base2e@DV?$basic_appender@D@v11@fmt@@_K$0A@@detail@v11@fmt@@YA?AV?$basic_appender@D@12@HV312@_KH_N@Z
52B0 53 ??$count_digits@$02_K@detail@v11@fmt@@YAH_K@Z
52E0 53 ??$format_hexfloat@N$0A@@detail@v11@fmt@@YAXNUformat_specs@12@AAV?$buffer@D@012@@Z
55A0 53 ??$format_float@N@detail@v11@fmt@@YAHNHABUformat_specs@12@_NAAV?$buffer@D@012@@Z
5B30 53 ??R<lambda_1>@?CO@???$format_float@N@detail@v11@fmt@@YAHNHABUformat_specs@23@_NAAV?$buffer@D@123@@Z@QBE@IPAD@Z
5BF0 53 ??$fill_n@V?$basic_appender@D@v11@fmt@@HD@detail@v11@fmt@@YA?AV?$basic_appender@D@12@V312@HABD@Z
5C60 53 ??4?$basic_string@DU?$char_traits@D@std@@V?$allocator@D@2@@std@@QAEAAV01@ABV01@@Z
5D70 53 ??$isfinite@N@@YA_NN@Z
5DA0 53 ??$isfinite@O@@YA_NO@Z
5DD0 53 ??$do_format_base2e@D_K@detail@v11@fmt@@YAPADHPAD_KH_N@Z
5E30 54 ??$decimal_point@_W@detail@v11@fmt@@YA_WUlocale_ref@012@@Z
5ED0 54 ?write_loc@detail@v11@fmt@@YA_NV?$basic_appender@_W@23@Vloc_value@23@ABUformat_specs@23@Ulocale_ref@123@@Z
6180 54 ??1?$loc_writer@_W@detail@v11@fmt@@QAE@XZ
6270 54 ??$parse_format_specs@_W@detail@v11@fmt@@YAPB_WPB_W0AAU?$dynamic_format_specs@_W@012@AAV?$parse_context@_W@12@W4type@012@@Z
67E0 54 $LN297
6850 54 $LN296
68B0 54 ??$parse_dynamic_spec@_W@detail@v11@fmt@@YA?AU?$parse_dynamic_spec_result@_W@012@PB_W0AAHAAT?$arg_ref@_W@012@AAV?$parse_context@_W@12@@Z
6A90 54 ??1DebugToken@@QAE@XZ
6AD0 54 ?query_object@@YA?AV?$unique_ptr@$$BY0A@DU?$default_delete@$$BY0A@D@std@@@std@@PAXW4_OBJECT_INFORMATION_CLASS@@@Z
6BA0 54 ?GetFileName@@YA?AV?$basic_string@_WU?$char_traits@_W@std@@V?$allocator@_W@2@@std@@PAX@Z
6E70 54 ?GetFileNameThread@test@?4??GetFileName@@YA?AV?$basic_string@_WU?$char_traits@_W@std@@V?$allocator@_W@2@@std@@PAX@Z@SGK0@Z
6EB0 45 ??$format@I@far@@YA?A_PU?$basic_fstring@_WI@v11@fmt@@ABI@Z
6F20 54 ??R<lambda_1>@?1??GetUserAccountID@@YA@XZ@QBE?AV?$basic_string@_WU?$char_traits@_W@std@@V?$allocator@_W@2@@std@@XZ
7170 54 ?GetNameByType@@YA?AV?$basic_string@_WU?$char_traits@_W@std@@V?$allocator@_W@2@@std@@PAXGPAVPerfThread@@@Z
770C 54 $LN553
7720 54 ??$format@V?$basic_string_view@_WU?$char_traits@_W@std@@@std@@K@far@@YA?A_PU?$basic_fstring@_WV?$basic_string_view@_WU?$char_traits@_W@std@@@std@@K@v11@fmt@@ABV?$basic_string_view@_WU?$char_traits@_W@std@@@std@@ABK@Z
77A0 54 ?duplicate_handle@@YA?AV?$unique_ptr@XUhandle_closer@@@std@@PAXK@Z
7950 54 ?PrintHandleInfo@@YA_NKPAX_NPAVPerfThread@@@Z
7E30 54 ??$format@PB_WPB_WPB_WPB_WPB_W@far@@YA?A_PU?$basic_fstring@_WPB_WPB_WPB_WPB_WPB_W@v11@fmt@@ABQB_W1111@Z
7EE0 54 ??$parse_nonnegative_int@_W@detail@v11@fmt@@YAHAAPB_WPB_WH@Z
7F80 54 ??$format@GKV?$basic_string@_WU?$char_traits@_W@std@@V?$allocator@_W@2@@std@@V12@@far@@YA?A_PU?$basic_fstring@_WGKV?$basic_string@_WU?$char_traits@_W@std@@V?$allocator@_W@2@@std@@V12@@v11@fmt@@ABGABKABV?$basic_string@_WU?$char_traits@_W@std@@V?$allocator@_W@2@@std@@3@Z
8040 54 ??1?$unique_ptr@UPROCLIST_SYSTEM_HANDLE_INFORMATION@@Uvirtual_deleter@@@std@@QAE@XZ
8060 54 ??1?$scoped_lock@VPerfThread@@@std@@QAE@XZ
8070 54 ??1?$unique_ptr@_WUlocal_deleter@@@std@@QAE@XZ
8080 54 ??1?$unique_ptr@$$BY0A@DU?$default_delete@$$BY0A@D@std@@@std@@QAE@XZ
8090 45 ??1?$unique_ptr@UPluginPanelItem@@Ufree_deleter@@@std@@QAE@XZ
80A0 54 ??1?$unique_ptr@XUhandle_closer@@@std@@QAE@XZ
80B0 54 ??4?$basic_string@_WU?$char_traits@_W@std@@V?$allocator@_W@2@@std@@QAEAAV01@$$QAV01@@Z
8100 54 ??0?$basic_string@_WU?$char_traits@_W@std@@V?$allocator@_W@2@@std@@QAE@$$QAV01@@Z
8160 54 ??0?$basic_string@_WU?$char_traits@_W@std@@V?$allocator@_W@2@@std@@QAE@I_W@Z
8260 54 ??0?$basic_string@_WU?$char_traits@_W@std@@V?$allocator@_W@2@@std@@QAE@ABV01@@Z
8320 54 ?starts_with@?$basic_string_view@_WU?$char_traits@_W@std@@@std@@QBE_NV12@@Z
8380 54 ?_Xran@?$basic_string_view@_WU?$char_traits@_W@std@@@std@@CAXXZ
8390 54 ??$vformat@_W$0A@@v11@fmt@@YA?AV?$basic_string@_WU?$char_traits@_W@std@@V?$allocator@_W@2@@std@@V?$basic_string_view@_W@01@V?$basic_format_args@V?$generic_context@V?$basic_appender@_W@v11@fmt@@_W@v11@fmt@@@01@@Z
8530 54 ??$?0V?$basic_string_view@_WU?$char_traits@_W@std@@@std@@$0A@@?$basic_string@_WU?$char_traits@_W@std@@V?$allocator@_W@2@@std@@QAE@ABV?$basic_string_view@_WU?$char_traits@_W@std@@@1@ABV?$allocator@_W@1@@Z
8560 54 ??$visit@AAU?$loc_writer@_W@detail@v11@fmt@@@?$basic_format_arg@Vcontext@v11@fmt@@@v11@fmt@@QBE_NAAU?$loc_writer@_W@detail@12@@Z
887C 54 $LN520
8890 54 $LN519
88A0 54 ??$_Reallocate_grow_by@V<lambda_1>@?1??append@?$basic_string@_WU?$char_traits@_W@std@@V?$allocator@_W@2@@std@@QAEAAV34@QB_WI@Z@PB_WI@?$basic_string@_WU?$char_traits@_W@std@@V?$allocator@_W@2@@std@@AAEAAV01@IV<lambda_1>@?1??append@01@QAEAAV01@QB_WI@Z@PB_WI@Z
89D0 54 ??$?RH$0A@@?$loc_writer@_W@detail@v11@fmt@@QAE_NH@Z
8B90 54 ??$?R_J$0A@@?$loc_writer@_W@detail@v11@fmt@@QAE_N_J@Z
8D60 54 ??$parse_replacement_field@_WAAU?$format_handler@_W@detail@v11@fmt@@@detail@v11@fmt@@YAPB_WPB_W0AAU?$format_handler@_W@012@@Z
90F0 54 ??$append@D@?$buffer@_W@detail@v11@fmt@@QAEXPBD0@Z
9160 54 ??1?$digit_grouping@_W@detail@v11@fmt@@QAE@XZ
9200 54 ?get@?$basic_format_args@V?$generic_context@V?$basic_appender@_W@v11@fmt@@_W@v11@fmt@@@v11@fmt@@QBE?AV?$basic_format_arg@V?$generic_context@V?$basic_appender@_W@v11@fmt@@_W@v11@fmt@@@23@H@Z
9290 54 ??$write_int@V?$basic_appender@_W@v11@fmt@@_K_W@detail@v11@fmt@@YA?AV?$basic_appender@_W@12@V312@_KIABUformat_specs@12@ABV?$digit_grouping@_W@012@@Z
9590 54 $LN140
95B0 54 ??$visit@U?$arg_formatter@_W@detail@v11@fmt@@@?$basic_format_arg@V?$generic_context@V?$basic_appender@_W@v11@fmt@@_W@v11@fmt@@@v11@fmt@@QBEX$$QAU?$arg_formatter@_W@detail@12@@Z
9968 54 $LN145
99B0 54 ??$visit@U?$default_arg_formatter@_W@detail@v11@fmt@@@?$basic_format_arg@V?$generic_context@V?$basic_appender@_W@v11@fmt@@_W@v11@fmt@@@v11@fmt@@QBEX$$QAU?$default_arg_formatter@_W@detail@12@@Z
9FB0 54 $LN409
9FF0 54 ??$get_id@_W@?$basic_format_args@V?$generic_context@V?$basic_appender@_W@v11@fmt@@_W@v11@fmt@@@v11@fmt@@QBEHV?$basic_string_view@_W@12@@Z
A0C0 54 ?count_separators@?$digit_grouping@_W@detail@v11@fmt@@QBEHH@Z
A140 54 ??4?$basic_appender@_W@v11@fmt@@QAEAAV012@_W@Z
A180 54 ??$apply@V?$basic_appender@_W@v11@fmt@@D@?$digit_grouping@_W@detail@v11@fmt@@QBE?AV?$basic_appender@_W@23@V423@V?$basic_string_view@D@23@@Z
A3D0 54 ??$write_padded@_W$01V?$basic_appender@_W@v11@fmt@@V<lambda_1>@?1???$write_int@V?$basic_appender@_W@v11@fmt@@_K_W@detail@23@YA?AV123@V123@_KIABUformat_specs@23@ABV?$digit_grouping@_W@523@@Z@@detail@v11@fmt@@YA?AV?$basic_appender@_W@12@V312@ABUformat_specs@12@II$$QAV<lambda_1>@?1???$write_int@V?$basic_appender@_W@v11@fmt@@_K_W@012@YA?AV312@0_KI1ABV?$digit_grouping@_W@012@@Z@@Z
A540 54 ??$get_dynamic_spec@V?$generic_context@V?$basic_appender@_W@v11@fmt@@_W@v11@fmt@@@detail@v11@fmt@@YAHW4arg_id_kind@12@ABT?$arg_ref@_W@012@AAV?$generic_context@V?$basic_appender@_W@v11@fmt@@_W@12@@Z
A60C 54 $LN90
A650 54 ??$write@_WH$0A@@detail@v11@fmt@@YA?AV?$basic_appender@_W@12@V312@HABUformat_specs@12@Ulocale_ref@012@@Z
A6F0 54 ??$write@_WI$0A@@detail@v11@fmt@@YA?AV?$basic_appender@_W@12@V312@IABUformat_specs@12@Ulocale_ref@012@@Z
A780 54 ??$write@_WV?$basic_appender@_W@v11@fmt@@_N$0A@@detail@v11@fmt@@YA?AV?$basic_appender@_W@12@V312@_NABUformat_specs@12@Ulocale_ref@012@@Z
A8D0 54 ??$write@_WV?$basic_appender@_W@v11@fmt@@M$0A@@detail@v11@fmt@@YA?AV?$basic_appender@_W@12@V312@MUformat_specs@12@Ulocale_ref@012@@Z
A960 54 ??$write@_WV?$basic_appender@_W@v11@fmt@@N$0A@@detail@v11@fmt@@YA?AV?$basic_appender@_W@12@V312@NUformat_specs@12@Ulocale_ref@012@@Z
A9F0 54 ??$write@_WV?$basic_appender@_W@v11@fmt@@O$0A@@detail@v11@fmt@@YA?AV?$basic_appender@_W@12@V312@OUformat_specs@12@Ulocale_ref@012@@Z
AA80 54 ??$write@_WV?$basic_appender@_W@v11@fmt@@_J$0A@@detail@v11@fmt@@YA?AV?$basic_appender@_W@12@V312@_J@Z
ABF0 54 ??$write_ptr@_WV?$basic_appender@_W@v11@fmt@@I@detail@v11@fmt@@YA?AV?$basic_appender@_W@12@V312@IPBUformat_specs@12@@Z
AD50 54 ??R<lambda_1>@?1???$write_ptr@_WV?$basic_appender@_W@v11@fmt@@I@detail@v11@fmt@@YA?AV?$basic_appender@_W@23@V423@IPBUformat_specs@23@@Z@QBE@0@Z
AE80 54 ??$write@_WV?$basic_appender@_W@v11@fmt@@@detail@v11@fmt@@YA?AV?$basic_appender@_W@12@V312@V?$basic_string_view@_W@12@ABUformat_specs@12@@Z
B0F0 54 ??$format_decimal@_WIV?$basic_appender@_W@v11@fmt@@$0A@@detail@v11@fmt@@YA?AV?$basic_appender@_W@12@V312@IH@Z
B1A0 54 ??$write_escaped_cp@V?$basic_appender@_W@v11@fmt@@_W@detail@v11@fmt@@YA?AV?$basic_appender@_W@12@V312@ABU?$find_escape_result@_W@012@@Z
B42C 54 $LN145
B440 54 $LN144
B4A0 54 ??$write_padded@_W$00V?$basic_appender@_W@v11@fmt@@AAV<lambda_1>@?1???$write_char@_WV?$basic_appender@_W@v11@fmt@@@detail@23@YA?AV123@V123@_WABUformat_specs@23@@Z@@detail@v11@fmt@@YA?AV?$basic_appender@_W@12@V312@ABUformat_specs@12@IIAAV<lambda_1>@?1???$write_char@_WV?$basic_appender@_W@v11@fmt@@@012@YA?AV312@0_W1@Z@@Z
B680 54 ??$fill_n@V?$basic_appender@_W@v11@fmt@@I_W@detail@v11@fmt@@YA?AV?$basic_appender@_W@12@V312@IAB_W@Z
B6F0 54 ??$write_float@_WV?$basic_appender@_W@v11@fmt@@M@detail@v11@fmt@@YA?AV?$basic_appender@_W@12@V312@MUformat_specs@12@Ulocale_ref@012@@Z
BA30 54 ??$write_float@_WV?$basic_appender@_W@v11@fmt@@N@detail@v11@fmt@@YA?AV?$basic_appender@_W@12@V312@NUformat_specs@12@Ulocale_ref@012@@Z
BD70 54 ??$write_float@_WV?$basic_appender@_W@v11@fmt@@O@detail@v11@fmt@@YA?AV?$basic_appender@_W@12@V312@OUformat_specs@12@Ulocale_ref@012@@Z
C0B0 54 ??$format_decimal@_W_KV?$basic_appender@_W@v11@fmt@@$0A@@detail@v11@fmt@@YA?AV?$basic_appender@_W@12@V312@_KH@Z
C170 54 ??$write_nonfinite@_WV?$basic_appender@_W@v11@fmt@@@detail@v11@fmt@@YA?AV?$basic_appender@_W@12@V312@_NUformat_specs@12@W4sign@12@@Z
C220 54 ?grow@?$counting_buffer@_W@detail@v11@fmt@@CAXAAV?$buffer@_W@234@I@Z
C250 54 ??$write_escaped_string@_WV?$basic_appender@_W@v11@fmt@@@detail@v11@fmt@@YA?AV?$basic_appender@_W@12@V312@V?$basic_string_view@_W@12@@Z
C380 54 ??$write_int@_WV?$basic_appender@_W@v11@fmt@@I@detail@v11@fmt@@YA?AV?$basic_appender@_W@12@V312@U?$write_int_arg@I@012@ABUformat_specs@12@@Z
C61C 54 $LN132
C640 54 ??$do_format_decimal@_WI@detail@v11@fmt@@YAPA_WPA_WIH@Z
C6F0 54 ??$write_codepoint@$01_WV?$basic_appender@_W@v11@fmt@@@detail@v11@fmt@@YA?AV?$basic_appender@_W@12@V312@DI@Z
C790 54 ??$write_int@_WV?$basic_appender@_W@v11@fmt@@_K@detail@v11@fmt@@YA?AV?$basic_appender@_W@12@V312@U?$write_int_arg@_K@012@ABUformat_specs@12@@Z
CA60 54 $LN132
CA80 54 ??$write_bytes@_W$01V?$basic_appender@_W@v11@fmt@@@detail@v11@fmt@@YA?AV?$basic_appender@_W@12@V312@V?$basic_string_view@D@12@ABUformat_specs@12@@Z
CB90 54 ??$do_format_decimal@_W_K@detail@v11@fmt@@YAPA_WPA_W_KH@Z
CCE0 54 ??$do_write_float@_WV?$basic_appender@_W@v11@fmt@@U?$decimal_fp@M@dragonbox@detail@23@V?$digit_grouping@_W@623@@detail@v11@fmt@@YA?AV?$basic_appender@_W@12@V312@ABU?$decimal_fp@M@dragonbox@012@ABUformat_specs@12@W4sign@12@HUlocale_ref@012@@Z
D3B0 54 ??R<lambda_2>@?4???$do_write_float@_WV?$basic_appender@_W@v11@fmt@@U?$decimal_fp@M@dragonbox@detail@23@V?$digit_grouping@_W@623@@detail@v11@fmt@@YA?AV?$basic_appender@_W@23@V423@ABU?$decimal_fp@M@dragonbox@123@ABUformat_specs@23@W4sign@23@HUlocale_ref@123@@Z@QBE@0@Z
D470 54 ??R<lambda_3>@?BD@???$do_write_float@_WV?$basic_appender@_W@v11@fmt@@U?$decimal_fp@M@dragonbox@detail@23@V?$digit_grouping@_W@623@@detail@v11@fmt@@YA?AV?$basic_appender@_W@23@V423@ABU?$decimal_fp@M@dragonbox@123@ABUformat_specs@23@W4sign@23@HUlocale_ref@123@@Z@QBE@0@Z
D680 54 ??R<lambda_5>@?1???$do_write_float@_WV?$basic_appender@_W@v11@fmt@@U?$decimal_fp@M@dragonbox@detail@23@V?$digit_grouping@_W@623@@detail@v11@fmt@@YA?AV?$basic_appender@_W@23@V423@ABU?$decimal_fp@M@dragonbox@123@ABUformat_specs@23@W4sign@23@HUlocale_ref@123@@Z@QBE@0@Z
D7A0 54 ??$do_write_float@_WV?$basic_appender@_W@v11@fmt@@U?$decimal_fp@N@dragonbox@detail@23@V?$digit_grouping@_W@623@@detail@v11@fmt@@YA?AV?$basic_appender@_W@12@V312@ABU?$decimal_fp@N@dragonbox@012@ABUformat_specs@12@W4sign@12@HUlocale_ref@012@@Z
DED0 54 ??R<lambda_2>@?4???$do_write_float@_WV?$basic_appender@_W@v11@fmt@@U?$decimal_fp@N@dragonbox@detail@23@V?$digit_grouping@_W@623@@detail@v11@fmt@@YA?AV?$basic_appender@_W@23@V423@ABU?$decimal_fp@N@dragonbox@123@ABUformat_specs@23@W4sign@23@HUlocale_ref@123@@Z@QBE@0@Z
DF90 54 ??R<lambda_3>@?BD@???$do_write_float@_WV?$basic_appender@_W@v11@fmt@@U?$decimal_fp@N@dragonbox@detail@23@V?$digit_grouping@_W@623@@detail@v11@fmt@@YA?AV?$basic_appender@_W@23@V423@ABU?$decimal_fp@N@dragonbox@123@ABUformat_specs@23@W4sign@23@HUlocale_ref@123@@Z@QBE@0@Z
E1C0 54 ??R<lambda_5>@?1???$do_write_float@_WV?$basic_appender@_W@v11@fmt@@U?$decimal_fp@N@dragonbox@detail@23@V?$digit_grouping@_W@623@@detail@v11@fmt@@YA?AV?$basic_appender@_W@23@V423@ABU?$decimal_fp@N@dragonbox@123@ABUformat_specs@23@W4sign@23@HUlocale_ref@123@@Z@QBE@0@Z
E2E0 54 ??$do_write_float@_WV?$basic_appender@_W@v11@fmt@@Ubig_decimal_fp@detail@23@V?$digit_grouping@_W@523@@detail@v11@fmt@@YA?AV?$basic_appender@_W@12@V312@ABUbig_decimal_fp@012@ABUformat_specs@12@W4sign@12@HUlocale_ref@012@@Z
EA10 54 ??R<lambda_2>@?4???$do_write_float@_WV?$basic_appender@_W@v11@fmt@@Ubig_decimal_fp@detail@23@V?$digit_grouping@_W@523@@detail@v11@fmt@@YA?AV?$basic_appender@_W@23@V423@ABUbig_decimal_fp@123@ABUformat_specs@23@W4sign@23@HUlocale_ref@123@@Z@QBE@0@Z
EB10 54 ??R<lambda_3>@?BD@???$do_write_float@_WV?$basic_appender@_W@v11@fmt@@Ubig_decimal_fp@detail@23@V?$digit_grouping@_W@523@@detail@v11@fmt@@YA?AV?$basic_appender@_W@23@V423@ABUbig_decimal_fp@123@ABUformat_specs@23@W4sign@23@HUlocale_ref@123@@Z@QBE@0@Z
ED10 54 ??R<lambda_4>@?BO@???$do_write_float@_WV?$basic_appender@_W@v11@fmt@@Ubig_decimal_fp@detail@23@V?$digit_grouping@_W@523@@detail@v11@fmt@@YA?AV?$basic_appender@_W@23@V423@ABUbig_decimal_fp@123@ABUformat_specs@23@W4sign@23@HUlocale_ref@123@@Z@QBE@0@Z
EF70 54 ??R<lambda_5>@?1???$do_write_float@_WV?$basic_appender@_W@v11@fmt@@Ubig_decimal_fp@detail@23@V?$digit_grouping@_W@523@@detail@v11@fmt@@YA?AV?$basic_appender@_W@23@V423@ABUbig_decimal_fp@123@ABUformat_specs@23@W4sign@23@HUlocale_ref@123@@Z@QBE@0@Z
F090 54 ??$write_padded@_W$00V?$basic_appender@_W@v11@fmt@@AAV<lambda_1>@?1???$write_nonfinite@_WV?$basic_appender@_W@v11@fmt@@@detail@23@YA?AV123@V123@_NUformat_specs@23@W4sign@23@@Z@@detail@v11@fmt@@YA?AV?$basic_appender@_W@12@V312@ABUformat_specs@12@IIAAV<lambda_1>@?1???$write_nonfinite@_WV?$basic_appender@_W@v11@fmt@@@012@YA?AV312@0_NU412@W4sign@12@@Z@@Z
F1D0 54 ??$write_significand@V?$basic_appender@_W@v11@fmt@@I_W$0A@@detail@v11@fmt@@YA?AV?$basic_appender@_W@12@V312@IHH_W@Z
F2D0 54 ??$fill_n@V?$basic_appender@_W@v11@fmt@@H_W@detail@v11@fmt@@YA?AV?$basic_appender@_W@12@V312@HAB_W@Z
F340 54 ??$write_exponent@_WV?$basic_appender@_W@v11@fmt@@@detail@v11@fmt@@YA?AV?$basic_appender@_W@12@HV312@@Z
F490 54 ??$?0Ulocale_ref@detail@v11@fmt@@$0A@@?$digit_grouping@_W@detail@v11@fmt@@QAE@Ulocale_ref@123@_N@Z
F680 54 ??$write_significand@V?$basic_appender@_W@v11@fmt@@_K_W$0A@@detail@v11@fmt@@YA?AV?$basic_appender@_W@12@V312@_KHH_W@Z
F860 54 ??$write_padded@_W$01V?$basic_appender@_W@v11@fmt@@AAV<lambda_1>@?1???$write_int@_WV?$basic_appender@_W@v11@fmt@@I@detail@23@YA?AV123@V123@U?$write_int_arg@I@523@ABUformat_specs@23@@Z@@detail@v11@fmt@@YA?AV?$basic_appender@_W@12@V312@ABUformat_specs@12@IIAAV<lambda_1>@?1???$write_int@_WV?$basic_appender@_W@v11@fmt@@I@012@YA?AV312@0U?$write_int_arg@I@012@1@Z@@Z
F9C0 54 ??$apply@V?$basic_appender@_W@v11@fmt@@_W@?$digit_grouping@_W@detail@v11@fmt@@QBE?AV?$basic_appender@_W@23@V423@V?$basic_string_view@_W@23@@Z
FC10 54 ??$write_padded@_W$01V?$basic_appender@_W@v11@fmt@@AAV<lambda_4>@?BO@???$do_write_float@_WV?$basic_appender@_W@v11@fmt@@U?$decimal_fp@M@dragonbox@detail@23@V?$digit_grouping@_W@623@@detail@23@YA?AV123@V123@ABU?$decimal_fp@M@dragonbox@523@ABUformat_specs@23@W4sign@23@HUlocale_ref@523@@Z@@detail@v11@fmt@@YA?AV?$basic_appender@_W@12@V312@ABUformat_specs@12@IIAAV<lambda_4>@?BO@???$do_write_float@_WV?$basic_appender@_W@v11@fmt@@U?$decimal_fp@M@dragonbox@detail@23@V?$digit_grouping@_W@623@@012@YA?AV312@0ABU?$decimal_fp@M@dragonbox@012@1W4sign@12@HUlocale_ref@012@@Z@@Z
FEF0 54 ??$write_padded@_W$01V?$basic_appender@_W@v11@fmt@@AAV<lambda_4>@?BO@???$do_write_float@_WV?$basic_appender@_W@v11@fmt@@U?$decimal_fp@N@dragonbox@detail@23@V?$digit_grouping@_W@623@@detail@23@YA?AV123@V123@ABU?$decimal_fp@N@dragonbox@523@ABUformat_specs@23@W4sign@23@HUlocale_ref@523@@Z@@detail@v11@fmt@@YA?AV?$basic_appender@_W@12@V312@ABUformat_specs@12@IIAAV<lambda_4>@?BO@???$do_write_float@_WV?$basic_appender@_W@v11@fmt@@U?$decimal_fp@N@dragonbox@detail@23@V?$digit_grouping@_W@623@@012@YA?AV312@0ABU?$decimal_fp@N@dragonbox@012@1W4sign@12@HUlocale_ref@012@@Z@@Z
101E0 44 ??0PluginSettings@@QAE@ABU_GUID@@P6GHPAXW4FAR_SETTINGS_CONTROL_COMMANDS@@H1@Z@Z
10260 44 ??1PluginSettings@@QAE@XZ
102B0 44 ?Set@PluginSettings@@QAE_NIPB_WH@Z
10300 44 ?SaveValue@PluginCheckBoxBinding@@UAEXPBUFarDialogItem@@H@Z
10350 0 ??_EPluginCheckBoxBinding@@UAEPAXI@Z
10370 44 ??0PluginDialogBuilder@@QAE@ABUPluginStartupInfo@@ABU_GUID@@1HPB_WP6GHPAXHH3@Z3_K@Z
10470 44 ??1PluginDialogBuilder@@QAE@XZ
10500 44 ?AddText@PluginDialogBuilder@@QAEPAUFarDialogItem@@H@Z
10540 44 ?AddCheckbox@PluginDialogBuilder@@QAEPAUFarDialogItem@@HPAHH_N@Z
1062C 44 $LN40
1063C 44 $LN39
10650 44 ?AddSeparator@PluginDialogBuilder@@QAEXH@Z
10690 44 ?AddOKCancel@PluginDialogBuilder@@QAEXHHH_N@Z
10700 44 ?AddButtons@PluginDialogBuilder@@QAEXHPBHHH@Z
10904 44 $LN52
10914 44 $LN51
10920 44 ?ShowDialogEx@PluginDialogBuilder@@QAEHXZ
10B94 44 $LN76
10BA4 44 $LN75
10BB0 44 ?ShowDialog@PluginDialogBuilder@@QAE_NXZ
10BE0 44 ?AddDialogItem@PluginDialogBuilder@@AAEPAUFarDialogItem@@W4FARDIALOGITEMTYPES@@PB_W@Z
10D10 44 ?Config@@YAHXZ
11080 44 ?Read@options@@QAEXXZ
113B0 45 _ceilf
113E0 45 ?SmartReread@PerfThread@@QAEXXZ
11420 45 ?SaveValue@PluginEditFieldBinding@@UAEXPBUFarDialogItem@@H@Z
11480 45 ?AddEditField@PluginDialogBuilder@@QAEPAUFarDialogItem@@PA_WHHPB_W_N@Z
11530 45 ?Get@PluginSettings@@QAE_NIPB_W_N@Z
115B0 45 ?Set@PluginSettings@@QAE_NIPB_W_N@Z
11610 45 ?ui64toa_width@@YA?AV?$basic_string@_WU?$char_traits@_W@std@@V?$allocator@_W@2@@std@@_KI_N@Z
11A40 45 ?PrintTitle@@YA?AV?$basic_string@_WU?$char_traits@_W@std@@V?$allocator@_W@2@@std@@V?$basic_string_view@_WU?$char_traits@_W@std@@@2@@Z
11B10 45 ??$format@V?$basic_string_view@_WU?$char_traits@_W@std@@@std@@@far@@YA?A_PU?$basic_fstring@_WV?$basic_string_view@_WU?$char_traits@_W@std@@@std@@@v11@fmt@@ABV?$basic_string_view@_WU?$char_traits@_W@std@@@std@@@Z
11B80 45 ??$format@V?$basic_string@_WU?$char_traits@_W@std@@V?$allocator@_W@2@@std@@@far@@YA?A_PU?$basic_fstring@_WV?$basic_string@_WU?$char_traits@_W@std@@V?$allocator@_W@2@@std@@@v11@fmt@@ABV?$basic_string@_WU?$char_traits@_W@std@@V?$allocator@_W@2@@std@@@Z
11C00 45 ?PrintTitle@@YA?AV?$basic_string@_WU?$char_traits@_W@std@@V?$allocator@_W@2@@std@@H@Z
11C60 45 ??0Plist@@QAE@XZ
11E40 45 ?TranslateMode@@YA_NABV?$basic_string@_WU?$char_traits@_W@std@@V?$allocator@_W@2@@std@@AAV12@@Z
12634 45 $LN608
1263C 45 $LN607
12654 45 $LN610
1265C 45 $LN609
12670 45 ?InitializePanelModes@Plist@@SAXXZ
14440 45 ?SavePanelModes@Plist@@SAXXZ
146D0 45 ?generate_titles@@YAXABV?$basic_string@_WU?$char_traits@_W@std@@V?$allocator@_W@2@@std@@AAUPanelMode@@@Z
148F4 45 $LN94
14908 45 $LN93
14920 45 $LN96
14940 45 $LN95
14960 45 ??1StrTok@@QAE@XZ
14970 45 ?convert_panel_modes@@YAXABV?$vector@Umode@@V?$allocator@Umode@@@std@@@std@@AAV?$array@UPanelMode@@$09@2@@Z
14A10 45 ?GetOpenPanelInfo@Plist@@QAEXPAUOpenPanelInfo@@@Z
14CE0 46 ??$format@PA_W@far@@YA?A_PU?$basic_fstring@_WPA_W@v11@fmt@@ABQA_W@Z
14D50 45 ??$format@V?$basic_string@_WU?$char_traits@_W@std@@V?$allocator@_W@2@@std@@PB_W@far@@YA?A_PU?$basic_fstring@_WV?$basic_string@_WU?$char_traits@_W@std@@V?$allocator@_W@2@@std@@PB_W@v11@fmt@@ABV?$basic_string@_WU?$char_traits@_W@std@@V?$allocator@_W@2@@std@@ABQB_W@Z
14DE0 45 ?EnumWndProc@@YGHPAUHWND__@@J@Z
14EA0 45 ?GetFindData@Plist@@QAEHAAPAUPluginPanelItem@@AAI_K@Z
15DA4 45 $LN1233
15DB8 45 $LN1232
15DD0 45 $LN1236
15DF0 45 $LN1235
15E10 45 ??$emplace_back@V?$basic_string@_WU?$char_traits@_W@std@@V?$allocator@_W@2@@std@@@?$vector@V?$basic_string@_WU?$char_traits@_W@std@@V?$allocator@_W@2@@std@@V?$allocator@V?$basic_string@_WU?$char_traits@_W@std@@V?$allocator@_W@2@@std@@@2@@std@@QAE?A_T$$QAV?$basic_string@_WU?$char_traits@_W@std@@V?$allocator@_W@2@@1@@Z
15E90 45 ??1?$unordered_map@KPAUHWND__@@U?$hash@K@std@@U?$equal_to@K@3@V?$allocator@U?$pair@$$CBKPAUHWND__@@@std@@@3@@std@@QAE@XZ
15EA0 45 ??1?$_Hash@V?$_Umap_traits@KPAUHWND__@@V?$_Uhash_compare@KU?$hash@K@std@@U?$equal_to@K@2@@std@@V?$allocator@U?$pair@$$CBKPAUHWND__@@@std@@@3@$0A@@std@@@std@@QAE@XZ
15F30 45 ?window_style@@YA@PAUHWND__@@@Z
16190 45 ??1?$pair@JV?$basic_string@_WU?$char_traits@_W@std@@V?$allocator@_W@2@@std@@@std@@QAE@XZ
161F0 45 ?window_ex_style@@YA@PAUHWND__@@@Z
16450 45 ?DumpNTCounters@@YAXPAXAAVPerfThread@@KK@Z
167B0 45 ??$format@_J@far@@YA?A_PU?$basic_fstring@_W_J@v11@fmt@@AB_J@Z
16820 45 ??$format@V?$basic_string@_WU?$char_traits@_W@std@@V?$allocator@_W@2@@std@@_J@far@@YA?A_PU?$basic_fstring@_WV?$basic_string@_WU?$char_traits@_W@std@@V?$allocator@_W@2@@std@@_J@v11@fmt@@ABV?$basic_string@_WU?$char_traits@_W@std@@V?$allocator@_W@2@@std@@AB_J@Z
168B0 45 ??$format@_J_JPB_W@far@@YA?A_PU?$basic_fstring@_W_J_JPB_W@v11@fmt@@AB_J1ABQB_W@Z
16950 45 ?GetFiles@Plist@@QAEHPAUPluginPanelItem@@IHPAPB_W_KAAUoptions@@@Z
18030 45 ??$format@V?$basic_string@_WU?$char_traits@_W@std@@V?$allocator@_W@2@@std@@PB_WHPB_W@far@@YA?A_PU?$basic_fstring@_WV?$basic_string@_WU?$char_traits@_W@std@@V?$allocator@_W@2@@std@@PB_WHPB_W@v11@fmt@@ABV?$basic_string@_WU?$char_traits@_W@std@@V?$allocator@_W@2@@std@@ABQB_WABH2@Z
180E0 45 ??$format@V?$basic_string@_WU?$char_traits@_W@std@@V?$allocator@_W@2@@std@@V12@@far@@YA?A_PU?$basic_fstring@_WV?$basic_string@_WU?$char_traits@_W@std@@V?$allocator@_W@2@@std@@V12@@v11@fmt@@ABV?$basic_string@_WU?$char_traits@_W@std@@V?$allocator@_W@2@@std@@1@Z
18170 45 ??$format@V?$basic_string@_WU?$char_traits@_W@std@@V?$allocator@_W@2@@std@@I@far@@YA?A_PU?$basic_fstring@_WV?$basic_string@_WU?$char_traits@_W@std@@V?$allocator@_W@2@@std@@I@v11@fmt@@ABV?$basic_string@_WU?$char_traits@_W@std@@V?$allocator@_W@2@@std@@ABI@Z
18200 45 ??$format@KPB_W@far@@YA?A_PU?$basic_fstring@_WKPB_W@v11@fmt@@ABKABQB_W@Z
18280 45 ??$format@V?$basic_string@_WU?$char_traits@_W@std@@V?$allocator@_W@2@@std@@$$BY0DC@_W$$BY0DC@_W@far@@YA?A_PU?$basic_fstring@_WV?$basic_string@_WU?$char_traits@_W@std@@V?$allocator@_W@2@@std@@$$BY0DC@_W$$BY0DC@_W@v11@fmt@@ABV?$basic_string@_WU?$char_traits@_W@std@@V?$allocator@_W@2@@std@@AAY0DC@$$CB_W2@Z
18320 45 ??$format@V?$basic_string@_WU?$char_traits@_W@std@@V?$allocator@_W@2@@std@@$$BY0BAE@_W@far@@YA?A_PU?$basic_fstring@_WV?$basic_string@_WU?$char_traits@_W@std@@V?$allocator@_W@2@@std@@$$BY0BAE@_W@v11@fmt@@ABV?$basic_string@_WU?$char_traits@_W@std@@V?$allocator@_W@2@@std@@AAY0BAE@$$CB_W@Z
183B0 45 ??$format@PB_WV?$basic_string@_WU?$char_traits@_W@std@@V?$allocator@_W@2@@std@@@far@@YA?A_PU?$basic_fstring@_WPB_WV?$basic_string@_WU?$char_traits@_W@std@@V?$allocator@_W@2@@std@@@v11@fmt@@ABQB_WABV?$basic_string@_WU?$char_traits@_W@std@@V?$allocator@_W@2@@std@@@Z
18440 45 ??$format@V?$basic_string@_WU?$char_traits@_W@std@@V?$allocator@_W@2@@std@@PBX@far@@YA?A_PU?$basic_fstring@_WV?$basic_string@_WU?$char_traits@_W@std@@V?$allocator@_W@2@@std@@PBX@v11@fmt@@ABV?$basic_string@_WU?$char_traits@_W@std@@V?$allocator@_W@2@@std@@ABQBX@Z
184D0 45 ??$format@V?$basic_string@_WU?$char_traits@_W@std@@V?$allocator@_W@2@@std@@KV12@@far@@YA?A_PU?$basic_fstring@_WV?$basic_string@_WU?$char_traits@_W@std@@V?$allocator@_W@2@@std@@KV12@@v11@fmt@@ABV?$basic_string@_WU?$char_traits@_W@std@@V?$allocator@_W@2@@std@@ABK1@Z
18580 45 ??$format@V?$basic_string@_WU?$char_traits@_W@std@@V?$allocator@_W@2@@std@@JV12@@far@@YA?A_PU?$basic_fstring@_WV?$basic_string@_WU?$char_traits@_W@std@@V?$allocator@_W@2@@std@@JV12@@v11@fmt@@ABV?$basic_string@_WU?$char_traits@_W@std@@V?$allocator@_W@2@@std@@ABJ1@Z
18630 45 ??$format@PB_WPB_WHPB_WPB_W@far@@YA?A_PU?$basic_fstring@_WPB_WPB_WHPB_WPB_W@v11@fmt@@ABQB_W1ABH11@Z
186E0 45 ??1ProcessData@@QAE@XZ
18780 45 ?DeleteFiles@Plist@@QAEHPAUPluginPanelItem@@I_K@Z
18C8C 45 $LN351
18CA0 45 ?Reread@Plist@@AAEXXZ
18D30 45 ?Connect@Plist@@QAE_NPB_W00@Z
18FE0 45 ?ProcessKey@Plist@@QAEHPBU_INPUT_RECORD@@@Z
1A758 45 $LN2907
1A768 45 $LN2906
1A780 45 ??$format@PB_WPB_W@far@@YA?A_PU?$basic_fstring@_WPB_WPB_W@v11@fmt@@ABQB_W1@Z
1A800 45 ?DurationToText@@YA?AV?$basic_string@_WU?$char_traits@_W@std@@V?$allocator@_W@2@@std@@_K@Z
1A980 45 ?FileTimeDifferenceToText@@YA?AV?$basic_string@_WU?$char_traits@_W@std@@V?$allocator@_W@2@@std@@ABU_FILETIME@@0@Z
1A9B0 45 ?GetVersionInfo@Plist@@SA_NPB_WAAV?$unique_ptr@$$BY0A@DU?$default_delete@$$BY0A@D@std@@@std@@AAPB_W2@Z
1ACD0 45 ??$format@GG@far@@YA?A_PU?$basic_fstring@_WGG@v11@fmt@@ABG1@Z
1AD50 45 ?ConnectWMI@Plist@@AAE_NXZ
1AE10 45 ?PrintOwnerInfo@Plist@@AAEXPAXK@Z
1B100 45 ?Compare@Plist@@QBEHPBUPluginPanelItem@@0I@Z
1B2D0 45 ??$compare_numbers@_J@@YA?A_P_J0@Z
1B300 45 ?WmiError@Plist@@ABEXXZ
1B330 45 ??1?$vector@IV?$allocator@I@std@@@std@@QAE@XZ
1B390 45 ??1?$vector@UFarMenuItem@@V?$allocator@UFarMenuItem@@@std@@@std@@QAE@XZ
1B3F0 45 ??1?$vector@V?$basic_string@_WU?$char_traits@_W@std@@V?$allocator@_W@2@@std@@V?$allocator@V?$basic_string@_WU?$char_traits@_W@std@@V?$allocator@_W@2@@std@@@2@@std@@QAE@XZ
1B400 45 ??1?$_Hash_vec@V?$allocator@V?$_List_unchecked_iterator@V?$_List_val@U?$_List_simple_types@U?$pair@$$CBKPAUHWND__@@@std@@@std@@@std@@@std@@@std@@@std@@QAE@XZ
1B460 45 ??1?$list@U?$pair@$$CBKPAUHWND__@@@std@@V?$allocator@U?$pair@$$CBKPAUHWND__@@@std@@@2@@std@@QAE@XZ
1B4A0 45 ??1?$scoped_lock@Vrefresh_lock@Plist@@@std@@QAE@XZ
1B4B0 45 ??1?$unique_ptr@VWMIConnection@@U?$default_delete@VWMIConnection@@@std@@@std@@QAE@XZ
1B550 45 ??1?$unique_ptr@VPerfThread@@U?$default_delete@VPerfThread@@@std@@@std@@QAE@XZ
1B570 45 ?push_back@?$basic_string@_WU?$char_traits@_W@std@@V?$allocator@_W@2@@std@@QAEX_W@Z
1B6A0 45 ?clear@?$basic_string@_WU?$char_traits@_W@std@@V?$allocator@_W@2@@std@@QAEXXZ
1B6C0 45 ??R<lambda_1>@?1??insert@?$basic_string@_WU?$char_traits@_W@std@@V?$allocator@_W@2@@std@@QAEAAV23@II_W@Z@QBE@QA_WQB_WIII0@Z
1B730 45 ?append@?$basic_string@_WU?$char_traits@_W@std@@V?$allocator@_W@2@@std@@QAEAAV12@I_W@Z
1B7A0 45 ??Y?$basic_string@_WU?$char_traits@_W@std@@V?$allocator@_W@2@@std@@QAEAAV01@QB_W@Z
1B820 45 ??4?$basic_string@_WU?$char_traits@_W@std@@V?$allocator@_W@2@@std@@QAEAAV01@QB_W@Z
1B850 262 ?_Xlength@?$vector@EV?$allocator@E@std@@@std@@CAXXZ
1B860 45 ?_Tidy@?$vector@V?$basic_string@_WU?$char_traits@_W@std@@V?$allocator@_W@2@@std@@V?$allocator@V?$basic_string@_WU?$char_traits@_W@std@@V?$allocator@_W@2@@std@@@2@@std@@AAEXXZ
1B8D0 45 ?reset@?$unique_ptr@VWMIConnection@@U?$default_delete@VWMIConnection@@@std@@@std@@QAEXPAVWMIConnection@@@Z
1B980 45 ?insert@?$basic_string@_WU?$char_traits@_W@std@@V?$allocator@_W@2@@std@@QAEAAV12@IQB_WI@Z
1BB40 45 ?_Assign_grow@?$_Hash_vec@V?$allocator@V?$_List_unchecked_iterator@V?$_List_val@U?$_List_simple_types@U?$pair@$$CBKPAUHWND__@@@std@@@std@@@std@@@std@@@std@@@std@@QAEXIV?$_List_unchecked_iterator@V?$_List_val@U?$_List_simple_types@U?$pair@$$CBKPAUHWND__@@@std@@@std@@@std@@@2@@Z
1BC30 45 ?assign@?$basic_string@_WU?$char_traits@_W@std@@V?$allocator@_W@2@@std@@QAEAAV12@QB_WI@Z
1BD30 45 ?_Xran@?$_String_val@U?$_Simple_types@_W@std@@@std@@SAXXZ
1BD40 45 ??$to_wstring@H@v11@fmt@@YA?AV?$basic_string@_WU?$char_traits@_W@std@@V?$allocator@_W@2@@std@@ABH@Z
1BDB0 45 ??$make_unique@VPerfThread@@PAVPlist@@$0A@@std@@YA?AV?$unique_ptr@VPerfThread@@U?$default_delete@VPerfThread@@@std@@@0@$$QAPAVPlist@@@Z
1BE20 45 ??$?8_WU?$char_traits@_W@std@@V?$allocator@_W@1@@std@@YA_NABV?$basic_string@_WU?$char_traits@_W@std@@V?$allocator@_W@2@@0@QB_W@Z
1BE80 45 ??$?H_WU?$char_traits@_W@std@@V?$allocator@_W@1@@std@@YA?AV?$basic_string@_WU?$char_traits@_W@std@@V?$allocator@_W@2@@0@ABV10@$$QAV10@@Z
1BF00 45 ??$_Reallocate@$0A@@?$vector@IV?$allocator@I@std@@@std@@AAEXAAI@Z
1BFD0 45 ??$_Reallocate@$0A@@?$vector@UFarMenuItem@@V?$allocator@UFarMenuItem@@@std@@@std@@AAEXAAI@Z
1C0B0 45 ??$_Reallocate@$0A@@?$vector@V?$basic_string@_WU?$char_traits@_W@std@@V?$allocator@_W@2@@std@@V?$allocator@V?$basic_string@_WU?$char_traits@_W@std@@V?$allocator@_W@2@@std@@@2@@std@@AAEXAAI@Z
1C150 45 ??$_Try_emplace@ABK$$V@?$_Hash@V?$_Umap_traits@KPAUHWND__@@V?$_Uhash_compare@KU?$hash@K@std@@U?$equal_to@K@2@@std@@V?$allocator@U?$pair@$$CBKPAUHWND__@@@std@@@3@$0A@@std@@@std@@IAE?AU?$pair@PAU?$_List_node@U?$pair@$$CBKPAUHWND__@@@std@@PAX@std@@_N@1@ABK@Z
1C320 45 ??$_Assign_counted_range@PBUmode@@@?$vector@Umode@@V?$allocator@Umode@@@std@@@std@@AAEXPBUmode@@I@Z
1C510 45 ??$_Reallocate_grow_by@V<lambda_1>@?1??append@?$basic_string@_WU?$char_traits@_W@std@@V?$allocator@_W@2@@std@@QAEAAV34@I_W@Z@I_W@?$basic_string@_WU?$char_traits@_W@std@@V?$allocator@_W@2@@std@@AAEAAV01@IV<lambda_1>@?1??append@01@QAEAAV01@I_W@Z@I_W@Z
1C670 45 ??$_Destroy_range@V?$allocator@V?$basic_string@_WU?$char_traits@_W@std@@V?$allocator@_W@2@@std@@@std@@@std@@YAXPAV?$basic_string@_WU?$char_traits@_W@std@@V?$allocator@_W@2@@0@QAV10@AAV?$allocator@V?$basic_string@_WU?$char_traits@_W@std@@V?$allocator@_W@2@@std@@@0@@Z
1C6E0 45 ??4mode@@QAEAAU0@ABU0@@Z
1C7C0 45 ??1?$_Alloc_construct_ptr@V?$allocator@U?$_List_node@U?$pair@$$CBKPAUHWND__@@@std@@PAX@std@@@std@@@std@@QAE@XZ
1C7E0 45 ?_Change_array@?$vector@IV?$allocator@I@std@@@std@@AAEXQAIII@Z
1C840 45 ?_Change_array@?$vector@UFarMenuItem@@V?$allocator@UFarMenuItem@@@std@@@std@@AAEXQAUFarMenuItem@@II@Z
1C8A0 45 ?_Change_array@?$vector@V?$basic_string@_WU?$char_traits@_W@std@@V?$allocator@_W@2@@std@@V?$allocator@V?$basic_string@_WU?$char_traits@_W@std@@V?$allocator@_W@2@@std@@@2@@std@@AAEXQAV?$basic_string@_WU?$char_traits@_W@std@@V?$allocator@_W@2@@2@II@Z
1C920 45 ?_Forced_rehash@?$_Hash@V?$_Umap_traits@KPAUHWND__@@V?$_Uhash_compare@KU?$hash@K@std@@U?$equal_to@K@2@@std@@V?$allocator@U?$pair@$$CBKPAUHWND__@@@std@@@3@$0A@@std@@@std@@IAEXI@Z
1CA90 45 ??$_Emplace_reallocate@V?$basic_string@_WU?$char_traits@_W@std@@V?$allocator@_W@2@@std@@@?$vector@V?$basic_string@_WU?$char_traits@_W@std@@V?$allocator@_W@2@@std@@V?$allocator@V?$basic_string@_WU?$char_traits@_W@std@@V?$allocator@_W@2@@std@@@2@@std@@AAEPAV?$basic_string@_WU?$char_traits@_W@std@@V?$allocator@_W@2@@1@QAV21@$$QAV21@@Z
1CC00 45 ??$_Emplace_reallocate@ABI@?$vector@IV?$allocator@I@std@@@std@@AAEPAIQAIABI@Z
1CD20 45 ??$_Emplace_reallocate@UFarMenuItem@@@?$vector@UFarMenuItem@@V?$allocator@UFarMenuItem@@@std@@@std@@AAEPAUFarMenuItem@@QAU2@$$QAU2@@Z
1CE50 46 ??$_Resize_reallocate@U_Value_init_tag@std@@@?$vector@PAUHINSTANCE__@@V?$allocator@PAUHINSTANCE__@@@std@@@std@@AAEXIABU_Value_init_tag@1@@Z
1CF70 45 ??$_Uninitialized_move@PAV?$basic_string@_WU?$char_traits@_W@std@@V?$allocator@_W@2@@std@@V?$allocator@V?$basic_string@_WU?$char_traits@_W@std@@V?$allocator@_W@2@@std@@@2@@std@@YAPAV?$basic_string@_WU?$char_traits@_W@std@@V?$allocator@_W@2@@0@QAV10@0PAV10@AAV?$allocator@V?$basic_string@_WU?$char_traits@_W@std@@V?$allocator@_W@2@@std@@@0@@Z
1CFF0 45 ??$_Find_last@K@?$_Hash@V?$_Umap_traits@KPAUHWND__@@V?$_Uhash_compare@KU?$hash@K@std@@U?$equal_to@K@2@@std@@V?$allocator@U?$pair@$$CBKPAUHWND__@@@std@@@3@$0A@@std@@@std@@IBE?AU?$_Hash_find_last_result@PAU?$_List_node@U?$pair@$$CBKPAUHWND__@@@std@@PAX@std@@@1@ABKI@Z
1D060 45 ??$_Uninitialized_copy_n@PBUmode@@V?$allocator@Umode@@@std@@@std@@YAPAUmode@@PBU1@IPAU1@AAV?$allocator@Umode@@@0@@Z
1D160 45 ??$_Copy_n_unchecked4@PBUmode@@IPAU1@@std@@YAPAUmode@@PBU1@IPAU1@@Z
1D270 45 ??1?$_Uninitialized_backout_al@V?$allocator@Umode@@@std@@@std@@QAE@XZ
1D2A0 262 ??0PerfThread@@QAE@PAVPlist@@PB_W11@Z
1DB10 262 ??1?$unordered_multimap@KUProcessPerfData@@U?$hash@K@std@@U?$equal_to@K@3@V?$allocator@U?$pair@$$CBKUProcessPerfData@@@std@@@3@@std@@QAE@XZ
1DB20 262 ??1?$_Hash@V?$_Umap_traits@KUProcessPerfData@@V?$_Uhash_compare@KU?$hash@K@std@@U?$equal_to@K@2@@std@@V?$allocator@U?$pair@$$CBKUProcessPerfData@@@std@@@3@$00@std@@@std@@QAE@XZ
1DB80 262 ??1PerfThread@@QAE@XZ
1DDF0 262 ?GetProcessData@PerfThread@@QAEPAUProcessPerfData@@KK@Z
1DED0 262 ?RefreshImpl@PerfThread@@AAE_NXZ
1E6A0 262 ??R<lambda_1>@?1??RefreshImpl@PerfThread@@AAE_NXZ@QBE@PBU_PERF_COUNTER_BLOCK@@V?$basic_string_view@_WU?$char_traits@_W@std@@@std@@@Z
1EEE0 262 ??1ProcessPerfData@@QAE@XZ
1F060 262 ??4ProcessPerfData@@QAEAAU0@ABU0@@Z
1F1E0 262 ?RefreshWMIData@PerfThread@@AAEXXZ
1F880 262 ?WmiThreadProc@PerfThread@@AAEXXZ
1F970 262 ?ThreadProc@PerfThread@@CGKPAX@Z
1F9F0 262 ?WmiThreadProc@PerfThread@@CGKPAX@Z
1FA10 262 ??1?$vector@UProcessPerfData@@V?$allocator@UProcessPerfData@@@std@@@std@@QAE@XZ
1FA90 262 ??1?$vector@EV?$allocator@E@std@@@std@@QAE@XZ
1FAE0 262 ??1?$vector@_WV?$allocator@_W@std@@@std@@QAE@XZ
1FB40 262 ??0?$unordered_multimap@KUProcessPerfData@@U?$hash@K@std@@U?$equal_to@K@3@V?$allocator@U?$pair@$$CBKUProcessPerfData@@@std@@@3@@std@@QAE@XZ
1FBE0 262 ??1?$list@U?$pair@$$CBKUProcessPerfData@@@std@@V?$allocator@U?$pair@$$CBKUProcessPerfData@@@std@@@2@@std@@QAE@XZ
1FC30 262 ?_Assign_grow@?$_Hash_vec@V?$allocator@V?$_List_unchecked_iterator@V?$_List_val@U?$_List_simple_types@U?$pair@$$CBKUProcessPerfData@@@std@@@std@@@std@@@std@@@std@@@std@@QAEXIV?$_List_unchecked_iterator@V?$_List_val@U?$_List_simple_types@U?$pair@$$CBKUProcessPerfData@@@std@@@std@@@std@@@2@@Z
1FD20 262 ?_Forced_rehash@?$_Hash@V?$_Umap_traits@KUProcessPerfData@@V?$_Uhash_compare@KU?$hash@K@std@@U?$equal_to@K@2@@std@@V?$allocator@U?$pair@$$CBKUProcessPerfData@@@std@@@3@$00@std@@@std@@IAEXI@Z
1FE90 262 ?clear@?$_Hash@V?$_Umap_traits@KUProcessPerfData@@V?$_Uhash_compare@KU?$hash@K@std@@U?$equal_to@K@2@@std@@V?$allocator@U?$pair@$$CBKUProcessPerfData@@@std@@@3@$00@std@@@std@@QAEXXZ
1FF20 262 ?_Unchecked_erase@?$_Hash@V?$_Umap_traits@KUProcessPerfData@@V?$_Uhash_compare@KU?$hash@K@std@@U?$equal_to@K@2@@std@@V?$allocator@U?$pair@$$CBKUProcessPerfData@@@std@@@3@$00@std@@@std@@AAEPAU?$_List_node@U?$pair@$$CBKUProcessPerfData@@@std@@PAX@2@PAU32@QAU32@@Z
200C0 262 ??$transform@V?$_List_const_iterator@V?$_List_val@U?$_List_simple_types@U?$pair@$$CBKUProcessPerfData@@@std@@@std@@@std@@@std@@V?$back_insert_iterator@V?$vector@UProcessPerfData@@V?$allocator@UProcessPerfData@@@std@@@std@@@2@V<lambda_1>@?2??RefreshWMIData@PerfThread@@AAEXXZ@@std@@YA?AV?$back_insert_iterator@V?$vector@UProcessPerfData@@V?$allocator@UProcessPerfData@@@std@@@std@@@0@V?$_List_const_iterator@V?$_List_val@U?$_List_simple_types@U?$pair@$$CBKUProcessPerfData@@@std@@@std@@@std@@@0@0V10@V<lambda_1>@?2??RefreshWMIData@PerfThread@@AAEXXZ@@Z
202B0 262 ??0ProcessPerfData@@QAE@ABU0@@Z
20400 262 ??$_Reallocate@$0A@@?$vector@UProcessPerfData@@V?$allocator@UProcessPerfData@@@std@@@std@@AAEXAAI@Z
204D0 262 ??$uninitialized_fill@PAV?$_List_unchecked_iterator@V?$_List_val@U?$_List_simple_types@U?$pair@$$CBKUProcessPerfData@@@std@@@std@@@std@@@std@@V12@@std@@YAXQAV?$_List_unchecked_iterator@V?$_List_val@U?$_List_simple_types@U?$pair@$$CBKUProcessPerfData@@@std@@@std@@@std@@@0@0ABV10@@Z
204F0 262 ??1?$_List_node_emplace_op2@V?$allocator@U?$_List_node@U?$pair@$$CBKUProcessPerfData@@@std@@PAX@std@@@std@@@std@@QAE@XZ
20520 262 ?_Change_array@?$vector@UProcessPerfData@@V?$allocator@UProcessPerfData@@@std@@@std@@AAEXQAUProcessPerfData@@II@Z
205B0 262 ?_Rehash_for_1@?$_Hash@V?$_Umap_traits@KUProcessPerfData@@V?$_Uhash_compare@KU?$hash@K@std@@U?$equal_to@K@2@@std@@V?$allocator@U?$pair@$$CBKUProcessPerfData@@@std@@@3@$00@std@@@std@@IAEXXZ
20620 262 ??1?$_Alloc_construct_ptr@V?$allocator@U?$_List_node@U?$pair@$$CBKUProcessPerfData@@@std@@PAX@std@@@std@@@std@@QAE@XZ
20640 262 ??$_Resize_reallocate@U_Value_init_tag@std@@@?$vector@EV?$allocator@E@std@@@std@@AAEXIABU_Value_init_tag@1@@Z
20760 262 ??$_Emplace_reallocate@UProcessPerfData@@@?$vector@UProcessPerfData@@V?$allocator@UProcessPerfData@@@std@@@std@@AAEPAUProcessPerfData@@QAU2@$$QAU2@@Z
20910 262 ??0ProcessPerfData@@QAE@$$QAU0@@Z
20BF0 46 ??$format@II@far@@YA?A_PU?$basic_fstring@_WII@v11@fmt@@ABI1@Z
20C70 46 ?is_wow64_itself@@YA_NXZ
20D10 46 ?OpenProcessForced@@YAPAXPAVDebugToken@@KKH@Z
20D60 46 ?GetPData@@YA_NAAUProcessData@@ABUProcessPerfData@@@Z
20F30 46 ?FreeUserData@@YGXQAXQBUFarPanelItemFreeInfo@@@Z
20F60 46 ?GetList@@YA_NAAPAUPluginPanelItem@@AAIAAVPerfThread@@@Z
21380 46 ?Enable@DebugToken@@QAE_NXZ
21410 46 ?Revert@DebugToken@@QAE_NXZ
21450 46 ?KillProcess@@YA_NKPAUHWND__@@@Z
21610 46 ?PrintNTCurDirAndEnv@@YAXPAX0H@Z
218F0 46 ?PrintModuleVersion@@YAXPAXPB_W1I@Z
219E0 46 ?print_module_impl@@YAXQAXABV?$basic_string@_WU?$char_traits@_W@std@@V?$allocator@_W@2@@std@@KABUoptions@@ABV?$function@$$A6A_NPA_WI@Z@2@@Z
21BF0 46 ??$format@$$BY0BAE@_W@far@@YA?A_PU?$basic_fstring@_W$$BY0BAE@_W@v11@fmt@@AAY0BAE@$$CB_W@Z
21C60 46 ?PrintModules@@YAXPAXKAAUoptions@@@Z
220A0 46 ??R<lambda_2>@?1??PrintModules@@YAXPAXKAAUoptions@@@Z@QBE@XZ
22100 269 ??1?$function@$$A6AXABUtagVARIANT@@@Z@std@@QAE@XZ
22130 46 ?PrintModules@?$ipc_functions@$0A@@@SAXPAX0AAUoptions@@@Z
22250 46 ?GetOpenProcessData@?$ipc_functions@$0A@@@SAXPAXPAV?$basic_string@_WU?$char_traits@_W@std@@V?$allocator@_W@2@@std@@1111@Z
225A0 46 ?PrintModules@?$ipc_functions@$00@@SAXPAX0AAUoptions@@@Z
22720 46 ?GetOpenProcessData@?$ipc_functions@$00@@SAXPAXPAV?$basic_string@_WU?$char_traits@_W@std@@V?$allocator@_W@2@@std@@1111@Z
22980 46 ?GetInternalProcessData@?$ipc_functions@$0A@@@SA_NPAXPAULDR_MODULE_SAME@detail@@AAPBD2_N@Z
22A80 46 ?read_string@?$ipc_functions@$0A@@@SA?AV?$basic_string@_WU?$char_traits@_W@std@@V?$allocator@_W@2@@std@@PAXABUUNICODE_STRING_SAME@detail@@@Z
22B40 46 ?GetInternalProcessData@?$ipc_functions@$00@@SA_NPAXPAULDR_MODULE_64@detail@@AA_K2_N@Z
22CB0 46 ?read_string@?$ipc_functions@$00@@SA?AV?$basic_string@_WU?$char_traits@_W@std@@V?$allocator@_W@2@@std@@PAX_K@Z
22D40 46 ?read_string@?$ipc_functions@$00@@SA?AV?$basic_string@_WU?$char_traits@_W@std@@V?$allocator@_W@2@@std@@PAXABUUNICODE_STRING_64@detail@@@Z
22E20 46 ?read_process_memory@?$ipc_functions@$00@@SA_NPAX_KQAXIQAI@Z
22E50 46 ??$print_module@PAX@@YAXQAXPAXKAAUoptions@@ABV?$function@$$A6A_NPA_WI@Z@std@@@Z
23000 46 ??$print_module@_K@@YAXQAX_KKAAUoptions@@ABV?$function@$$A6A_NPA_WI@Z@std@@@Z
231B0 46 ??$format@_K@far@@YA?A_PU?$basic_fstring@_W_K@v11@fmt@@AB_K@Z
23220 46 ??$_Insert_range_unchecked@V?$_List_unchecked_const_iterator@V?$_List_val@U?$_List_simple_types@U?$pair@$$CBKUProcessPerfData@@@std@@@std@@@std@@U_Iterator_base0@2@@std@@V12@@?$_Hash@V?$_Umap_traits@KUProcessPerfData@@V?$_Uhash_compare@KU?$hash@K@std@@U?$equal_to@K@2@@std@@V?$allocator@U?$pair@$$CBKUProcessPerfData@@@std@@@3@$00@std@@@std@@IAEXV?$_List_unchecked_const_iterator@V?$_List_val@U?$_List_simple_types@U?$pair@$$CBKUProcessPerfData@@@std@@@std@@@std@@U_Iterator_base0@2@@1@V21@@Z
233C0 46 ?_Delete_this@?$_Func_impl_no_alloc@V<lambda_1>@?6??PrintModules@?$ipc_functions@$00@@SAXPAX0AAUoptions@@@Z@_NPA_WI@std@@EAEX_N@Z
233E0 46 ?_Get@?$_Func_impl_no_alloc@V<lambda_1>@?6??PrintModules@?$ipc_functions@$00@@SAXPAX0AAUoptions@@@Z@_NPA_WI@std@@EBEPBXXZ
233F0 46 ?_Target_type@?$_Func_impl_no_alloc@V<lambda_1>@?6??PrintModules@?$ipc_functions@$00@@SAXPAX0AAUoptions@@@Z@_NPA_WI@std@@EBEABVtype_info@@XZ
23400 46 ?_Do_call@?$_Func_impl_no_alloc@V<lambda_1>@?6??PrintModules@?$ipc_functions@$00@@SAXPAX0AAUoptions@@@Z@_NPA_WI@std@@EAE_N$$QAPA_W$$QAI@Z
23440 46 ?_Copy@?$_Func_impl_no_alloc@V<lambda_1>@?6??PrintModules@?$ipc_functions@$00@@SAXPAX0AAUoptions@@@Z@_NPA_WI@std@@EBEPAV?$_Func_base@_NPA_WI@2@PAX@Z
23460 46 ?_Target_type@?$_Func_impl_no_alloc@V<lambda_1>@?6??PrintModules@?$ipc_functions@$0A@@@SAXPAX0AAUoptions@@@Z@_NPA_WI@std@@EBEABVtype_info@@XZ
23470 46 ?_Do_call@?$_Func_impl_no_alloc@V<lambda_1>@?6??PrintModules@?$ipc_functions@$0A@@@SAXPAX0AAUoptions@@@Z@_NPA_WI@std@@EAE_N$$QAPA_W$$QAI@Z
234B0 46 ?_Copy@?$_Func_impl_no_alloc@V<lambda_1>@?6??PrintModules@?$ipc_functions@$0A@@@SAXPAX0AAUoptions@@@Z@_NPA_WI@std@@EBEPAV?$_Func_base@_NPA_WI@2@PAX@Z
234D0 46 ?_Target_type@?$_Func_impl_no_alloc@V<lambda_3>@?N@??PrintModules@@YAXPAXKAAUoptions@@@Z@_NPA_WI@std@@EBEABVtype_info@@XZ
234E0 46 ?_Do_call@?$_Func_impl_no_alloc@V<lambda_3>@?N@??PrintModules@@YAXPAXKAAUoptions@@@Z@_NPA_WI@std@@EAE_N$$QAPA_W$$QAI@Z
23510 46 ?_Copy@?$_Func_impl_no_alloc@V<lambda_3>@?N@??PrintModules@@YAXPAXKAAUoptions@@@Z@_NPA_WI@std@@EBEPAV?$_Func_base@_NPA_WI@2@PAX@Z
23530 47 ?ConvertDate@@YAXABU_FILETIME@@PA_W1@Z
235E0 47 ?WinError@@YAHPB_W@Z
238F0 47 ??$_Traits_find_last_not_of@U?$char_traits@_W@std@@$00@std@@YAIQB_WII0I@Z
23A60 269 ??1bstr@@QAE@XZ
23A70 269 ?ProcessPath@@YA@K@Z
23B30 269 ??0WMIConnection@@QAE@XZ
23BD0 269 ??1WMIConnection@@QAE@XZ
23C60 269 ?GetProcessOwner@WMIConnection@@QAE?AV?$basic_string@_WU?$char_traits@_W@std@@V?$allocator@_W@2@@std@@KPAV23@@Z
23EC0 269 ?GetProcessUserSid@WMIConnection@@QAE?AV?$basic_string@_WU?$char_traits@_W@std@@V?$allocator@_W@2@@std@@K@Z
240D0 269 ?GetProcessSessionId@WMIConnection@@QAEKK@Z
24160 269 ?ExecMethod@WMIConnection@@AAEHKPB_W0K@Z
24420 269 ?GetProcessProperty@WMIConnection@@AAE_NKPB_WABV?$function@$$A6AXABUtagVARIANT@@@Z@std@@@Z
24540 269 ?GetProcessInt@WMIConnection@@AAEKKPB_W@Z
245D0 269 ?GetProcessString@WMIConnection@@AAE?AV?$basic_string@_WU?$char_traits@_W@std@@V?$allocator@_W@2@@std@@KPB_W@Z
24690 269 ?Connect@WMIConnection@@QAE_NPB_W00@Z
24870 269 ??1?$unique_ptr@UIWbemClassObject@@Ucom_closer@@@std@@QAE@XZ
248C0 269 ??1?$ptr_setter@V?$unique_ptr@UIWbemClassObject@@Ucom_closer@@@std@@@@QAE@XZ
24910 269 ?_Delete_this@?$_Func_impl_no_alloc@V<lambda_1>@?1??GetProcessInt@WMIConnection@@AAEKKPB_W@Z@XABUtagVARIANT@@@std@@EAEX_N@Z
24930 269 ?_Target_type@?$_Func_impl_no_alloc@V<lambda_1>@?1??GetProcessString@WMIConnection@@AAE?AV?$basic_string@_WU?$char_traits@_W@std@@V?$allocator@_W@2@@std@@KPB_W@Z@XABUtagVARIANT@@@std@@EBEABVtype_info@@XZ
24940 269 ?_Do_call@?$_Func_impl_no_alloc@V<lambda_1>@?1??GetProcessString@WMIConnection@@AAE?AV?$basic_string@_WU?$char_traits@_W@std@@V?$allocator@_W@2@@std@@KPB_W@Z@XABUtagVARIANT@@@std@@EAEXABUtagVARIANT@@@Z
24980 269 ?_Copy@?$_Func_impl_no_alloc@V<lambda_1>@?1??GetProcessString@WMIConnection@@AAE?AV?$basic_string@_WU?$char_traits@_W@std@@V?$allocator@_W@2@@std@@KPB_W@Z@XABUtagVARIANT@@@std@@EBEPAV?$_Func_base@XABUtagVARIANT@@@2@PAX@Z
249A0 269 ?_Target_type@?$_Func_impl_no_alloc@V<lambda_1>@?1??GetProcessInt@WMIConnection@@AAEKKPB_W@Z@XABUtagVARIANT@@@std@@EBEABVtype_info@@XZ
249B0 269 ?_Do_call@?$_Func_impl_no_alloc@V<lambda_1>@?1??GetProcessInt@WMIConnection@@AAEKKPB_W@Z@XABUtagVARIANT@@@std@@EAEXABUtagVARIANT@@@Z
249D0 269 ?_Copy@?$_Func_impl_no_alloc@V<lambda_1>@?1??GetProcessInt@WMIConnection@@AAEKKPB_W@Z@XABUtagVARIANT@@@std@@EBEPAV?$_Func_base@XABUtagVARIANT@@@2@PAX@Z
249F0 50 ?fNtQueryInformationFile@@YGJPAX00KK@Z
24A00 50 ?fNtQuerySystemInformation@@YGJKPAXKPAK@Z
24A10 50 ?fNtWow64ReadVirtualMemory64@@YGJPAX_K01PA_K@Z
24A20 50 ?fGetGuiResources@@YGKPAXK@Z
24A30 50 ?fCoSetProxyBlanket@@YGJPAUIUnknown@@KKPA_WKKPAXK@Z
24A40 50 ?fEnumProcessModulesEx@@YGHPAXPAPAUHINSTANCE__@@KPAKK@Z
24A50 50 ?dynamic_bind@@YAXXZ
24BA0 50 ?Message@@YAHIPB_WPAPB_WII@Z
24BD0 50 _GetGlobalInfoW@4
24C60 50 _SetStartupInfoW@4
24D90 50 _OpenW@4
24EC0 50 _ClosePanelW@4
24EE0 50 _GetFindDataW@4
24F10 50 _FreeFindDataW@4
24FF0 50 _GetPluginInfoW@4
250B0 50 _GetOpenPanelInfoW@4
250D0 50 _GetFilesW@4
25100 50 _DeleteFilesW@4
25120 50 _ProcessPanelEventW@4
25220 50 _ProcessPanelInputW@4
25240 50 _ConfigureW@4
25250 50 _CompareW@4
25270 50 _ProcessSynchroEventW@4
25290 50 ??1?$unique_ptr@VPlist@@U?$default_delete@VPlist@@@std@@@std@@QAE@XZ
25350 266 _Wrapper_EncodePointer@4
253A0 266 ?impl@implementation@?1??Wrapper_DecodePointer@@YGPAXPAX@Z@SGPAX0@Z
25410 266 _Wrapper_DecodePointer@4
25460 266 _Wrapper_GetModuleHandleExW@12
254B0 266 ?impl@implementation@?1??Wrapper_GetModuleHandleExW@@YGHKPB_WPAPAUHINSTANCE__@@@Z@SGHK01@Z
25580 266 _Wrapper_InitializeSListHead@4
255D0 266 ?impl@implementation@?1??Wrapper_InitializeSListHead@@YGXPAT_SLIST_HEADER@@@Z@SGX0@Z
255F0 266 _Wrapper_InterlockedFlushSList@4
25640 266 ?impl@implementation@?1??Wrapper_InterlockedFlushSList@@YGPAU_SINGLE_LIST_ENTRY@@PAT_SLIST_HEADER@@@Z@SGPAU3@0@Z
256B0 266 _Wrapper_InterlockedPushEntrySList@8
25700 266 ?impl@implementation@?1??Wrapper_InterlockedPushEntrySList@@YGPAU_SINGLE_LIST_ENTRY@@PAT_SLIST_HEADER@@PAU3@@Z@SGPAU3@01@Z
25760 266 _Wrapper_GetNumaHighestNodeNumber@4
257B0 266 ?impl@implementation@?1??Wrapper_GetNumaHighestNodeNumber@@YGHPAK@Z@SGH0@Z
257D0 266 _Wrapper_GetLogicalProcessorInformation@8
25820 266 ?impl@implementation@?1??Wrapper_GetLogicalProcessorInformation@@YGHPAU_SYSTEM_LOGICAL_PROCESSOR_INFORMATION@@PAK@Z@SGH01@Z
25830 266 _Wrapper_SetThreadStackGuarantee@4
25880 266 ?impl@implementation@?1??Wrapper_SetThreadStackGuarantee@@YGHPAK@Z@SGH0@Z
25890 266 _Wrapper_InitializeCriticalSectionEx@12
258E0 266 ?impl@implementation@?1??Wrapper_InitializeCriticalSectionEx@@YGHPAU_RTL_CRITICAL_SECTION@@KK@Z@SGH0KK@Z
25910 266 _Wrapper_CompareStringEx@36
25960 266 ?impl@implementation@?1??Wrapper_CompareStringEx@@YGHPB_WK0H0HPAU_nlsversioninfo@@PAXJ@Z@SGH0K0H0H12J@Z
259C0 266 _Wrapper_LCMapStringEx@36
25A10 266 ?impl@implementation@?1??Wrapper_LCMapStringEx@@YGHPB_WK0HPA_WHPAU_nlsversioninfo@@PAXJ@Z@SGH0K0H1H23J@Z
25A70 266 _Wrapper_SleepConditionVariableSRW@16
25AC0 266 ?impl@implementation@?1??Wrapper_SleepConditionVariableSRW@@YGHPAU_RTL_CONDITION_VARIABLE@@PAU_RTL_SRWLOCK@@KK@Z@SGH01KK@Z
25AD0 266 _Wrapper_WakeAllConditionVariable@4
25B20 266 ?impl@implementation@?1??Wrapper_AcquireSRWLockExclusive@@YGXPAU_RTL_SRWLOCK@@@Z@SGX0@Z
25B30 266 _Wrapper_AcquireSRWLockExclusive@4
25B80 266 _Wrapper_ReleaseSRWLockExclusive@4
25BD0 266 _Wrapper_TryAcquireSRWLockExclusive@4
25C20 266 ?impl@implementation@?1??Wrapper_TryAcquireSRWLockExclusive@@YGEPAU_RTL_SRWLOCK@@@Z@SGE0@Z
25C30 266 _Wrapper_InitializeSRWLock@4
25C80 266 ?impl@implementation@?1??Wrapper_InitializeSRWLock@@YGXPAU_RTL_SRWLOCK@@@Z@SGX0@Z
25C90 266 _Wrapper_FlsAlloc@4
25CE0 266 ?impl@implementation@?1??Wrapper_FlsAlloc@@YGKP6GXPAX@Z@Z@SGK1@Z
25CF0 266 _Wrapper_FlsGetValue@4
25D40 266 ?impl@implementation@?1??Wrapper_FlsGetValue@@YGPAXK@Z@SGPAXK@Z
25D50 266 _Wrapper_FlsSetValue@8
25DA0 266 ?impl@implementation@?1??Wrapper_FlsSetValue@@YGHKPAX@Z@SGHK0@Z
25DB0 266 _Wrapper_FlsFree@4
25E00 266 ?impl@implementation@?1??Wrapper_FlsFree@@YGHK@Z@SGHK@Z
25E10 66 __Mbrtowc
25F42 66 __Utf8_trailing_byte_count
25F99 65 ??0_Init_locks@std@@QAE@XZ
25FC6 65 ??0_Lockit@std@@QAE@H@Z
25FF9 65 ??1_Init_locks@std@@QAE@XZ
26020 65 ??1_Lockit@std@@QAE@XZ
2603F 70 ??0bad_function_call@std@@QAE@ABV01@@Z
2605A 70 ??0bad_function_call@std@@QAE@XZ
2606B 70 ??0length_error@std@@QAE@ABV01@@Z
26086 70 ??0length_error@std@@QAE@PBD@Z
260A5 70 ??0logic_error@std@@QAE@ABV01@@Z
260C0 70 ??0out_of_range@std@@QAE@ABV01@@Z
260DB 70 ??0out_of_range@std@@QAE@PBD@Z
260FA 240 ??_Ebad_exception@std@@UAEPAXI@Z
26127 70 ?_Xbad_alloc@std@@YAXXZ
26144 70 ?_Xbad_function_call@std@@YAXXZ
26161 70 ?_Xlength_error@std@@YAXPBD@Z
26181 70 ?_Xout_of_range@std@@YAXPBD@Z
261A1 70 ?_Xruntime_error@std@@YAXPBD@Z
261C1 70 ?what@bad_function_call@std@@UBEPBDXZ
261C7 60 ??0_Locimp@locale@std@@AAE@_N@Z
26208 60 ??1_Fac_node@std@@QAE@XZ
26239 60 ??1_Fac_tidy_reg_t@std@@QAE@XZ
26260 60 ??1_Locimp@locale@std@@MAE@XZ
2628B 60 ??4?$_Yarn@D@std@@QAEAAV01@PBD@Z
262DF 60 ??_E_Locimp@locale@std@@MAEPAXI@Z
26301 60 ?_Facet_Register@std@@YAXPAV_Facet_base@1@@Z
2632D 60 ?_Getgloballocale@locale@std@@CAPAV_Locimp@12@XZ
26333 60 ?_Init@locale@std@@CAPAV_Locimp@12@_N@Z
263C0 60 ?_Locimp_dtor@_Locimp@locale@std@@CAXPAV123@@Z
26431 60 ?_Locinfo_ctor@_Locinfo@std@@SAXPAV12@PBD@Z
2647C 60 ?_Locinfo_dtor@_Locinfo@std@@SAXPAV12@@Z
26496 60 ?_New_Locimp@_Locimp@locale@std@@CAPAV123@_N@Z
264B9 60 ?_Setgloballocale@locale@std@@CAXPAX@Z
264E1 60 __Deletegloballocale
2651C 60 _tidy_global
26546 71 __Getcvt
265B9 67 __Mtxdst
265C7 67 __Mtxinit
265DC 67 __Mtxlock
265EA 67 __Mtxunlock
265F8 58 ??1_Init_atexit@@QAE@XZ
26660 58 ?_Atexit@@YAXP6AXXZ@Z
2668F 56 __freea_crt
266AD 34 @__security_check_cookie@4
266BB 41 ?find_pe_section@@YAPAU_IMAGE_SECTION_HEADER@@QAEI@Z
266FF 41 ___scrt_acquire_startup_lock
26731 41 ___scrt_dllmain_after_initialize_c
2675C 41 ___scrt_dllmain_before_initialize_c
2676A 41 ___scrt_dllmain_crt_thread_attach
26789 41 ___scrt_dllmain_crt_thread_detach
26796 41 ___scrt_dllmain_exception_filter
267CA 41 ___scrt_dllmain_uninitialize_c
267ED 41 ___scrt_dllmain_uninitialize_critical
267FA 41 ___scrt_initialize_crt
26833 41 ___scrt_initialize_onexit_tables
268BA 41 ___scrt_is_nonwritable_in_current_image
2694E 41 ___scrt_release_startup_lock
2696B 41 ___scrt_uninitialize_crt
26993 41 __onexit
269C0 41 _atexit
269D5 11 ??3@YAXPAX@Z
269DA 12 ??3@YAXPAXI@Z
269E8 32 ??2@YAPAXI@Z
26A18 36 ??_Etype_info@@UAEPAXI@Z
26A3B 10 ??_V@YAXPAX@Z
26A40 31 ??_U@YAPAXI@Z
26A49 21 ___raise_securityfailure
26A71 21 ___report_gsfailure
26B6C 21 ___report_rangecheckfailure
26B79 21 ___report_securityfailure
26C49 17 ??_M@YGXPAXIIP6EX0@Z@Z
26CCE 17 ?__ArrayUnwind@@YGXPAXIIP6EX0@Z@Z
26D5E 13 ?dllmain_crt_dispatch@@YGHQAUHINSTANCE__@@KQAX@Z
26DB1 13 ?dllmain_crt_process_attach@@YAHQAUHINSTANCE__@@QAX@Z
26EB8 13 ?dllmain_crt_process_detach@@YAH_N@Z
26F68 13 ?dllmain_dispatch@@YAHQAUHINSTANCE__@@KQAX@Z
27073 13 ?dllmain_raw@@YGHQAUHINSTANCE__@@KQAX@Z
2709E 13 __DllMainCRTStartup@12
270C1 16 __EH_epilog3
270D5 16 __EH_prolog3
27108 16 __EH_prolog3_catch
2713E 23 @_guard_check_icall_nop@4
27141 8 ___isa_available_init
27470 28 __allmul
27489 28 hard
274B0 4 __alloca_probe_16
274C6 4 __alloca_probe_8
274DC 5 __get_startup_argv_mode
274E0 38 ___scrt_is_ucrt_dll_in_use
274EC 42 ___scrt_fastfail
27601 42 __crt_debugger_hook
27610 35 __SEH_prolog4
27655 22 ___get_entropy
276A2 22 ___security_init_cookie
276ED 14 _DllMain@12
276F3 37 ?__scrt_initialize_type_info@@YAXXZ
276FF 37 ?__scrt_uninitialize_type_info@@YAXXZ
2770B 9 ___local_stdio_scanf_options
27711 9 ___scrt_initialize_default_local_stdio_options
2772E 15 ___scrt_get_dyn_tls_init_callback
27734 25 __RTC_Initialize
27760 25 __RTC_Terminate
27790 7 __alloca_probe
277A4 7 cs10
277B2 7 cs20
277BB 254 ?GetRangeOfTrysToCheck@__FrameHandler3@@SA?AU?$pair@Viterator@TryBlockMap@__FrameHandler3@@V123@@std@@AAVTryBlockMap@1@HPAXPBU_s_FuncInfo@@H@Z
2782A 254 ?_CallCatchBlock2@@YAPAXPAUEHRegistrationNode@@PBU_s_FuncInfo@@PAXHK@Z
27887 254 ?_CallSETranslator@@YAHPAUEHExceptionRecord@@PAUEHRegistrationNode@@PAX2PBU_s_FuncInfo@@H1@Z
27977 254 ?_JumpToContinuation@@YGXPAXPAUEHRegistrationNode@@@Z
279A7 254 ?_UnwindNestedFrames@@YGXPAUEHRegistrationNode@@PAUEHExceptionRecord@@@Z
279FB 254 __CatchGuardHandler
27A2C 254 __CreateFrameInfo
27A50 254 __FindAndUnlinkFrame
27A98 254 __TranslatorGuardHandler
27B37 254 ___CxxFrameHandler3
27B6D 236 ___DestructExceptionObject
27C0E 236 ?_CallMemberFunction0@@YGXQAX0@Z
27C1B 236 ?_FilterSetCurrentException@@YAKPAU_EXCEPTION_POINTERS@@E@Z
27C73 236 __IsExceptionObjectToBeDestroyed
27C99 236 ___AdjustPointer
27CBE 236 ___FrameUnwindFilter
27D14 236 ___current_exception
27D1D 236 ___current_exception_context
27D26 236 ___std_terminate
27D2B 251 ___std_exception_copy
27D8E 251 ___std_exception_destroy
27DAD 249 __get_purecall_handler
27DB4 249 __purecall
27DD0 257 _wcschr
27E71 253 __CxxThrowException@8
27EE0 246 _memcpy
27F00 246 CopyUp
27F24 246 CopyUpLargeMov
27F37 246 CopyUpSSE2Check
27F50 246 AtomChk
27F76 246 PalignHead4
27F89 246 PalignHead8
27FA0 246 PalignLoop
27FB2 246 MovPalign12
27FBC 246 PalignLoop12
2800D 246 MovPalign8
28018 246 PalignLoop8
28066 246 MovPalign4
28070 246 PalignLoop4
280BC 246 PalignTail
280D4 246 PalignTail4
280E7 246 PalignTail8
280FE 246 PalignTailLE3
28107 246 Dword_align
2810F 246 Dword_up_align_loop
28122 246 Dword_align_Ok
2813C 246 ByteCopyUp
28144 246 TrailingUpVec
28154 246 TrailingUp0
2815C 246 TrailingUp1
28168 246 TrailingUp2
2817C 246 TrailingUp3
28194 246 CopyDown
281B9 246 CopyDownNotAligned
281C0 246 CopyDownAlignLoop
281CD 246 CopyDownAligned
281F0 246 TrailingDownVec
28200 246 TrailingDown0
28208 246 TrailingDown1
28218 246 TrailingDown2
2822C 246 TrailingDown3
28245 246 XmmMovLargeAlignTest
2824D 246 XmmMovAlignLoop
2825C 246 XmmMovLargeLoop
282CC 246 XmmMovSmallTest
282D1 246 XmmMovSmallLoop
282F4 246 CopyDownSmall
282FC 246 CopyDownDwordLoop
28311 246 CopyDownByteTest
28315 246 CopyDownByteLoop
28324 246 CopyDownReturn
28330 246 XmmCopy
2833D 246 XmmCopyAligned
28350 246 XmmCopyLargeLoop
283AD 246 XmmCopySmallTest
283C0 246 XmmCopySmallLoop
283DB 246 CopyUpDwordMov
283E0 246 CopyUpDwordTest
283E7 246 CopyUpDwordLoop
283F6 246 CopyUpByteTest
283FD 246 CopyUpByteLoop
28410 246 CopyUpReturn
28420 246 XmmCopyUnaligned
28433 246 XmmAlignByte
2843C 246 XmmAlignDwordTest
28441 246 XmmAlignDwordLoop
2844E 246 XmmAlignAdjustCnt
28460 247 _memset
284A5 247 XMMMov
284E0 247 LargeRangeBytes
2851D 247 XmmMovSmall
28530 247 XmmSmallLoop
28535 247 MidRangeBytes
28551 247 XMMTrailingBytes
28565 247 SmallMov
2856D 247 ByteLoop
2857B 247 DwordTest
2858B 247 QwordTest
285A0 247 QwordLoop
285B3 247 toend
285C0 245 _memcmp
29BC8 245 $LN1250
29C48 241 ___vcrt_initialize
29C67 241 ___vcrt_thread_attach
29C72 241 ___vcrt_thread_detach
29C7A 241 ___vcrt_uninitialize
29C91 241 ___vcrt_uninitialize_critical
29CA0 235 _ValidateLocalCookies
29CE0 235 __except_handler4
29E3E 252 ___std_type_info_compare
29E7A 252 ___std_type_info_destroy_list
29E9D 248 ___vcrt_freefls@4
29EB9 248 ___vcrt_freeptd_for_this_thread
29EE4 248 ___vcrt_getptd
29EF2 248 ___vcrt_getptd_noexit
29F84 248 ___vcrt_initialize_ptd
29FB7 248 ___vcrt_uninitialize_ptd
29FD2 240 ??$BuildCatchObjectHelperInternal@V__FrameHandler3@@@@YAHPAUEHExceptionRecord@@PAXPBU_s_HandlerType@@PBU_s_CatchableType@@@Z
2A110 240 ??$BuildCatchObjectInternal@V__FrameHandler3@@@@YAXPAUEHExceptionRecord@@PAXPBU_s_HandlerType@@PBU_s_CatchableType@@@Z
2A1A9 240 ??$CatchIt@V__FrameHandler3@@@@YAXPAUEHExceptionRecord@@PAUEHRegistrationNode@@PAU_CONTEXT@@PAXPBU_s_FuncInfo@@PBU_s_HandlerType@@PBU_s_CatchableType@@PBU_s_TryBlockMapEntry@@H1EE@Z
2A229 240 ??$FindHandler@V__FrameHandler3@@@@YAXPAUEHExceptionRecord@@PAUEHRegistrationNode@@PAU_CONTEXT@@PAXPBU_s_FuncInfo@@EH1@Z
2A5CE 240 ??$FindHandlerForForeignException@V__FrameHandler3@@@@YAXPAUEHExceptionRecord@@PAUEHRegistrationNode@@PAU_CONTEXT@@PAXPBU_s_FuncInfo@@HH1@Z
2A704 240 ??$TypeMatchHelper@V__FrameHandler3@@@@YAHPBU_s_HandlerType@@PBU_s_CatchableType@@PBU_s_ThrowInfo@@@Z
2A792 240 ??$__InternalCxxFrameHandler@V__FrameHandler3@@@@YA?AW4_EXCEPTION_DISPOSITION@@PAUEHExceptionRecord@@PAUEHRegistrationNode@@PAU_CONTEXT@@PAXPBU_s_FuncInfo@@H1E@Z
2A894 240 ??$__InternalCxxFrameHandlerWrapper@V__FrameHandler3@@@@YA?AW4_EXCEPTION_DISPOSITION@@PAUEHExceptionRecord@@PAUEHRegistrationNode@@PAU_CONTEXT@@PAXPBU_s_FuncInfo@@H1E@Z
2A89D 240 ??0bad_exception@std@@QAE@ABV01@@Z
2A8B8 240 ??0bad_exception@std@@QAE@XZ
2A8D0 240 ??8type_info@@QBE_NABV0@@Z
2A8EF 240 ?CallCatchBlock@@YAPAXPAUEHExceptionRecord@@PAUEHRegistrationNode@@PAU_CONTEXT@@PBU_s_FuncInfo@@PAXHK@Z
2AABE 240 ?CallUnexpected@@YAXPBU_s_ESTypeList@@@Z
2AADE 240 __catch$?CallUnexpected@@YAXPBU_s_ESTypeList@@@Z$0
2AAFD 240 ?ExFilterRethrow@@YAHPAU_EXCEPTION_POINTERS@@@Z
2AB47 240 ?FrameUnwindToEmptyState@__FrameHandler3@@SAXPAUEHRegistrationNode@@PAXPBU_s_FuncInfo@@@Z
2AB5F 240 ?FrameUnwindToState@__FrameHandler3@@SAXPAUEHRegistrationNode@@PAXPBU_s_FuncInfo@@H@Z
2AC47 240 ?IsInExceptionSpec@@YAEPAUEHExceptionRecord@@PBU_s_ESTypeList@@@Z
2ACE1 240 ?_CallMemberFunction1@@YGXQAX00@Z
2ACF1 240 ?_CallMemberFunction2@@YGXQAX00H@Z
2AD04 240 ?getESTypes@__FrameHandler3@@SAPBU_s_ESTypeList@@PBU_s_FuncInfo@@@Z
2AD10 244 __CallSettingFrame@12
2AD37 244 __NLG_Return
2AD4F 244 _NLG_Continue
2AD5C 242 ___except_validate_context_record
2AD8C 243 ___vcrt_initialize_locks
2ADC8 243 ___vcrt_uninitialize_locks
2AE00 239 __local_unwind4
2AE32 239 _lu_top
2AE91 239 _lu_done
2AEA0 239 $$000000
2AEF0 239 @_EH4_CallFilterFunc@8
2AF10 239 @_EH4_TransferToHandler@8
2AF30 239 @_EH4_GlobalUnwind2@8
2AF45 239 ReturnPoint
2AF50 239 @_EH4_LocalUnwind@16
2AF67 258 ?try_get_function@@YAPAXW4function_id@?A0x14174aea@@QBDQBW4module_id@2@2@Z
2B007 258 ?try_load_library_from_system_directory@@YAPAUHINSTANCE__@@QB_W@Z
2B052 258 ___vcrt_FlsAlloc
2B08D 258 ___vcrt_FlsFree
2B0C8 258 ___vcrt_FlsGetValue
2B103 258 ___vcrt_FlsSetValue
2B141 258 ___vcrt_InitializeCriticalSectionEx
2B188 256 _unexpected
2B1A5 237 ?GetCurrentState@__FrameHandler3@@SAHPAUEHRegistrationNode@@PAXPBU_s_FuncInfo@@@Z
2B1C2 237 ?SetState@__FrameHandler3@@SAXPAUEHRegistrationNode@@PBU_s_FuncInfo@@H@Z
2B1D0 238 __NLG_Notify1
2B1E0 238 __NLG_Notify
2B1EB 238 __NLG_Go
2B1F7 238 __NLG_Dispatch
2B200 238 __NLG_Call
2B202 238 __NLG_Return2
2B203 138 ??0__crt_cached_ptd_host@@QAE@QAU__crt_locale_pointers@@@Z
2B24B 138 ??1__crt_cached_ptd_host@@QAE@XZ
2B287 138 ?check_synchronize_global_state_index@__crt_cached_ptd_host@@AAEIXZ
2B2B0 138 ?force_synchronize_per_thread_data@__crt_cached_ptd_host@@AAEPAU__acrt_ptd@@XZ
2B2F6 138 ?get_raw_ptd@__crt_cached_ptd_host@@QAEPAU__acrt_ptd@@XZ
2B313 138 ___acrt_call_reportfault
2B44C 138 ___acrt_initialize_invalid_parameter_handler
2B45B 138 __invalid_parameter
2B492 138 __invalid_parameter_internal
2B50F 138 __invalid_parameter_noinfo
2B51F 138 __invalid_parameter_noinfo_noreturn
2B53C 138 __invoke_watson
2B570 85 _abort
2B5B4 92 _calloc
2B5BF 180 ___acrt_lowio_create_handle_array
2B63A 180 ___acrt_lowio_destroy_handle_array
2B66F 180 ___acrt_lowio_ensure_fh_exists
2B70D 180 ___acrt_lowio_lock_fh
2B730 180 ___acrt_lowio_unlock_fh
2B753 180 __free_osfhnd
2B7E4 180 __get_osfhandle
2B84E 76 ___acrt_initialize_stdio
2B916 76 ___acrt_uninitialize_stdio
2B962 76 __lock_file
2B976 76 __unlock_file
2B98A 173 __dclass
2B99B 173 __dsign
2B9AB 112 ??$?RV<lambda_2866be3712abc81a800a822484c830d8>@@AAV<lambda_39ca0ed439415581b5b15c265174cece>@@V<lambda_2b24c74d71094a6cd0cb82e44167d71b>@@@?$__crt_seh_guarded_call@X@@QAEX$$QAV<lambda_2866be3712abc81a800a822484c830d8>@@AAV<lambda_39ca0ed439415581b5b15c265174cece>@@$$QAV<lambda_2b24c74d71094a6cd0cb82e44167d71b>@@@Z
2BA37 112 ??$?RV<lambda_2cc53f568c5a2bb6f192f930a45d44ea>@@AAV<lambda_ab61a845afdef5b7c387490eaf3616ee>@@V<lambda_c2ffc0b7726aa6be21d5f0026187e748>@@@?$__crt_seh_guarded_call@X@@QAEX$$QAV<lambda_2cc53f568c5a2bb6f192f930a45d44ea>@@AAV<lambda_ab61a845afdef5b7c387490eaf3616ee>@@$$QAV<lambda_c2ffc0b7726aa6be21d5f0026187e748>@@@Z
2BAE3 112 ?common_flush_all@@YAH_N@Z
2BB30 112 ?common_flush_all_should_try_to_flush_stream@@YA_NV__crt_stdio_stream@@QAH@Z
2BB61 112 ?is_stream_flushable_or_commitable@@YA_NJ@Z
2BB84 112 ___acrt_stdio_flush_nolock
2BBED 112 __fflush_nolock
2BC52 112 __flushall
2BC5B 181 ??$is_overflow_condition@K@__crt_strtox@@YA_NIK@Z
2BC8F 181 ?unget@?$c_string_character_source@_W@__crt_strtox@@QAEX_W@Z
2BCC0 181 ?update_locale_slow@__crt_cached_ptd_host@@AAEXXZ
2BD1B 181 ?validate@?$c_string_character_source@_W@__crt_strtox@@QBE_NXZ
2BD36 181 ___acrt_locale_get_ctype_array_value
2BD58 140 __isatty
2BDAE 151 _localeconv
2BDD6 113 __fileno
2BDFD 104 ___acrt_errno_from_os_error
2BE40 104 ___acrt_errno_map_os_error
2BE63 104 ___acrt_errno_map_os_error_ptd
2BE87 104 ___doserrno
2BE9A 104 __errno
2BEAD 117 _free
2BEC8 158 _malloc
2BEE0 169 _modf
2BF20 169 __modf_pentium4
2C028 156 __dlog
2C16E 156 _log2
2C187 84 ??0_LocaleUpdate@@QAE@QAU__crt_locale_pointers@@@Z
2C209 84 _iswdigit
2C21C 225 _wcspbrk
2C26A 226 _wcstok
2C28F 194 _round
2C2E1 223 ??$common_tcsncpy_s@_W@@YAHQA_WIQB_WI@Z
2C3AF 223 _wcsncpy_s
2C3BA 218 _wcscspn
2C413 152 ___acrt_initialize_locks
2C454 152 ___acrt_lock
2C46B 152 ___acrt_uninitialize_locks
2C49C 152 ___acrt_unlock
2C4B3 152 __lock_locales
2C4C1 152 __unlock_locales
2C4CA 195 ??$?RV<lambda_f5952838e36297a1e2e9d6c748429792>@@AAV<lambda_2116bde18c9e5f34230805ea4a4660ed>@@V<lambda_3c7107de1cc98bf330a3031f42c322a3>@@@?$__crt_seh_guarded_call@PAD@@QAEPAD$$QAV<lambda_f5952838e36297a1e2e9d6c748429792>@@AAV<lambda_2116bde18c9e5f34230805ea4a4660ed>@@$$QAV<lambda_3c7107de1cc98bf330a3031f42c322a3>@@@Z
2C525 195 ??R<lambda_2116bde18c9e5f34230805ea4a4660ed>@@QBEPADXZ
2C684 195 _call_wsetlocale
2C71F 195 _setlocale
2C757 132 ____lc_codepage_func
2C77C 132 ____lc_locale_name_func
2C7A3 132 ____mb_cur_max_func
2C7C8 132 ___acrt_locale_initialize_ctype
2CC25 102 ___pctype_func
2CC50 201 _strcspn
2CC96 175 __ldclass
2CCA7 219 __wcsdup
2CD06 203 ??$__acrt_convert_wcs_mbs_cp@D_WV<lambda_62f6974d9771e494a5ea317cc32e971c>@@U__crt_win32_buffer_internal_dynamic_resizing@@@@YAHQBDAAV?$__crt_win32_buffer@_WU__crt_win32_buffer_internal_dynamic_resizing@@@@ABV<lambda_62f6974d9771e494a5ea317cc32e971c>@@I@Z
2CDB8 203 ??$__acrt_convert_wcs_mbs_cp@_WDV<lambda_0fec1a7b3f42a53036604e18c2d5e07e>@@U__crt_win32_buffer_no_resizing@@@@YAHQB_WAAV?$__crt_win32_buffer@DU__crt_win32_buffer_no_resizing@@@@ABV<lambda_0fec1a7b3f42a53036604e18c2d5e07e>@@I@Z
2CE7A 203 ??$__acrt_mbs_to_wcs_cp@U__crt_win32_buffer_internal_dynamic_resizing@@@@YAHQBDAAV?$__crt_win32_buffer@_WU__crt_win32_buffer_internal_dynamic_resizing@@@@I@Z
2CE97 203 ??R<lambda_0fec1a7b3f42a53036604e18c2d5e07e>@@QBE@IQB_WQADI@Z
2CEBB 88 ?_deallocate@?$__crt_win32_buffer@DU__crt_win32_buffer_internal_dynamic_resizing@@@@AAEXXZ
2CED5 203 ?allocate@?$__crt_win32_buffer@DU__crt_win32_buffer_no_resizing@@@@QAEHI@Z
2CEFC 203 ?allocate@?$__crt_win32_buffer@_WU__crt_win32_buffer_internal_dynamic_resizing@@@@QAEHI@Z
2CF3B 203 ?allocate@__crt_win32_buffer_internal_dynamic_resizing@@SAHQAPAXIABV__crt_win32_buffer_empty_debug_info@@@Z
2CF5A 203 ?set_to_nullptr@?$__crt_win32_buffer@DU__crt_win32_buffer_no_resizing@@@@QAEXXZ
2CF6E 205 ___strncnt
2CF8A 207 _wcsnlen
2D13A 146 ___initialize_lconv_for_unsigned_char
2D168 105 __seh_filter_dll
2D188 105 __seh_filter_exe
2D2CE 106 ??$?RV<lambda_03b1d95aef87969028cfba75ccab2455>@@AAV<lambda_6e4b09c48022b2350581041d5f6b0c4c>@@V<lambda_22bdf7517842c4b3e53723af5aa32b9e>@@@?$__crt_seh_guarded_call@X@@QAEX$$QAV<lambda_03b1d95aef87969028cfba75ccab2455>@@AAV<lambda_6e4b09c48022b2350581041d5f6b0c4c>@@$$QAV<lambda_22bdf7517842c4b3e53723af5aa32b9e>@@@Z
2D31B 176 ??$__crt_fast_decode_pointer@P6AHI@Z@@YAP6AHI@ZQ6AHI@Z@Z
2D336 106 ??R<lambda_6e4b09c48022b2350581041d5f6b0c4c>@@QBE@XZ
2D41E 106 ?common_exit@@YAXHW4_crt_exit_cleanup_mode@@W4_crt_exit_return_mode@@@Z
2D4B5 106 ?exit_or_terminate_process@@YAXI@Z
2D4E6 106 ?is_managed_app@@YA_NXZ
2D528 106 ?should_call_terminate_process@@YA_NXZ
2D541 106 ?try_cor_exit_process@@YAXI@Z
2D5C3 106 ___acrt_initialize_thread_local_exit_callback
2D5D2 106 __cexit
2D5E1 106 __exit
2D5F7 106 __is_c_termination_complete
2D5FE 87 ??$common_configure_argv@D@@YAHW4_crt_argv_mode@@@Z
2D73B 87 ??$parse_command_line@D@@YAXPADPAPAD0PAI2@Z
2D8AF 87 ___acrt_allocate_buffer_for_argv
2D8FE 87 __configure_narrow_argv
2D909 103 ??$common_initialize_environment_nolock@D@@YAHXZ
2D963 103 ??$create_environment@D@@YAQAPADQAD@Z
2DA45 103 ??$free_environment@D@@YAXQAPAD@Z
2DA74 103 ??$uninitialize_environment_internal@D@@YAXAAPAPAD@Z
2DA8F 103 ??$uninitialize_environment_internal@_W@@YAXAAPAPA_W@Z
2DAAA 103 ___dcrt_uninitialize_environments_nolock
2DAFB 103 __initialize_narrow_environment
2DB00 179 ??$?RV<lambda_69a2805e680e0e292e8ba93315fe43a8>@@AAV<lambda_f03950bc5685219e0bcd2087efbe011e>@@V<lambda_03fcd07e894ec930e3f35da366ca99d6>@@@?$__crt_seh_guarded_call@H@@QAEH$$QAV<lambda_69a2805e680e0e292e8ba93315fe43a8>@@AAV<lambda_f03950bc5685219e0bcd2087efbe011e>@@$$QAV<lambda_03fcd07e894ec930e3f35da366ca99d6>@@@Z
2DB5B 179 ??$?RV<lambda_8e746cf0007f6ed984d6f78af1fec997>@@AAV<lambda_22ebabd17bc4fa466a2aca6d8deb888d>@@V<lambda_18ed0c0b38a6dc0daf1e7ac6d6adf05e>@@@?$__crt_seh_guarded_call@H@@QAEH$$QAV<lambda_8e746cf0007f6ed984d6f78af1fec997>@@AAV<lambda_22ebabd17bc4fa466a2aca6d8deb888d>@@$$QAV<lambda_18ed0c0b38a6dc0daf1e7ac6d6adf05e>@@@Z
2DBB6 179 ??$__crt_fast_encode_pointer@P6AHXZ@@YAP6AHXZQ6AHXZ@Z
2DBD5 179 ??R<lambda_22ebabd17bc4fa466a2aca6d8deb888d>@@QBE@XZ
2DCD7 179 ??R<lambda_f03950bc5685219e0bcd2087efbe011e>@@QBE@XZ
2DDB1 179 __crt_atexit
2DDC7 179 __execute_onexit_table
2DE05 179 __initialize_onexit_table
2DE2E 179 __register_onexit_function
2DE61 133 _initialize_global_variables
2DE6E 133 _initialize_c
2DE88 86 ___acrt_uninitialize_command_line
2DE8B 133 _uninitialize_environment
2DE93 133 _initialize_pointers
2DEC1 133 _uninitialize_vcruntime
2DECA 133 _uninitialize_allocated_memory
2DEE1 133 _uninitialize_allocated_io_buffers
2DF31 133 ??R<lambda_af42a3ee9806e9a7305d451646e05244>@@QBE@AAPAU__crt_multibyte_data@@@Z
2DF5F 133 ___acrt_initialize
2DF71 133 ___acrt_thread_attach
2DF7C 133 ___acrt_thread_detach
2DF84 133 ___acrt_uninitialize
2DFB4 133 ___acrt_uninitialize_critical
2DFC6 176 ___acrt_initialize_new_handler
2DFD5 176 __callnewh
2E001 176 __query_new_handler
2E058 209 _terminate
2E094 136 __initterm
2E0BF 136 __initterm_e
2E0ED 200 _strcpy_s
2E147 89 ??$parse_integer@KV?$c_string_character_source@_W@__crt_strtox@@$00@__crt_strtox@@YAKAAV__crt_cached_ptd_host@@V?$c_string_character_source@_W@0@H_N@Z
2E755 89 __wtol
2E7A0 204 _strncmp
2E818 222 _wcsncmp
2E852 183 ??$?RV<lambda_15ade71b0218206bbe3333a0c9b79046>@@AAV<lambda_da44e0f8b0f19ba52fefafb335991732>@@V<lambda_207f2d024fc103971653565357d6cd41>@@@?$__crt_seh_guarded_call@X@@QAEX$$QAV<lambda_15ade71b0218206bbe3333a0c9b79046>@@AAV<lambda_da44e0f8b0f19ba52fefafb335991732>@@$$QAV<lambda_207f2d024fc103971653565357d6cd41>@@@Z
2E8A4 183 ??$?RV<lambda_38edbb1296d33220d7e4dd0ed76b244a>@@AAV<lambda_5ce1d447e08cb34b2473517608e21441>@@V<lambda_fb385d3da700c9147fc39e65dd577a8c>@@@?$__crt_seh_guarded_call@X@@QAEX$$QAV<lambda_38edbb1296d33220d7e4dd0ed76b244a>@@AAV<lambda_5ce1d447e08cb34b2473517608e21441>@@$$QAV<lambda_fb385d3da700c9147fc39e65dd577a8c>@@@Z
2E90F 183 ??$?RV<lambda_6affb1475c98b40b75cdec977db92e3c>@@AAV<lambda_b8d4b9c228a6ecc3f80208dbb4b4a104>@@V<lambda_608742c3c92a14382c1684fc64f96c88>@@@?$__crt_seh_guarded_call@X@@QAEX$$QAV<lambda_6affb1475c98b40b75cdec977db92e3c>@@AAV<lambda_b8d4b9c228a6ecc3f80208dbb4b4a104>@@$$QAV<lambda_608742c3c92a14382c1684fc64f96c88>@@@Z
2E964 183 ??$?RV<lambda_a7e850c220f1c8d1e6efeecdedd162c6>@@AAV<lambda_46720907175c18b6c9d2717bc0d2d362>@@V<lambda_9048902d66e8d99359bc9897bbb930a8>@@@?$__crt_seh_guarded_call@X@@QAEX$$QAV<lambda_a7e850c220f1c8d1e6efeecdedd162c6>@@AAV<lambda_46720907175c18b6c9d2717bc0d2d362>@@$$QAV<lambda_9048902d66e8d99359bc9897bbb930a8>@@@Z
2E9BE 183 ?construct_ptd@@YAXQAU__acrt_ptd@@QAPAU__crt_locale_data@@@Z
2EA57 183 ?destroy_fls@@YGXPAX@Z
2EA78 183 ?destroy_ptd@@YAXQAU__acrt_ptd@@@Z
2EB45 183 ?replace_current_thread_locale_nolock@@YAXQAU__acrt_ptd@@QAU__crt_locale_data@@@Z
2EB90 183 ___acrt_freeptd
2EBBC 183 ___acrt_getptd
2EC77 183 ___acrt_getptd_head
2ED0D 183 ___acrt_getptd_noexit
2EDBE 183 ___acrt_getptd_noexit_explicit
2EE61 183 ___acrt_initialize_ptd
2EE8D 183 ___acrt_uninitialize_ptd
2EEA7 233 _no_op_initialize
2EEAA 233 ??$?RV<lambda_4fdada1b837b2abbf20876fac97688ad>@@AAV<lambda_b57350f2640456a0859d250846f69caf>@@V<lambda_eed5e4f92b5b7d55fa22c48c484aaa54>@@@?$__crt_seh_guarded_call@X@@QAEX$$QAV<lambda_4fdada1b837b2abbf20876fac97688ad>@@AAV<lambda_b57350f2640456a0859d250846f69caf>@@$$QAV<lambda_eed5e4f92b5b7d55fa22c48c484aaa54>@@@Z
2EEF7 233 ??$?RV<lambda_ac03c5d59bd18b09cb88b28331f6bfed>@@AAV<lambda_2a444430fde8c29194d880d93eed5e8f>@@AAV<lambda_02db5278e8aef8b5e4976579d73f5304>@@@?$__crt_seh_guarded_call@X@@QAEX$$QAV<lambda_ac03c5d59bd18b09cb88b28331f6bfed>@@AAV<lambda_2a444430fde8c29194d880d93eed5e8f>@@AAV<lambda_02db5278e8aef8b5e4976579d73f5304>@@@Z
2EF3C 233 ??$?RV<lambda_e5124f882df8998aaf41531e079ba474>@@AAV<lambda_3e16ef9562a7dcce91392c22ab16ea36>@@V<lambda_e25ca0880e6ef98be67edffd8c599615>@@@?$__crt_seh_guarded_call@X@@QAEX$$QAV<lambda_e5124f882df8998aaf41531e079ba474>@@AAV<lambda_3e16ef9562a7dcce91392c22ab16ea36>@@$$QAV<lambda_e25ca0880e6ef98be67edffd8c599615>@@@Z
2EFAA 233 ??0_expandlocale_locale_name_cache@@QAE@QA_WIQAU__crt_qualified_locale_data@@@Z
2EFF4 233 ??1_expandlocale_locale_name_cache@@QAE@XZ
2F024 233 ??R<lambda_2a444430fde8c29194d880d93eed5e8f>@@QBE@XZ
2F08E 233 ??R<lambda_b57350f2640456a0859d250846f69caf>@@QBE@XZ
2F18C 233 ?commit_locale_name@_expandlocale_locale_name_cache@@QAEXQB_WI@Z
2F1D0 233 ?commit_locale_name_cache_already_updated@_expandlocale_locale_name_cache@@QAEXQB_WI@Z
2F205 233 ___acrt_copy_locale_name
2F265 233 ___acrt_set_locale_changed
2F270 233 ___acrt_uninitialize_locale
2F297 233 ___lc_lctowcs
2F307 233 ___lc_wcstolc
2F444 233 __copytlocinfo_nolock
2F473 233 __expandlocale
2F839 233 __wcscats
2F87A 233 __wsetlocale
2F8FD 233 __wsetlocale_get_all
2FA98 233 __wsetlocale_nolock
2FD88 233 __wsetlocale_set_cat
30148 233 _get_default_code_page
30177 233 _parse_bcp47
30351 233 _parse_bcp47_code_page
30390 233 _parse_bcp47_language
30402 233 _parse_bcp47_region
304C0 233 _parse_bcp47_script
30530 233 _string_is_alpha
3056F 197 ??$?RV<lambda_cbab9ec6f41b0180b23cc171c22676b0>@@AAV<lambda_44731a7d0e6d81c3e6aa82d741081786>@@V<lambda_4b292cb8dd18144e164572427af410ab>@@@?$__crt_seh_guarded_call@P6AXH@Z@@QAEP6AXH@Z$$QAV<lambda_cbab9ec6f41b0180b23cc171c22676b0>@@AAV<lambda_44731a7d0e6d81c3e6aa82d741081786>@@$$QAV<lambda_4b292cb8dd18144e164572427af410ab>@@@Z
305D7 197 ?get_global_action_nolock@@YAPAP6AXH@ZH@Z
30619 197 ?siglookup@@YAPAU__crt_signal_action_t@@HQAU1@@Z
30641 197 ___acrt_get_sigabrt_handler
30668 197 ___acrt_initialize_signal_handlers
30686 197 _raise
30878 139 ?initialize_inherited_file_handles_nolock@@YAXXZ
3092E 139 ?initialize_stdio_handles_nolock@@YAXXZ
309DE 139 ___acrt_initialize_lowio
30A3E 139 ___acrt_uninitialize_lowio
30A6A 93 __calloc_base
30AC7 193 __query_app_type
30ACD 118 __free_base
30B07 231 ?<lambda_invoker_stdcall>@<lambda_29d3c280b90b41c2ae070ffca879996a>@@CG@PA_W@Z
30B14 231 ??$?RV<lambda_6b4b7855443974f2b4b77000ea21c99c>@@AAV<lambda_8f7d3b162ab39427f4fa9995c67a7986>@@V<lambda_cc9a5ba8a5d8428b9634eab82665e5dc>@@@?$__crt_seh_guarded_call@H@@QAEH$$QAV<lambda_6b4b7855443974f2b4b77000ea21c99c>@@AAV<lambda_8f7d3b162ab39427f4fa9995c67a7986>@@$$QAV<lambda_cc9a5ba8a5d8428b9634eab82665e5dc>@@@Z
30B90 231 ??R<lambda_29d3c280b90b41c2ae070ffca879996a>@@QBE@PA_W@Z
30BC3 231 ?try_get_AreFileApisANSI@@YAP6GHXZXZ
30BDD 231 ?try_get_CompareStringEx@@YAP6GHPB_WK0H0HPAU_nlsversioninfo@@PAXJ@ZXZ
30BF7 231 ?try_get_EnumSystemLocalesEx@@YAP6GHP6GHPA_WKJ@ZKJPAX@ZXZ
30C11 231 ?try_get_GetDateFormatEx@@YAP6GHPB_WKPBU_SYSTEMTIME@@0PA_WH0@ZXZ
30C2B 231 ?try_get_GetLocaleInfoEx@@YAP6GHPB_WKPA_WH@ZXZ
30C45 231 ?try_get_GetTimeFormatEx@@YAP6GHPB_WKPBU_SYSTEMTIME@@0PA_WH@ZXZ
30C5F 231 ?try_get_GetUserDefaultLocaleName@@YAP6GHPA_WH@ZXZ
30C79 231 ?try_get_IsValidLocaleName@@YAP6GHPB_W@ZXZ
30C93 231 ?try_get_LCIDToLocaleName@@YAP6GHKPA_WHK@ZXZ
30CAD 231 ?try_get_LCMapStringEx@@YAP6GHPB_WK0HPA_WHPAU_nlsversioninfo@@PAXJ@ZXZ
30CC7 231 ?try_get_LocaleNameToLCID@@YAP6GKPB_WK@ZXZ
30CE1 231 ?try_get_first_available_module@@YAPAUHINSTANCE__@@QBW4module_id@?A0x391cf84c@@0@Z
30DAC 231 ?try_get_function@@YAPAXW4function_id@?A0x391cf84c@@QBDQBW4module_id@2@2@Z
30E31 231 ___acrt_AppPolicyGetProcessTerminationMethodInternal@4
30E71 231 ___acrt_AreFileApisANSI@0
30E90 231 ___acrt_EnumSystemLocalesEx@16
30EE4 231 ___acrt_FlsAlloc@4
30F23 231 ___acrt_FlsFree@4
30F62 231 ___acrt_FlsGetValue@4
30FA1 231 ___acrt_FlsSetValue@8
30FE3 231 ___acrt_GetLocaleInfoEx@16
31022 231 ___acrt_GetUserDefaultLocaleName@8
3105E 231 ___acrt_InitializeCriticalSectionEx@12
310A9 231 ___acrt_IsValidLocaleName@4
310E1 231 ___acrt_LCIDToLocaleName@16
31120 231 ___acrt_LCMapStringEx@36
3117D 231 ___acrt_LocaleNameToLCID@8
311AE 231 ___acrt_can_use_vista_locale_apis
311B9 231 ___acrt_eagerly_load_locale_apis
311F0 231 ___acrt_initialize_winapi_thunks
31204 231 ___acrt_uninitialize_winapi_thunks
3123A 97 __fcloseall
312E5 77 ___acrt_stdio_free_buffer_nolock
31325 81 ?fperrraise_with@@YAXHK@Z
3139D 81 __d_int
314A3 81 __dtest
31507 81 __fdtest
31555 81 __fperrraise
31576 81 __ldtest
31581 98 ??$?RV<lambda_9e9de3de5fa147e2223d7db92bc10aa6>@@AAV<lambda_38ce7e780aa69e748d6df282ebc68efe>@@V<lambda_8ca6da459f0f6780f1cff60fdc3d00e5>@@@?$__crt_seh_guarded_call@H@@QAEH$$QAV<lambda_9e9de3de5fa147e2223d7db92bc10aa6>@@AAV<lambda_38ce7e780aa69e748d6df282ebc68efe>@@$$QAV<lambda_8ca6da459f0f6780f1cff60fdc3d00e5>@@@Z
31623 98 __commit
316A0 232 ?write_double_translated_ansi_nolock@@YA?AUwrite_result@?A0x17268360@@HQBDIAAV__crt_cached_ptd_host@@@Z
31A67 232 ?write_double_translated_unicode_nolock@@YA?AUwrite_result@?A0x17268360@@QBDI@Z
31ACF 232 ?write_requires_double_translation_nolock@@YA_NHAAV__crt_cached_ptd_host@@@Z
31B4C 232 ?write_text_ansi_nolock@@YA?AUwrite_result@?A0x17268360@@HQBDI@Z
31C27 232 ?write_text_utf16le_nolock@@YA?AUwrite_result@?A0x17268360@@HQBDI@Z
31D10 232 ?write_text_utf8_nolock@@YA?AUwrite_result@?A0x17268360@@HQBDI@Z
31E42 232 __write_internal
31F53 232 __write_nolock
3216F 159 __malloc_base
321BD 150 ___acrt_update_locale_info
321EA 150 ___acrt_update_locale_info_explicit
3221B 150 ___acrt_update_multibyte_info
32248 150 ___acrt_update_multibyte_info_explicit
32279 167 __mbtowc_internal
323AC 161 ___acrt_initialize_sse2
323BC 168 __modf_default
324C0 147 ___libm_error_support
326B4 82 __dunscale
3274A 142 _iswctype
327B3 227 ___acrt_wcstok_s_novalidation
32879 166 ?_mbstowcs_internal@@YAHPAIPA_WIPBDIAAV__crt_cached_ptd_host@@@Z
32955 166 ?_mbstowcs_l_helper@@YAIPA_WPBDIAAV__crt_cached_ptd_host@@@Z
32B1C 166 _mbstowcs_s
32B59 228 ?_wcstombs_internal@@YAHPAIPADIPB_WIAAV__crt_cached_ptd_host@@@Z
32C2E 228 ?_wcstombs_l_helper@@YAIPADPB_WIAAV__crt_cached_ptd_host@@@Z
32ED5 228 __wcstombs_s_l
32F13 123 ?InternalGetLocaleInfoA@@YAHQAU__crt_locale_pointers@@QB_WKQADH@Z
32FF4 123 ___acrt_GetLocaleInfoA
331A4 126 ___acrt_GetStringTypeA
332A5 144 ?__acrt_LCMapStringA_stat@@YAHPAU__crt_locale_pointers@@PB_WKPBDHPADHHH@Z
33494 144 ___acrt_LCMapStringA
334DD 116 __errcode
33511 116 __except1
335DF 116 __handle_exc
3385F 116 __raise_exc
33882 116 __raise_exc_ex
33B73 116 __set_errno_from_matherr
33BA4 116 __umatherr
33C44 214 __decomp
33D16 214 __set_exp
33D43 214 __sptype
33DA6 115 __clrfp
33DB7 115 __ctrlfp
33DE1 115 __set_statfp
33E3A 115 __statfp
33E4A 191 __realloc_base
33EB3 109 _fegetround
33EC0 217 _wcscpy_s
33F24 172 ?filter_mbtowcs_flags@@YAKIK@Z
33FBC 172 ___acrt_MultiByteToWideChar
33FE6 229 ?filter_wcstomb_flags@@YAKIK@Z
34076 229 ___acrt_WideCharToMultiByte
340E2 220 ___ascii_wcsicmp
3411F 220 __towlower_internal
3415E 220 __wcsicmp
341A7 220 __wcsicmp_l
3425F 210 ___acrt_initialize_timeset
34294 213 ?__acrt_get_utf8_acp_compatibility_codepage@@YAIXZ
342D3 182 ___acrt_app_verifier_enabled
342E5 182 ___acrt_is_secure_process
342F8 230 ___acrt_get_process_end_policy
3431F 88 ?<lambda_invoker_cdecl>@<lambda_838c7f62c73c983481e27c09e84b0b5d>@@CAHPBX0@Z
34337 88 ??$__acrt_convert_wcs_mbs_cp@_WDV<lambda_28bda7af82a03b66c1cb3803a755f95d>@@U__crt_win32_buffer_internal_dynamic_resizing@@@@YAHQB_WAAV?$__crt_win32_buffer@DU__crt_win32_buffer_internal_dynamic_resizing@@@@ABV<lambda_28bda7af82a03b66c1cb3803a755f95d>@@I@Z
343FD 88 ??$common_expand_argv_wildcards@D@@YAHQAPADQAPAPAD@Z
3457A 88 ??$copy_and_add_argument_to_buffer@D@@YAHQBD0IAAV?$argument_list@D@?A0x5f5c8891@@@Z
3462B 88 ??$expand_argument_wildcards@D@@YAHQAD0AAV?$argument_list@D@?A0x5f5c8891@@@Z
348B0 88 ??1?$argument_list@D@?A0x5f5c8891@@QAE@XZ
348D5 88 ?allocate@?$__crt_win32_buffer@DU__crt_win32_buffer_internal_dynamic_resizing@@@@QAEHI@Z
34911 88 ?expand_if_necessary@?$argument_list@D@?A0x5f5c8891@@AAEHXZ
34998 88 ___acrt_expand_narrow_argv_wildcards
349A3 124 ___acrt_GetModuleFileNameA
34A44 162 ??$?RV<lambda_ceb1ee4838e85a9d631eb091e2fbe199>@@AAV<lambda_ae742caa10f662c28703da3d2ea5e57e>@@V<lambda_cd08b5d6af4937fe54fc07d0c9bf6b37>@@@?$__crt_seh_guarded_call@X@@QAEX$$QAV<lambda_ceb1ee4838e85a9d631eb091e2fbe199>@@AAV<lambda_ae742caa10f662c28703da3d2ea5e57e>@@$$QAV<lambda_cd08b5d6af4937fe54fc07d0c9bf6b37>@@@Z
34A91 162 ??R<lambda_ae742caa10f662c28703da3d2ea5e57e>@@QBE@XZ
34B14 162 ?CPtoLocaleName@@YAPB_WH@Z
34B52 162 ?getSystemCP@@YAHH@Z
34BC3 162 ?setSBCS@@YAXPAU__crt_multibyte_data@@@Z
34C26 162 ?setSBUpLow@@YAXPAU__crt_multibyte_data@@@Z
34DCB 162 ?setmbcp_internal@@YAHH_NQAU__acrt_ptd@@QAPAU__crt_multibyte_data@@@Z
34F20 162 ?update_thread_multibyte_data_internal@@YAPAU__crt_multibyte_data@@QAU__acrt_ptd@@QAPAU1@@Z
34FC0 162 ___acrt_initialize_multibyte
35008 162 ___acrt_update_thread_multibyte_data
3501B 162 __setmbcp_nolock
35220 162 _memcpy_s
352A1 141 ?x_ismbbtype_l@@YAHPAU__crt_locale_pointers@@IHH@Z
352F1 141 __ismbblead
35309 86 ___acrt_initialize_command_line
35322 121 ?find_end_of_double_null_terminated_sequence@@YAPB_WQB_W@Z
35359 121 ___dcrt_get_narrow_environment_from_os
353F9 192 __recalloc_base
35466 129 ___acrt_initialize_heap
35477 129 ___acrt_uninitialize_heap
35481 196 ___acrt_execute_initializers
354E9 196 ___acrt_execute_uninitializers
3551A 160 ___acrt_has_user_matherr
35537 160 ___acrt_initialize_user_matherr
35546 160 ___acrt_invoke_user_matherr
3557C 149 ___acrt_add_locale_ref
355F9 149 ___acrt_free_locale
35741 149 ___acrt_locale_add_lc_time_reference
3576A 149 ___acrt_locale_free_lc_time_if_unreferenced
3579B 149 ___acrt_locale_release_lc_time_reference
357C4 149 ___acrt_release_locale_ref
35845 149 ___acrt_update_thread_locale_data
358C6 149 __updatetlocinfoEx_nolock
35916 134 ___acrt_locale_free_monetary
35A14 134 ___acrt_locale_initialize_monetary
35D75 135 ___acrt_locale_free_numeric
35DDE 135 ___acrt_locale_initialize_numeric
35FFB 137 ?free_crt_array_internal@@YAXQAPBXI@Z
36020 137 ?initialize_lc_time@@YA_NQAU__crt_lc_time_data@@QAU__crt_locale_data@@@Z
3629C 137 ___acrt_locale_free_time
36380 137 ___acrt_locale_initialize_time
363FB 216 _wcscat_s
3646A 221 ??$common_tcsncat_s@_W@@YAHQA_WIQB_WI@Z
36552 221 _wcsncat_s
3655D 122 _GetLocaleNameFromDefault
365E4 122 _GetLocaleNameFromLangCountry
3667D 122 _GetLocaleNameFromLanguage
366D6 122 _GetPrimaryLen
3670A 122 _LangCountryEnumProcEx@12
369EB 122 _LanguageEnumProcEx@12
36AAA 122 _ProcessCodePage
36B9A 122 _TestDefaultCountry
36BE7 122 _TranslateName
36C54 122 ___acrt_get_qualified_locale
36E59 125 _CountryEnumProc@4
36F00 125 _GetLcidFromCountry
36F4B 125 _GetLcidFromLangCountry
36FE6 125 _GetLcidFromLanguage
37045 125 _GetPrimaryLen
37071 125 _LangCountryEnumProc@4
372C4 125 _LanguageEnumProc@4
37399 125 _LcidFromHexString
373ED 125 _ProcessCodePage
374CE 125 _TestDefaultCountry
374F3 125 _TestDefaultLanguage
37568 125 _TranslateName
375C9 125 ___acrt_get_qualified_locale_downlevel
377B9 157 ??$common_lseek_nolock@_J@@YA_JH_JHAAV__crt_cached_ptd_host@@@Z
3783C 157 __lseeki64_nolock_internal
3785A 177 __query_new_mode
37861 143 ?GetTableIndexFromLocaleName@@YAHPB_W@Z
378B1 143 ___acrt_DownlevelLCIDToLocaleName
37954 143 ___acrt_DownlevelLocaleNameToLCID
37980 107 ?_fclose_internal@@YAHQAU_iobuf@@AAV__crt_cached_ptd_host@@@Z
37A17 107 ?_fclose_nolock_internal@@YAHQAU_iobuf@@AAV__crt_cached_ptd_host@@@Z
37AA5 107 _fclose
37AD5 108 _fegetexceptflag
37B06 110 _fesetexceptflag
37B68 75 ?to_abstract_control@@YA?AW4__acrt_fenv_abstract_control@@W4__acrt_fenv_machine_sse_control@@@Z
37C18 75 ?to_abstract_control@@YA?AW4__acrt_fenv_abstract_control@@W4__acrt_fenv_machine_x87_control@@@Z
37CC5 75 ___acrt_fenv_get_common_round_control
37CE7 75 ___acrt_fenv_get_control
37D67 75 ___acrt_fenv_get_fp_status_word_from_exception_mask
37D81 75 ___acrt_fenv_get_status
37E2B 75 ___acrt_fenv_set_status
37F27 164 ??R<lambda_e96123212306c92459f955e8e4eac55d>@@QBEIPBD@Z
37F53 164 ?__mbrtowc_utf8@__crt_mbstring@@YAIPA_WPBDIPAU_Mbstatet@@AAV__crt_cached_ptd_host@@@Z
37F96 164 ?__mbsrtowcs_utf8@__crt_mbstring@@YAIPA_WPAPBDIPAU_Mbstatet@@AAV__crt_cached_ptd_host@@@Z
3809E 188 __putwch_nolock
380D0 91 ?__c32rtomb_utf8@__crt_mbstring@@YAIPAD_UPAU_Mbstatet@@AAV__crt_cached_ptd_host@@@Z
38180 130 __copysign
381A3 130 __fpclass
38247 119 __frnd
3825B 78 __dnorm
383CB 127 ___acrt_GetStringTypeW
383E4 215 ?__wcsrtombs_utf8@__crt_mbstring@@YAIPADPAPB_WIPAU_Mbstatet@@AAV__crt_cached_ptd_host@@@Z
384F3 206 ??$common_tcsncpy_s@D@@YAHQADIQBDI@Z
385AA 206 _strncpy_s
385B5 212 __towlower_l
38690 189 _qsort
38B80 208 _strpbrk
38BC0 165 __mbsdec
38BD7 165 __mbsdec_l
38C64 171 ?initialize_multibyte@@YAHXZ
38C73 170 __msize_base
38CA6 234 ??$common_xtox@K_W@@YAHKQA_WII_N@Z
38D62 234 ??$common_xtox_s@K_W@@YAHKQA_WII_N@Z
38DD4 234 __itow_s
38E07 224 ___ascii_wcsnicmp
38E56 224 __wcsnicmp
38EA2 224 __wcsnicmp_l
38F75 96 ??$?RV<lambda_d422a76eb4c3bf3ad751449ab71a6ea4>@@AAV<lambda_c9ba49e555ba839a7b07aa3fbecb7617>@@V<lambda_9476263c8ee91a25d21c55370bdb50de>@@@?$__crt_seh_guarded_call@H@@QAEH$$QAV<lambda_d422a76eb4c3bf3ad751449ab71a6ea4>@@AAV<lambda_c9ba49e555ba839a7b07aa3fbecb7617>@@$$QAV<lambda_9476263c8ee91a25d21c55370bdb50de>@@@Z
39006 96 __close_internal
390A9 96 __close_nolock_internal
39149 202 ?__acrt_stdio_free_stream@@YAXV__crt_stdio_stream@@@Z
39184 111 _fetestexcept
391A4 163 ?__mbrtoc32_utf8@__crt_mbstring@@YAIPA_UPBDIPAU_Mbstatet@@AAV__crt_cached_ptd_host@@@Z
39355 131 ?__dcrt_lowio_initialize_console_output@@YAXXZ
39374 131 ___dcrt_lowio_ensure_console_output_initialized
39393 131 ___dcrt_terminate_console_output
393AA 131 ___dcrt_write_console
39400 153 __CIlog10
3943B 153 __CIlog10_default
3944F 153 __log10_default
39510 95 _ceil
39550 95 __ceil_pentium4
3962D 100 ?reset_and_return@__crt_mbstring@@YAIIPAU_Mbstatet@@@Z
39641 100 ?return_illegal_sequence@__crt_mbstring@@YAIPAU_Mbstatet@@AAV__crt_cached_ptd_host@@@Z
39663 90 ?__c16rtomb_utf8@__crt_mbstring@@YAIPAD_SPAU_Mbstatet@@AAV__crt_cached_ptd_host@@@Z
3970D 145 ___acrt_LCMapStringW
39750 154 __CIlog10_pentium4
39768 154 __log10_pentium4
399E0 74 $$000000
39A00 74 __fFEXP
39A57 74 __rtinfpopse
39A59 74 __rtinfnpopse
39A69 74 __fFLN
39B1E 74 __rtinfpop
39B20 74 __rtinfnpop
39B30 74 __rtforexpinf
39B3D 74 __ffexpm1
39BF0 72 __trandisp1
39C65 72 __trandisp2
39CFF 72 __rttospopde
39D04 72 __rttospop
39D10 72 __rtnospop
39D20 72 __rttosnpop
39D21 72 __rtnospopde
39D28 72 __rtzeropop
39D2A 72 __rtzeronpop
39D30 72 __rtzerospop
39D3D 72 __rtonepop
39D40 72 __rtonenpop
39D50 72 __tosnan1
39D80 72 __nosnan2
39D90 72 __tosnan2
39DC0 72 __nan2
39E00 72 __rtindfpop
39E02 72 __rtindfnpop
39E13 72 __rttosnpopde
39E20 72 __rtatan2inf
39E3D 72 __rtchsifneg
39E50 99 __twoToTOS
39E65 99 __load_CW
39E7C 99 __convertTOStoQNaN
39E95 99 __fload_withFB
39ED8 99 __checkTOS_withFB
39EEE 99 __fast_exit
39EFB 99 __math_exit
39F25 99 __check_overflow_exit
39F39 99 __check_range_exit
39FE0 120 __startTwoArgErrorHandling
39FF7 120 __startOneArgErrorHandling
3A033 94 __ceil_default
3A100 80 ___ascii_strnicmp
3A161 187 __d_inttype
3A1C9 187 __powhlp
3A2F4 73 __87except
3A404 6 @_guard_check_icall@4
3A410 33 __FindPESection
3A460 33 __IsNonwritableInCurrentImage
3A520 33 __ValidateImageBase
3A560 39 __aulldvrm
3A591 39 L1
3A59F 39 L3
3A5CD 39 L4
3A5D6 39 L5
3A5D8 39 L2
3A600 29 __allshl
3A610 29 MORE32
3A61A 29 RETZERO
3A620 40 __aullshr
3A630 40 MORE32
3A63A 40 RETZERO
3A640 27 __alldiv
3A661 27 L1
3A67D 27 L2
3A699 27 L3
3A6A7 27 L5
3A6D5 27 L6
3A6D6 27 L7
3A6DA 27 L4
3A6E4 27 L8
3A6F0 19 __ftol2_sse
3A700 19 __ftoi2
3A711 19 L3B
3A754 19 L3F
3A75C 19 L40
3A76F 19 L41
3A780 19 __ftol2
3A79E 19 L51
3A7E3 19 L52
3A7F7 19 L53
3A7F9 19 L55
3A803 19 L56
3A81C 19 L57
3A830 19 __ftoul2
3A84B 19 LA5
3A860 19 LA6
3A871 19 LA7
3A87E 19 LA9
3A8C5 19 LAA
3A8CC 19 LAC
3A8D3 19 LAD
3A8DD 19 LAF
3A8F0 19 __ftoul2_legacy
3A910 43 __filter_x86_sse2_floating_point_exception
3A990 184 __CIpow
3A9CB 184 __CIpow_default
3A9E4 184 __pow_default
3ABD9 174 __fdclass
3ABF0 185 __CIpow_pentium4
3AC09 185 __pow_pentium4
3B710 53 __unwindfunclet$?adjust_precision@detail@v11@fmt@@YAXAAHH@Z$0
3B71D 53 __ehhandler$?adjust_precision@detail@v11@fmt@@YAXAAHH@Z
3B740 53 __unwindfunclet$?square@bigint@detail@v11@fmt@@QAEXXZ$0
3B750 53 __ehhandler$?square@bigint@detail@v11@fmt@@QAEXXZ
3B780 53 __unwindfunclet$?format_dragon@detail@v11@fmt@@YAXU?$basic_fp@Vuint128_fallback@detail@v11@fmt@@@123@IHAAV?$buffer@D@123@AAH@Z$0
3B78B 53 __unwindfunclet$?format_dragon@detail@v11@fmt@@YAXU?$basic_fp@Vuint128_fallback@detail@v11@fmt@@@123@IHAAV?$buffer@D@123@AAH@Z$1
3B796 53 __unwindfunclet$?format_dragon@detail@v11@fmt@@YAXU?$basic_fp@Vuint128_fallback@detail@v11@fmt@@@123@IHAAV?$buffer@D@123@AAH@Z$2
3B7A1 53 __unwindfunclet$?format_dragon@detail@v11@fmt@@YAXU?$basic_fp@Vuint128_fallback@detail@v11@fmt@@@123@IHAAV?$buffer@D@123@AAH@Z$3
3B7B1 53 __ehhandler$?format_dragon@detail@v11@fmt@@YAXU?$basic_fp@Vuint128_fallback@detail@v11@fmt@@@123@IHAAV?$buffer@D@123@AAH@Z
3B7E0 53 __unwindfunclet$??0_Locinfo@std@@QAE@PBD@Z$0
3B7E8 53 __unwindfunclet$??0_Locinfo@std@@QAE@PBD@Z$1
3B7F3 53 __unwindfunclet$??0_Locinfo@std@@QAE@PBD@Z$2
3B7FE 53 __unwindfunclet$??0_Locinfo@std@@QAE@PBD@Z$3
3B809 53 __unwindfunclet$??0_Locinfo@std@@QAE@PBD@Z$4
3B814 53 __unwindfunclet$??0_Locinfo@std@@QAE@PBD@Z$5
3B81F 53 __unwindfunclet$??0_Locinfo@std@@QAE@PBD@Z$6
3B82F 53 __ehhandler$??0_Locinfo@std@@QAE@PBD@Z
3B850 53 __ehhandler$??1_Locinfo@std@@QAE@XZ
3B870 53 __unwindfunclet$?report_error@v11@fmt@@YAXPBD@Z$0
3B87D 53 __ehhandler$?report_error@v11@fmt@@YAXPBD@Z
3B8A0 53 __unwindfunclet$?grow@?$basic_memory_buffer@D$0BPE@U?$allocator@D@detail@v11@fmt@@@v11@fmt@@CAXAAV?$buffer@D@detail@23@I@Z$0
3B8AD 53 __ehhandler$?grow@?$basic_memory_buffer@D$0BPE@U?$allocator@D@detail@v11@fmt@@@v11@fmt@@CAXAAV?$buffer@D@detail@23@I@Z
3B8D0 53 __unwindfunclet$??$use_facet@V?$numpunct@_W@std@@@std@@YAABV?$numpunct@_W@0@ABVlocale@0@@Z$0
3B8D8 53 __unwindfunclet$??$use_facet@V?$numpunct@_W@std@@@std@@YAABV?$numpunct@_W@0@ABVlocale@0@@Z$1
3B8E5 53 __ehhandler$??$use_facet@V?$numpunct@_W@std@@@std@@YAABV?$numpunct@_W@0@ABVlocale@0@@Z
3B910 53 __unwindfunclet$?_Getcat@?$numpunct@_W@std@@SAIPAPBVfacet@locale@2@PBV42@@Z$0
3B91F 53 __unwindfunclet$?_Getcat@?$numpunct@_W@std@@SAIPAPBVfacet@locale@2@PBV42@@Z$1
3B93B 53 __unwindfunclet$?_Getcat@?$numpunct@_W@std@@SAIPAPBVfacet@locale@2@PBV42@@Z$2
3B943 53 __unwindfunclet$?_Getcat@?$numpunct@_W@std@@SAIPAPBVfacet@locale@2@PBV42@@Z$4
3B950 53 __ehhandler$?_Getcat@?$numpunct@_W@std@@SAIPAPBVfacet@locale@2@PBV42@@Z
3B980 54 __unwindfunclet$??$decimal_point@_W@detail@v11@fmt@@YA_WUlocale_ref@012@@Z$0
3B98D 54 __ehhandler$??$decimal_point@_W@detail@v11@fmt@@YA_WUlocale_ref@012@@Z
3B9B0 54 __unwindfunclet$?write_loc@detail@v11@fmt@@YA_NV?$basic_appender@_W@23@Vloc_value@23@ABUformat_specs@23@Ulocale_ref@123@@Z$0
3B9BB 54 __unwindfunclet$?write_loc@detail@v11@fmt@@YA_NV?$basic_appender@_W@23@Vloc_value@23@ABUformat_specs@23@Ulocale_ref@123@@Z$1
3B9C3 54 __unwindfunclet$?write_loc@detail@v11@fmt@@YA_NV?$basic_appender@_W@23@Vloc_value@23@ABUformat_specs@23@Ulocale_ref@123@@Z$2
3B9CB 54 __unwindfunclet$?write_loc@detail@v11@fmt@@YA_NV?$basic_appender@_W@23@Vloc_value@23@ABUformat_specs@23@Ulocale_ref@123@@Z$4
3B9D6 54 __unwindfunclet$?write_loc@detail@v11@fmt@@YA_NV?$basic_appender@_W@23@Vloc_value@23@ABUformat_specs@23@Ulocale_ref@123@@Z$7
3B9E6 54 __ehhandler$?write_loc@detail@v11@fmt@@YA_NV?$basic_appender@_W@23@Vloc_value@23@ABUformat_specs@23@Ulocale_ref@123@@Z
3BA10 54 __unwindfunclet$?query_object@@YA?AV?$unique_ptr@$$BY0A@DU?$default_delete@$$BY0A@D@std@@@std@@PAXW4_OBJECT_INFORMATION_CLASS@@@Z$0
3BA1D 54 __ehhandler$?query_object@@YA?AV?$unique_ptr@$$BY0A@DU?$default_delete@$$BY0A@D@std@@@std@@PAXW4_OBJECT_INFORMATION_CLASS@@@Z
3BA40 54 __unwindfunclet$?GetFileName@@YA?AV?$basic_string@_WU?$char_traits@_W@std@@V?$allocator@_W@2@@std@@PAX@Z$0
3BA48 54 __unwindfunclet$?GetFileName@@YA?AV?$basic_string@_WU?$char_traits@_W@std@@V?$allocator@_W@2@@std@@PAX@Z$2
3BA55 54 __ehhandler$?GetFileName@@YA?AV?$basic_string@_WU?$char_traits@_W@std@@V?$allocator@_W@2@@std@@PAX@Z
3BA80 54 __unwindfunclet$??R<lambda_1>@?1??GetUserAccountID@@YA@XZ@QBE?AV?$basic_string@_WU?$char_traits@_W@std@@V?$allocator@_W@2@@std@@XZ$1
3BA8B 54 __unwindfunclet$??R<lambda_1>@?1??GetUserAccountID@@YA@XZ@QBE?AV?$basic_string@_WU?$char_traits@_W@std@@V?$allocator@_W@2@@std@@XZ$2
3BA96 54 __unwindfunclet$??R<lambda_1>@?1??GetUserAccountID@@YA@XZ@QBE?AV?$basic_string@_WU?$char_traits@_W@std@@V?$allocator@_W@2@@std@@XZ$3
3BAA6 54 __ehhandler$??R<lambda_1>@?1??GetUserAccountID@@YA@XZ@QBE?AV?$basic_string@_WU?$char_traits@_W@std@@V?$allocator@_W@2@@std@@XZ
3BAD0 54 __unwindfunclet$?GetNameByType@@YA?AV?$basic_string@_WU?$char_traits@_W@std@@V?$allocator@_W@2@@std@@PAXGPAVPerfThread@@@Z$1
3BADB 54 __unwindfunclet$?GetNameByType@@YA?AV?$basic_string@_WU?$char_traits@_W@std@@V?$allocator@_W@2@@std@@PAXGPAVPerfThread@@@Z$2
3BAE6 54 __unwindfunclet$?GetNameByType@@YA?AV?$basic_string@_WU?$char_traits@_W@std@@V?$allocator@_W@2@@std@@PAXGPAVPerfThread@@@Z$22
3BAF4 54 __unwindfunclet$?GetNameByType@@YA?AV?$basic_string@_WU?$char_traits@_W@std@@V?$allocator@_W@2@@std@@PAXGPAVPerfThread@@@Z$3
3BB01 54 __ehhandler$?GetNameByType@@YA?AV?$basic_string@_WU?$char_traits@_W@std@@V?$allocator@_W@2@@std@@PAXGPAVPerfThread@@@Z
3BB30 54 __unwindfunclet$?PrintHandleInfo@@YA_NKPAX_NPAVPerfThread@@@Z$0
3BB3B 54 __unwindfunclet$?PrintHandleInfo@@YA_NKPAX_NPAVPerfThread@@@Z$3
3BB43 54 __unwindfunclet$?PrintHandleInfo@@YA_NKPAX_NPAVPerfThread@@@Z$8
3BB4B 54 __unwindfunclet$?PrintHandleInfo@@YA_NKPAX_NPAVPerfThread@@@Z$5
3BB53 54 __unwindfunclet$?PrintHandleInfo@@YA_NKPAX_NPAVPerfThread@@@Z$6
3BB60 54 __ehhandler$?PrintHandleInfo@@YA_NKPAX_NPAVPerfThread@@@Z
3BB90 54 __unwindfunclet$??$vformat@_W$0A@@v11@fmt@@YA?AV?$basic_string@_WU?$char_traits@_W@std@@V?$allocator@_W@2@@std@@V?$basic_string_view@_W@01@V?$basic_format_args@V?$generic_context@V?$basic_appender@_W@v11@fmt@@_W@v11@fmt@@@01@@Z$0
3BBA0 54 __ehhandler$??$vformat@_W$0A@@v11@fmt@@YA?AV?$basic_string@_WU?$char_traits@_W@std@@V?$allocator@_W@2@@std@@V?$basic_string_view@_W@01@V?$basic_format_args@V?$generic_context@V?$basic_appender@_W@v11@fmt@@_W@v11@fmt@@@01@@Z
3BBD0 54 __unwindfunclet$??$visit@AAU?$loc_writer@_W@detail@v11@fmt@@@?$basic_format_arg@Vcontext@v11@fmt@@@v11@fmt@@QBE_NAAU?$loc_writer@_W@detail@12@@Z$0
3BBD8 54 __unwindfunclet$??$visit@AAU?$loc_writer@_W@detail@v11@fmt@@@?$basic_format_arg@Vcontext@v11@fmt@@@v11@fmt@@QBE_NAAU?$loc_writer@_W@detail@12@@Z$2
3BBE0 54 __unwindfunclet$??$visit@AAU?$loc_writer@_W@detail@v11@fmt@@@?$basic_format_arg@Vcontext@v11@fmt@@@v11@fmt@@QBE_NAAU?$loc_writer@_W@detail@12@@Z$14
3BBE8 54 __unwindfunclet$??$visit@AAU?$loc_writer@_W@detail@v11@fmt@@@?$basic_format_arg@Vcontext@v11@fmt@@@v11@fmt@@QBE_NAAU?$loc_writer@_W@detail@12@@Z$16
3BBF5 54 __ehhandler$??$visit@AAU?$loc_writer@_W@detail@v11@fmt@@@?$basic_format_arg@Vcontext@v11@fmt@@@v11@fmt@@QBE_NAAU?$loc_writer@_W@detail@12@@Z
3BC20 54 __unwindfunclet$??$?RH$0A@@?$loc_writer@_W@detail@v11@fmt@@QAE_NH@Z$0
3BC28 54 __unwindfunclet$??$?RH$0A@@?$loc_writer@_W@detail@v11@fmt@@QAE_NH@Z$2
3BC35 54 __ehhandler$??$?RH$0A@@?$loc_writer@_W@detail@v11@fmt@@QAE_NH@Z
3BC60 54 __unwindfunclet$??$?R_J$0A@@?$loc_writer@_W@detail@v11@fmt@@QAE_N_J@Z$0
3BC68 54 __unwindfunclet$??$?R_J$0A@@?$loc_writer@_W@detail@v11@fmt@@QAE_N_J@Z$2
3BC75 54 __ehhandler$??$?R_J$0A@@?$loc_writer@_W@detail@v11@fmt@@QAE_N_J@Z
3BCA0 54 __unwindfunclet$??$write_int@V?$basic_appender@_W@v11@fmt@@_K_W@detail@v11@fmt@@YA?AV?$basic_appender@_W@12@V312@_KIABUformat_specs@12@ABV?$digit_grouping@_W@012@@Z$0
3BCB0 54 __ehhandler$??$write_int@V?$basic_appender@_W@v11@fmt@@_K_W@detail@v11@fmt@@YA?AV?$basic_appender@_W@12@V312@_KIABUformat_specs@12@ABV?$digit_grouping@_W@012@@Z
3BCE0 54 __unwindfunclet$??$apply@V?$basic_appender@_W@v11@fmt@@D@?$digit_grouping@_W@detail@v11@fmt@@QBE?AV?$basic_appender@_W@23@V423@V?$basic_string_view@D@23@@Z$0
3BCF0 54 __ehhandler$??$apply@V?$basic_appender@_W@v11@fmt@@D@?$digit_grouping@_W@detail@v11@fmt@@QBE?AV?$basic_appender@_W@23@V423@V?$basic_string_view@D@23@@Z
3BD20 54 __unwindfunclet$??$write_float@_WV?$basic_appender@_W@v11@fmt@@M@detail@v11@fmt@@YA?AV?$basic_appender@_W@12@V312@MUformat_specs@12@Ulocale_ref@012@@Z$0
3BD30 54 __ehhandler$??$write_float@_WV?$basic_appender@_W@v11@fmt@@M@detail@v11@fmt@@YA?AV?$basic_appender@_W@12@V312@MUformat_specs@12@Ulocale_ref@012@@Z
3BD60 54 __unwindfunclet$??$write_float@_WV?$basic_appender@_W@v11@fmt@@N@detail@v11@fmt@@YA?AV?$basic_appender@_W@12@V312@NUformat_specs@12@Ulocale_ref@012@@Z$0
3BD70 54 __ehhandler$??$write_float@_WV?$basic_appender@_W@v11@fmt@@N@detail@v11@fmt@@YA?AV?$basic_appender@_W@12@V312@NUformat_specs@12@Ulocale_ref@012@@Z
3BDA0 54 __unwindfunclet$??$do_write_float@_WV?$basic_appender@_W@v11@fmt@@U?$decimal_fp@M@dragonbox@detail@23@V?$digit_grouping@_W@623@@detail@v11@fmt@@YA?AV?$basic_appender@_W@12@V312@ABU?$decimal_fp@M@dragonbox@012@ABUformat_specs@12@W4sign@12@HUlocale_ref@012@@Z$0
3BDA8 54 __unwindfunclet$??$do_write_float@_WV?$basic_appender@_W@v11@fmt@@U?$decimal_fp@M@dragonbox@detail@23@V?$digit_grouping@_W@623@@detail@v11@fmt@@YA?AV?$basic_appender@_W@12@V312@ABU?$decimal_fp@M@dragonbox@012@ABUformat_specs@12@W4sign@12@HUlocale_ref@012@@Z$1
3BDB5 54 __ehhandler$??$do_write_float@_WV?$basic_appender@_W@v11@fmt@@U?$decimal_fp@M@dragonbox@detail@23@V?$digit_grouping@_W@623@@detail@v11@fmt@@YA?AV?$basic_appender@_W@12@V312@ABU?$decimal_fp@M@dragonbox@012@ABUformat_specs@12@W4sign@12@HUlocale_ref@012@@Z
3BDE0 54 __unwindfunclet$??R<lambda_3>@?BD@???$do_write_float@_WV?$basic_appender@_W@v11@fmt@@U?$decimal_fp@M@dragonbox@detail@23@V?$digit_grouping@_W@623@@detail@v11@fmt@@YA?AV?$basic_appender@_W@23@V423@ABU?$decimal_fp@M@dragonbox@123@ABUformat_specs@23@W4sign@23@HUlocale_ref@123@@Z@QBE@0@Z$0
3BDF0 54 __ehhandler$??R<lambda_3>@?BD@???$do_write_float@_WV?$basic_appender@_W@v11@fmt@@U?$decimal_fp@M@dragonbox@detail@23@V?$digit_grouping@_W@623@@detail@v11@fmt@@YA?AV?$basic_appender@_W@23@V423@ABU?$decimal_fp@M@dragonbox@123@ABUformat_specs@23@W4sign@23@HUlocale_ref@123@@Z@QBE@0@Z
3BE20 54 __unwindfunclet$??$do_write_float@_WV?$basic_appender@_W@v11@fmt@@U?$decimal_fp@N@dragonbox@detail@23@V?$digit_grouping@_W@623@@detail@v11@fmt@@YA?AV?$basic_appender@_W@12@V312@ABU?$decimal_fp@N@dragonbox@012@ABUformat_specs@12@W4sign@12@HUlocale_ref@012@@Z$0
3BE28 54 __unwindfunclet$??$do_write_float@_WV?$basic_appender@_W@v11@fmt@@U?$decimal_fp@N@dragonbox@detail@23@V?$digit_grouping@_W@623@@detail@v11@fmt@@YA?AV?$basic_appender@_W@12@V312@ABU?$decimal_fp@N@dragonbox@012@ABUformat_specs@12@W4sign@12@HUlocale_ref@012@@Z$1
3BE35 54 __ehhandler$??$do_write_float@_WV?$basic_appender@_W@v11@fmt@@U?$decimal_fp@N@dragonbox@detail@23@V?$digit_grouping@_W@623@@detail@v11@fmt@@YA?AV?$basic_appender@_W@12@V312@ABU?$decimal_fp@N@dragonbox@012@ABUformat_specs@12@W4sign@12@HUlocale_ref@012@@Z
3BE60 54 __unwindfunclet$??R<lambda_3>@?BD@???$do_write_float@_WV?$basic_appender@_W@v11@fmt@@Ubig_decimal_fp@detail@23@V?$digit_grouping@_W@523@@detail@v11@fmt@@YA?AV?$basic_appender@_W@23@V423@ABUbig_decimal_fp@123@ABUformat_specs@23@W4sign@23@HUlocale_ref@123@@Z@QBE@0@Z$0
3BE70 54 __ehhandler$??R<lambda_3>@?BD@???$do_write_float@_WV?$basic_appender@_W@v11@fmt@@Ubig_decimal_fp@detail@23@V?$digit_grouping@_W@523@@detail@v11@fmt@@YA?AV?$basic_appender@_W@23@V423@ABUbig_decimal_fp@123@ABUformat_specs@23@W4sign@23@HUlocale_ref@123@@Z@QBE@0@Z
3BEA0 54 __unwindfunclet$??$write_padded@_W$01V?$basic_appender@_W@v11@fmt@@AAV<lambda_4>@?BO@???$do_write_float@_WV?$basic_appender@_W@v11@fmt@@U?$decimal_fp@M@dragonbox@detail@23@V?$digit_grouping@_W@623@@detail@23@YA?AV123@V123@ABU?$decimal_fp@M@dragonbox@523@ABUformat_specs@23@W4sign@23@HUlocale_ref@523@@Z@@detail@v11@fmt@@YA?AV?$basic_appender@_W@12@V312@ABUformat_specs@12@IIAAV<lambda_4>@?BO@???$do_write_float@_WV?$basic_appender@_W@v11@fmt@@U?$decimal_fp@M@dragonbox@detail@23@V?$digit_grouping@_W@623@@012@YA?AV312@0ABU?$decimal_fp@M@dragonbox@012@1W4sign@12@HUlocale_ref@012@@Z@@Z$0
3BEB0 54 __ehhandler$??$write_padded@_W$01V?$basic_appender@_W@v11@fmt@@AAV<lambda_4>@?BO@???$do_write_float@_WV?$basic_appender@_W@v11@fmt@@U?$decimal_fp@M@dragonbox@detail@23@V?$digit_grouping@_W@623@@detail@23@YA?AV123@V123@ABU?$decimal_fp@M@dragonbox@523@ABUformat_specs@23@W4sign@23@HUlocale_ref@523@@Z@@detail@v11@fmt@@YA?AV?$basic_appender@_W@12@V312@ABUformat_specs@12@IIAAV<lambda_4>@?BO@???$do_write_float@_WV?$basic_appender@_W@v11@fmt@@U?$decimal_fp@M@dragonbox@detail@23@V?$digit_grouping@_W@623@@012@YA?AV312@0ABU?$decimal_fp@M@dragonbox@012@1W4sign@12@HUlocale_ref@012@@Z@@Z
3BEE0 54 __unwindfunclet$??$?0Ulocale_ref@detail@v11@fmt@@$0A@@?$digit_grouping@_W@detail@v11@fmt@@QAE@Ulocale_ref@123@_N@Z$0
3BEE8 54 __unwindfunclet$??$?0Ulocale_ref@detail@v11@fmt@@$0A@@?$digit_grouping@_W@detail@v11@fmt@@QAE@Ulocale_ref@123@_N@Z$1
3BEF3 54 __unwindfunclet$??$?0Ulocale_ref@detail@v11@fmt@@$0A@@?$digit_grouping@_W@detail@v11@fmt@@QAE@Ulocale_ref@123@_N@Z$10
3BEFB 54 __unwindfunclet$??$?0Ulocale_ref@detail@v11@fmt@@$0A@@?$digit_grouping@_W@detail@v11@fmt@@QAE@Ulocale_ref@123@_N@Z$11
3BF03 54 __unwindfunclet$??$?0Ulocale_ref@detail@v11@fmt@@$0A@@?$digit_grouping@_W@detail@v11@fmt@@QAE@Ulocale_ref@123@_N@Z$2
3BF10 54 __ehhandler$??$?0Ulocale_ref@detail@v11@fmt@@$0A@@?$digit_grouping@_W@detail@v11@fmt@@QAE@Ulocale_ref@123@_N@Z
3BF40 54 __unwindfunclet$??$write_padded@_W$01V?$basic_appender@_W@v11@fmt@@AAV<lambda_4>@?BO@???$do_write_float@_WV?$basic_appender@_W@v11@fmt@@U?$decimal_fp@N@dragonbox@detail@23@V?$digit_grouping@_W@623@@detail@23@YA?AV123@V123@ABU?$decimal_fp@N@dragonbox@523@ABUformat_specs@23@W4sign@23@HUlocale_ref@523@@Z@@detail@v11@fmt@@YA?AV?$basic_appender@_W@12@V312@ABUformat_specs@12@IIAAV<lambda_4>@?BO@???$do_write_float@_WV?$basic_appender@_W@v11@fmt@@U?$decimal_fp@N@dragonbox@detail@23@V?$digit_grouping@_W@623@@012@YA?AV312@0ABU?$decimal_fp@N@dragonbox@012@1W4sign@12@HUlocale_ref@012@@Z@@Z$0
3BF50 54 __ehhandler$??$write_padded@_W$01V?$basic_appender@_W@v11@fmt@@AAV<lambda_4>@?BO@???$do_write_float@_WV?$basic_appender@_W@v11@fmt@@U?$decimal_fp@N@dragonbox@detail@23@V?$digit_grouping@_W@623@@detail@23@YA?AV123@V123@ABU?$decimal_fp@N@dragonbox@523@ABUformat_specs@23@W4sign@23@HUlocale_ref@523@@Z@@detail@v11@fmt@@YA?AV?$basic_appender@_W@12@V312@ABUformat_specs@12@IIAAV<lambda_4>@?BO@???$do_write_float@_WV?$basic_appender@_W@v11@fmt@@U?$decimal_fp@N@dragonbox@detail@23@V?$digit_grouping@_W@623@@012@YA?AV312@0ABU?$decimal_fp@N@dragonbox@012@1W4sign@12@HUlocale_ref@012@@Z@@Z
3BF80 44 __ehhandler$??1PluginSettings@@QAE@XZ
3BFA0 44 __ehhandler$??1PluginDialogBuilder@@QAE@XZ
3BFC0 44 __unwindfunclet$?Config@@YAHXZ$0
3BFCB 44 __unwindfunclet$?Config@@YAHXZ$1
3BFDB 44 __ehhandler$?Config@@YAHXZ
3C010 44 __unwindfunclet$?Read@options@@QAEXXZ$0
3C01D 44 __ehhandler$?Read@options@@QAEXXZ
3C050 45 __unwindfunclet$?ui64toa_width@@YA?AV?$basic_string@_WU?$char_traits@_W@std@@V?$allocator@_W@2@@std@@_KI_N@Z$0
3C05D 45 __ehhandler$?ui64toa_width@@YA?AV?$basic_string@_WU?$char_traits@_W@std@@V?$allocator@_W@2@@std@@_KI_N@Z
3C090 45 __unwindfunclet$?PrintTitle@@YA?AV?$basic_string@_WU?$char_traits@_W@std@@V?$allocator@_W@2@@std@@V?$basic_string_view@_WU?$char_traits@_W@std@@@2@@Z$0
3C09D 45 __ehhandler$?PrintTitle@@YA?AV?$basic_string@_WU?$char_traits@_W@std@@V?$allocator@_W@2@@std@@V?$basic_string_view@_WU?$char_traits@_W@std@@@2@@Z
3C0D0 45 __unwindfunclet$??0Plist@@QAE@XZ$0
3C0DB 45 __unwindfunclet$??0Plist@@QAE@XZ$1
3C0E6 45 __unwindfunclet$??0Plist@@QAE@XZ$2
3C0F1 45 __unwindfunclet$??0Plist@@QAE@XZ$3
3C0F9 45 __unwindfunclet$??0Plist@@QAE@XZ$9
3C110 45 __ehhandler$??0Plist@@QAE@XZ
3C140 45 __unwindfunclet$?TranslateMode@@YA_NABV?$basic_string@_WU?$char_traits@_W@std@@V?$allocator@_W@2@@std@@AAV12@@Z$0
3C14D 45 __ehhandler$?TranslateMode@@YA_NABV?$basic_string@_WU?$char_traits@_W@std@@V?$allocator@_W@2@@std@@AAV12@@Z
3C180 45 __unwindfunclet$?InitializePanelModes@Plist@@SAXXZ$0
3C18B 45 __unwindfunclet$?InitializePanelModes@Plist@@SAXXZ$8
3C196 45 __unwindfunclet$?InitializePanelModes@Plist@@SAXXZ$9
3C1A1 45 __unwindfunclet$?InitializePanelModes@Plist@@SAXXZ$17
3C1AC 45 __unwindfunclet$?InitializePanelModes@Plist@@SAXXZ$18
3C1B7 45 __unwindfunclet$?InitializePanelModes@Plist@@SAXXZ$26
3C1C2 45 __unwindfunclet$?InitializePanelModes@Plist@@SAXXZ$27
3C1CD 45 __unwindfunclet$?InitializePanelModes@Plist@@SAXXZ$35
3C1D8 45 __unwindfunclet$?InitializePanelModes@Plist@@SAXXZ$36
3C1E3 45 __unwindfunclet$?InitializePanelModes@Plist@@SAXXZ$44
3C1EE 45 __unwindfunclet$?InitializePanelModes@Plist@@SAXXZ$45
3C1F9 45 __unwindfunclet$?InitializePanelModes@Plist@@SAXXZ$53
3C204 45 __unwindfunclet$?InitializePanelModes@Plist@@SAXXZ$54
3C20F 45 __unwindfunclet$?InitializePanelModes@Plist@@SAXXZ$62
3C21A 45 __unwindfunclet$?InitializePanelModes@Plist@@SAXXZ$63
3C225 45 __unwindfunclet$?InitializePanelModes@Plist@@SAXXZ$71
3C230 45 __unwindfunclet$?InitializePanelModes@Plist@@SAXXZ$72
3C23B 45 __unwindfunclet$?InitializePanelModes@Plist@@SAXXZ$80
3C246 45 __unwindfunclet$?InitializePanelModes@Plist@@SAXXZ$81
3C251 45 __unwindfunclet$?InitializePanelModes@Plist@@SAXXZ$90
3C26A 45 __unwindfunclet$?InitializePanelModes@Plist@@SAXXZ$91
3C275 45 __unwindfunclet$?InitializePanelModes@Plist@@SAXXZ$99
3C280 45 __unwindfunclet$?InitializePanelModes@Plist@@SAXXZ$100
3C28B 45 __unwindfunclet$?InitializePanelModes@Plist@@SAXXZ$108
3C296 45 __unwindfunclet$?InitializePanelModes@Plist@@SAXXZ$109
3C2A1 45 __unwindfunclet$?InitializePanelModes@Plist@@SAXXZ$117
3C2AC 45 __unwindfunclet$?InitializePanelModes@Plist@@SAXXZ$118
3C2B7 45 __unwindfunclet$?InitializePanelModes@Plist@@SAXXZ$126
3C2C2 45 __unwindfunclet$?InitializePanelModes@Plist@@SAXXZ$127
3C2CD 45 __unwindfunclet$?InitializePanelModes@Plist@@SAXXZ$135
3C2D8 45 __unwindfunclet$?InitializePanelModes@Plist@@SAXXZ$136
3C2E3 45 __unwindfunclet$?InitializePanelModes@Plist@@SAXXZ$144
3C2EE 45 __unwindfunclet$?InitializePanelModes@Plist@@SAXXZ$145
3C2F9 45 __unwindfunclet$?InitializePanelModes@Plist@@SAXXZ$153
3C304 45 __unwindfunclet$?InitializePanelModes@Plist@@SAXXZ$154
3C30F 45 __unwindfunclet$?InitializePanelModes@Plist@@SAXXZ$162
3C31A 45 __unwindfunclet$?InitializePanelModes@Plist@@SAXXZ$163
3C325 45 __unwindfunclet$?InitializePanelModes@Plist@@SAXXZ$171
3C330 45 __unwindfunclet$?InitializePanelModes@Plist@@SAXXZ$172
3C33B 45 __unwindfunclet$?InitializePanelModes@Plist@@SAXXZ$181
3C354 45 __unwindfunclet$?InitializePanelModes@Plist@@SAXXZ$182
3C35F 45 __unwindfunclet$?InitializePanelModes@Plist@@SAXXZ$183
3C36C 45 __ehhandler$?InitializePanelModes@Plist@@SAXXZ
3C3A0 45 __unwindfunclet$?SavePanelModes@Plist@@SAXXZ$0
3C3A8 45 __unwindfunclet$?SavePanelModes@Plist@@SAXXZ$1
3C3B5 45 __ehhandler$?SavePanelModes@Plist@@SAXXZ
3C3E0 45 __unwindfunclet$?generate_titles@@YAXABV?$basic_string@_WU?$char_traits@_W@std@@V?$allocator@_W@2@@std@@AAUPanelMode@@@Z$0
3C3ED 45 __ehhandler$?generate_titles@@YAXABV?$basic_string@_WU?$char_traits@_W@std@@V?$allocator@_W@2@@std@@AAUPanelMode@@@Z
3C410 45 __unwindfunclet$?GetOpenPanelInfo@Plist@@QAEXPAUOpenPanelInfo@@@Z$0
3C41D 45 __ehhandler$?GetOpenPanelInfo@Plist@@QAEXPAUOpenPanelInfo@@@Z
3C450 45 __unwindfunclet$?GetFindData@Plist@@QAEHAAPAUPluginPanelItem@@AAI_K@Z$0
3C45B 45 __unwindfunclet$?GetFindData@Plist@@QAEHAAPAUPluginPanelItem@@AAI_K@Z$1
3C466 45 __unwindfunclet$?GetFindData@Plist@@QAEHAAPAUPluginPanelItem@@AAI_K@Z$36
3C471 45 __unwindfunclet$?GetFindData@Plist@@QAEHAAPAUPluginPanelItem@@AAI_K@Z$37
3C47C 45 __unwindfunclet$?GetFindData@Plist@@QAEHAAPAUPluginPanelItem@@AAI_K@Z$2
3C487 45 __unwindfunclet$?GetFindData@Plist@@QAEHAAPAUPluginPanelItem@@AAI_K@Z$3
3C492 45 __unwindfunclet$?GetFindData@Plist@@QAEHAAPAUPluginPanelItem@@AAI_K@Z$4
3C49D 45 __unwindfunclet$?GetFindData@Plist@@QAEHAAPAUPluginPanelItem@@AAI_K@Z$5
3C4A8 45 __unwindfunclet$?GetFindData@Plist@@QAEHAAPAUPluginPanelItem@@AAI_K@Z$6
3C4B3 45 __unwindfunclet$?GetFindData@Plist@@QAEHAAPAUPluginPanelItem@@AAI_K@Z$7
3C4BE 45 __unwindfunclet$?GetFindData@Plist@@QAEHAAPAUPluginPanelItem@@AAI_K@Z$8
3C4CE 45 __ehhandler$?GetFindData@Plist@@QAEHAAPAUPluginPanelItem@@AAI_K@Z
3C500 45 __unwindfunclet$?window_ex_style@@YA@PAUHWND__@@@Z$0
3C50D 45 __ehhandler$?window_ex_style@@YA@PAUHWND__@@@Z
3C540 45 __unwindfunclet$?DumpNTCounters@@YAXPAXAAVPerfThread@@KK@Z$0
3C548 45 __unwindfunclet$?DumpNTCounters@@YAXPAXAAVPerfThread@@KK@Z$3
3C555 45 __ehhandler$?DumpNTCounters@@YAXPAXAAVPerfThread@@KK@Z
3C580 45 __unwindfunclet$?GetFiles@Plist@@QAEHPAUPluginPanelItem@@IHPAPB_W_KAAUoptions@@@Z$0
3C58B 45 __unwindfunclet$?GetFiles@Plist@@QAEHPAUPluginPanelItem@@IHPAPB_W_KAAUoptions@@@Z$1
3C596 45 __unwindfunclet$?GetFiles@Plist@@QAEHPAUPluginPanelItem@@IHPAPB_W_KAAUoptions@@@Z$2
3C5A1 45 __unwindfunclet$?GetFiles@Plist@@QAEHPAUPluginPanelItem@@IHPAPB_W_KAAUoptions@@@Z$3
3C5AC 45 __unwindfunclet$?GetFiles@Plist@@QAEHPAUPluginPanelItem@@IHPAPB_W_KAAUoptions@@@Z$4
3C5B7 45 __unwindfunclet$?GetFiles@Plist@@QAEHPAUPluginPanelItem@@IHPAPB_W_KAAUoptions@@@Z$6
3C5C2 45 __unwindfunclet$?GetFiles@Plist@@QAEHPAUPluginPanelItem@@IHPAPB_W_KAAUoptions@@@Z$92
3C5CD 45 __unwindfunclet$?GetFiles@Plist@@QAEHPAUPluginPanelItem@@IHPAPB_W_KAAUoptions@@@Z$8
3C5D8 45 __unwindfunclet$?GetFiles@Plist@@QAEHPAUPluginPanelItem@@IHPAPB_W_KAAUoptions@@@Z$11
3C5E3 45 __unwindfunclet$?GetFiles@Plist@@QAEHPAUPluginPanelItem@@IHPAPB_W_KAAUoptions@@@Z$93
3C5EE 45 __unwindfunclet$?GetFiles@Plist@@QAEHPAUPluginPanelItem@@IHPAPB_W_KAAUoptions@@@Z$95
3C5F9 45 __unwindfunclet$?GetFiles@Plist@@QAEHPAUPluginPanelItem@@IHPAPB_W_KAAUoptions@@@Z$14
3C604 45 __unwindfunclet$?GetFiles@Plist@@QAEHPAUPluginPanelItem@@IHPAPB_W_KAAUoptions@@@Z$16
3C60F 45 __unwindfunclet$?GetFiles@Plist@@QAEHPAUPluginPanelItem@@IHPAPB_W_KAAUoptions@@@Z$20
3C61A 45 __unwindfunclet$?GetFiles@Plist@@QAEHPAUPluginPanelItem@@IHPAPB_W_KAAUoptions@@@Z$18
3C625 45 __unwindfunclet$?GetFiles@Plist@@QAEHPAUPluginPanelItem@@IHPAPB_W_KAAUoptions@@@Z$22
3C630 45 __unwindfunclet$?GetFiles@Plist@@QAEHPAUPluginPanelItem@@IHPAPB_W_KAAUoptions@@@Z$23
3C63B 45 __unwindfunclet$?GetFiles@Plist@@QAEHPAUPluginPanelItem@@IHPAPB_W_KAAUoptions@@@Z$26
3C646 45 __unwindfunclet$?GetFiles@Plist@@QAEHPAUPluginPanelItem@@IHPAPB_W_KAAUoptions@@@Z$27
3C651 45 __unwindfunclet$?GetFiles@Plist@@QAEHPAUPluginPanelItem@@IHPAPB_W_KAAUoptions@@@Z$28
3C65C 45 __unwindfunclet$?GetFiles@Plist@@QAEHPAUPluginPanelItem@@IHPAPB_W_KAAUoptions@@@Z$29
3C667 45 __unwindfunclet$?GetFiles@Plist@@QAEHPAUPluginPanelItem@@IHPAPB_W_KAAUoptions@@@Z$31
3C672 45 __unwindfunclet$?GetFiles@Plist@@QAEHPAUPluginPanelItem@@IHPAPB_W_KAAUoptions@@@Z$33
3C67D 45 __unwindfunclet$?GetFiles@Plist@@QAEHPAUPluginPanelItem@@IHPAPB_W_KAAUoptions@@@Z$35
3C688 45 __unwindfunclet$?GetFiles@Plist@@QAEHPAUPluginPanelItem@@IHPAPB_W_KAAUoptions@@@Z$37
3C693 45 __unwindfunclet$?GetFiles@Plist@@QAEHPAUPluginPanelItem@@IHPAPB_W_KAAUoptions@@@Z$38
3C69E 45 __unwindfunclet$?GetFiles@Plist@@QAEHPAUPluginPanelItem@@IHPAPB_W_KAAUoptions@@@Z$40
3C6A9 45 __unwindfunclet$?GetFiles@Plist@@QAEHPAUPluginPanelItem@@IHPAPB_W_KAAUoptions@@@Z$41
3C6B9 45 __ehhandler$?GetFiles@Plist@@QAEHPAUPluginPanelItem@@IHPAPB_W_KAAUoptions@@@Z
3C6F0 45 __unwindfunclet$?DeleteFiles@Plist@@QAEHPAUPluginPanelItem@@I_K@Z$0
3C6F8 45 __unwindfunclet$?DeleteFiles@Plist@@QAEHPAUPluginPanelItem@@I_K@Z$1
3C700 45 __unwindfunclet$?DeleteFiles@Plist@@QAEHPAUPluginPanelItem@@I_K@Z$4
3C70D 45 __ehhandler$?DeleteFiles@Plist@@QAEHPAUPluginPanelItem@@I_K@Z
3C740 45 __unwindfunclet$?Connect@Plist@@QAE_NPB_W00@Z$0
3C748 45 __unwindfunclet$?Connect@Plist@@QAE_NPB_W00@Z$5
3C75A 45 __unwindfunclet$?Connect@Plist@@QAE_NPB_W00@Z$1
3C767 45 __ehhandler$?Connect@Plist@@QAE_NPB_W00@Z
3C790 45 __unwindfunclet$?ProcessKey@Plist@@QAEHPBU_INPUT_RECORD@@@Z$0
3C79B 45 __unwindfunclet$?ProcessKey@Plist@@QAEHPBU_INPUT_RECORD@@@Z$1
3C7A6 45 __unwindfunclet$?ProcessKey@Plist@@QAEHPBU_INPUT_RECORD@@@Z$5
3C7B1 45 __unwindfunclet$?ProcessKey@Plist@@QAEHPBU_INPUT_RECORD@@@Z$17
3C7C6 45 __unwindfunclet$?ProcessKey@Plist@@QAEHPBU_INPUT_RECORD@@@Z$2
3C7D1 45 __unwindfunclet$?ProcessKey@Plist@@QAEHPBU_INPUT_RECORD@@@Z$3
3C7DC 45 __unwindfunclet$?ProcessKey@Plist@@QAEHPBU_INPUT_RECORD@@@Z$4
3C7E7 45 __unwindfunclet$?ProcessKey@Plist@@QAEHPBU_INPUT_RECORD@@@Z$8
3C7F2 45 __unwindfunclet$?ProcessKey@Plist@@QAEHPBU_INPUT_RECORD@@@Z$9
3C7FD 45 __unwindfunclet$?ProcessKey@Plist@@QAEHPBU_INPUT_RECORD@@@Z$10
3C808 45 __unwindfunclet$?ProcessKey@Plist@@QAEHPBU_INPUT_RECORD@@@Z$11
3C813 45 __unwindfunclet$?ProcessKey@Plist@@QAEHPBU_INPUT_RECORD@@@Z$206
3C81E 45 __unwindfunclet$?ProcessKey@Plist@@QAEHPBU_INPUT_RECORD@@@Z$12
3C829 45 __unwindfunclet$?ProcessKey@Plist@@QAEHPBU_INPUT_RECORD@@@Z$13
3C834 45 __unwindfunclet$?ProcessKey@Plist@@QAEHPBU_INPUT_RECORD@@@Z$14
3C83F 45 __unwindfunclet$?ProcessKey@Plist@@QAEHPBU_INPUT_RECORD@@@Z$15
3C861 45 __unwindfunclet$?ProcessKey@Plist@@QAEHPBU_INPUT_RECORD@@@Z$16
3C888 45 __ehhandler$?ProcessKey@Plist@@QAEHPBU_INPUT_RECORD@@@Z
3C8C0 45 __unwindfunclet$?GetVersionInfo@Plist@@SA_NPB_WAAV?$unique_ptr@$$BY0A@DU?$default_delete@$$BY0A@D@std@@@std@@AAPB_W2@Z$1
3C8C8 45 __unwindfunclet$?GetVersionInfo@Plist@@SA_NPB_WAAV?$unique_ptr@$$BY0A@DU?$default_delete@$$BY0A@D@std@@@std@@AAPB_W2@Z$2
3C8D0 45 __unwindfunclet$?GetVersionInfo@Plist@@SA_NPB_WAAV?$unique_ptr@$$BY0A@DU?$default_delete@$$BY0A@D@std@@@std@@AAPB_W2@Z$4
3C8DD 45 __ehhandler$?GetVersionInfo@Plist@@SA_NPB_WAAV?$unique_ptr@$$BY0A@DU?$default_delete@$$BY0A@D@std@@@std@@AAPB_W2@Z
3C910 45 __unwindfunclet$?PrintOwnerInfo@Plist@@AAEXPAXK@Z$0
3C918 45 __unwindfunclet$?PrintOwnerInfo@Plist@@AAEXPAXK@Z$1
3C920 45 __unwindfunclet$?PrintOwnerInfo@Plist@@AAEXPAXK@Z$2
3C928 45 __unwindfunclet$?PrintOwnerInfo@Plist@@AAEXPAXK@Z$6
3C938 45 __ehhandler$?PrintOwnerInfo@Plist@@AAEXPAXK@Z
3C970 45 __unwindfunclet$?Compare@Plist@@QBEHPBUPluginPanelItem@@0I@Z$0
3C978 45 __unwindfunclet$?Compare@Plist@@QBEHPBUPluginPanelItem@@0I@Z$1
3C985 45 __ehhandler$?Compare@Plist@@QBEHPBUPluginPanelItem@@0I@Z
3C9B0 45 __ehhandler$??1?$unique_ptr@VWMIConnection@@U?$default_delete@VWMIConnection@@@std@@@std@@QAE@XZ
3C9D0 45 __unwindfunclet$??$make_unique@VPerfThread@@PAVPlist@@$0A@@std@@YA?AV?$unique_ptr@VPerfThread@@U?$default_delete@VPerfThread@@@std@@@0@$$QAPAVPlist@@@Z$0
3C9E7 45 __ehhandler$??$make_unique@VPerfThread@@PAVPlist@@$0A@@std@@YA?AV?$unique_ptr@VPerfThread@@U?$default_delete@VPerfThread@@@std@@@0@$$QAPAVPlist@@@Z
3CA10 45 __unwindfunclet$??$_Try_emplace@ABK$$V@?$_Hash@V?$_Umap_traits@KPAUHWND__@@V?$_Uhash_compare@KU?$hash@K@std@@U?$equal_to@K@2@@std@@V?$allocator@U?$pair@$$CBKPAUHWND__@@@std@@@3@$0A@@std@@@std@@IAE?AU?$pair@PAU?$_List_node@U?$pair@$$CBKPAUHWND__@@@std@@PAX@std@@_N@1@ABK@Z$1
3CA18 45 __unwindfunclet$??$_Try_emplace@ABK$$V@?$_Hash@V?$_Umap_traits@KPAUHWND__@@V?$_Uhash_compare@KU?$hash@K@std@@U?$equal_to@K@2@@std@@V?$allocator@U?$pair@$$CBKPAUHWND__@@@std@@@3@$0A@@std@@@std@@IAE?AU?$pair@PAU?$_List_node@U?$pair@$$CBKPAUHWND__@@@std@@PAX@std@@_N@1@ABK@Z$0
3CA25 45 __ehhandler$??$_Try_emplace@ABK$$V@?$_Hash@V?$_Umap_traits@KPAUHWND__@@V?$_Uhash_compare@KU?$hash@K@std@@U?$equal_to@K@2@@std@@V?$allocator@U?$pair@$$CBKPAUHWND__@@@std@@@3@$0A@@std@@@std@@IAE?AU?$pair@PAU?$_List_node@U?$pair@$$CBKPAUHWND__@@@std@@PAX@std@@_N@1@ABK@Z
3CA50 45 __unwindfunclet$??$_Uninitialized_copy_n@PBUmode@@V?$allocator@Umode@@@std@@@std@@YAPAUmode@@PBU1@IPAU1@AAV?$allocator@Umode@@@0@@Z$0
3CA58 45 __unwindfunclet$??$_Uninitialized_copy_n@PBUmode@@V?$allocator@Umode@@@std@@@std@@YAPAUmode@@PBU1@IPAU1@AAV?$allocator@Umode@@@0@@Z$3
3CA60 45 __unwindfunclet$??$_Uninitialized_copy_n@PBUmode@@V?$allocator@Umode@@@std@@@std@@YAPAUmode@@PBU1@IPAU1@AAV?$allocator@Umode@@@0@@Z$4
3CA6B 45 __unwindfunclet$??$_Uninitialized_copy_n@PBUmode@@V?$allocator@Umode@@@std@@@std@@YAPAUmode@@PBU1@IPAU1@AAV?$allocator@Umode@@@0@@Z$1
3CA73 45 __unwindfunclet$??$_Uninitialized_copy_n@PBUmode@@V?$allocator@Umode@@@std@@@std@@YAPAUmode@@PBU1@IPAU1@AAV?$allocator@Umode@@@0@@Z$6
3CA7B 45 __unwindfunclet$??$_Uninitialized_copy_n@PBUmode@@V?$allocator@Umode@@@std@@@std@@YAPAUmode@@PBU1@IPAU1@AAV?$allocator@Umode@@@0@@Z$7
3CA8B 45 __ehhandler$??$_Uninitialized_copy_n@PBUmode@@V?$allocator@Umode@@@std@@@std@@YAPAUmode@@PBU1@IPAU1@AAV?$allocator@Umode@@@0@@Z
3CAB0 262 __unwindfunclet$??0PerfThread@@QAE@PAVPlist@@PB_W11@Z$15
3CABE 262 __unwindfunclet$??0PerfThread@@QAE@PAVPlist@@PB_W11@Z$0
3CAC9 262 __unwindfunclet$??0PerfThread@@QAE@PAVPlist@@PB_W11@Z$1
3CAD4 262 __unwindfunclet$??0PerfThread@@QAE@PAVPlist@@PB_W11@Z$2
3CADF 262 __unwindfunclet$??0PerfThread@@QAE@PAVPlist@@PB_W11@Z$3
3CAEA 262 __unwindfunclet$??0PerfThread@@QAE@PAVPlist@@PB_W11@Z$4
3CAF5 262 __unwindfunclet$??0PerfThread@@QAE@PAVPlist@@PB_W11@Z$5
3CB00 262 __unwindfunclet$??0PerfThread@@QAE@PAVPlist@@PB_W11@Z$6
3CB0B 262 __unwindfunclet$??0PerfThread@@QAE@PAVPlist@@PB_W11@Z$7
3CB16 262 __unwindfunclet$??0PerfThread@@QAE@PAVPlist@@PB_W11@Z$8
3CB21 262 __unwindfunclet$??0PerfThread@@QAE@PAVPlist@@PB_W11@Z$9
3CB2F 262 __unwindfunclet$??0PerfThread@@QAE@PAVPlist@@PB_W11@Z$10
3CB3D 262 __unwindfunclet$??0PerfThread@@QAE@PAVPlist@@PB_W11@Z$11
3CB4B 262 __unwindfunclet$??0PerfThread@@QAE@PAVPlist@@PB_W11@Z$12
3CB53 262 __unwindfunclet$??0PerfThread@@QAE@PAVPlist@@PB_W11@Z$13
3CB60 262 __ehhandler$??0PerfThread@@QAE@PAVPlist@@PB_W11@Z
3CB90 262 __ehhandler$??1PerfThread@@QAE@XZ
3CBB0 262 __unwindfunclet$?RefreshImpl@PerfThread@@AAE_NXZ$0
3CBBB 262 __unwindfunclet$?RefreshImpl@PerfThread@@AAE_NXZ$1
3CBC6 262 __unwindfunclet$?RefreshImpl@PerfThread@@AAE_NXZ$2
3CBD6 262 __ehhandler$?RefreshImpl@PerfThread@@AAE_NXZ
3CC00 262 __unwindfunclet$??R<lambda_1>@?1??RefreshImpl@PerfThread@@AAE_NXZ@QBE@PBU_PERF_COUNTER_BLOCK@@V?$basic_string_view@_WU?$char_traits@_W@std@@@std@@@Z$4
3CC0B 262 __unwindfunclet$??R<lambda_1>@?1??RefreshImpl@PerfThread@@AAE_NXZ@QBE@PBU_PERF_COUNTER_BLOCK@@V?$basic_string_view@_WU?$char_traits@_W@std@@@std@@@Z$22
3CC16 262 __unwindfunclet$??R<lambda_1>@?1??RefreshImpl@PerfThread@@AAE_NXZ@QBE@PBU_PERF_COUNTER_BLOCK@@V?$basic_string_view@_WU?$char_traits@_W@std@@@std@@@Z$21
3CC21 262 __unwindfunclet$??R<lambda_1>@?1??RefreshImpl@PerfThread@@AAE_NXZ@QBE@PBU_PERF_COUNTER_BLOCK@@V?$basic_string_view@_WU?$char_traits@_W@std@@@std@@@Z$8
3CC31 262 __ehhandler$??R<lambda_1>@?1??RefreshImpl@PerfThread@@AAE_NXZ@QBE@PBU_PERF_COUNTER_BLOCK@@V?$basic_string_view@_WU?$char_traits@_W@std@@@std@@@Z
3CC60 262 __unwindfunclet$?RefreshWMIData@PerfThread@@AAEXXZ$0
3CC6B 262 __unwindfunclet$?RefreshWMIData@PerfThread@@AAEXXZ$1
3CC76 262 __unwindfunclet$?RefreshWMIData@PerfThread@@AAEXXZ$8
3CC81 262 __unwindfunclet$?RefreshWMIData@PerfThread@@AAEXXZ$4
3CC89 262 __unwindfunclet$?RefreshWMIData@PerfThread@@AAEXXZ$6
3CC99 262 __ehhandler$?RefreshWMIData@PerfThread@@AAEXXZ
3CCD0 262 __unwindfunclet$??0?$unordered_multimap@KUProcessPerfData@@U?$hash@K@std@@U?$equal_to@K@3@V?$allocator@U?$pair@$$CBKUProcessPerfData@@@std@@@3@@std@@QAE@XZ$1
3CCDB 262 __unwindfunclet$??0?$unordered_multimap@KUProcessPerfData@@U?$hash@K@std@@U?$equal_to@K@3@V?$allocator@U?$pair@$$CBKUProcessPerfData@@@std@@@3@@std@@QAE@XZ$2
3CCEB 262 __ehhandler$??0?$unordered_multimap@KUProcessPerfData@@U?$hash@K@std@@U?$equal_to@K@3@V?$allocator@U?$pair@$$CBKUProcessPerfData@@@std@@@3@@std@@QAE@XZ
3CD10 262 __unwindfunclet$??$transform@V?$_List_const_iterator@V?$_List_val@U?$_List_simple_types@U?$pair@$$CBKUProcessPerfData@@@std@@@std@@@std@@@std@@V?$back_insert_iterator@V?$vector@UProcessPerfData@@V?$allocator@UProcessPerfData@@@std@@@std@@@2@V<lambda_1>@?2??RefreshWMIData@PerfThread@@AAEXXZ@@std@@YA?AV?$back_insert_iterator@V?$vector@UProcessPerfData@@V?$allocator@UProcessPerfData@@@std@@@std@@@0@V?$_List_const_iterator@V?$_List_val@U?$_List_simple_types@U?$pair@$$CBKUProcessPerfData@@@std@@@std@@@std@@@0@0V10@V<lambda_1>@?2??RefreshWMIData@PerfThread@@AAEXXZ@@Z$0
3CD20 262 __ehhandler$??$transform@V?$_List_const_iterator@V?$_List_val@U?$_List_simple_types@U?$pair@$$CBKUProcessPerfData@@@std@@@std@@@std@@@std@@V?$back_insert_iterator@V?$vector@UProcessPerfData@@V?$allocator@UProcessPerfData@@@std@@@std@@@2@V<lambda_1>@?2??RefreshWMIData@PerfThread@@AAEXXZ@@std@@YA?AV?$back_insert_iterator@V?$vector@UProcessPerfData@@V?$allocator@UProcessPerfData@@@std@@@std@@@0@V?$_List_const_iterator@V?$_List_val@U?$_List_simple_types@U?$pair@$$CBKUProcessPerfData@@@std@@@std@@@std@@@0@0V10@V<lambda_1>@?2??RefreshWMIData@PerfThread@@AAEXXZ@@Z
3CD50 262 __unwindfunclet$??0ProcessPerfData@@QAE@ABU0@@Z$0
3CD5E 262 __unwindfunclet$??0ProcessPerfData@@QAE@ABU0@@Z$1
3CD6C 262 __unwindfunclet$??0ProcessPerfData@@QAE@ABU0@@Z$2
3CD7F 262 __ehhandler$??0ProcessPerfData@@QAE@ABU0@@Z
3CDA0 46 __unwindfunclet$?is_wow64_itself@@YA_NXZ$0
3CDB3 46 __ehhandler$?is_wow64_itself@@YA_NXZ
3CDD0 46 __unwindfunclet$?GetList@@YA_NAAPAUPluginPanelItem@@AAIAAVPerfThread@@@Z$11
3CDD8 46 __unwindfunclet$?GetList@@YA_NAAPAUPluginPanelItem@@AAIAAVPerfThread@@@Z$12
3CDE0 46 __unwindfunclet$?GetList@@YA_NAAPAUPluginPanelItem@@AAIAAVPerfThread@@@Z$0
3CDED 46 __ehhandler$?GetList@@YA_NAAPAUPluginPanelItem@@AAIAAVPerfThread@@@Z
3CE10 46 __unwindfunclet$?KillProcess@@YA_NKPAUHWND__@@@Z$0
3CE18 46 __unwindfunclet$?KillProcess@@YA_NKPAUHWND__@@@Z$1
3CE25 46 __ehhandler$?KillProcess@@YA_NKPAUHWND__@@@Z
3CE50 46 __unwindfunclet$?PrintNTCurDirAndEnv@@YAXPAX0H@Z$0
3CE58 46 __unwindfunclet$?PrintNTCurDirAndEnv@@YAXPAX0H@Z$1
3CE65 46 __ehhandler$?PrintNTCurDirAndEnv@@YAXPAX0H@Z
3CE90 46 __unwindfunclet$?print_module_impl@@YAXQAXABV?$basic_string@_WU?$char_traits@_W@std@@V?$allocator@_W@2@@std@@KABUoptions@@ABV?$function@$$A6A_NPA_WI@Z@2@@Z$2
3CEA0 46 __ehhandler$?print_module_impl@@YAXQAXABV?$basic_string@_WU?$char_traits@_W@std@@V?$allocator@_W@2@@std@@KABUoptions@@ABV?$function@$$A6A_NPA_WI@Z@2@@Z
3CED0 46 __unwindfunclet$?PrintModules@@YAXPAXKAAUoptions@@@Z$0
3CED8 46 __unwindfunclet$?PrintModules@@YAXPAXKAAUoptions@@@Z$1
3CEE0 46 __unwindfunclet$?PrintModules@@YAXPAXKAAUoptions@@@Z$2
3CEE8 46 __unwindfunclet$?PrintModules@@YAXPAXKAAUoptions@@@Z$3
3CEF5 46 __ehhandler$?PrintModules@@YAXPAXKAAUoptions@@@Z
3CF20 46 __unwindfunclet$?PrintModules@?$ipc_functions@$0A@@@SAXPAX0AAUoptions@@@Z$0
3CF2D 46 __ehhandler$?PrintModules@?$ipc_functions@$0A@@@SAXPAX0AAUoptions@@@Z
3CF60 46 __unwindfunclet$?PrintModules@?$ipc_functions@$00@@SAXPAX0AAUoptions@@@Z$0
3CF6D 46 __ehhandler$?PrintModules@?$ipc_functions@$00@@SAXPAX0AAUoptions@@@Z
3CFA0 46 __unwindfunclet$?read_string@?$ipc_functions@$00@@SA?AV?$basic_string@_WU?$char_traits@_W@std@@V?$allocator@_W@2@@std@@PAXABUUNICODE_STRING_64@detail@@@Z$0
3CFAD 46 __ehhandler$?read_string@?$ipc_functions@$00@@SA?AV?$basic_string@_WU?$char_traits@_W@std@@V?$allocator@_W@2@@std@@PAXABUUNICODE_STRING_64@detail@@@Z
3CFE0 46 __unwindfunclet$??$print_module@PAX@@YAXQAXPAXKAAUoptions@@ABV?$function@$$A6A_NPA_WI@Z@std@@@Z$0
3CFED 46 __ehhandler$??$print_module@PAX@@YAXQAXPAXKAAUoptions@@ABV?$function@$$A6A_NPA_WI@Z@std@@@Z
3D020 46 __unwindfunclet$??$print_module@_K@@YAXQAX_KKAAUoptions@@ABV?$function@$$A6A_NPA_WI@Z@std@@@Z$0
3D02D 46 __ehhandler$??$print_module@_K@@YAXQAX_KKAAUoptions@@ABV?$function@$$A6A_NPA_WI@Z@std@@@Z
3D060 46 __unwindfunclet$??$_Insert_range_unchecked@V?$_List_unchecked_const_iterator@V?$_List_val@U?$_List_simple_types@U?$pair@$$CBKUProcessPerfData@@@std@@@std@@@std@@U_Iterator_base0@2@@std@@V12@@?$_Hash@V?$_Umap_traits@KUProcessPerfData@@V?$_Uhash_compare@KU?$hash@K@std@@U?$equal_to@K@2@@std@@V?$allocator@U?$pair@$$CBKUProcessPerfData@@@std@@@3@$00@std@@@std@@IAEXV?$_List_unchecked_const_iterator@V?$_List_val@U?$_List_simple_types@U?$pair@$$CBKUProcessPerfData@@@std@@@std@@@std@@U_Iterator_base0@2@@1@V21@@Z$1
3D068 46 __unwindfunclet$??$_Insert_range_unchecked@V?$_List_unchecked_const_iterator@V?$_List_val@U?$_List_simple_types@U?$pair@$$CBKUProcessPerfData@@@std@@@std@@@std@@U_Iterator_base0@2@@std@@V12@@?$_Hash@V?$_Umap_traits@KUProcessPerfData@@V?$_Uhash_compare@KU?$hash@K@std@@U?$equal_to@K@2@@std@@V?$allocator@U?$pair@$$CBKUProcessPerfData@@@std@@@3@$00@std@@@std@@IAEXV?$_List_unchecked_const_iterator@V?$_List_val@U?$_List_simple_types@U?$pair@$$CBKUProcessPerfData@@@std@@@std@@@std@@U_Iterator_base0@2@@1@V21@@Z$0
3D075 46 __ehhandler$??$_Insert_range_unchecked@V?$_List_unchecked_const_iterator@V?$_List_val@U?$_List_simple_types@U?$pair@$$CBKUProcessPerfData@@@std@@@std@@@std@@U_Iterator_base0@2@@std@@V12@@?$_Hash@V?$_Umap_traits@KUProcessPerfData@@V?$_Uhash_compare@KU?$hash@K@std@@U?$equal_to@K@2@@std@@V?$allocator@U?$pair@$$CBKUProcessPerfData@@@std@@@3@$00@std@@@std@@IAEXV?$_List_unchecked_const_iterator@V?$_List_val@U?$_List_simple_types@U?$pair@$$CBKUProcessPerfData@@@std@@@std@@@std@@U_Iterator_base0@2@@1@V21@@Z
3D0A0 47 __unwindfunclet$?WinError@@YAHPB_W@Z$0
3D0A8 47 __unwindfunclet$?WinError@@YAHPB_W@Z$1
3D0B5 47 __ehhandler$?WinError@@YAHPB_W@Z
3D0E0 269 __unwindfunclet$?GetProcessOwner@WMIConnection@@QAE?AV?$basic_string@_WU?$char_traits@_W@std@@V?$allocator@_W@2@@std@@KPAV23@@Z$0
3D0E8 269 __unwindfunclet$?GetProcessOwner@WMIConnection@@QAE?AV?$basic_string@_WU?$char_traits@_W@std@@V?$allocator@_W@2@@std@@KPAV23@@Z$1
3D0F0 269 __unwindfunclet$?GetProcessOwner@WMIConnection@@QAE?AV?$basic_string@_WU?$char_traits@_W@std@@V?$allocator@_W@2@@std@@KPAV23@@Z$2
3D0F8 269 __unwindfunclet$?GetProcessOwner@WMIConnection@@QAE?AV?$basic_string@_WU?$char_traits@_W@std@@V?$allocator@_W@2@@std@@KPAV23@@Z$3
3D100 269 __unwindfunclet$?GetProcessOwner@WMIConnection@@QAE?AV?$basic_string@_WU?$char_traits@_W@std@@V?$allocator@_W@2@@std@@KPAV23@@Z$5
3D10D 269 __ehhandler$?GetProcessOwner@WMIConnection@@QAE?AV?$basic_string@_WU?$char_traits@_W@std@@V?$allocator@_W@2@@std@@KPAV23@@Z
3D140 269 __unwindfunclet$?GetProcessUserSid@WMIConnection@@QAE?AV?$basic_string@_WU?$char_traits@_W@std@@V?$allocator@_W@2@@std@@K@Z$0
3D148 269 __unwindfunclet$?GetProcessUserSid@WMIConnection@@QAE?AV?$basic_string@_WU?$char_traits@_W@std@@V?$allocator@_W@2@@std@@K@Z$1
3D150 269 __unwindfunclet$?GetProcessUserSid@WMIConnection@@QAE?AV?$basic_string@_WU?$char_traits@_W@std@@V?$allocator@_W@2@@std@@K@Z$2
3D158 269 __unwindfunclet$?GetProcessUserSid@WMIConnection@@QAE?AV?$basic_string@_WU?$char_traits@_W@std@@V?$allocator@_W@2@@std@@K@Z$3
3D160 269 __unwindfunclet$?GetProcessUserSid@WMIConnection@@QAE?AV?$basic_string@_WU?$char_traits@_W@std@@V?$allocator@_W@2@@std@@K@Z$5
3D16D 269 __ehhandler$?GetProcessUserSid@WMIConnection@@QAE?AV?$basic_string@_WU?$char_traits@_W@std@@V?$allocator@_W@2@@std@@K@Z
3D1A0 269 __unwindfunclet$?GetProcessSessionId@WMIConnection@@QAEKK@Z$0
3D1AD 269 __ehhandler$?GetProcessSessionId@WMIConnection@@QAEKK@Z
3D1E0 269 __unwindfunclet$?ExecMethod@WMIConnection@@AAEHKPB_W0K@Z$0
3D1E8 269 __unwindfunclet$?ExecMethod@WMIConnection@@AAEHKPB_W0K@Z$1
3D1F0 269 __unwindfunclet$?ExecMethod@WMIConnection@@AAEHKPB_W0K@Z$2
3D1F8 269 __unwindfunclet$?ExecMethod@WMIConnection@@AAEHKPB_W0K@Z$3
3D200 269 __unwindfunclet$?ExecMethod@WMIConnection@@AAEHKPB_W0K@Z$4
3D208 269 __unwindfunclet$?ExecMethod@WMIConnection@@AAEHKPB_W0K@Z$5
3D210 269 __unwindfunclet$?ExecMethod@WMIConnection@@AAEHKPB_W0K@Z$6
3D218 269 __unwindfunclet$?ExecMethod@WMIConnection@@AAEHKPB_W0K@Z$7
3D220 269 __unwindfunclet$?ExecMethod@WMIConnection@@AAEHKPB_W0K@Z$8
3D228 269 __unwindfunclet$?ExecMethod@WMIConnection@@AAEHKPB_W0K@Z$9
3D230 269 __unwindfunclet$?ExecMethod@WMIConnection@@AAEHKPB_W0K@Z$10
3D23D 269 __ehhandler$?ExecMethod@WMIConnection@@AAEHKPB_W0K@Z
3D260 269 __unwindfunclet$?GetProcessProperty@WMIConnection@@AAE_NKPB_WABV?$function@$$A6AXABUtagVARIANT@@@Z@std@@@Z$0
3D268 269 __unwindfunclet$?GetProcessProperty@WMIConnection@@AAE_NKPB_WABV?$function@$$A6AXABUtagVARIANT@@@Z@std@@@Z$1
3D270 269 __unwindfunclet$?GetProcessProperty@WMIConnection@@AAE_NKPB_WABV?$function@$$A6AXABUtagVARIANT@@@Z@std@@@Z$2
3D27D 269 __ehhandler$?GetProcessProperty@WMIConnection@@AAE_NKPB_WABV?$function@$$A6AXABUtagVARIANT@@@Z@std@@@Z
3D2A0 269 __unwindfunclet$?GetProcessInt@WMIConnection@@AAEKKPB_W@Z$0
3D2AD 269 __ehhandler$?GetProcessInt@WMIConnection@@AAEKKPB_W@Z
3D2E0 269 __unwindfunclet$?GetProcessString@WMIConnection@@AAE?AV?$basic_string@_WU?$char_traits@_W@std@@V?$allocator@_W@2@@std@@KPB_W@Z$0
3D2F9 269 __unwindfunclet$?GetProcessString@WMIConnection@@AAE?AV?$basic_string@_WU?$char_traits@_W@std@@V?$allocator@_W@2@@std@@KPB_W@Z$1
3D306 269 __ehhandler$?GetProcessString@WMIConnection@@AAE?AV?$basic_string@_WU?$char_traits@_W@std@@V?$allocator@_W@2@@std@@KPB_W@Z
3D330 269 __unwindfunclet$?Connect@WMIConnection@@QAE_NPB_W00@Z$0
3D338 269 __unwindfunclet$?Connect@WMIConnection@@QAE_NPB_W00@Z$2
3D340 269 __unwindfunclet$?Connect@WMIConnection@@QAE_NPB_W00@Z$3
3D348 269 __unwindfunclet$?Connect@WMIConnection@@QAE_NPB_W00@Z$4
3D350 269 __unwindfunclet$?Connect@WMIConnection@@QAE_NPB_W00@Z$5
3D35D 269 __ehhandler$?Connect@WMIConnection@@QAE_NPB_W00@Z
3D390 269 __ehhandler$??1?$ptr_setter@V?$unique_ptr@UIWbemClassObject@@Ucom_closer@@@std@@@@QAE@XZ
3D3B0 50 __ehhandler$_ProcessPanelEventW@4
3D3D7 60 __unwindfunclet$?_Init@locale@std@@CAPAV_Locimp@12@_N@Z$0
3D3E4 60 __ehhandler$?_Init@locale@std@@CAPAV_Locimp@12@_N@Z
3D401 240 __ehhandler$?CallUnexpected@@YAXPBU_s_ESTypeList@@@Z
3D41E 106 __ehhandler$?common_exit@@YAXHW4_crt_exit_cleanup_mode@@W4_crt_exit_return_mode@@@Z
3D43B 106 __ehhandler$?try_cor_exit_process@@YAXI@Z
3D458 103 __ehhandler$___dcrt_uninitialize_environments_nolock
3D475 179 __ehhandler$__execute_onexit_table
3D492 232 __ehhandler$?write_double_translated_ansi_nolock@@YA?AUwrite_result@?A0x17268360@@HQBDIAAV__crt_cached_ptd_host@@@Z
3D4BC 166 __ehhandler$?_mbstowcs_l_helper@@YAIPA_WPBDIAAV__crt_cached_ptd_host@@@Z
3D4E0 52 ??__F?m_PanelModesDataRemote@Plist@@0V?$vector@Umode@@V?$allocator@Umode@@@std@@@std@@A@@YAXXZ
3D4F0 52 ??__F?m_PanelModesDataLocal@Plist@@0V?$vector@Umode@@V?$allocator@Umode@@@std@@@std@@A@@YAXXZ
3D500 54 ??__FUserAccountID@?1??GetUserAccountID@@YA@XZ@YAXXZ
3D560 45 ??__FTitle@?1??GetOpenPanelInfo@Plist@@QAEXPAUOpenPanelInfo@@@Z@YAXXZ
3D5C0 46 ??__FhDebugToken@@YAXXZ
3D5D1 65 ??__Finitlocks@std@@YAXXZ
3D5DB 60 ??__F_Fac_tidy_reg@std@@YAXXZ
3D5E5 60 ??__Fclassic_locale@std@@YAXXZ
3D5EF 58 ??__Finit_atexit@@YAXXZ
3D5F9 58 ??__Finitlocks@std@@YAXXZ
3E000 51 __imp__LookupPrivilegeValueW@12
3E004 51 __imp__AdjustTokenPrivileges@24
3E008 51 __imp__OpenProcessToken@12
3E00C 51 __imp__SetThreadToken@8
3E010 51 __imp__DuplicateTokenEx@24
3E014 51 __imp__OpenThreadToken@16
3E018 51 __imp__RegCloseKey@4
3E01C 51 __imp__RegConnectRegistryW@12
3E020 51 __imp__RegQueryValueExW@24
3E024 51 __imp__ConvertSidToStringSidW@8
3E028 51 __imp__GetUserNameW@8
3E02C 51 __imp__LookupAccountNameW@28
3E030 51 \177ADVAPI32_NULL_THUNK_DATA
3E034 55 __imp__lstrlenW@4
3E038 55 __imp__SetLastError@4
3E03C 55 __imp__SetPriorityClass@8
3E040 55 __imp__lstrcpynW@12
3E044 55 __imp__CreateFileW@28
3E048 55 __imp__GetCurrentThreadId@0
3E04C 55 __imp__SetEvent@4
3E050 55 __imp__FileTimeToSystemTime@8
3E054 55 __imp__GetLocalTime@4
3E058 55 __imp__GetPriorityClass@4
3E05C 55 __imp__SystemTimeToTzSpecificLocalTime@12
3E060 55 __imp__GetSystemTimeAsFileTime@4
3E064 55 __imp__GetTickCount@0
3E068 55 __imp__lstrcmpW@8
3E06C 55 __imp__WaitForMultipleObjects@16
3E070 55 __imp__CreateMutexW@12
3E074 55 __imp__ReleaseMutex@4
3E078 55 __imp__CreateEventW@16
3E07C 55 __imp__ResetEvent@4
3E080 55 __imp__GetProcessTimes@20
3E084 55 __imp__TerminateProcess@8
3E088 55 __imp__GetFileType@4
3E08C 55 __imp__GetLastError@0
3E090 55 __imp__GetCurrentThread@0
3E094 55 __imp__ReadProcessMemory@20
3E098 55 __imp__FormatMessageW@28
3E09C 55 __imp__FileTimeToLocalFileTime@8
3E0A0 55 __imp__GetTimeFormatW@24
3E0A4 55 __imp__GetModuleHandleW@4
3E0A8 55 __imp__GetDateFormatW@24
3E0AC 55 __imp__GetProcAddress@8
3E0B0 55 __imp__CompareStringW@24
3E0B4 55 __imp__TlsSetValue@8
3E0B8 55 __imp__GetModuleFileNameW@12
3E0BC 55 __imp__InitializeCriticalSection@4
3E0C0 55 __imp__TlsAlloc@0
3E0C4 55 __imp__LoadLibraryW@4
3E0C8 55 __imp__LCMapStringW@24
3E0CC 55 __imp__TlsGetValue@4
3E0D0 55 __imp__GetThreadTimes@20
3E0D4 55 __imp__TlsFree@4
3E0D8 55 __imp__VirtualQuery@12
3E0DC 55 __imp__GetCurrentProcessId@0
3E0E0 55 __imp__LocalFree@4
3E0E4 55 __imp__CreateThread@24
3E0E8 55 __imp__CloseHandle@4
3E0EC 55 __imp__TerminateThread@8
3E0F0 55 __imp__DuplicateHandle@28
3E0F4 55 __imp__WaitForSingleObject@8
3E0F8 55 __imp__VirtualAlloc@16
3E0FC 55 __imp__GetCurrentProcess@0
3E100 55 __imp__VirtualFree@12
3E104 55 __imp__WriteConsoleW@20
3E108 55 __imp__OpenProcess@12
3E10C 55 __imp__WriteFile@20
3E110 55 __imp__GetProcessHeap@0
3E114 55 __imp__FreeEnvironmentStringsW@4
3E118 55 __imp__GetEnvironmentStringsW@0
3E11C 55 __imp__GetCommandLineW@0
3E120 55 __imp__GetCommandLineA@0
3E124 55 __imp__HeapSize@12
3E128 55 __imp__GetOEMCP@0
3E12C 55 __imp__GetACP@0
3E130 55 __imp__IsValidCodePage@4
3E134 55 __imp__FindNextFileW@8
3E138 55 __imp__FindFirstFileExW@24
3E13C 55 __imp__FindClose@4
3E140 55 __imp__HeapReAlloc@16
3E144 55 __imp__GetConsoleMode@8
3E148 55 __imp__GetConsoleOutputCP@0
3E14C 55 __imp__FlushFileBuffers@4
3E150 55 __imp__EnumSystemLocalesW@8
3E154 55 __imp__GetUserDefaultLCID@0
3E158 55 __imp__IsValidLocale@8
3E15C 55 __imp__GetLocaleInfoW@16
3E160 55 __imp__HeapFree@12
3E164 55 __imp__HeapAlloc@12
3E168 55 __imp__GetStdHandle@4
3E16C 55 __imp__SetFilePointerEx@20
3E170 55 __imp__MultiByteToWideChar@24
3E174 55 __imp__WideCharToMultiByte@32
3E178 55 __imp__EnterCriticalSection@4
3E17C 55 __imp__LeaveCriticalSection@4
3E180 55 __imp__DeleteCriticalSection@4
3E184 55 __imp__GetStringTypeW@16
3E188 55 __imp__GetCPInfo@8
3E18C 55 __imp__UnhandledExceptionFilter@4
3E190 55 __imp__SetUnhandledExceptionFilter@4
3E194 55 __imp__IsProcessorFeaturePresent@4
3E198 55 __imp__IsDebuggerPresent@0
3E19C 55 __imp__GetStartupInfoW@4
3E1A0 55 __imp__QueryPerformanceCounter@4
3E1A4 55 __imp__RtlUnwind@16
3E1A8 55 __imp__RaiseException@16
3E1AC 55 __imp__InitializeCriticalSectionAndSpinCount@8
3E1B0 55 __imp__FreeLibrary@4
3E1B4 55 __imp__LoadLibraryExW@12
3E1B8 55 __imp__SetStdHandle@8
3E1BC 55 __imp__ExitProcess@4
3E1C0 55 \177KERNEL32_NULL_THUNK_DATA
3E1C4 259 __imp__WNetCancelConnection2W@12
3E1C8 259 __imp__WNetAddConnection2W@16
3E1CC 259 \177MPR_NULL_THUNK_DATA
3E1D0 261 __imp__VariantClear@4
3E1D4 261 __imp__SysAllocString@4
3E1D8 261 __imp__SysFreeString@4
3E1DC 261 \177OLEAUT32_NULL_THUNK_DATA
3E1E0 263 __imp__GetModuleInformation@16
3E1E4 263 __imp__GetModuleFileNameExW@16
3E1E8 263 \177PSAPI_NULL_THUNK_DATA
3E1EC 264 __imp__SetForegroundWindow@4
3E1F0 264 __imp__GetParent@4
3E1F4 264 __imp__CharUpperBuffW@8
3E1F8 264 __imp__GetAncestor@8
3E1FC 264 __imp__GetWindowTextW@12
3E200 264 __imp__ShowWindowAsync@8
3E204 264 __imp__IsIconic@4
3E208 264 __imp__EnumWindows@8
3E20C 264 __imp__GetWindowLongW@8
3E210 264 __imp__GetWindowThreadProcessId@8
3E214 264 __imp__GetLastActivePopup@4
3E218 264 __imp__IsWindowVisible@4
3E21C 264 \177USER32_NULL_THUNK_DATA
3E220 267 __imp__VerQueryValueW@16
3E224 267 __imp__GetFileVersionInfoSizeW@8
3E228 267 __imp__GetFileVersionInfoW@16
3E22C 267 \177VERSION_NULL_THUNK_DATA
3E230 260 __imp__CoUninitialize@0
3E234 260 __imp__CoInitialize@4
3E238 260 __imp__CoCreateInstance@20
3E23C 260 \177ole32_NULL_THUNK_DATA
3E240 23 ___guard_check_icall_fptr
3E244 23 ___castguard_check_failure_os_handled_fptr
3E248 24 ___xc_a
3E24C 65 ?initlocks$initializer$@std@@3P6AXXZA
3E250 58 ?initlocks$initializer$@std@@3P6AXXZA
3E254 58 ?init_atexit$initializer$@@3P6AXXZA
3E258 60 ?_Fac_tidy_reg$initializer$@std@@3P6AXXZA
3E25C 60 ?classic_locale$initializer$@std@@3P6AXXZA
3E260 52 ??m_PanelModesDataLocal$initializer$@Plist@@0P6AXXZA@@3P6AXXZA
3E264 52 ??m_PanelModesDataRemote$initializer$@Plist@@0P6AXXZA@@3P6AXXZA
3E268 46 ?hDebugToken$initializer$@@3P6AXXZA
3E26C 24 ___xc_z
3E270 24 ___xi_a
3E274 26 _pinit
3E278 199 ___acrt_stdio_initializer
3E27C 198 ___acrt_tran_sse2_initializer
3E280 211 ___acrt_timeset_initializer
3E284 171 ___acrt_multibyte_initializer
3E288 24 ___xi_z
3E28C 24 ___xp_a
3E290 148 ___acrt_locale_terminator
3E294 101 ___dcrt_console_output_terminator
3E298 199 ___acrt_stdio_terminator
3E29C 24 ___xp_z
3E2A0 24 ___xt_a
3E2A4 24 ___xt_z
3E2C0 265 __imp__EncodePointer@4
3E2C8 265 __imp__DecodePointer@4
3E2D0 265 __imp__GetModuleHandleExW@12
3E2D8 265 __imp__InitializeSListHead@4
3E2E0 265 __imp__InterlockedFlushSList@4
3E2E8 265 __imp__InterlockedPushEntrySList@8
3E2F0 265 __imp__GetNumaHighestNodeNumber@4
3E2F8 265 __imp__GetLogicalProcessorInformation@8
3E300 265 __imp__SetThreadStackGuarantee@4
3E308 265 __imp__FlsAlloc@4
3E310 265 __imp__FlsGetValue@4
3E318 265 __imp__FlsSetValue@8
3E320 265 __imp__FlsFree@4
3E328 265 __imp__InitializeCriticalSectionEx@12
3E330 265 __imp__CompareStringEx@36
3E338 265 __imp__LCMapStringEx@36
3E340 265 __imp__AcquireSRWLockExclusive@4
3E348 265 __imp__ReleaseSRWLockExclusive@4
3E350 265 __imp__SleepConditionVariableSRW@16
3E358 265 __imp__WakeAllConditionVariable@4
3E360 265 __imp__TryAcquireSRWLockExclusive@4
3E368 265 __imp__InitializeSRWLock@4
3E370 268 _IID_IWbemLocator
3E380 268 _CLSID_WbemLocator
3E394 70 ??_7exception@std@@6B@
3E3A0 70 ??_7bad_alloc@std@@6B@
3E3AC 70 ??_7bad_function_call@std@@6B@
3E3B4 70 ??_C@_0BC@DPJNKNAF@bad?5function?5call@
3E3CC 70 ??_7logic_error@std@@6B@
3E3D8 70 ??_7length_error@std@@6B@
3E3E4 70 ??_7out_of_range@std@@6B@
3E3F0 70 ??_7runtime_error@std@@6B@
3E3FC 60 ??_7_Facet_base@std@@6B@
3E40C 60 ??_7_Locimp@locale@std@@6B@
3E418 60 ??_C@_01NBENCBCI@?$CK@
3E41C 60 ??_C@_01GFHCPBMG@C@
3E420 61 ?_Win_errtab@?A0xdad2e229@@3QBU_Win_errtab_t@1@B
3E6C0 61 ?_Sys_errtab@?A0xdad2e229@@3QBU_Sys_errtab_t@1@B
3E938 61 ??_C@_07IPNMCAN@success@
3E940 61 ??_C@_0BN@LKKBCCDB@address?5family?5not?5supported@
3E960 61 ??_C@_0P@LDMLAFHI@address?5in?5use@
3E970 61 ??_C@_0BG@DHPCNBJB@address?5not?5available@
3E988 61 ??_C@_0BC@DFIBIBIL@already?5connected@
3E99C 61 ??_C@_0BH@CAKOHOMI@argument?5list?5too?5long@
3E9B4 61 ??_C@_0BH@CGIMPKIM@argument?5out?5of?5domain@
3E9CC 61 ??_C@_0M@KGHGGJGL@bad?5address@
3E9D8 61 ??_C@_0BE@MPJPGCEO@bad?5file?5descriptor@
3E9EC 61 ??_C@_0M@PMMIEFCP@bad?5message@
3E9F8 61 ??_C@_0M@KPHOFDBE@broken?5pipe@
3EA04 61 ??_C@_0BD@MGNDDEGM@connection?5aborted@
3EA18 61 ??_C@_0BP@KAIHPOGN@connection?5already?5in?5progress@
3EA38 61 ??_C@_0BD@PJLIIJEL@connection?5refused@
3EA4C 61 ??_C@_0BB@IECNJNOI@connection?5reset@
3EA60 61 ??_C@_0BC@PPHBOELF@cross?5device?5link@
3EA74 61 ??_C@_0BN@KDMIFEIP@destination?5address?5required@
3EA94 61 ??_C@_0BI@NGCEHDD@device?5or?5resource?5busy@
3EAAC 61 ??_C@_0BE@JIDOCPHM@directory?5not?5empty@
3EAC0 61 ??_C@_0BI@BNCLIGPB@executable?5format?5error@
3EAD8 61 ??_C@_0M@MIDIAGJP@file?5exists@
3EAE4 61 ??_C@_0P@DNAJLBJK@file?5too?5large@
3EAF4 61 ??_C@_0BC@EJHOMAAK@filename?5too?5long@
3EB08 61 ??_C@_0BH@KEFGLDAF@function?5not?5supported@
3EB20 61 ??_C@_0BB@DHFDFGDM@host?5unreachable@
3EB34 61 ??_C@_0BD@JPHBMONG@identifier?5removed@
3EB48 61 ??_C@_0BG@CDNPAGJK@illegal?5byte?5sequence@
3EB60 61 ??_C@_0CD@BNPLBMNA@inappropriate?5io?5control?5operat@
3EB84 61 ??_C@_0M@EGEKIIMP@interrupted@
3EB90 61 ??_C@_0BB@FCMFBGOM@invalid?5argument@
3EBA4 61 ??_C@_0N@OHAFKDEK@invalid?5seek@
3EBB4 61 ??_C@_08GLNPIFBN@io?5error@
3EBC0 61 ??_C@_0P@FLLDBIDK@is?5a?5directory@
3EBD0 61 ??_C@_0N@IFLPBIOP@message?5size@
3EBE0 61 ??_C@_0N@KIIEAAIO@network?5down@
3EBF0 61 ??_C@_0O@FNPDBHEE@network?5reset@
3EC00 61 ??_C@_0BE@IFNCKGE@network?5unreachable@
3EC14 61 ??_C@_0BA@PFFCAOFK@no?5buffer?5space@
3EC24 61 ??_C@_0BB@IEPBLJHK@no?5child?5process@
3EC38 61 ??_C@_07PLECNNKG@no?5link@
3EC40 61 ??_C@_0BC@NJECKMKE@no?5lock?5available@
3EC54 61 ??_C@_0BF@PBGGPKKE@no?5message?5available@
3EC6C 61 ??_C@_0L@EDOLMPAK@no?5message@
3EC78 61 ??_C@_0BD@EAMBFIDF@no?5protocol?5option@
3EC8C 61 ??_C@_0BD@IJDJKDEA@no?5space?5on?5device@
3ECA0 61 ??_C@_0BE@MKFDAFMP@no?5stream?5resources@
3ECB4 61 ??_C@_0BK@IMCPHCBI@no?5such?5device?5or?5address@
3ECD0 61 ??_C@_0P@FDINDDOK@no?5such?5device@
3ECE0 61 ??_C@_0BK@NDOCBPGE@no?5such?5file?5or?5directory@
3ECFC 61 ??_C@_0BA@ENLPPKBN@no?5such?5process@
3ED0C 61 ??_C@_0BA@DOCPFFJG@not?5a?5directory@
3ED1C 61 ??_C@_0N@POEIPGGF@not?5a?5socket@
3ED2C 61 ??_C@_0N@LGAPMMPI@not?5a?5stream@
3ED3C 61 ??_C@_0O@GLMIBBEG@not?5connected@
3ED4C 61 ??_C@_0BC@ENOOLCNF@not?5enough?5memory@
3ED60 61 ??_C@_0O@NHEDABJP@not?5supported@
3ED70 61 ??_C@_0BD@MOLBPMEA@operation?5canceled@
3ED84 61 ??_C@_0BG@KDKHOPCO@operation?5in?5progress@
3ED9C 61 ??_C@_0BI@OHIEJAAB@operation?5not?5permitted@
3EDB4 61 ??_C@_0BI@LNEGIFLN@operation?5not?5supported@
3EDCC 61 ??_C@_0BG@OEMDKMEE@operation?5would?5block@
3EDE4 61 ??_C@_0L@BLPOFLNJ@owner?5dead@
3EDF0 61 ??_C@_0BC@CIJDGCDI@permission?5denied@
3EE04 61 ??_C@_0P@FNPOCJBE@protocol?5error@
3EE14 61 ??_C@_0BH@JPPPLHJB@protocol?5not?5supported@
3EE2C 61 ??_C@_0BG@EICBIHDP@read?5only?5file?5system@
3EE44 61 ??_C@_0BO@BJBOMOEJ@resource?5deadlock?5would?5occur@
3EE64 61 ??_C@_0BP@LKNGHENJ@resource?5unavailable?5try?5again@
3EE84 61 ??_C@_0BE@GOIPJJHG@result?5out?5of?5range@
3EE98 61 ??_C@_0BG@MPLKFPAE@state?5not?5recoverable@
3EEB0 61 ??_C@_0P@DIIFGFCG@stream?5timeout@
3EEC0 61 ??_C@_0P@IPFDMIFL@text?5file?5busy@
3EED0 61 ??_C@_09KJPPMAOI@timed?5out@
3EEDC 61 ??_C@_0BO@HACHBEKI@too?5many?5files?5open?5in?5system@
3EEFC 61 ??_C@_0BE@GHAFMPAH@too?5many?5files?5open@
3EF10 61 ??_C@_0P@HCOMKFCC@too?5many?5links@
3EF20 61 ??_C@_0BO@EFGOJEF@too?5many?5symbolic?5link?5levels@
3EF40 61 ??_C@_0BA@KGKGOOJA@value?5too?5large@
3EF50 61 ??_C@_0BE@MIEJDDNH@wrong?5protocol?5type@
3EF68 59 ??_7bad_array_new_length@std@@6B@
3EF74 59 ??_7bad_cast@std@@6B@
3EF80 62 ?_Whitespace_bitmap@?A0xfa98056f@@3U_Whitespace_bitmap_t@1@B
3F084 63 ??_7?$numpunct@_W@std@@6B@
3F0A4 63 ??_C@_13IMODFHAA@?$AA?9@
3F0A8 63 ??_C@_01JOAMLHOP@?9@
3F0AC 68 _digits
3F0D4 68 _ndigs
3F0FC 69 _digits
3F124 69 _ndigs
3F150 36 ??_7type_info@@6B@
3F154 21 _GS_ExceptionPointers
3F15C 13 __pDefaultRawDllMain
3F160 236 __pDestructExceptionObject
3F170 257 __xmm@00000000000000000000000000000000
3F184 240 ??_7bad_exception@std@@6B@
3F18C 240 ??_C@_0O@DPKOEFFH@bad?5exception@
3F1A0 255 ?tokenTable@@3QBUStringLiteral@@B
3F228 255 ?nameTable@@3QBUStringLiteral@@B
3F4C0 255 ?rttiTable@@3QBUStringLiteral@@B
3F4E8 255 ?IndirectionName@@3QBUStringLiteral@@B
3F518 255 ?PrefixName@@3QBUStringLiteral@@B
3F528 255 ??_C@_08EHJDFFNH@__based?$CI@
3F534 255 ??_C@_07KOLFKCDI@__cdecl@
3F53C 255 ??_C@_08GHMPAG@__pascal@
3F548 255 ??_C@_09IFJBGAPI@__stdcall@
3F554 255 ??_C@_0L@NPHFGOKO@__thiscall@
3F560 255 ??_C@_0L@JMKHOMEK@__fastcall@
3F56C 255 ??_C@_0N@BCKKPABJ@__vectorcall@
3F57C 255 ??_C@_09HIJEGCPM@__clrcall@
3F588 255 ??_C@_06GHPCKEAG@__eabi@
3F590 255 ??_C@_09IOPIDJLG@__swift_1@
3F59C 255 ??_C@_09KFNFGKHF@__swift_2@
3F5A8 255 ??_C@_09LMMOFLDE@__swift_3@
3F5B4 255 ??_C@_07JOMMBBKO@__ptr64@
3F5BC 255 ??_C@_0L@PILCLIHE@__restrict@
3F5C8 255 ??_C@_0M@GFIIJFMG@__unaligned@
3F5D4 255 ??_C@_09DHDLOLLB@restrict?$CI@
3F5E0 255 ??_C@_04NIHEBCM@?5new@
3F5E8 255 ??_C@_07FPCDHGMM@?5delete@
3F5F0 255 ??_C@_01NEMOKFLO@?$DN@
3F5F4 255 ??_C@_02GPIOPFAK@?$DO?$DO@
3F5F8 255 ??_C@_02FODMEDOG@?$DM?$DM@
3F5FC 255 ??_C@_01DCLJPIOD@?$CB@
3F600 255 ??_C@_02EGOFBIJA@?$DN?$DN@
3F604 255 ??_C@_02FDNJECIE@?$CB?$DN@
3F608 255 ??_C@_02GPECMEKF@?$FL?$FN@
3F60C 255 ??_C@_08LHJFAFGD@operator@
3F618 255 ??_C@_02HBOOOICD@?9?$DO@
3F61C 255 ??_C@_02ECNGHCIF@?$CL?$CL@
3F620 255 ??_C@_02BAABKJLB@?9?9@
3F624 255 ??_C@_01MIFGBAGJ@?$CL@
3F628 255 ??_C@_01HNPIGOCE@?$CG@
3F62C 255 ??_C@_03MNHNFDLC@?9?$DO?$CK@
3F630 255 ??_C@_01KMDKNFGN@?1@
3F634 255 ??_C@_01FGNFDNOH@?$CF@
3F638 255 ??_C@_01MNNFJEPP@?$DM@
3F63C 255 ??_C@_02EHCHHCKH@?$DM?$DN@
3F640 255 ??_C@_01PPODPGHN@?$DO@
3F644 255 ??_C@_02EEKDKGMJ@?$DO?$DN@
3F648 255 ??_C@_01IHBHIGKO@?0@
3F64C 255 ??_C@_02HCKGKOFO@?$CI?$CJ@
3F650 255 ??_C@_01PJKLJHI@?$HO@
3F654 255 ??_C@_01JKBOJNNK@?$FO@
3F658 255 ??_C@_01DNKMNLPK@?$HM@
3F65C 255 ??_C@_02PPKAJPJL@?$CG?$CG@
3F660 255 ??_C@_02NONPIBCD@?$HM?$HM@
3F664 255 ??_C@_02FPIMKNGF@?$CK?$DN@
3F668 255 ??_C@_02FOEOMHFC@?$CL?$DN@
3F66C 255 ??_C@_02FKMDLLOA@?9?$DN@
3F670 255 ??_C@_02FJEHGPIO@?1?$DN@
3F674 255 ??_C@_02FENAOKFI@?$CF?$DN@
3F678 255 ??_C@_03IKFCCPFF@?$DO?$DO?$DN@
3F67C 255 ??_C@_03CDNPDDLA@?$DM?$DM?$DN@
3F680 255 ??_C@_02FGJGFEAB@?$CG?$DN@
3F684 255 ??_C@_02DHLNPPGH@?$HM?$DN@
3F688 255 ??_C@_02MHEGNOJ@?$FO?$DN@
3F68C 255 ??_C@_09IFPLHPGF@?$GAvftable?8@
3F698 255 ??_C@_09BLBHBJP@?$GAvbtable?8@
3F6A4 255 ??_C@_07FEEIOKP@?$GAvcall?8@
3F6AC 255 ??_C@_08LLFFHHDJ@?$GAtypeof?8@
3F6B8 255 ??_C@_0BF@KDPPACIK@?$GAlocal?5static?5guard?8@
3F6D0 255 ??_C@_08OBABFOLI@?$GAstring?8@
3F6DC 255 ??_C@_0BD@JDLKDPAB@?$GAvbase?5destructor?8@
3F6F0 255 ??_C@_0BN@DEGPLNFK@?$GAvector?5deleting?5destructor?8@
3F710 255 ??_C@_0BO@OBMKPJIG@?$GAdefault?5constructor?5closure?8@
3F730 255 ??_C@_0BN@IMDCHIKM@?$GAscalar?5deleting?5destructor?8@
3F750 255 ??_C@_0BO@PFGOCPJJ@?$GAvector?5constructor?5iterator?8@
3F770 255 ??_C@_0BN@LFPFMEDL@?$GAvector?5destructor?5iterator?8@
3F790 255 ??_C@_0CE@IKBNEHA@?$GAvector?5vbase?5constructor?5itera@
3F7B4 255 ??_C@_0BL@NILFHHPC@?$GAvirtual?5displacement?5map?8@
3F7D0 255 ??_C@_0CB@JONCMFFK@?$GAeh?5vector?5constructor?5iterator@
3F7F4 255 ??_C@_0CA@GCEOPDGL@?$GAeh?5vector?5destructor?5iterator?8@
3F814 255 ??_C@_0CH@OOJPLCPH@?$GAeh?5vector?5vbase?5constructor?5it@
3F83C 255 ??_C@_0BL@LLKPOHJI@?$GAcopy?5constructor?5closure?8@
3F858 255 ??_C@_0BA@KBCDOMBN@?$GAudt?5returning?8@
3F868 255 ??_C@_03KLGMFNMG@?$GAEH@
3F86C 255 ??_C@_05KHLCHHI@?$GARTTI@
3F874 255 ??_C@_0BA@KKLDJDLB@?$GAlocal?5vftable?8@
3F884 255 ??_C@_0CE@IIHCMGGL@?$GAlocal?5vftable?5constructor?5clos@
3F8A8 255 ??_C@_06FHBGPFGH@?5new?$FL?$FN@
3F8B0 255 ??_C@_09LBNFPBCA@?5delete?$FL?$FN@
3F8BC 255 ??_C@_0P@HJKNJFNN@?$GAomni?5callsig?8@
3F8CC 255 ??_C@_0BL@CNOONJFP@?$GAplacement?5delete?5closure?8@
3F8E8 255 ??_C@_0BN@CKNJLHMB@?$GAplacement?5delete?$FL?$FN?5closure?8@
3F908 255 ??_C@_0CG@CFDHKGGD@?$GAmanaged?5vector?5constructor?5ite@
3F930 255 ??_C@_0CF@IMGKMJNO@?$GAmanaged?5vector?5destructor?5iter@
3F958 255 ??_C@_0CG@HLDDJMAG@?$GAeh?5vector?5copy?5constructor?5ite@
3F980 255 ??_C@_0CM@FCBBDIGB@?$GAeh?5vector?5vbase?5copy?5construct@
3F9AC 255 ??_C@_0BL@CLIPGLGB@?$GAdynamic?5initializer?5for?5?8@
3F9C8 255 ??_C@_0CB@PDBIFEP@?$GAdynamic?5atexit?5destructor?5for?5@
3F9EC 255 ??_C@_0CD@CGAJBKEJ@?$GAvector?5copy?5constructor?5iterat@
3FA10 255 ??_C@_0CJ@GJELGAMM@?$GAvector?5vbase?5copy?5constructor?5@
3FA3C 255 ??_C@_0CL@FGIJHLCE@?$GAmanaged?5vector?5copy?5constructo@
3FA68 255 ??_C@_0BM@PMGGMLDN@?$GAlocal?5static?5thread?5guard?8@
3FA84 255 ??_C@_0N@BDNMDMOL@operator?5?$CC?$CC?5@
3FA94 255 ??_C@_0BC@GGEBGALA@operator?5co_await@
3FAA8 255 ??_C@_0M@GAAIMMOH@operator?$DM?$DN?$DO@
3FAB4 255 ??_C@_0BC@DAFEJGAK@?5Type?5Descriptor?8@
3FAC8 255 ??_C@_0BM@LDKODKLH@?5Base?5Class?5Descriptor?5at?5?$CI@
3FAE4 255 ??_C@_0BD@LGICGFMM@?5Base?5Class?5Array?8@
3FAF8 255 ??_C@_0BN@MECKDCOJ@?5Class?5Hierarchy?5Descriptor?8@
3FB18 255 ??_C@_0BK@CFCOFLF@?5Complete?5Object?5Locator?8@
3FB34 255 ??_C@_0BG@JNJLAMPM@?$GAanonymous?5namespace?8@
3FB4C 258 ?module_names@?A0x14174aea@@3QBQB_WB
3FB58 258 ??_C@_1DM@KHCHBNEB@?$AAa?$AAp?$AAi?$AA?9?$AAm?$AAs?$AA?9?$AAw?$AAi?$AAn?$AA?9?$AAc?$AAo?$AAr?$AAe@
3FB94 258 ??_C@_1DK@LPPGFMPP@?$AAa?$AAp?$AAi?$AA?9?$AAm?$AAs?$AA?9?$AAw?$AAi?$AAn?$AA?9?$AAc?$AAo?$AAr?$AAe@
3FBD0 258 ??_C@_1BA@PFFKHIOG@?$AAa?$AAp?$AAi?$AA?9?$AAm?$AAs?$AA?9@
3FBE0 258 ?candidate_modules@?1??try_get_FlsAlloc@@YAP6GKP6GXPAX@Z@ZXZ@4QBW4module_id@?A0x14174aea@@B
3FBE8 258 ??_C@_08KNHFBNJ@FlsAlloc@
3FBF4 258 ?candidate_modules@?1??try_get_FlsFree@@YAP6GHK@ZXZ@4QBW4module_id@?A0x14174aea@@B
3FBFC 258 ??_C@_07PEJMOBNF@FlsFree@
3FC04 258 ?candidate_modules@?1??try_get_FlsGetValue@@YAP6GPAXK@ZXZ@4QBW4module_id@?A0x14174aea@@B
3FC0C 258 ??_C@_0M@GDNOONDI@FlsGetValue@
3FC18 258 ?candidate_modules@?1??try_get_FlsSetValue@@YAP6GHKPAX@ZXZ@4QBW4module_id@?A0x14174aea@@B
3FC20 258 ??_C@_0M@JCPCPOEF@FlsSetValue@
3FC2C 258 ?candidate_modules@?1??try_get_InitializeCriticalSectionEx@@YAP6GHPAU_RTL_CRITICAL_SECTION@@KK@ZXZ@4QBW4module_id@?A0x14174aea@@B
3FC34 258 ??_C@_0BM@HCFOFFN@InitializeCriticalSectionEx@
3FC50 104 ?errtable@@3QBUerrentry@?A0x31fdb9ec@@B
3FDC0 169 _Mantissa
3FDD0 169 _Bns
3FDE0 169 _Sign
3FDF0 169 _Zero
3FE00 156 __real@3e54ae0bf85ddf44
3FE08 156 __real@3e5526e50e32a6ab
3FE10 156 __real@3e7427de7fbcc47c
3FE18 156 __real@3e7f7d1cf79abc9e
3FE20 156 __real@3fc2f8d8bf29def7
3FE28 156 __real@3fc3991accfeb3f4
3FE30 156 __real@3fc7466fd968cb62
3FE38 156 __real@3fcc71c4da12c9c6
3FE40 156 __real@3fd24924948ae94a
3FE48 156 __real@3fd3441300000000
3FE50 156 __real@3fd9999999975ff7
3FE58 156 __real@3fdbcb7b00000000
3FE60 156 __real@3fdbcb7b1526e50e
3FE68 156 __real@3fe55555555555bc
3FE70 156 __real@3fe62e42c0000000
3FE78 156 __real@3fe6a09e667f3bcd
3FE80 156 __real@3ff0000000000000
3FE88 156 __real@3ff7154760000000
3FE90 156 __real@3ff71547652b82fe
3FE98 102 ___newctype
40198 102 ___newclmap
40318 102 ___newcumap
40498 102 __wctype
406A0 105 ___acrt_exception_action_table
40730 105 ___acrt_signal_action_table_count
40734 105 ___acrt_signal_action_first_fpe_index
40738 105 ___acrt_signal_action_fpe_count
4073C 106 ??_C@_1BI@BGOHAHKC@?$AAm?$AAs?$AAc?$AAo?$AAr?$AAe?$AAe?$AA?4?$AAd?$AAl?$AAl@
40754 106 ??_C@_0P@MIGLKIOC@CorExitProcess@
40768 133 ___acrt_initializers
407E8 233 __first_127char
40868 233 ___lc_category
408B0 233 ??_C@_1O@GIFLHMA@?$AAL?$AAC?$AA_?$AAA?$AAL?$AAL@
408C0 233 ??_C@_1BG@PPOMIBNJ@?$AAL?$AAC?$AA_?$AAC?$AAO?$AAL?$AAL?$AAA?$AAT?$AAE@
408D8 233 ??_C@_1BC@FFJGAPJM@?$AAL?$AAC?$AA_?$AAC?$AAT?$AAY?$AAP?$AAE@
408EC 233 ??_C@_1BI@PCKFNJFB@?$AAL?$AAC?$AA_?$AAM?$AAO?$AAN?$AAE?$AAT?$AAA?$AAR?$AAY@
40904 233 ??_C@_1BG@ENIEDKID@?$AAL?$AAC?$AA_?$AAN?$AAU?$AAM?$AAE?$AAR?$AAI?$AAC@
4091C 233 ??_C@_1BA@HAAOMIIG@?$AAL?$AAC?$AA_?$AAT?$AAI?$AAM?$AAE@
4092C 233 ??_C@_15NBPDDFIP@?$AA?$DN?$AA?$DL@
40934 233 ??_C@_13PJJBFPED@?$AA?$DL@
40938 233 ??_C@_13NMPKAAJP@?$AA?$DN@
4093C 233 ??_C@_17EFJLDFDO@?$AA?9?$AA_?$AA?4@
40944 233 ??_C@_13FHBKNHDA@?$AAC@
40948 233 ??_C@_17MBJJLFDM@?$AA_?$AA?4?$AA?0@
40950 233 ??_C@_13ENNFDPBH@?$AA_@
40958 178 ___lc_time_c
40ABC 178 ??_C@_03KOEHGMDN@Sun@
40AC0 178 ??_C@_03PDAGKDH@Mon@
40AC4 178 ??_C@_03NAGEINEP@Tue@
40AC8 178 ??_C@_03MHOMLAJA@Wed@
40ACC 178 ??_C@_03IOFIKPDN@Thu@
40AD0 178 ??_C@_03IDIOELNC@Fri@
40AD4 178 ??_C@_03FEFJNEK@Sat@
40AD8 178 ??_C@_06OOPIFAJ@Sunday@
40AE0 178 ??_C@_06JLEDEDGH@Monday@
40AE8 178 ??_C@_07BAAGCFCM@Tuesday@
40AF0 178 ??_C@_09DLIGFAKA@Wednesday@
40AFC 178 ??_C@_08HACCIKIA@Thursday@
40B08 178 ??_C@_06JECMNKMI@Friday@
40B10 178 ??_C@_08INBOOONO@Saturday@
40B1C 178 ??_C@_03JIHJHPIE@Jan@
40B20 178 ??_C@_03HJBDCHOM@Feb@
40B24 178 ??_C@_03ODNJBKGA@Mar@
40B28 178 ??_C@_03LEOLGMJP@Apr@
40B2C 178 ??_C@_03CNMDKL@May@
40B30 178 ??_C@_03IDFGHECI@Jun@
40B34 178 ??_C@_03LBGABGKK@Jul@
40B38 178 ??_C@_03IFJFEIGA@Aug@
40B3C 178 ??_C@_03GGCAPAJC@Sep@
40B40 178 ??_C@_03BMAOKBAD@Oct@
40B44 178 ??_C@_03JPJOFNIA@Nov@
40B48 178 ??_C@_03MKABNOCG@Dec@
40B4C 178 ??_C@_07CGJPFGJA@January@
40B54 178 ??_C@_08GNJGEPFN@February@
40B60 178 ??_C@_05HPCKOFNC@March@
40B68 178 ??_C@_05DMJDNLEJ@April@
40B70 178 ??_C@_04CNLMGBGM@June@
40B78 178 ??_C@_04MIEPOIFP@July@
40B80 178 ??_C@_06LBBHFDDG@August@
40B88 178 ??_C@_09BHHEALKD@September@
40B94 178 ??_C@_07JJNFCEND@October@
40B9C 178 ??_C@_08HCHEGEOA@November@
40BA8 178 ??_C@_08EDHMEBNP@December@
40BB4 178 ??_C@_02DEDBPAFC@AM@
40BB8 178 ??_C@_02CJNFDJBF@PM@
40BBC 178 ??_C@_08BPBNCDIB@MM?1dd?1yy@
40BC8 178 ??_C@_0BE@CKGJFCPC@dddd?0?5MMMM?5dd?0?5yyyy@
40BDC 178 ??_C@_08JCCMCCIL@HH?3mm?3ss@
40BE8 178 ??_C@_17MBGCMIPB@?$AAS?$AAu?$AAn@
40BF0 178 ??_C@_17KBOMKBF@?$AAM?$AAo?$AAn@
40BF8 178 ??_C@_17BMKGEGOJ@?$AAT?$AAu?$AAe@
40C00 178 ??_C@_17CJEDCEPE@?$AAW?$AAe?$AAd@
40C08 178 ??_C@_17PDPHAADD@?$AAT?$AAh?$AAu@
40C10 178 ??_C@_17HFOLPPLP@?$AAF?$AAr?$AAi@
40C18 178 ??_C@_17GGIBDPIH@?$AAS?$AAa?$AAt@
40C20 178 ??_C@_1O@IHNHDHPB@?$AAS?$AAu?$AAn?$AAd?$AAa?$AAy@
40C30 178 ??_C@_1O@MMNBFLIA@?$AAM?$AAo?$AAn?$AAd?$AAa?$AAy@
40C40 178 ??_C@_1BA@ENFBFFEK@?$AAT?$AAu?$AAe?$AAs?$AAd?$AAa?$AAy@
40C50 178 ??_C@_1BE@EBOGMDOH@?$AAW?$AAe?$AAd?$AAn?$AAe?$AAs?$AAd?$AAa?$AAy@
40C64 178 ??_C@_1BC@HHMNLIHE@?$AAT?$AAh?$AAu?$AAr?$AAs?$AAd?$AAa?$AAy@
40C78 178 ??_C@_1O@PDICJHAG@?$AAF?$AAr?$AAi?$AAd?$AAa?$AAy@
40C88 178 ??_C@_1BC@ENMNNPAJ@?$AAS?$AAa?$AAt?$AAu?$AAr?$AAd?$AAa?$AAy@
40C9C 178 ??_C@_17DKNBKCHM@?$AAJ?$AAa?$AAn@
40CA4 178 ??_C@_17LMDJEKJN@?$AAF?$AAe?$AAb@
40CAC 178 ??_C@_17CKNLEDEC@?$AAM?$AAa?$AAr@
40CB4 178 ??_C@_17LFPOIHDD@?$AAA?$AAp?$AAr@
40CBC 178 ??_C@_17PNNKMEED@?$AAM?$AAa?$AAy@
40CC4 178 ??_C@_17KCJGOCPB@?$AAJ?$AAu?$AAn@
40CCC 178 ??_C@_17IJPCKHK@?$AAJ?$AAu?$AAl@
40CD4 178 ??_C@_17ICPELBCN@?$AAA?$AAu?$AAg@
40CDC 178 ??_C@_17HCHCOKMG@?$AAS?$AAe?$AAp@
40CE4 178 ??_C@_17FNLKOI@?$AAO?$AAc?$AAt@
40CEC 178 ??_C@_17BBDMLCIG@?$AAN?$AAo?$AAv@
40CF4 178 ??_C@_17EGKACKIF@?$AAD?$AAe?$AAc@
40CFC 178 ??_C@_1BA@EFMEIEBA@?$AAJ?$AAa?$AAn?$AAu?$AAa?$AAr?$AAy@
40D0C 178 ??_C@_1BC@JGDDFFAM@?$AAF?$AAe?$AAb?$AAr?$AAu?$AAa?$AAr?$AAy@
40D20 178 ??_C@_1M@IKEENEDF@?$AAM?$AAa?$AAr?$AAc?$AAh@
40D2C 178 ??_C@_1M@GJNLMHFD@?$AAA?$AAp?$AAr?$AAi?$AAl@
40D38 178 ??_C@_19EPFLPGAP@?$AAJ?$AAu?$AAn?$AAe@
40D44 178 ??_C@_19BIFMLPCD@?$AAJ?$AAu?$AAl?$AAy@
40D50 178 ??_C@_1O@PAHLKOAC@?$AAA?$AAu?$AAg?$AAu?$AAs?$AAt@
40D60 178 ??_C@_1BE@DKAAMBJL@?$AAS?$AAe?$AAp?$AAt?$AAe?$AAm?$AAb?$AAe?$AAr@
40D74 178 ??_C@_1BA@EPANDLNG@?$AAO?$AAc?$AAt?$AAo?$AAb?$AAe?$AAr@
40D84 178 ??_C@_1BC@BGLIFPF@?$AAN?$AAo?$AAv?$AAe?$AAm?$AAb?$AAe?$AAr@
40D98 178 ??_C@_1BC@FEMKIFH@?$AAD?$AAe?$AAc?$AAe?$AAm?$AAb?$AAe?$AAr@
40DAC 178 ??_C@_15ODEHAHHF@?$AAA?$AAM@
40DB4 178 ??_C@_15CLMNNGEL@?$AAP?$AAM@
40DBC 178 ??_C@_1BC@IEBCMHCM@?$AAM?$AAM?$AA?1?$AAd?$AAd?$AA?1?$AAy?$AAy@
40DD0 178 ??_C@_1CI@KNAKOEBC@?$AAd?$AAd?$AAd?$AAd?$AA?0?$AA?5?$AAM?$AAM?$AAM?$AAM?$AA?5?$AAd?$AAd?$AA?0?$AA?5@
40DF8 178 ??_C@_1BC@GDGBMEMK@?$AAH?$AAH?$AA?3?$AAm?$AAm?$AA?3?$AAs?$AAs@
40E0C 178 ??_C@_1M@BMHNFIME@?$AAe?$AAn?$AA?9?$AAU?$AAS@
40E18 231 ?module_names@?A0x391cf84c@@3QBQB_WB
40E70 231 ??_C@_1EA@JGEFHKEI@?$AAa?$AAp?$AAi?$AA?9?$AAm?$AAs?$AA?9?$AAw?$AAi?$AAn?$AA?9?$AAc?$AAo?$AAr?$AAe@
40EB0 231 ??_C@_1DI@KMEPCBPN@?$AAa?$AAp?$AAi?$AA?9?$AAm?$AAs?$AA?9?$AAw?$AAi?$AAn?$AA?9?$AAc?$AAo?$AAr?$AAe@
40EE8 231 ??_C@_1DI@IJCEHOCB@?$AAa?$AAp?$AAi?$AA?9?$AAm?$AAs?$AA?9?$AAw?$AAi?$AAn?$AA?9?$AAc?$AAo?$AAr?$AAe@
40F20 231 ??_C@_1EI@MPIAOHOC@?$AAa?$AAp?$AAi?$AA?9?$AAm?$AAs?$AA?9?$AAw?$AAi?$AAn?$AA?9?$AAc?$AAo?$AAr?$AAe@
40F68 231 ??_C@_1FK@FPHCKFIE@?$AAa?$AAp?$AAi?$AA?9?$AAm?$AAs?$AA?9?$AAw?$AAi?$AAn?$AA?9?$AAc?$AAo?$AAr?$AAe@
40FC8 231 ??_C@_1EM@DILCGIIO@?$AAa?$AAp?$AAi?$AA?9?$AAm?$AAs?$AA?9?$AAw?$AAi?$AAn?$AA?9?$AAc?$AAo?$AAr?$AAe@
41014 231 ??_C@_1DM@LNCGDDPN@?$AAa?$AAp?$AAi?$AA?9?$AAm?$AAs?$AA?9?$AAw?$AAi?$AAn?$AA?9?$AAc?$AAo?$AAr?$AAe@
41050 231 ??_C@_1DO@FPAPJEMD@?$AAa?$AAp?$AAi?$AA?9?$AAm?$AAs?$AA?9?$AAw?$AAi?$AAn?$AA?9?$AAc?$AAo?$AAr?$AAe@
41090 231 ??_C@_1DK@NDHNAHIO@?$AAa?$AAp?$AAi?$AA?9?$AAm?$AAs?$AA?9?$AAw?$AAi?$AAn?$AA?9?$AAc?$AAo?$AAr?$AAe@
410CC 231 ??_C@_1DM@KGHDGBCM@?$AAa?$AAp?$AAi?$AA?9?$AAm?$AAs?$AA?9?$AAw?$AAi?$AAn?$AA?9?$AAc?$AAo?$AAr?$AAe@
41108 231 ??_C@_1EO@IJIOEFOH@?$AAa?$AAp?$AAi?$AA?9?$AAm?$AAs?$AA?9?$AAw?$AAi?$AAn?$AA?9?$AAr?$AAt?$AAc?$AAo@
41158 231 ??_C@_1FG@HHGEKANL@?$AAa?$AAp?$AAi?$AA?9?$AAm?$AAs?$AA?9?$AAw?$AAi?$AAn?$AA?9?$AAs?$AAe?$AAc?$AAu@
411B0 231 ??_C@_1EG@DBIOJECG@?$AAe?$AAx?$AAt?$AA?9?$AAm?$AAs?$AA?9?$AAw?$AAi?$AAn?$AA?9?$AAn?$AAt?$AAu?$AAs@
411F8 231 ??_C@_1EO@FIHMJCLF@?$AAe?$AAx?$AAt?$AA?9?$AAm?$AAs?$AA?9?$AAw?$AAi?$AAn?$AA?9?$AAn?$AAt?$AAu?$AAs@
41248 231 ??_C@_1BG@CJPGBMEF@?$AAk?$AAe?$AAr?$AAn?$AAe?$AAl?$AAb?$AAa?$AAs?$AAe@
41260 231 ??_C@_1EG@DPGNFKGC@?$AAa?$AAp?$AAi?$AA?9?$AAm?$AAs?$AA?9?$AAw?$AAi?$AAn?$AA?9?$AAa?$AAp?$AAp?$AAm@
412A8 231 ??_C@_1DM@BPJLHKCE@?$AAa?$AAp?$AAi?$AA?9?$AAm?$AAs?$AA?9?$AAw?$AAi?$AAn?$AA?9?$AAc?$AAo?$AAr?$AAe@
412E4 231 ??_C@_1BA@IAIFMGEF@?$AAe?$AAx?$AAt?$AA?9?$AAm?$AAs?$AA?9@
412F4 231 ?candidate_modules@?1??try_get_AreFileApisANSI@@YAP6GHXZXZ@4QBW4module_id@?A0x391cf84c@@B
412F8 231 ??_C@_0BA@FHFNEAED@AreFileApisANSI@
41308 231 ?candidate_modules@?1??try_get_CompareStringEx@@YAP6GHPB_WK0H0HPAU_nlsversioninfo@@PAXJ@ZXZ@4QBW4module_id@?A0x391cf84c@@B
41310 231 ??_C@_0BA@IHGNDAEB@CompareStringEx@
41320 231 ?candidate_modules@?1??try_get_EnumSystemLocalesEx@@YAP6GHP6GHPA_WKJ@ZKJPAX@ZXZ@4QBW4module_id@?A0x391cf84c@@B
41328 231 ??_C@_0BE@LJANKFHF@EnumSystemLocalesEx@
4133C 231 ?candidate_modules@?1??try_get_GetDateFormatEx@@YAP6GHPB_WKPBU_SYSTEMTIME@@0PA_WH0@ZXZ@4QBW4module_id@?A0x391cf84c@@B
41344 231 ??_C@_0BA@EPCJIIPD@GetDateFormatEx@
41354 231 ?candidate_modules@?1??try_get_GetLocaleInfoEx@@YAP6GHPB_WKPA_WH@ZXZ@4QBW4module_id@?A0x391cf84c@@B
4135C 231 ??_C@_0BA@ONOKGCMP@GetLocaleInfoEx@
4136C 231 ?candidate_modules@?1??try_get_GetTimeFormatEx@@YAP6GHPB_WKPBU_SYSTEMTIME@@0PA_WH@ZXZ@4QBW4module_id@?A0x391cf84c@@B
41374 231 ??_C@_0BA@CIJJKCJJ@GetTimeFormatEx@
41384 231 ?candidate_modules@?1??try_get_GetUserDefaultLocaleName@@YAP6GHPA_WH@ZXZ@4QBW4module_id@?A0x391cf84c@@B
4138C 231 ??_C@_0BJ@PBCCBIPI@GetUserDefaultLocaleName@
413A8 231 ?candidate_modules@?1??try_get_InitializeCriticalSectionEx@@YAP6GHPAU_RTL_CRITICAL_SECTION@@KK@ZXZ@4QBW4module_id@?A0x391cf84c@@B
413B0 231 ?candidate_modules@?1??try_get_IsValidLocaleName@@YAP6GHPB_W@ZXZ@4QBW4module_id@?A0x391cf84c@@B
413B8 231 ??_C@_0BC@CELBKLLA@IsValidLocaleName@
413CC 231 ?candidate_modules@?1??try_get_LCMapStringEx@@YAP6GHPB_WK0HPA_WHPAU_nlsversioninfo@@PAXJ@ZXZ@4QBW4module_id@?A0x391cf84c@@B
413D4 231 ??_C@_0O@KKBNKAPF@LCMapStringEx@
413E4 231 ?candidate_modules@?1??try_get_LCIDToLocaleName@@YAP6GHKPA_WHK@ZXZ@4QBW4module_id@?A0x391cf84c@@B
413EC 231 ??_C@_0BB@CDHDDLLP@LCIDToLocaleName@
41400 231 ?candidate_modules@?1??try_get_LocaleNameToLCID@@YAP6GKPB_WK@ZXZ@4QBW4module_id@?A0x391cf84c@@B
41408 231 ??_C@_0BB@HBDEELFH@LocaleNameToLCID@
4141C 231 ?candidate_modules@?1??try_get_AppPolicyGetProcessTerminationMethod@@YAP6GJPAXPAW4AppPolicyProcessTerminationMethod@@@ZXZ@4QBW4module_id@?A0x391cf84c@@B
41420 231 ??_C@_0CF@OJOFEIGO@AppPolicyGetProcessTerminationM@
41448 231 ?candidate_modules@?1??try_get_FlsAlloc@@YAP6GKP6GXPAX@Z@ZXZ@4QBW4module_id@?A0x391cf84c@@B
41450 231 ?candidate_modules@?1??try_get_FlsFree@@YAP6GHK@ZXZ@4QBW4module_id@?A0x391cf84c@@B
41458 231 ?candidate_modules@?1??try_get_FlsGetValue@@YAP6GPAXK@ZXZ@4QBW4module_id@?A0x391cf84c@@B
41460 231 ?candidate_modules@?1??try_get_FlsSetValue@@YAP6GHKPAX@ZXZ@4QBW4module_id@?A0x391cf84c@@B
41468 81 ?mask@?P@??_d_int@@9@4QBGB
41488 81 ?sub@?P@??_d_int@@9@4QBIB
41498 83 __Inf_C
414A0 83 __Nan_C
414A8 147 ??_C@_03MGHMBJCF@log@
414AC 147 ??_C@_05HGHHAHAP@log10@
414B4 147 ??_C@_03KHJOGHMM@exp@
414B8 147 ??_C@_03JGHBODFD@pow@
414BC 147 ??_C@_04FIHNOPOL@asin@
414C4 147 ??_C@_04PDIFKINK@acos@
414CC 147 ??_C@_04EIAKFFMI@sqrt@
414D8 116 ?_names@?1??_get_fname@@9@4QBU<unnamed-type-_names>@?1??1@YAPADI@Z@B
415C0 116 ??_C@_04COOMCNPB@sinh@
415C8 116 ??_C@_04HPJJNFIM@cosh@
415D0 116 ??_C@_04FJHINJAO@tanh@
415D8 116 ??_C@_04MLLJIGOK@atan@
415E0 116 ??_C@_05KNGEOGJB@atan2@
415E8 116 ??_C@_03BLEJJJBH@sin@
415EC 116 ??_C@_03LALBNOCG@cos@
415F0 116 ??_C@_03IIINPABG@tan@
415F4 116 ??_C@_04GFPJNGEK@ceil@
415FC 116 ??_C@_05PBJFFIGL@floor@
41604 116 ??_C@_04ODHECPBC@fabs@
4160C 116 ??_C@_04EHEDPDJG@modf@
41614 116 ??_C@_05CEJMAHNP@ldexp@
4161C 116 ??_C@_05KBKMEMPO@_cabs@
41624 116 ??_C@_06MEIMCGCF@_hypot@
4162C 116 ??_C@_04KEPJIHGP@fmod@
41634 116 ??_C@_05GKKHEGJL@frexp@
4163C 116 ??_C@_03MJLDFKDL@_y0@
41640 116 ??_C@_03NAKIGLHK@_y1@
41644 116 ??_C@_03ONILCKOB@_yn@
41648 116 ??_C@_05JGDBENOH@_logb@
41650 116 ??_C@_0L@KDOEJCKC@_nextafter@
41660 214 __d_inf
41668 214 __d_ind
41670 214 __d_max
41678 214 __d_mzero
41680 115 _over
4168C 115 _under
41698 162 ?_mb_locale_names@@3QBQB_WB
416A8 162 ??_C@_1M@HPNHIDJI@?$AAj?$AAa?$AA?9?$AAJ?$AAP@
416B4 162 ??_C@_1M@BIBDDEMK@?$AAz?$AAh?$AA?9?$AAC?$AAN@
416C0 162 ??_C@_1M@JLOOOEGK@?$AAk?$AAo?$AA?9?$AAK?$AAR@
416CC 162 ??_C@_1M@CLNBBOPM@?$AAz?$AAh?$AA?9?$AAT?$AAW@
416D8 122 ___acrt_rg_language
419E4 122 ___acrt_rg_language_count
419E8 122 ___acrt_rg_country
41AFC 122 ___acrt_rg_country_count
41B00 122 ??_C@_1BC@LLOKLNP@?$AAa?$AAm?$AAe?$AAr?$AAi?$AAc?$AAa?$AAn@
41B14 122 ??_C@_1CC@HEIGCDGG@?$AAa?$AAm?$AAe?$AAr?$AAi?$AAc?$AAa?$AAn?$AA?5?$AAe?$AAn?$AAg?$AAl?$AAi?$AAs@
41B38 122 ??_C@_1CC@IHCNOMIN@?$AAa?$AAm?$AAe?$AAr?$AAi?$AAc?$AAa?$AAn?$AA?9?$AAe?$AAn?$AAg?$AAl?$AAi?$AAs@
41B5C 122 ??_C@_1BG@GKAGPCGG@?$AAa?$AAu?$AAs?$AAt?$AAr?$AAa?$AAl?$AAi?$AAa?$AAn@
41B74 122 ??_C@_1BA@GMENCENF@?$AAb?$AAe?$AAl?$AAg?$AAi?$AAa?$AAn@
41B84 122 ??_C@_1BC@PJMIIAAN@?$AAc?$AAa?$AAn?$AAa?$AAd?$AAi?$AAa?$AAn@
41B98 122 ??_C@_17NOIMNFBF@?$AAc?$AAh?$AAh@
41BA0 122 ??_C@_17GGDALCHA@?$AAc?$AAh?$AAi@
41BA8 122 ??_C@_1BA@NPNJKIBL@?$AAc?$AAh?$AAi?$AAn?$AAe?$AAs?$AAe@
41BB8 122 ??_C@_1CC@DINBAMMJ@?$AAc?$AAh?$AAi?$AAn?$AAe?$AAs?$AAe?$AA?9?$AAh?$AAo?$AAn?$AAg?$AAk?$AAo?$AAn@
41BDC 122 ??_C@_1CG@IOBJPACO@?$AAc?$AAh?$AAi?$AAn?$AAe?$AAs?$AAe?$AA?9?$AAs?$AAi?$AAm?$AAp?$AAl?$AAi?$AAf@
41C04 122 ??_C@_1CE@GAJNDCKG@?$AAc?$AAh?$AAi?$AAn?$AAe?$AAs?$AAe?$AA?9?$AAs?$AAi?$AAn?$AAg?$AAa?$AAp?$AAo@
41C28 122 ??_C@_1CI@PAJPIOOD@?$AAc?$AAh?$AAi?$AAn?$AAe?$AAs?$AAe?$AA?9?$AAt?$AAr?$AAa?$AAd?$AAi?$AAt?$AAi@
41C50 122 ??_C@_1BM@NILJBMMD@?$AAd?$AAu?$AAt?$AAc?$AAh?$AA?9?$AAb?$AAe?$AAl?$AAg?$AAi?$AAa?$AAn@
41C6C 122 ??_C@_1CC@OOJPJNEJ@?$AAe?$AAn?$AAg?$AAl?$AAi?$AAs?$AAh?$AA?9?$AAa?$AAm?$AAe?$AAr?$AAi?$AAc?$AAa@
41C90 122 ??_C@_1BI@IOLFEEM@?$AAe?$AAn?$AAg?$AAl?$AAi?$AAs?$AAh?$AA?9?$AAa?$AAu?$AAs@
41CA8 122 ??_C@_1BO@HFFNLENJ@?$AAe?$AAn?$AAg?$AAl?$AAi?$AAs?$AAh?$AA?9?$AAb?$AAe?$AAl?$AAi?$AAz?$AAe@
41CC8 122 ??_C@_1BI@HAPKJMPO@?$AAe?$AAn?$AAg?$AAl?$AAi?$AAs?$AAh?$AA?9?$AAc?$AAa?$AAn@
41CE0 122 ??_C@_1CE@HLNDMIOJ@?$AAe?$AAn?$AAg?$AAl?$AAi?$AAs?$AAh?$AA?9?$AAc?$AAa?$AAr?$AAi?$AAb?$AAb?$AAe@
41D04 122 ??_C@_1BI@LDHJHHAC@?$AAe?$AAn?$AAg?$AAl?$AAi?$AAs?$AAh?$AA?9?$AAi?$AAr?$AAe@
41D1C 122 ??_C@_1CA@NJMMCFOC@?$AAe?$AAn?$AAg?$AAl?$AAi?$AAs?$AAh?$AA?9?$AAj?$AAa?$AAm?$AAa?$AAi?$AAc?$AAa@
41D3C 122 ??_C@_1BG@BHJEBBGG@?$AAe?$AAn?$AAg?$AAl?$AAi?$AAs?$AAh?$AA?9?$AAn?$AAz@
41D54 122 ??_C@_1CK@FGOEJJCO@?$AAe?$AAn?$AAg?$AAl?$AAi?$AAs?$AAh?$AA?9?$AAs?$AAo?$AAu?$AAt?$AAh?$AA?5?$AAa@
41D80 122 ??_C@_1DE@PDBJPCJ@?$AAe?$AAn?$AAg?$AAl?$AAi?$AAs?$AAh?$AA?9?$AAt?$AAr?$AAi?$AAn?$AAi?$AAd?$AAa@
41DB4 122 ??_C@_1BG@JGCANDME@?$AAe?$AAn?$AAg?$AAl?$AAi?$AAs?$AAh?$AA?9?$AAu?$AAk@
41DCC 122 ??_C@_1BG@DINKMLE@?$AAe?$AAn?$AAg?$AAl?$AAi?$AAs?$AAh?$AA?9?$AAu?$AAs@
41DE4 122 ??_C@_1BI@NMFDBHJE@?$AAe?$AAn?$AAg?$AAl?$AAi?$AAs?$AAh?$AA?9?$AAu?$AAs?$AAa@
41DFC 122 ??_C@_1BO@OIHKJKII@?$AAf?$AAr?$AAe?$AAn?$AAc?$AAh?$AA?9?$AAb?$AAe?$AAl?$AAg?$AAi?$AAa?$AAn@
41E1C 122 ??_C@_1CA@NKAELJKI@?$AAf?$AAr?$AAe?$AAn?$AAc?$AAh?$AA?9?$AAc?$AAa?$AAn?$AAa?$AAd?$AAi?$AAa?$AAn@
41E3C 122 ??_C@_1CE@MGKCNLGN@?$AAf?$AAr?$AAe?$AAn?$AAc?$AAh?$AA?9?$AAl?$AAu?$AAx?$AAe?$AAm?$AAb?$AAo?$AAu@
41E60 122 ??_C@_1BK@CEGEAILM@?$AAf?$AAr?$AAe?$AAn?$AAc?$AAh?$AA?9?$AAs?$AAw?$AAi?$AAs?$AAs@
41E7C 122 ??_C@_1CA@PAFKEOCC@?$AAg?$AAe?$AAr?$AAm?$AAa?$AAn?$AA?9?$AAa?$AAu?$AAs?$AAt?$AAr?$AAi?$AAa?$AAn@
41E9C 122 ??_C@_1CI@HCFHGOFD@?$AAg?$AAe?$AAr?$AAm?$AAa?$AAn?$AA?9?$AAl?$AAi?$AAc?$AAh?$AAt?$AAe?$AAn?$AAs@
41EC4 122 ??_C@_1CE@FEDDNPDG@?$AAg?$AAe?$AAr?$AAm?$AAa?$AAn?$AA?9?$AAl?$AAu?$AAx?$AAe?$AAm?$AAb?$AAo?$AAu@
41EE8 122 ??_C@_1BK@LIMINNMN@?$AAg?$AAe?$AAr?$AAm?$AAa?$AAn?$AA?9?$AAs?$AAw?$AAi?$AAs?$AAs@
41F04 122 ??_C@_1BM@LGMDBEPD@?$AAi?$AAr?$AAi?$AAs?$AAh?$AA?9?$AAe?$AAn?$AAg?$AAl?$AAi?$AAs?$AAh@
41F20 122 ??_C@_1BM@NNCFBAEE@?$AAi?$AAt?$AAa?$AAl?$AAi?$AAa?$AAn?$AA?9?$AAs?$AAw?$AAi?$AAs?$AAs@
41F3C 122 ??_C@_1BE@FEDJNPIB@?$AAn?$AAo?$AAr?$AAw?$AAe?$AAg?$AAi?$AAa?$AAn@
41F50 122 ??_C@_1CC@CILKDEIE@?$AAn?$AAo?$AAr?$AAw?$AAe?$AAg?$AAi?$AAa?$AAn?$AA?9?$AAb?$AAo?$AAk?$AAm?$AAa@
41F74 122 ??_C@_1CE@DHMMHEPL@?$AAn?$AAo?$AAr?$AAw?$AAe?$AAg?$AAi?$AAa?$AAn?$AA?9?$AAn?$AAy?$AAn?$AAo?$AAr@
41F98 122 ??_C@_1CK@OPNMHECD@?$AAp?$AAo?$AAr?$AAt?$AAu?$AAg?$AAu?$AAe?$AAs?$AAe?$AA?9?$AAb?$AAr?$AAa?$AAz@
41FC4 122 ??_C@_1CE@KEEHCDB@?$AAs?$AAp?$AAa?$AAn?$AAi?$AAs?$AAh?$AA?9?$AAa?$AAr?$AAg?$AAe?$AAn?$AAt?$AAi@
41FE8 122 ??_C@_1CA@GIAOLHJD@?$AAs?$AAp?$AAa?$AAn?$AAi?$AAs?$AAh?$AA?9?$AAb?$AAo?$AAl?$AAi?$AAv?$AAi?$AAa@
42008 122 ??_C@_1BM@OJNDFNPD@?$AAs?$AAp?$AAa?$AAn?$AAi?$AAs?$AAh?$AA?9?$AAc?$AAh?$AAi?$AAl?$AAe@
42024 122 ??_C@_1CC@OCOLPALL@?$AAs?$AAp?$AAa?$AAn?$AAi?$AAs?$AAh?$AA?9?$AAc?$AAo?$AAl?$AAo?$AAm?$AAb?$AAi@
42048 122 ??_C@_1CG@BPOFMKBB@?$AAs?$AAp?$AAa?$AAn?$AAi?$AAs?$AAh?$AA?9?$AAc?$AAo?$AAs?$AAt?$AAa?$AA?5?$AAr@
42070 122 ??_C@_1DG@IGOBAPBB@?$AAs?$AAp?$AAa?$AAn?$AAi?$AAs?$AAh?$AA?9?$AAd?$AAo?$AAm?$AAi?$AAn?$AAi?$AAc@
420A8 122 ??_C@_1CA@JHAPGEGI@?$AAs?$AAp?$AAa?$AAn?$AAi?$AAs?$AAh?$AA?9?$AAe?$AAc?$AAu?$AAa?$AAd?$AAo?$AAr@
420C8 122 ??_C@_1CI@LAPALJPP@?$AAs?$AAp?$AAa?$AAn?$AAi?$AAs?$AAh?$AA?9?$AAe?$AAl?$AA?5?$AAs?$AAa?$AAl?$AAv@
420F0 122 ??_C@_1CE@PDGBOFOM@?$AAs?$AAp?$AAa?$AAn?$AAi?$AAs?$AAh?$AA?9?$AAg?$AAu?$AAa?$AAt?$AAe?$AAm?$AAa@
42114 122 ??_C@_1CC@NBEBAODI@?$AAs?$AAp?$AAa?$AAn?$AAi?$AAs?$AAh?$AA?9?$AAh?$AAo?$AAn?$AAd?$AAu?$AAr?$AAa@
42138 122 ??_C@_1CA@LLKGHBMF@?$AAs?$AAp?$AAa?$AAn?$AAi?$AAs?$AAh?$AA?9?$AAm?$AAe?$AAx?$AAi?$AAc?$AAa?$AAn@
42158 122 ??_C@_1BO@LKNDOIGD@?$AAs?$AAp?$AAa?$AAn?$AAi?$AAs?$AAh?$AA?9?$AAm?$AAo?$AAd?$AAe?$AAr?$AAn@
42178 122 ??_C@_1CE@NMDMOEEB@?$AAs?$AAp?$AAa?$AAn?$AAi?$AAs?$AAh?$AA?9?$AAn?$AAi?$AAc?$AAa?$AAr?$AAa?$AAg@
4219C 122 ??_C@_1BO@LLCBEJGB@?$AAs?$AAp?$AAa?$AAn?$AAi?$AAs?$AAh?$AA?9?$AAp?$AAa?$AAn?$AAa?$AAm?$AAa@
421BC 122 ??_C@_1CC@FKPGGIHO@?$AAs?$AAp?$AAa?$AAn?$AAi?$AAs?$AAh?$AA?9?$AAp?$AAa?$AAr?$AAa?$AAg?$AAu?$AAa@
421E0 122 ??_C@_1BK@CDEIHOOP@?$AAs?$AAp?$AAa?$AAn?$AAi?$AAs?$AAh?$AA?9?$AAp?$AAe?$AAr?$AAu@
421FC 122 ??_C@_1CI@GAHAKKGP@?$AAs?$AAp?$AAa?$AAn?$AAi?$AAs?$AAh?$AA?9?$AAp?$AAu?$AAe?$AAr?$AAt?$AAo?$AA?5@
42224 122 ??_C@_1CA@NKJBCAGP@?$AAs?$AAp?$AAa?$AAn?$AAi?$AAs?$AAh?$AA?9?$AAu?$AAr?$AAu?$AAg?$AAu?$AAa?$AAy@
42244 122 ??_C@_1CE@ODILCONM@?$AAs?$AAp?$AAa?$AAn?$AAi?$AAs?$AAh?$AA?9?$AAv?$AAe?$AAn?$AAe?$AAz?$AAu?$AAe@
42268 122 ??_C@_1CA@OBNMCGFO@?$AAs?$AAw?$AAe?$AAd?$AAi?$AAs?$AAh?$AA?9?$AAf?$AAi?$AAn?$AAl?$AAa?$AAn?$AAd@
42288 122 ??_C@_1M@PIPDDPPI@?$AAs?$AAw?$AAi?$AAs?$AAs@
42294 122 ??_C@_15PJPFLCCM@?$AAu?$AAk@
4229C 122 ??_C@_15GMFIMNFM@?$AAu?$AAs@
422A4 122 ??_C@_17HAEBFAGL@?$AAu?$AAs?$AAa@
422AC 122 ??_C@_1BA@DPFJEPHB@?$AAa?$AAm?$AAe?$AAr?$AAi?$AAc?$AAa@
422BC 122 ??_C@_1BA@ELOGGFK@?$AAb?$AAr?$AAi?$AAt?$AAa?$AAi?$AAn@
422CC 122 ??_C@_1M@GHBGIGDA@?$AAc?$AAh?$AAi?$AAn?$AAa@
422D8 122 ??_C@_1M@NCHEJOPO@?$AAc?$AAz?$AAe?$AAc?$AAh@
422E4 122 ??_C@_1BA@BKPAPBLA@?$AAe?$AAn?$AAg?$AAl?$AAa?$AAn?$AAd@
422F4 122 ??_C@_1BM@HKBCKIPC@?$AAg?$AAr?$AAe?$AAa?$AAt?$AA?5?$AAb?$AAr?$AAi?$AAt?$AAa?$AAi?$AAn@
42310 122 ??_C@_1BA@PPCHPGJB@?$AAh?$AAo?$AAl?$AAl?$AAa?$AAn?$AAd@
42320 122 ??_C@_1BE@JBMPEGDG@?$AAh?$AAo?$AAn?$AAg?$AA?9?$AAk?$AAo?$AAn?$AAg@
42334 122 ??_C@_1BI@KOELBBPJ@?$AAn?$AAe?$AAw?$AA?9?$AAz?$AAe?$AAa?$AAl?$AAa?$AAn?$AAd@
4234C 122 ??_C@_15HIEBHAIO@?$AAn?$AAz@
42354 122 ??_C@_1BC@CHBCPFPI@?$AAp?$AAr?$AA?5?$AAc?$AAh?$AAi?$AAn?$AAa@
42368 122 ??_C@_1BC@JAOIIFKD@?$AAp?$AAr?$AA?9?$AAc?$AAh?$AAi?$AAn?$AAa@
4237C 122 ??_C@_1BI@BEHPPHKC@?$AAp?$AAu?$AAe?$AAr?$AAt?$AAo?$AA?9?$AAr?$AAi?$AAc?$AAo@
42394 122 ??_C@_1O@PAEOFKDI@?$AAs?$AAl?$AAo?$AAv?$AAa?$AAk@
423A4 122 ??_C@_1BK@FIHMCKAM@?$AAs?$AAo?$AAu?$AAt?$AAh?$AA?5?$AAa?$AAf?$AAr?$AAi?$AAc?$AAa@
423C0 122 ??_C@_1BI@NAEOODKB@?$AAs?$AAo?$AAu?$AAt?$AAh?$AA?5?$AAk?$AAo?$AAr?$AAe?$AAa@
423D8 122 ??_C@_1BK@FBDGGIFF@?$AAs?$AAo?$AAu?$AAt?$AAh?$AA?9?$AAa?$AAf?$AAr?$AAi?$AAc?$AAa@
423F4 122 ??_C@_1BI@GHLEJDPK@?$AAs?$AAo?$AAu?$AAt?$AAh?$AA?9?$AAk?$AAo?$AAr?$AAe?$AAa@
4240C 122 ??_C@_1CE@PLHLOMJF@?$AAt?$AAr?$AAi?$AAn?$AAi?$AAd?$AAa?$AAd?$AA?5?$AA?$CG?$AA?5?$AAt?$AAo?$AAb?$AAa@
42430 122 ??_C@_1BO@MODIMHHI@?$AAu?$AAn?$AAi?$AAt?$AAe?$AAd?$AA?9?$AAk?$AAi?$AAn?$AAg?$AAd?$AAo?$AAm@
42450 122 ??_C@_1BM@FFHJONBJ@?$AAu?$AAn?$AAi?$AAt?$AAe?$AAd?$AA?9?$AAs?$AAt?$AAa?$AAt?$AAe?$AAs@
4246C 122 ??_C@_19MPDNHKDG@?$AAu?$AAt?$AAf?$AA8@
42478 122 ??_C@_17DNCLJFIF@?$AAA?$AAC?$AAP@
42480 122 ??_C@_1M@FPEIIFAM@?$AAu?$AAt?$AAf?$AA?9?$AA8@
4248C 122 ??_C@_17CIKBIHLH@?$AAO?$AAC?$AAP@
42494 125 ___rglangidNotDefault
424A8 143 ?LcidToLocaleNameTable@?A0x881e4c05@@3QBULcidToLocaleName@1@B
42BC8 143 ??_C@_15EMKDOKLE@?$AAa?$AAr@
42BD0 143 ??_C@_15KNPADPLH@?$AAb?$AAg@
42BD8 143 ??_C@_15EDMHLDMO@?$AAc?$AAa@
42BE0 143 ??_C@_1O@BPEAJADD@?$AAz?$AAh?$AA?9?$AAC?$AAH?$AAS@
42BF0 143 ??_C@_15LJNHCMNK@?$AAc?$AAs@
42BF8 143 ??_C@_15FOMCIDHG@?$AAd?$AAa@
42C00 143 ??_C@_15NBKABECB@?$AAd?$AAe@
42C08 143 ??_C@_15GHPEIIAO@?$AAe?$AAl@
42C10 143 ??_C@_15MNPNEAIF@?$AAe?$AAn@
42C18 143 ??_C@_15GPIOMPMH@?$AAe?$AAs@
42C20 143 ??_C@_15NGLOAKJC@?$AAf?$AAi@
42C28 143 ??_C@_15FBKGNKAM@?$AAf?$AAr@
42C30 143 ??_C@_15KGGCNEFK@?$AAh?$AAe@
42C38 143 ??_C@_15PGHLIDMF@?$AAh?$AAu@
42C40 143 ??_C@_15BIEMAPLM@?$AAi?$AAs@
42C48 143 ??_C@_15IFJLDHAF@?$AAi?$AAt@
42C50 143 ??_C@_15GEMIOCAG@?$AAj?$AAa@
42C58 143 ??_C@_15EPELEGJA@?$AAk?$AAo@
42C60 143 ??_C@_15NDDHIMN@?$AAn?$AAl@
42C68 143 ??_C@_15BPIGNHCD@?$AAn?$AAo@
42C70 143 ??_C@_15DEOPBLCG@?$AAp?$AAl@
42C78 143 ??_C@_15KBECGEFG@?$AAp?$AAt@
42C80 143 ??_C@_15GLJCBFMD@?$AAr?$AAo@
42C88 143 ??_C@_15FEDGKCDI@?$AAr?$AAu@
42C90 143 ??_C@_15GLKMLLHM@?$AAh?$AAr@
42C98 143 ??_C@_15CPKMFBDB@?$AAs?$AAk@
42CA0 143 ??_C@_15BAAIOGMK@?$AAs?$AAq@
42CA8 143 ??_C@_15INNPNOHD@?$AAs?$AAv@
42CB0 143 ??_C@_15CABMMOGH@?$AAt?$AAh@
42CB8 143 ??_C@_15BPLIHJJM@?$AAt?$AAr@
42CC0 143 ??_C@_15NEOEKKDJ@?$AAu?$AAr@
42CC8 143 ??_C@_15NFICGAJK@?$AAi?$AAd@
42CD0 143 ??_C@_15HPJPHDM@?$AAb?$AAe@
42CD8 143 ??_C@_15LCHLGJII@?$AAs?$AAl@
42CE0 143 ??_C@_15PCFJPHHO@?$AAe?$AAt@
42CE8 143 ??_C@_15HPFPGODN@?$AAl?$AAv@
42CF0 143 ??_C@_15NFFGKGLG@?$AAl?$AAt@
42CF8 143 ??_C@_15BDAKCCHN@?$AAf?$AAa@
42D00 143 ??_C@_15NFGIAIAJ@?$AAv?$AAi@
42D08 143 ??_C@_15LMKNDMHN@?$AAh?$AAy@
42D10 143 ??_C@_15IJBHMCFL@?$AAa?$AAz@
42D18 143 ??_C@_15EKOFJABL@?$AAe?$AAu@
42D20 143 ??_C@_15BGHADCNK@?$AAm?$AAk@
42D28 143 ??_C@_15JDNICKHM@?$AAa?$AAf@
42D30 143 ??_C@_15KPJEDBKD@?$AAk?$AAa@
42D38 143 ??_C@_15PDNFFFEO@?$AAf?$AAo@
42D40 143 ??_C@_15OMLEGLOC@?$AAh?$AAi@
42D48 143 ??_C@_15IDNNENKK@?$AAm?$AAs@
42D50 143 ??_C@_15MACJNBMH@?$AAk?$AAk@
42D58 143 ??_C@_15DKDJEOND@?$AAk?$AAy@
42D60 143 ??_C@_15DFGDLJBG@?$AAs?$AAw@
42D68 143 ??_C@_15BBFAICNG@?$AAu?$AAz@
42D70 143 ??_C@_15DKNDCGEA@?$AAt?$AAt@
42D78 143 ??_C@_15MGIFMDPL@?$AAp?$AAa@
42D80 143 ??_C@_15HCNDBBA@?$AAg?$AAu@
42D88 143 ??_C@_15FNBEIBON@?$AAt?$AAa@
42D90 143 ??_C@_15NCHGBGLK@?$AAt?$AAe@
42D98 143 ??_C@_15PHPHCBPF@?$AAk?$AAn@
42DA0 143 ??_C@_15DLGBCKMP@?$AAm?$AAr@
42DA8 143 ??_C@_15EABBLBFF@?$AAs?$AAa@
42DB0 143 ??_C@_15CBKOMCOI@?$AAm?$AAn@
42DB8 143 ??_C@_15CKDMCJAF@?$AAg?$AAl@
42DC0 143 ??_C@_17CNJFBPG@?$AAk?$AAo?$AAk@
42DC8 143 ??_C@_17FFBJICPL@?$AAs?$AAy?$AAr@
42DD0 143 ??_C@_17KPNDCPAF@?$AAd?$AAi?$AAv@
42DD8 143 ??_C@_1M@OKAHONE@?$AAa?$AAr?$AA?9?$AAS?$AAA@
42DE4 143 ??_C@_1M@FFFIGIGK@?$AAb?$AAg?$AA?9?$AAB?$AAG@
42DF0 143 ??_C@_1M@BJNKEDC@?$AAc?$AAa?$AA?9?$AAE?$AAS@
42DFC 143 ??_C@_1M@IJJHFJHA@?$AAc?$AAs?$AA?9?$AAC?$AAZ@
42E08 143 ??_C@_1M@CLPEOBGI@?$AAd?$AAa?$AA?9?$AAD?$AAK@
42E14 143 ??_C@_1M@MCMADGCB@?$AAd?$AAe?$AA?9?$AAD?$AAE@
42E20 143 ??_C@_1M@OOCKEMAM@?$AAe?$AAl?$AA?9?$AAG?$AAR@
42E2C 143 ??_C@_1M@DDNJFGID@?$AAf?$AAi?$AA?9?$AAF?$AAI@
42E38 143 ??_C@_1M@GLIPPMAC@?$AAf?$AAr?$AA?9?$AAF?$AAR@
42E44 143 ??_C@_1M@GFMCHPE@?$AAh?$AAe?$AA?9?$AAI?$AAL@
42E50 143 ??_C@_1M@MHLPGNKM@?$AAh?$AAu?$AA?9?$AAH?$AAU@
42E5C 143 ??_C@_1M@LPDDNNPN@?$AAi?$AAs?$AA?9?$AAI?$AAS@
42E68 143 ??_C@_1M@MADIPODN@?$AAi?$AAt?$AA?9?$AAI?$AAT@
42E74 143 ??_C@_1M@IHBJJGG@?$AAn?$AAl?$AA?9?$AAN?$AAL@
42E80 143 ??_C@_1M@EANAGDL@?$AAn?$AAb?$AA?9?$AAN?$AAO@
42E8C 143 ??_C@_1M@NEIEMEGP@?$AAp?$AAl?$AA?9?$AAP?$AAL@
42E98 143 ??_C@_1M@BOCFIGEP@?$AAp?$AAt?$AA?9?$AAB?$AAR@
42EA4 143 ??_C@_1M@IMPFOPBG@?$AAr?$AAo?$AA?9?$AAR?$AAO@
42EB0 143 ??_C@_1M@IDNNEJMM@?$AAr?$AAu?$AA?9?$AAR?$AAU@
42EBC 143 ??_C@_1M@LILEEOGM@?$AAh?$AAr?$AA?9?$AAH?$AAR@
42EC8 143 ??_C@_1M@FKIFEHPB@?$AAs?$AAk?$AA?9?$AAS?$AAK@
42ED4 143 ??_C@_1M@LJMAMNPJ@?$AAs?$AAq?$AA?9?$AAA?$AAL@
42EE0 143 ??_C@_1M@GIAKDKJK@?$AAs?$AAv?$AA?9?$AAS?$AAE@
42EEC 143 ??_C@_1M@MKJKIKCL@?$AAt?$AAh?$AA?9?$AAT?$AAH@
42EF8 143 ??_C@_1M@MFLCCMPB@?$AAt?$AAr?$AA?9?$AAT?$AAR@
42F04 143 ??_C@_1M@OIJHDKJN@?$AAu?$AAr?$AA?9?$AAP?$AAK@
42F10 143 ??_C@_1M@LHIPCIEK@?$AAi?$AAd?$AA?9?$AAI?$AAD@
42F1C 143 ??_C@_1M@MFMOBGI@?$AAu?$AAk?$AA?9?$AAU?$AAA@
42F28 143 ??_C@_1M@OBGLJIPL@?$AAb?$AAe?$AA?9?$AAB?$AAY@
42F34 143 ??_C@_1M@BCFAJEAD@?$AAs?$AAl?$AA?9?$AAS?$AAI@
42F40 143 ??_C@_1M@FKFFEDDN@?$AAe?$AAt?$AA?9?$AAE?$AAE@
42F4C 143 ??_C@_1M@KGKKAACI@?$AAl?$AAv?$AA?9?$AAL?$AAV@
42F58 143 ??_C@_1M@IFGBIJO@?$AAl?$AAt?$AA?9?$AAL?$AAT@
42F64 143 ??_C@_1M@FGEAHEDM@?$AAf?$AAa?$AA?9?$AAI?$AAR@
42F70 143 ??_C@_1M@KBMAIBFN@?$AAv?$AAi?$AA?9?$AAV?$AAN@
42F7C 143 ??_C@_1M@GPCBKDJK@?$AAh?$AAy?$AA?9?$AAA?$AAM@
42F88 143 ??_C@_1BG@BECMDDJB@?$AAa?$AAz?$AA?9?$AAA?$AAZ?$AA?9?$AAL?$AAa?$AAt?$AAn@
42FA0 143 ??_C@_1M@MAOFCAEA@?$AAe?$AAu?$AA?9?$AAE?$AAS@
42FAC 143 ??_C@_1M@IGHABKPI@?$AAm?$AAk?$AA?9?$AAM?$AAK@
42FB8 143 ??_C@_1M@IAIGNEJG@?$AAt?$AAn?$AA?9?$AAZ?$AAA@
42FC4 143 ??_C@_1M@IIJCOJFA@?$AAx?$AAh?$AA?9?$AAZ?$AAA@
42FD0 143 ??_C@_1M@LGPJHNJH@?$AAz?$AAu?$AA?9?$AAZ?$AAA@
42FDC 143 ??_C@_1M@HOKAOIO@?$AAa?$AAf?$AA?9?$AAZ?$AAA@
42FE8 143 ??_C@_1M@DPCLHLIE@?$AAk?$AAa?$AA?9?$AAG?$AAE@
42FF4 143 ??_C@_1M@BLKMHJBI@?$AAf?$AAo?$AA?9?$AAF?$AAO@
43000 143 ??_C@_1M@LGGJAPPB@?$AAh?$AAi?$AA?9?$AAI?$AAN@
4300C 143 ??_C@_1M@FIKPIHFE@?$AAm?$AAt?$AA?9?$AAM?$AAT@
43018 143 ??_C@_1M@HEGGPBFA@?$AAs?$AAe?$AA?9?$AAN?$AAO@
43024 143 ??_C@_1M@EIBJEEPA@?$AAm?$AAs?$AA?9?$AAM?$AAY@
43030 143 ??_C@_1M@FHLBGMPP@?$AAk?$AAk?$AA?9?$AAK?$AAZ@
4303C 143 ??_C@_1M@NGJJLCGI@?$AAk?$AAy?$AA?9?$AAK?$AAG@
43048 143 ??_C@_1M@GIENNBFC@?$AAs?$AAw?$AA?9?$AAK?$AAE@
43054 143 ??_C@_1BG@NDGMJIMJ@?$AAu?$AAz?$AA?9?$AAU?$AAZ?$AA?9?$AAL?$AAa?$AAt?$AAn@
4306C 143 ??_C@_1M@IDCCIHBC@?$AAt?$AAt?$AA?9?$AAR?$AAU@
43078 143 ??_C@_1M@LOICPMOJ@?$AAb?$AAn?$AA?9?$AAI?$AAN@
43084 143 ??_C@_1M@KPKKNEAH@?$AAp?$AAa?$AA?9?$AAI?$AAN@
43090 143 ??_C@_1M@PJGPPBOG@?$AAg?$AAu?$AA?9?$AAI?$AAN@
4309C 143 ??_C@_1M@KMKMOPHI@?$AAt?$AAa?$AA?9?$AAI?$AAN@
430A8 143 ??_C@_1M@KFEHEPAC@?$AAt?$AAe?$AA?9?$AAI?$AAN@
430B4 143 ??_C@_1M@CDCLMGHI@?$AAk?$AAn?$AA?9?$AAI?$AAN@
430C0 143 ??_C@_1M@MIODLDKF@?$AAm?$AAl?$AA?9?$AAI?$AAN@
430CC 143 ??_C@_1M@PBIEACPO@?$AAm?$AAr?$AA?9?$AAI?$AAN@
430D8 143 ??_C@_1M@NIDEAGPH@?$AAs?$AAa?$AA?9?$AAI?$AAN@
430E4 143 ??_C@_1M@FHIHCBIO@?$AAm?$AAn?$AA?9?$AAM?$AAN@
430F0 143 ??_C@_1M@JAIJPENP@?$AAc?$AAy?$AA?9?$AAG?$AAB@
430FC 143 ??_C@_1M@PHGFBEPN@?$AAg?$AAl?$AA?9?$AAE?$AAS@
43108 143 ??_C@_1O@KPIPDNCP@?$AAk?$AAo?$AAk?$AA?9?$AAI?$AAN@
43118 143 ??_C@_1O@KNHJLDJA@?$AAs?$AAy?$AAr?$AA?9?$AAS?$AAY@
43128 143 ??_C@_1O@MKEKBLAH@?$AAd?$AAi?$AAv?$AA?9?$AAM?$AAV@
43138 143 ??_C@_1O@OHDCKDDF@?$AAq?$AAu?$AAz?$AA?9?$AAB?$AAO@
43148 143 ??_C@_1M@LEPJNLFD@?$AAn?$AAs?$AA?9?$AAZ?$AAA@
43154 143 ??_C@_1M@OMLEIIJB@?$AAm?$AAi?$AA?9?$AAN?$AAZ@
43160 143 ??_C@_1M@PMPEAILG@?$AAa?$AAr?$AA?9?$AAI?$AAQ@
4316C 143 ??_C@_1M@CNKPNOEE@?$AAd?$AAe?$AA?9?$AAC?$AAH@
43178 143 ??_C@_1M@LKMGMLKO@?$AAe?$AAn?$AA?9?$AAG?$AAB@
43184 143 ??_C@_1M@PGKJFFGL@?$AAe?$AAs?$AA?9?$AAM?$AAX@
43190 143 ??_C@_1M@DNNANBDC@?$AAf?$AAr?$AA?9?$AAB?$AAE@
4319C 143 ??_C@_1M@HLGMDFHM@?$AAi?$AAt?$AA?9?$AAC?$AAH@
431A8 143 ??_C@_1M@CLLBGJH@?$AAn?$AAl?$AA?9?$AAB?$AAE@
431B4 143 ??_C@_1M@BODBOGLF@?$AAn?$AAn?$AA?9?$AAN?$AAO@
431C0 143 ??_C@_1M@HFFAHKAD@?$AAp?$AAt?$AA?9?$AAP?$AAT@
431CC 143 ??_C@_1BG@LNOAKHIE@?$AAs?$AAr?$AA?9?$AAS?$AAP?$AA?9?$AAL?$AAa?$AAt?$AAn@
431E4 143 ??_C@_1M@HBMHBGAK@?$AAs?$AAv?$AA?9?$AAF?$AAI@
431F0 143 ??_C@_1BG@DGCJGJBE@?$AAa?$AAz?$AA?9?$AAA?$AAZ?$AA?9?$AAC?$AAy?$AAr?$AAl@
43208 143 ??_C@_1M@KEJDAAHB@?$AAs?$AAe?$AA?9?$AAS?$AAE@
43214 143 ??_C@_1M@HEIBJJAD@?$AAm?$AAs?$AA?9?$AAB?$AAN@
43220 143 ??_C@_1BG@PBGJMCEM@?$AAu?$AAz?$AA?9?$AAU?$AAZ?$AA?9?$AAC?$AAy?$AAr?$AAl@
43238 143 ??_C@_1O@LAOBCMDF@?$AAq?$AAu?$AAz?$AA?9?$AAE?$AAC@
43248 143 ??_C@_1M@POEEMAIO@?$AAa?$AAr?$AA?9?$AAE?$AAG@
43254 143 ??_C@_1M@EFAKDEDL@?$AAz?$AAh?$AA?9?$AAH?$AAK@
43260 143 ??_C@_1M@HKKIJHGI@?$AAd?$AAe?$AA?9?$AAA?$AAT@
4326C 143 ??_C@_1M@KBFBEHJF@?$AAe?$AAn?$AA?9?$AAA?$AAU@
43278 143 ??_C@_1M@MNPLFAAH@?$AAe?$AAs?$AA?9?$AAE?$AAS@
43284 143 ??_C@_1M@HJOOJFMA@?$AAf?$AAr?$AA?9?$AAC?$AAA@
43290 143 ??_C@_1BG@JPOFPNAB@?$AAs?$AAr?$AA?9?$AAS?$AAP?$AA?9?$AAC?$AAy?$AAr?$AAl@
432A8 143 ??_C@_1M@LNFOCMOB@?$AAs?$AAe?$AA?9?$AAF?$AAI@
432B4 143 ??_C@_1O@MGJBOAMB@?$AAq?$AAu?$AAz?$AA?9?$AAP?$AAE@
432C4 143 ??_C@_1M@GJINLBOK@?$AAa?$AAr?$AA?9?$AAL?$AAY@
432D0 143 ??_C@_1M@GGMNHJNL@?$AAz?$AAh?$AA?9?$AAS?$AAG@
432DC 143 ??_C@_1M@HOIKODND@?$AAd?$AAe?$AA?9?$AAL?$AAU@
432E8 143 ??_C@_1M@DDOCCGFG@?$AAe?$AAn?$AA?9?$AAC?$AAA@
432F4 143 ??_C@_1M@BNOEMJLF@?$AAe?$AAs?$AA?9?$AAG?$AAT@
43300 143 ??_C@_1M@EOGNKEK@?$AAf?$AAr?$AA?9?$AAC?$AAH@
4330C 143 ??_C@_1M@FLIDJFHL@?$AAh?$AAr?$AA?9?$AAB?$AAA@
43318 143 ??_C@_1O@FMCELNAJ@?$AAs?$AAm?$AAj?$AA?9?$AAN?$AAO@
43328 143 ??_C@_1M@JHGLJMGJ@?$AAa?$AAr?$AA?9?$AAD?$AAZ@
43334 143 ??_C@_1M@JKKFDCNP@?$AAz?$AAh?$AA?9?$AAM?$AAO@
43340 143 ??_C@_1M@GEEFALPE@?$AAd?$AAe?$AA?9?$AAL?$AAI@
4334C 143 ??_C@_1M@IGEOFBG@?$AAe?$AAn?$AA?9?$AAN?$AAZ@
43358 143 ??_C@_1M@KDBONEHP@?$AAe?$AAs?$AA?9?$AAC?$AAR@
43364 143 ??_C@_1M@FHMDOHNN@?$AAf?$AAr?$AA?9?$AAL?$AAU@
43370 143 ??_C@_1BG@NFKKMAFG@?$AAb?$AAs?$AA?9?$AAB?$AAA?$AA?9?$AAL?$AAa?$AAt?$AAn@
43388 143 ??_C@_1O@IMNBEMCI@?$AAs?$AAm?$AAj?$AA?9?$AAS?$AAE@
43398 143 ??_C@_1M@DHHMBNDP@?$AAa?$AAr?$AA?9?$AAM?$AAA@
433A4 143 ??_C@_1M@BNBLJCGH@?$AAe?$AAn?$AA?9?$AAI?$AAE@
433B0 143 ??_C@_1M@GEPAFMDL@?$AAe?$AAs?$AA?9?$AAP?$AAA@
433BC 143 ??_C@_1M@OJONDMDL@?$AAf?$AAr?$AA?9?$AAM?$AAC@
433C8 143 ??_C@_1BG@OBCNFJB@?$AAs?$AAr?$AA?9?$AAB?$AAA?$AA?9?$AAL?$AAa?$AAt?$AAn@
433E0 143 ??_C@_1O@KEMEEGPO@?$AAs?$AAm?$AAa?$AA?9?$AAN?$AAO@
433F0 143 ??_C@_1M@ELMGFODK@?$AAa?$AAr?$AA?9?$AAT?$AAN@
433FC 143 ??_C@_1M@BHDLHFAF@?$AAe?$AAn?$AA?9?$AAZ?$AAA@
43408 143 ??_C@_1M@BMGIGLIF@?$AAe?$AAs?$AA?9?$AAD?$AAO@
43414 143 ??_C@_1BG@CMBHIPBE@?$AAs?$AAr?$AA?9?$AAB?$AAA?$AA?9?$AAC?$AAy?$AAr?$AAl@
4342C 143 ??_C@_1O@HEDBLHNP@?$AAs?$AAm?$AAa?$AA?9?$AAS?$AAE@
4343C 143 ??_C@_1M@DAGCADIM@?$AAa?$AAr?$AA?9?$AAO?$AAM@
43448 143 ??_C@_1M@FODLMICG@?$AAe?$AAn?$AA?9?$AAJ?$AAM@
43454 143 ??_C@_1M@DNMLCIHB@?$AAe?$AAs?$AA?9?$AAV?$AAE@
43460 143 ??_C@_1O@EOKHMKJK@?$AAs?$AAm?$AAs?$AA?9?$AAF?$AAI@
43470 143 ??_C@_1M@CAFJMKOF@?$AAa?$AAr?$AA?9?$AAY?$AAE@
4347C 143 ??_C@_1M@CBFHIJLI@?$AAe?$AAn?$AA?9?$AAC?$AAB@
43488 143 ??_C@_1M@BGNFLDN@?$AAe?$AAs?$AA?9?$AAC?$AAO@
43494 143 ??_C@_1O@JMPHMAMC@?$AAs?$AAm?$AAn?$AA?9?$AAF?$AAI@
434A4 143 ??_C@_1M@JLANABKE@?$AAa?$AAr?$AA?9?$AAS?$AAY@
434B0 143 ??_C@_1M@HPKGCFGN@?$AAe?$AAn?$AA?9?$AAB?$AAZ@
434BC 143 ??_C@_1M@OLJCMLGM@?$AAe?$AAs?$AA?9?$AAP?$AAE@
434C8 143 ??_C@_1M@MKKGFKLE@?$AAa?$AAr?$AA?9?$AAJ?$AAO@
434D4 143 ??_C@_1M@EKPGLDNI@?$AAe?$AAn?$AA?9?$AAT?$AAT@
434E0 143 ??_C@_1M@OONGHFHE@?$AAe?$AAs?$AA?9?$AAA?$AAR@
434EC 143 ??_C@_1M@OOJFGBHE@?$AAa?$AAr?$AA?9?$AAL?$AAB@
434F8 143 ??_C@_1M@GCEJHNEG@?$AAe?$AAn?$AA?9?$AAZ?$AAW@
43504 143 ??_C@_1M@JNOCAHJI@?$AAe?$AAs?$AA?9?$AAE?$AAC@
43510 143 ??_C@_1M@JEFHPGGB@?$AAa?$AAr?$AA?9?$AAK?$AAW@
4351C 143 ??_C@_1M@MLKIBJOJ@?$AAe?$AAn?$AA?9?$AAP?$AAH@
43528 143 ??_C@_1M@BDNIPEND@?$AAe?$AAs?$AA?9?$AAC?$AAL@
43534 143 ??_C@_1M@MPNMEKBD@?$AAa?$AAr?$AA?9?$AAA?$AAE@
43540 143 ??_C@_1M@KBJALCPI@?$AAe?$AAs?$AA?9?$AAU?$AAY@
4354C 143 ??_C@_1M@LLCCOAGA@?$AAa?$AAr?$AA?9?$AAB?$AAH@
43558 143 ??_C@_1M@PBFNCDEL@?$AAe?$AAs?$AA?9?$AAP?$AAY@
43564 143 ??_C@_1M@EDGINPNP@?$AAa?$AAr?$AA?9?$AAQ?$AAA@
43570 143 ??_C@_1M@MKDBIIJI@?$AAe?$AAs?$AA?9?$AAB?$AAO@
4357C 143 ??_C@_1M@CPKKEBLD@?$AAe?$AAs?$AA?9?$AAS?$AAV@
43588 143 ??_C@_1M@NDBGMMJL@?$AAe?$AAs?$AA?9?$AAH?$AAN@
43594 143 ??_C@_1M@JIJIBHDP@?$AAe?$AAs?$AA?9?$AAN?$AAI@
435A0 143 ??_C@_1M@CGFMKEEK@?$AAe?$AAs?$AA?9?$AAP?$AAR@
435AC 143 ??_C@_1O@ICJHKIIK@?$AAz?$AAh?$AA?9?$AAC?$AAH?$AAT@
435BC 143 ??_C@_15CLNEJCE@?$AAs?$AAr@
435C8 143 ?LocaleNameToIndexTable@?A0x881e4c05@@3QBULocaleNameIndex@1@B
43CE8 143 ??_C@_1M@KAHEKEIG@?$AAa?$AAf?$AA?9?$AAz?$AAa@
43CF4 143 ??_C@_1M@GIECOABL@?$AAa?$AAr?$AA?9?$AAa?$AAe@
43D00 143 ??_C@_1M@BMLMEKGI@?$AAa?$AAr?$AA?9?$AAb?$AAh@
43D0C 143 ??_C@_1M@DAPFDGGB@?$AAa?$AAr?$AA?9?$AAd?$AAz@
43D18 143 ??_C@_1M@FJNKGKIG@?$AAa?$AAr?$AA?9?$AAe?$AAg@
43D24 143 ??_C@_1M@FLGKKCLO@?$AAa?$AAr?$AA?9?$AAi?$AAq@
43D30 143 ??_C@_1M@GNDIPALM@?$AAa?$AAr?$AA?9?$AAj?$AAo@
43D3C 143 ??_C@_1M@DDMJFMGJ@?$AAa?$AAr?$AA?9?$AAk?$AAw@
43D48 143 ??_C@_1M@EJALMLHM@?$AAa?$AAr?$AA?9?$AAl?$AAb@
43D54 143 ??_C@_1M@MOBDBLOC@?$AAa?$AAr?$AA?9?$AAl?$AAy@
43D60 143 ??_C@_1M@JAOCLHDH@?$AAa?$AAr?$AA?9?$AAm?$AAa@
43D6C 143 ??_C@_1M@JHPMKJIE@?$AAa?$AAr?$AA?9?$AAo?$AAm@
43D78 143 ??_C@_1M@OEPGHFNH@?$AAa?$AAr?$AA?9?$AAq?$AAa@
43D84 143 ??_C@_1M@KJDONENM@?$AAa?$AAr?$AA?9?$AAs?$AAa@
43D90 143 ??_C@_1M@DMJDKLKM@?$AAa?$AAr?$AA?9?$AAs?$AAy@
43D9C 143 ??_C@_1M@OMFIPEDC@?$AAa?$AAr?$AA?9?$AAt?$AAn@
43DA8 143 ??_C@_1M@IHMHGAON@?$AAa?$AAr?$AA?9?$AAy?$AAe@
43DB4 143 ??_C@_1BG@KDCPGJGB@?$AAa?$AAz?$AA?9?$AAa?$AAz?$AA?9?$AAc?$AAy?$AAr?$AAl@
43DCC 143 ??_C@_1BG@IBCKDDOE@?$AAa?$AAz?$AA?9?$AAa?$AAz?$AA?9?$AAl?$AAa?$AAt?$AAn@
43DE4 143 ??_C@_1M@EGPFDCPD@?$AAb?$AAe?$AA?9?$AAb?$AAy@
43DF0 143 ??_C@_1M@PCMGMCGC@?$AAb?$AAg?$AA?9?$AAb?$AAg@
43DFC 143 ??_C@_1M@BJBMFGOB@?$AAb?$AAn?$AA?9?$AAi?$AAn@
43E08 143 ??_C@_1BG@EAKMMACD@?$AAb?$AAs?$AA?9?$AAb?$AAa?$AA?9?$AAl?$AAa?$AAt?$AAn@
43E20 143 ??_C@_1M@KGADAODK@?$AAc?$AAa?$AA?9?$AAe?$AAs@
43E2C 143 ??_C@_1M@COAJPDHI@?$AAc?$AAs?$AA?9?$AAc?$AAz@
43E38 143 ??_C@_1M@DHBHFONH@?$AAc?$AAy?$AA?9?$AAg?$AAb@
43E44 143 ??_C@_1M@IMGKELGA@?$AAd?$AAa?$AA?9?$AAd?$AAk@
43E50 143 ??_C@_1M@NNDGDNGA@?$AAd?$AAe?$AA?9?$AAa?$AAt@
43E5C 143 ??_C@_1M@IKDBHEEM@?$AAd?$AAe?$AA?9?$AAc?$AAh@
43E68 143 ??_C@_1M@GFFOJMCJ@?$AAd?$AAe?$AA?9?$AAd?$AAe@
43E74 143 ??_C@_1M@MDNLKBPM@?$AAd?$AAe?$AA?9?$AAl?$AAi@
43E80 143 ??_C@_1M@NJBEEJNL@?$AAd?$AAe?$AA?9?$AAl?$AAu@
43E8C 143 ??_C@_1O@GNNELBAP@?$AAd?$AAi?$AAv?$AA?9?$AAm?$AAv@
43E9C 143 ??_C@_1M@EJLEOGAE@?$AAe?$AAl?$AA?9?$AAg?$AAr@
43EA8 143 ??_C@_1M@GMPONJN@?$AAe?$AAn?$AA?9?$AAa?$AAu@
43EB4 143 ??_C@_1M@NIDIIPGF@?$AAe?$AAn?$AA?9?$AAb?$AAz@
43EC0 143 ??_C@_1M@JEHMIMFO@?$AAe?$AAn?$AA?9?$AAc?$AAa@
43ECC 143 ??_C@_1M@IGMJCDLA@?$AAe?$AAn?$AA?9?$AAc?$AAb@
43ED8 143 ??_C@_1M@BNFIGBKG@?$AAe?$AAn?$AA?9?$AAg?$AAb@
43EE4 143 ??_C@_1M@LKIFDIGP@?$AAe?$AAn?$AA?9?$AAi?$AAe@
43EF0 143 ??_C@_1M@PJKFGCCO@?$AAe?$AAn?$AA?9?$AAj?$AAm@
43EFC 143 ??_C@_1M@KPPKEPBO@?$AAe?$AAn?$AA?9?$AAn?$AAz@
43F08 143 ??_C@_1M@GMDGLDOB@?$AAe?$AAn?$AA?9?$AAp?$AAh@
43F14 143 ??_C@_1M@ONGIBJNA@?$AAe?$AAn?$AA?9?$AAt?$AAt@
43F20 143 ??_C@_1M@LLODPCMM@?$AAe?$AAn?$AA?9?$AAu?$AAs@
43F2C 143 ??_C@_1M@LAKFNPAN@?$AAe?$AAn?$AA?9?$AAz?$AAa@
43F38 143 ??_C@_1M@MFNHNHEO@?$AAe?$AAn?$AA?9?$AAz?$AAw@
43F44 143 ??_C@_1M@EJEINPHM@?$AAe?$AAs?$AA?9?$AAa?$AAr@
43F50 143 ??_C@_1M@GNKPCCJA@?$AAe?$AAs?$AA?9?$AAb?$AAo@
43F5C 143 ??_C@_1M@LEEGFONL@?$AAe?$AAs?$AA?9?$AAc?$AAl@
43F68 143 ??_C@_1M@KGPDPBDF@?$AAe?$AAs?$AA?9?$AAc?$AAo@
43F74 143 ??_C@_1M@EIAHOHH@?$AAe?$AAs?$AA?9?$AAc?$AAr@
43F80 143 ??_C@_1M@LLPGMBIN@?$AAe?$AAs?$AA?9?$AAd?$AAo@
43F8C 143 ??_C@_1M@DKHMKNJA@?$AAe?$AAs?$AA?9?$AAe?$AAc@
43F98 143 ??_C@_1M@GKGFPKAP@?$AAe?$AAs?$AA?9?$AAe?$AAs@
43FA4 143 ??_C@_1M@LKHKGDLN@?$AAe?$AAs?$AA?9?$AAg?$AAt@
43FB0 143 ??_C@_1M@HEIIGGJD@?$AAe?$AAs?$AA?9?$AAh?$AAn@
43FBC 143 ??_C@_1M@FBDHPPGD@?$AAe?$AAs?$AA?9?$AAm?$AAx@
43FC8 143 ??_C@_1M@DPAGLNDH@?$AAe?$AAs?$AA?9?$AAn?$AAi@
43FD4 143 ??_C@_1M@MDGOPGDD@?$AAe?$AAs?$AA?9?$AAp?$AAa@
43FE0 143 ??_C@_1M@EMAMGBGE@?$AAe?$AAs?$AA?9?$AAp?$AAe@
43FEC 143 ??_C@_1M@IBMCAOEC@?$AAe?$AAs?$AA?9?$AAp?$AAr@
43FF8 143 ??_C@_1M@FGMDIJED@?$AAe?$AAs?$AA?9?$AAp?$AAy@
44004 143 ??_C@_1M@IIDEOLLL@?$AAe?$AAs?$AA?9?$AAs?$AAv@
44010 143 ??_C@_1M@GAOBIPA@?$AAe?$AAs?$AA?9?$AAu?$AAy@
4401C 143 ??_C@_1M@JKFFICHJ@?$AAe?$AAs?$AA?9?$AAv?$AAe@
44028 143 ??_C@_1M@PNMLOJDF@?$AAe?$AAt?$AA?9?$AAe?$AAe@
44034 143 ??_C@_1M@GHHLIKEI@?$AAe?$AAu?$AA?9?$AAe?$AAs@
44040 143 ??_C@_1M@PBNONODE@?$AAf?$AAa?$AA?9?$AAi?$AAr@
4404C 143 ??_C@_1M@JEEHPMIL@?$AAf?$AAi?$AA?9?$AAf?$AAi@
44058 143 ??_C@_1M@LMDCNDBA@?$AAf?$AAo?$AA?9?$AAf?$AAo@
44064 143 ??_C@_1M@JKEOHLDK@?$AAf?$AAr?$AA?9?$AAb?$AAe@
44070 143 ??_C@_1M@NOHADPMI@?$AAf?$AAr?$AA?9?$AAc?$AAa@
4407C 143 ??_C@_1M@KDHIHAEC@?$AAf?$AAr?$AA?9?$AAc?$AAh@
44088 143 ??_C@_1M@MMBBFGAK@?$AAf?$AAr?$AA?9?$AAf?$AAr@
44094 143 ??_C@_1M@PAFNENNF@?$AAf?$AAr?$AA?9?$AAl?$AAu@
440A0 143 ??_C@_1M@EOHDJGDD@?$AAf?$AAr?$AA?9?$AAm?$AAc@
440AC 143 ??_C@_1M@FAPLLOPF@?$AAg?$AAl?$AA?9?$AAe?$AAs@
440B8 143 ??_C@_1M@FOPBFLOO@?$AAg?$AAu?$AA?9?$AAi?$AAn@
440C4 143 ??_C@_1M@KBMCINPM@?$AAh?$AAe?$AA?9?$AAi?$AAl@
440D0 143 ??_C@_1M@BBPHKFPJ@?$AAh?$AAi?$AA?9?$AAi?$AAn@
440DC 143 ??_C@_1M@PMBNDPHD@?$AAh?$AAr?$AA?9?$AAb?$AAa@
440E8 143 ??_C@_1M@BPCKOEGE@?$AAh?$AAr?$AA?9?$AAh?$AAr@
440F4 143 ??_C@_1M@GACBMHKE@?$AAh?$AAu?$AA?9?$AAh?$AAu@
44100 143 ??_C@_1M@MILPAJJC@?$AAh?$AAy?$AA?9?$AAa?$AAm@
4410C 143 ??_C@_1M@BABBICEC@?$AAi?$AAd?$AA?9?$AAi?$AAd@
44118 143 ??_C@_1M@BIKNHHPF@?$AAi?$AAs?$AA?9?$AAi?$AAs@
44124 143 ??_C@_1M@NMPCJPHE@?$AAi?$AAt?$AA?9?$AAc?$AAh@
44130 143 ??_C@_1M@GHKGFEDF@?$AAi?$AAt?$AA?9?$AAi?$AAt@
4413C 143 ??_C@_1M@NIEJCJJA@?$AAj?$AAa?$AA?9?$AAj?$AAp@
44148 143 ??_C@_1M@JILFNBIM@?$AAk?$AAa?$AA?9?$AAg?$AAe@
44154 143 ??_C@_1M@PACPMGPH@?$AAk?$AAk?$AA?9?$AAk?$AAz@
44160 143 ??_C@_1M@IELFGMHA@?$AAk?$AAn?$AA?9?$AAi?$AAn@
4416C 143 ??_C@_1O@IBBJHCH@?$AAk?$AAo?$AAk?$AA?9?$AAi?$AAn@
4417C 143 ??_C@_1M@DMHAEOGC@?$AAk?$AAo?$AA?9?$AAk?$AAr@
44188 143 ??_C@_1M@HBAHBIGA@?$AAk?$AAy?$AA?9?$AAk?$AAg@
44194 143 ??_C@_1M@KPMILCJG@?$AAl?$AAt?$AA?9?$AAl?$AAt@
441A0 143 ??_C@_1M@BDEKKCA@?$AAl?$AAv?$AA?9?$AAl?$AAv@
441AC 143 ??_C@_1M@ELCKCCJJ@?$AAm?$AAi?$AA?9?$AAn?$AAz@
441B8 143 ??_C@_1M@CBOOLAPA@?$AAm?$AAk?$AA?9?$AAm?$AAk@
441C4 143 ??_C@_1M@GPHNBJKN@?$AAm?$AAl?$AA?9?$AAi?$AAn@
441D0 143 ??_C@_1M@PABJILIG@?$AAm?$AAn?$AA?9?$AAm?$AAn@
441DC 143 ??_C@_1M@FGBKKIPG@?$AAm?$AAr?$AA?9?$AAi?$AAn@
441E8 143 ??_C@_1M@NDBPDDAL@?$AAm?$AAs?$AA?9?$AAb?$AAn@
441F4 143 ??_C@_1M@OPIHOOPI@?$AAm?$AAs?$AA?9?$AAm?$AAy@
44200 143 ??_C@_1M@PPDBCNFM@?$AAm?$AAt?$AA?9?$AAm?$AAt@
4420C 143 ??_C@_1M@KDJDKMDD@?$AAn?$AAb?$AA?9?$AAn?$AAo@
44218 143 ??_C@_1M@KFCFLMJP@?$AAn?$AAl?$AA?9?$AAb?$AAe@
44224 143 ??_C@_1M@KPOPDDGO@?$AAn?$AAl?$AA?9?$AAn?$AAl@
44230 143 ??_C@_1M@LJKPEMLN@?$AAn?$AAn?$AA?9?$AAn?$AAo@
4423C 143 ??_C@_1M@BDGHHBFL@?$AAn?$AAs?$AA?9?$AAz?$AAa@
44248 143 ??_C@_1M@IDEHOAP@?$AAp?$AAa?$AA?9?$AAi?$AAn@
44254 143 ??_C@_1M@HDBKGOGH@?$AAp?$AAl?$AA?9?$AAp?$AAl@
44260 143 ??_C@_1M@LJLLCMEH@?$AAp?$AAt?$AA?9?$AAb?$AAr@
4426C 143 ??_C@_1M@NCMONAAL@?$AAp?$AAt?$AA?9?$AAp?$AAt@
44278 143 ??_C@_1O@EAKMAJDN@?$AAq?$AAu?$AAz?$AA?9?$AAb?$AAo@
44288 143 ??_C@_1O@BHHPIGDN@?$AAq?$AAu?$AAz?$AA?9?$AAe?$AAc@
44298 143 ??_C@_1O@GBAPEKMJ@?$AAq?$AAu?$AAz?$AA?9?$AAp?$AAe@
442A8 143 ??_C@_1M@CLGLEFBO@?$AAr?$AAo?$AA?9?$AAr?$AAo@
442B4 143 ??_C@_1M@CEEDODME@?$AAr?$AAu?$AA?9?$AAr?$AAu@
442C0 143 ??_C@_1M@HPKKKMPP@?$AAs?$AAa?$AA?9?$AAi?$AAn@
442CC 143 ??_C@_1M@BKMAIGOJ@?$AAs?$AAe?$AA?9?$AAf?$AAi@
442D8 143 ??_C@_1M@NDPIFLFI@?$AAs?$AAe?$AA?9?$AAn?$AAo@
442E4 143 ??_C@_1M@DANKKHJ@?$AAs?$AAe?$AA?9?$AAs?$AAe@
442F0 143 ??_C@_1M@PNBLONPJ@?$AAs?$AAk?$AA?9?$AAs?$AAk@
442FC 143 ??_C@_1M@LFMODOAL@?$AAs?$AAl?$AA?9?$AAs?$AAi@
44308 143 ??_C@_1O@DFKOMPG@?$AAs?$AAm?$AAa?$AA?9?$AAn?$AAo@
44318 143 ??_C@_1O@NDKPBNNH@?$AAs?$AAm?$AAa?$AA?9?$AAs?$AAe@
44328 143 ??_C@_1O@PLLKBHAB@?$AAs?$AAm?$AAj?$AA?9?$AAn?$AAo@
44338 143 ??_C@_1O@CLEPOGCA@?$AAs?$AAm?$AAj?$AA?9?$AAs?$AAe@
44348 143 ??_C@_1O@DLGJGKMK@?$AAs?$AAm?$AAn?$AA?9?$AAf?$AAi@
44358 143 ??_C@_1O@OJDJGAJC@?$AAs?$AAm?$AAs?$AA?9?$AAf?$AAi@
44368 143 ??_C@_1M@BOFOGHPB@?$AAs?$AAq?$AA?9?$AAa?$AAl@
44374 143 ??_C@_1BG@LJBBIPGB@?$AAs?$AAr?$AA?9?$AAb?$AAa?$AA?9?$AAc?$AAy?$AAr?$AAl@
4438C 143 ??_C@_1BG@JLBENFOE@?$AAs?$AAr?$AA?9?$AAb?$AAa?$AA?9?$AAl?$AAa?$AAt?$AAn@
443A4 143 ??_C@_1BG@KODPNHE@?$AAs?$AAr?$AA?9?$AAs?$AAp?$AA?9?$AAc?$AAy?$AAr?$AAl@
443BC 143 ??_C@_1BG@CIOGKHPB@?$AAs?$AAr?$AA?9?$AAs?$AAp?$AA?9?$AAl?$AAa?$AAt?$AAn@
443D4 143 ??_C@_1M@NGFJLMAC@?$AAs?$AAv?$AA?9?$AAf?$AAi@
443E0 143 ??_C@_1M@MPJEJAJC@?$AAs?$AAv?$AA?9?$AAs?$AAe@
443EC 143 ??_C@_1M@MPNDHLFK@?$AAs?$AAw?$AA?9?$AAk?$AAe@
443F8 143 ??_C@_1O@KOHBJJI@?$AAs?$AAy?$AAr?$AA?9?$AAs?$AAy@
44408 143 ??_C@_1M@LDCEFHA@?$AAt?$AAa?$AA?9?$AAi?$AAn@
44414 143 ??_C@_1M@CNJOFAK@?$AAt?$AAe?$AA?9?$AAi?$AAn@
44420 143 ??_C@_1M@GNAECACD@?$AAt?$AAh?$AA?9?$AAt?$AAh@
4442C 143 ??_C@_1M@CHBIHOJO@?$AAt?$AAn?$AA?9?$AAz?$AAa@
44438 143 ??_C@_1M@GCCMIGPJ@?$AAt?$AAr?$AA?9?$AAt?$AAr@
44444 143 ??_C@_1M@CELMCNBK@?$AAt?$AAt?$AA?9?$AAr?$AAu@
44450 143 ??_C@_1M@KLMCELGA@?$AAu?$AAk?$AA?9?$AAu?$AAa@
4445C 143 ??_C@_1M@EPAJJAJF@?$AAu?$AAr?$AA?9?$AAp?$AAk@
44468 143 ??_C@_1BG@GEGPMCDJ@?$AAu?$AAz?$AA?9?$AAu?$AAz?$AA?9?$AAc?$AAy?$AAr?$AAl@
44480 143 ??_C@_1BG@EGGKJILM@?$AAu?$AAz?$AA?9?$AAu?$AAz?$AA?9?$AAl?$AAa?$AAt?$AAn@
44498 143 ??_C@_1M@GFOCLFF@?$AAv?$AAi?$AA?9?$AAv?$AAn@
444A4 143 ??_C@_1M@CPAMEDFI@?$AAx?$AAh?$AA?9?$AAz?$AAa@
444B0 143 ??_C@_1O@EBKIFIGN@?$AAz?$AAh?$AA?9?$AAc?$AAh?$AAs@
444C0 143 ??_C@_1O@NMHPGANE@?$AAz?$AAh?$AA?9?$AAc?$AAh?$AAt@
444D0 143 ??_C@_1M@LPINJOMC@?$AAz?$AAh?$AA?9?$AAc?$AAn@
444DC 143 ??_C@_1M@OCJEJODD@?$AAz?$AAh?$AA?9?$AAh?$AAk@
444E8 143 ??_C@_1M@DNDLJINH@?$AAz?$AAh?$AA?9?$AAm?$AAo@
444F4 143 ??_C@_1M@MBFDNDND@?$AAz?$AAh?$AA?9?$AAs?$AAg@
44500 143 ??_C@_1M@IMEPLEPE@?$AAz?$AAh?$AA?9?$AAt?$AAw@
4450C 143 ??_C@_1M@BBGHNHJP@?$AAz?$AAu?$AA?9?$AAz?$AAa@
44518 131 ??_C@_1BA@BALFACEM@?$AAC?$AAO?$AAN?$AAO?$AAU?$AAT?$AA$@
44530 153 LOG_name
44540 95 _One
44550 95 _Bns
44560 95 _Zero
44570 95 _S
44580 95 _NegZero
44590 154 emask
445A0 154 CC
445B0 154 Magic
445C0 154 hi_mask
445D0 154 LOG10_2
445E0 154 place_L
44600 154 One
44610 154 Zero
44620 154 Two52
44630 154 Infs
44640 154 NaN
44650 154 coeff
44690 74 __infinity
4469A 74 __minfinity
446A4 74 __logemax
446AE 74 _log2max
446B8 74 _smallarg
446C2 74 _half
446CA 74 __OP_EXPjmptab
446F0 72 __indefinite
446FA 72 __piby2
44704 72 __piby4
4470E 72 One
44716 72 Three
4471E 72 XAMtoTagTab
44730 99 One
44738 99 __DEFAULT_CW_in_mem
4473A 99 __pi_by_2_to_61
44744 99 DblMax
4474C 99 DblMin
44754 99 IeeeAdjO
4475C 99 IeeeAdjU
44764 99 _infinity
4476C 99 _zero
44780 155 ___acrt_log10_table_t
44B90 155 ___acrt_log10_table_cb
44FA0 187 __real@3fe0000000000000
44FB0 19 two32
44FB4 19 two63
44FB8 19 _NaN
44FBC 57 __Asan_string_should_annotate
44FBD 57 __Asan_vector_should_annotate_default
44FC0 53 ??_C@_0BC@EOODALEL@Unknown?5exception@
44FD4 53 ??_C@_0P@GHFPNOJB@bad?5allocation@
44FE4 53 ??_C@_0BF@KINCDENJ@bad?5array?5new?5length@
44FFC 53 ??_C@_0CC@ELFJMMCC@invalid?5format?5specifier?5for?5ch@
45020 53 ??_C@_0BA@JFNIOLAK@string?5too?5long@
45030 53 ??_C@_00CNPNBAHC@@
45034 53 ??_C@_0BC@MDEIBHGE@number?5is?5too?5big@
45048 53 ??_C@_2CE@CGFPEPFM@?$PP?$PP?$PP?$JK?$AA?$AA?$AA?$CJ?$AA?$AA?$AA8?$PP?$PP?$PP?$LJ?$PP?$PP?$PP?F?$PP?$PP?$PP?G?$PP?$PP?$PP?$KO@
4506C 53 ??_C@_08EPJLHIJG@bad?5cast@
45078 53 ??_C@_0BA@ELKIONDK@bad?5locale?5name@
45088 53 ??_C@_05LAPONLG@false@
45090 53 ??_C@_04LOAJBDKD@true@
45098 53 ??_C@_0BP@NMGMJOEM@unmatched?5?8?$HN?8?5in?5format?5string@
450B8 53 ??_C@_0BG@PEJKJNLA@invalid?5format?5string@
450D0 53 ??_C@_0BN@JNLAGDD@missing?5?8?$HN?8?5in?5format?5string@
450F0 53 ??_C@_0BJ@JNDNOEDN@unknown?5format?5specifier@
4510C 53 ??_C@_0BD@DBEDGLNA@argument?5not?5found@
45120 53 ??_C@_0DJ@GHJONFIH@cannot?5switch?5from?5manual?5to?5au@
4515C 53 ??_C@_0BJ@KLNHPFKH@invalid?5format?5specifier@
45178 53 ??_C@_0CL@CFEEEDMP@format?5specifier?5requires?5numer@
451A4 53 ??_C@_0BL@KNEDAEPA@invalid?5fill?5character?5?8?$HL?8@
451C0 53 ??_C@_0BP@HGKEAAAD@width?1precision?5is?5not?5integer@
451E0 53 ??_C@_0DJ@LMIJFHJI@cannot?5switch?5from?5automatic?5to@
4521C 53 ??_C@_03OJHLLCGB@inf@
45220 53 ??_C@_03LHCJEHON@nan@
45224 53 ??_C@_0BC@CFECDNCP@invalid?5precision@
45238 53 ??_C@_0BH@IEEDMHI@string?5pointer?5is?5null@
45250 53 ??_C@_03LKNCIKJB@NAN@
45254 53 ??_C@_03OEIAHPBN@INF@
45258 53 ??_C@_0CA@JBFGDIMC@width?1precision?5is?5out?5of?5range@
45278 53 ??_C@_04MKAMHODJ@?$BP?$BP?$AA?$AB@
45280 53 ??_C@_04CILMHOGK@?$AA?$BP?$AA?$AB@
45290 53 ??_C@_0BB@JGGOGLEG@0123456789ABCDEF@
452B0 53 ??_C@_0BB@JCEFLFJE@0123456789abcdef@
452C8 53 ?pow10_significands@?1??get_cached_power@?$cache_accessor@N@dragonbox@detail@v11@fmt@@SA?AVuint128_fallback@456@H@Z@4QBV7456@B
45448 53 ?table@?1??do_count_digits@detail@v11@fmt@@YAHI@Z@4QB_KB
45550 53 ?singletons0_lower@?1??is_printable@detail@v11@fmt@@YA_NI@Z@4QBEB
45678 53 ??_7format_error@v11@fmt@@6B@
45680 53 ?singletons1@?1??is_printable@detail@v11@fmt@@YA_NI@Z@4QBUsingleton@234@B
456D0 53 ?normal1@?1??is_printable@detail@v11@fmt@@YA_NI@Z@4QBEB
45878 53 ?powers_of_5_64@?1??get_cached_power@?$cache_accessor@N@dragonbox@detail@v11@fmt@@SA?AVuint128_fallback@456@H@Z@4QB_KB
45950 53 ?bsr2log10@?1??do_count_digits@detail@v11@fmt@@YAH_K@Z@4QBEB
45990 53 ?pow10_significands@?1??get_cached_power@?$cache_accessor@M@dragonbox@detail@v11@fmt@@SA_KH@Z@4QB_KB
45C00 53 ?data@?1??digits2@detail@v11@fmt@@YAPBDI@Z@4QBDB
45CD0 53 ?singletons1_lower@?1??is_printable@detail@v11@fmt@@YA_NI@Z@4QBEB
45D80 53 ?zero_or_powers_of_10@?1??do_count_digits@detail@v11@fmt@@YAH_K@Z@4QB_KB
45E30 53 ?normal0@?1??is_printable@detail@v11@fmt@@YA_NI@Z@4QBEB
45F70 53 ?singletons0@?1??is_printable@detail@v11@fmt@@YA_NI@Z@4QBUsingleton@234@B
45FC4 54 ??_C@_1O@ECECHNAE@?$AA?$DM?$AAp?$AAi?$AAp?$AAe?$AA?$DO@
45FD4 54 ??_C@_1O@HIMECKKA@?$AA?$DM?$AAc?$AAh?$AAa?$AAr?$AA?$DO@
45FE4 54 ??_C@_1BC@FBIGGGKE@?$AA?$DM?$AAr?$AAe?$AAm?$AAo?$AAt?$AAe?$AA?$DO@
45FF8 54 ??_C@_1BE@ELICABCK@?$AA?$DM?$AAu?$AAn?$AAk?$AAn?$AAo?$AAw?$AAn?$AA?$DO@
4600C 54 ??_C@_1BO@MHBBMPMP@?$AA?$DM?$AAu?$AAn?$AAk?$AAn?$AAo?$AAw?$AAn?$AA?$DO?$AA?5?$AA?$CI?$AA?$HL?$AA?$HN?$AA?$CJ@
4602C 54 ??_C@_11LOCGONAA@@
46030 54 ??_C@_1BA@NMDNJJOO@?$AAP?$AAr?$AAo?$AAc?$AAe?$AAs?$AAs@
46040 54 ??_C@_1O@CDOGJPJJ@?$AAT?$AAh?$AAr?$AAe?$AAa?$AAd@
46050 54 ??_C@_17KACEIPNC@?$AAK?$AAe?$AAy@
46058 54 ??_C@_19DDLLJDOO@?$AAF?$AAi?$AAl?$AAe@
46064 54 ??_C@_1BA@BEGLAEKB@?$AA?$HL?$AA?$HN?$AA?5?$AA?$CI?$AA?$HL?$AA?$HN?$AA?$CJ@
46074 54 ??_C@_1BA@KNLBEBJD@?$AAT?$AAI?$AAD?$AA?3?$AA?5?$AA?$HL?$AA?$HN@
46084 54 ??_C@_1BG@OKCBELMP@?$AA?2?$AAR?$AAE?$AAG?$AAI?$AAS?$AAT?$AAR?$AAY?$AA?2@
4609C 54 ??_C@_19KGHAHCFG@?$AAU?$AAS?$AAE?$AAR@
460A8 54 ??_C@_1DC@OIDKFHBF@?$AAM?$AAA?$AAC?$AAH?$AAI?$AAN?$AAE?$AA?2?$AAS?$AAO?$AAF?$AAT?$AAW?$AAA?$AAR@
460DC 54 ??_C@_1BA@INBMCOAP@?$AAM?$AAA?$AAC?$AAH?$AAI?$AAN?$AAE@
460EC 54 ??_C@_1BC@DCCOJFBE@?$AA_?$AAC?$AAL?$AAA?$AAS?$AAS?$AAE?$AAS@
46100 54 ??_C@_13FPGAJAPJ@?$AA?2@
46104 54 ??_C@_19DIHHCHDI@?$AAH?$AAK?$AAU?$AA?2@
46110 54 ??_C@_19JAPAIJDE@?$AAH?$AAK?$AAC?$AAU@
4611C 54 ??_C@_1BK@OEABCBLA@?$AAH?$AAK?$AAC?$AAU?$AA?2?$AAC?$AAl?$AAa?$AAs?$AAs?$AAe?$AAs@
46138 54 ??_C@_17PJOJPMPB@?$AAH?$AAK?$AAU@
46140 54 ??_C@_19NCHLBIN@?$AAH?$AAK?$AAC?$AAR@
4614C 54 ??_C@_19PEALEEJB@?$AAH?$AAK?$AAL?$AAM@
46158 54 ??_C@_1DC@EMNPLNEM@?$AA?6?$AA?$HL?$AA?$HN?$AA?3?$AA?6?$AA?$HL?$AA?3?$AA6?$AA?$HN?$AA?5?$AA?$HL?$AA?3?$AA8?$AA?$HN?$AA?5@
4618C 54 ??_C@_1CO@HBDELFCB@?$AA?$HL?$AA?3?$AA6?$AAX?$AA?$HN?$AA?5?$AA?$HL?$AA?3?$AA0?$AA8?$AAX?$AA?$HN?$AA?5?$AA?$HL?$AA?3@
461BC 54 ??_C@_0BN@OFDOGPDL@invalid?5string_view?5position@
461DC 54 ?constStrTypes@@3QBQB_WB
461F0 44 ??_C@_1O@BJPKKLLM@?$AAC?$AAo?$AAn?$AAf?$AAi?$AAg@
46200 44 ??_C@_1BO@NGDOFANC@?$AAA?$AAd?$AAd?$AAT?$AAo?$AAD?$AAi?$AAs?$AAk?$AAs?$AAM?$AAe?$AAn?$AAu@
46220 44 ??_C@_1CC@PNNAOHJC@?$AAA?$AAd?$AAd?$AAT?$AAo?$AAP?$AAl?$AAu?$AAg?$AAi?$AAn?$AAs?$AAM?$AAe?$AAn@
46244 44 ??_C@_1CE@JIPJNDMD@?$AAE?$AAx?$AAp?$AAo?$AAr?$AAt?$AAE?$AAn?$AAv?$AAi?$AAr?$AAo?$AAn?$AAm?$AAe@
46268 44 ??_C@_1CC@OABICAMP@?$AAE?$AAx?$AAp?$AAo?$AAr?$AAt?$AAM?$AAo?$AAd?$AAu?$AAl?$AAe?$AAI?$AAn?$AAf@
4628C 44 ??_C@_1CI@OFLGHPDG@?$AAE?$AAx?$AAp?$AAo?$AAr?$AAt?$AAM?$AAo?$AAd?$AAu?$AAl?$AAe?$AAV?$AAe?$AAr@
462B4 44 ??_C@_1CE@GNMOKOAL@?$AAE?$AAx?$AAp?$AAo?$AAr?$AAt?$AAP?$AAe?$AAr?$AAf?$AAo?$AAr?$AAm?$AAa?$AAn@
462D8 44 ??_C@_1BM@KMCHODLM@?$AAE?$AAx?$AAp?$AAo?$AAr?$AAt?$AAH?$AAa?$AAn?$AAd?$AAl?$AAe?$AAs@
462F4 44 ??_C@_1CK@CLFOOHFA@?$AAE?$AAx?$AAp?$AAo?$AAr?$AAt?$AAH?$AAa?$AAn?$AAd?$AAl?$AAe?$AAs?$AAU?$AAn@
46320 44 ??_C@_1BE@PKILIDFH@?$AAE?$AAn?$AAa?$AAb?$AAl?$AAe?$AAW?$AAM?$AAI@
46338 44 ??_7PluginCheckBoxBinding@@6B@
46340 45 ??_C@_1BK@GMMKGKID@?$AA?$HL?$AA0?$AA?$HN?$AA?4?$AA?$HL?$AA1?$AA?3?$AA0?$AA?$HL?$AA2?$AA?$HN?$AA?$HN@
4635C 45 ??_C@_1BA@BHJJFMCM@?$AAB?$AAK?$AAM?$AAG?$AAT?$AAP?$AAE@
4636C 45 ??_C@_19LPDLLMEB@?$AA?$HL?$AA0?$AA?$HN?$AA?3@
46378 45 ??_C@_1BC@HGOMHBK@?$AA?$HL?$AA0?$AA?3?$AA?$DM?$AA2?$AA1?$AA?$HN?$AA?5@
4638C 45 ??_C@_1BC@IALIJCAM@?$AAS?$AAo?$AAr?$AAt?$AAM?$AAo?$AAd?$AAe@
463A0 45 ??_C@_1BO@OMKAPLPJ@?$AAS?$AAt?$AAa?$AAr?$AAt?$AAP?$AAa?$AAn?$AAe?$AAl?$AAM?$AAo?$AAd?$AAe@
463C0 45 ??_C@_1CM@KGJLHHPG@?$AAN?$AA?0?$AAX?$AA1?$AA5?$AAF?$AA?0?$AAX?$AA1?$AA6?$AAF?$AA?0?$AAX?$AA1?$AA7@
463EC 45 ??_C@_1BG@MNPGDOEP@?$AA1?$AA2?$AA?0?$AA0?$AA?0?$AA0?$AA?0?$AA0?$AA?0?$AA4@
46404 45 ??_C@_1CG@OHFJBKLN@?$AAN?$AA?0?$AAX?$AAI?$AA?0?$AAX?$AAB?$AA?0?$AAX?$AAP?$AA?0?$AAX?$AA0?$AAS?$AA?0@
4642C 45 ??_C@_1BI@EFANNANC@?$AA0?$AA?0?$AA6?$AA?0?$AA2?$AA?0?$AA2?$AA?0?$AA3?$AA?0?$AA9@
46444 45 ??_C@_17KNGPBKAK@?$AAN?$AA?0?$AAN@
4644C 45 ??_C@_17JPFFEOAH@?$AA0?$AA?0?$AA0@
46454 45 ??_C@_1BO@JAFIOFIL@?$AAN?$AA?0?$AAX?$AAI?$AA?0?$AAX?$AAB?$AA?0?$AAX?$AAC?$AA?0?$AAD?$AA?0?$AAT@
46474 45 ??_C@_1BI@LFIMKDME@?$AA0?$AA?0?$AA6?$AA?0?$AA2?$AA?0?$AA6?$AA?0?$AA0?$AA?0?$AA0@
4648C 45 ??_C@_1BK@IEHCCPMO@?$AAN?$AA?0?$AAX?$AAI?$AA?0?$AAX?$AA4?$AAF?$AA?0?$AAX?$AA6?$AAF@
464A8 45 ??_C@_1BA@MMHHFCDG@?$AA0?$AA?0?$AA6?$AA?0?$AA9?$AA?0?$AA9@
464B8 45 ??_C@_1EA@CMHCGANC@?$AAN?$AA?0?$AAX?$AAI?$AA?0?$AAX?$AA4?$AAF?$AA?0?$AAX?$AA6?$AAF?$AA?0?$AAX?$AA1@
464F8 45 ??_C@_1CE@LPFIEDMN@?$AA0?$AA?0?$AA6?$AA?0?$AA9?$AA?0?$AA9?$AA?0?$AA9?$AA?0?$AA9?$AA?0?$AA8?$AA?0?$AA8@
4651C 45 ??_C@_19ILLMDDHI@?$AAN?$AA?0?$AAZ?$AAD@
46528 45 ??_C@_19NMOJBHGD@?$AA1?$AA2?$AA?0?$AA0@
46538 45 ??_C@_1EC@OFLHMCFD@?$AAN?$AA?0?$AAX?$AAP?$AA?0?$AAX?$AA0?$AAS?$AA?0?$AAX?$AA1?$AAS?$AA?0?$AAX?$AA2@
4657C 45 ??_C@_1CA@MGMNHCLL@?$AA0?$AA?0?$AA2?$AA?0?$AA3?$AA?0?$AA2?$AA?0?$AA2?$AA?0?$AA3?$AA?0?$AA4?$AA?0?$AA3@
4659C 45 ??_C@_1O@JGFFCAGM@?$AAN?$AA?0?$AAX?$AAI?$AA?0?$AAO@
465AC 45 ??_C@_1O@FLEOANAI@?$AA0?$AA?0?$AA6?$AA?0?$AA1?$AA5@
465BC 45 ??_C@_1CC@FANCGEGE@?$AAN?$AA?0?$AAX?$AAI?$AA?0?$AAX?$AAT?$AA?0?$AAX?$AA3?$AA?0?$AAX?$AAG?$AA?0?$AAX@
465E0 45 ??_C@_1BI@PMPHDFGH@?$AA0?$AA?0?$AA6?$AA?0?$AA3?$AA?0?$AA4?$AA?0?$AA4?$AA?0?$AA4@
465F8 45 ??_C@_1BG@COBJEPBB@?$AAN?$AA?0?$AAX?$AAI?$AA?0?$AAX?$AAT?$AA?0?$AAX?$AA3@
46610 45 ??_C@_1BA@KPNNJGCD@?$AA0?$AA?0?$AA6?$AA?0?$AA3?$AA?0?$AA4@
46620 45 ??_C@_1BA@JOLGFBLP@?$AAM?$AAo?$AAd?$AAe?$AA?$HL?$AA0?$AA?$HN@
46630 45 ??_C@_1CA@HLBJOHGN@?$AAF?$AAu?$AAl?$AAl?$AAS?$AAc?$AAr?$AAe?$AAe?$AAn?$AAL?$AAo?$AAc?$AAa?$AAl@
46650 45 ??_C@_1CC@EBBNDNOD@?$AAF?$AAu?$AAl?$AAl?$AAS?$AAc?$AAr?$AAe?$AAe?$AAn?$AAR?$AAe?$AAm?$AAo?$AAt@
46674 45 ??_C@_1BK@HMOODHKK@?$AAC?$AAo?$AAl?$AAu?$AAm?$AAn?$AAs?$AAL?$AAo?$AAc?$AAa?$AAl@
46690 45 ??_C@_1BM@EDHFKJEJ@?$AAC?$AAo?$AAl?$AAu?$AAm?$AAn?$AAs?$AAR?$AAe?$AAm?$AAo?$AAt?$AAe@
466AC 45 ??_C@_1BI@FOOHDOCI@?$AAW?$AAi?$AAd?$AAt?$AAh?$AAs?$AAL?$AAo?$AAc?$AAa?$AAl@
466C4 45 ??_C@_1BK@DDBMMJCN@?$AAW?$AAi?$AAd?$AAt?$AAh?$AAs?$AAR?$AAe?$AAm?$AAo?$AAt?$AAe@
466E0 45 ??_C@_13DEFPDAGF@?$AA?0@
466E4 45 ??_C@_15LNKNCLHH@?$AAS?$AAs@
466EC 45 ??_C@_19LFJMKILO@?$AA?5?$AA?$HL?$AA?$HN?$AA?5@
466F8 45 ??_C@_1BA@JMJLAOEC@?$AA?$HL?$AA?$HN?$AA?3?$AA?5?$AA?$HL?$AA?$HN?$AA?5@
46708 45 ??_C@_15JOGBDECP@?$AA?0?$AA?5@
46710 45 ??_C@_15DNHPCDHG@?$AAT?$AAt@
46718 45 ??_C@_15IJHBBPPC@?$AAF?$AAf@
46720 45 ??_C@_1BC@OMEIHGFC@?$AAW?$AAS?$AA_?$AAP?$AAO?$AAP?$AAU?$AAP@
46734 45 ??_C@_1BC@ONEEOLLM@?$AAW?$AAS?$AA_?$AAC?$AAH?$AAI?$AAL?$AAD@
46748 45 ??_C@_1BI@GHDIGAD@?$AAW?$AAS?$AA_?$AAM?$AAI?$AAN?$AAI?$AAM?$AAI?$AAZ?$AAE@
46760 45 ??_C@_1BG@KLPFHNBP@?$AAW?$AAS?$AA_?$AAV?$AAI?$AAS?$AAI?$AAB?$AAL?$AAE@
46778 45 ??_C@_1BI@NKODCGOF@?$AAW?$AAS?$AA_?$AAD?$AAI?$AAS?$AAA?$AAB?$AAL?$AAE?$AAD@
46790 45 ??_C@_1CA@PCFJBBHH@?$AAW?$AAS?$AA_?$AAC?$AAL?$AAI?$AAP?$AAS?$AAI?$AAB?$AAL?$AAI?$AAN?$AAG?$AAS@
467B0 45 ??_C@_1CA@MPLGGIO@?$AAW?$AAS?$AA_?$AAC?$AAL?$AAI?$AAP?$AAC?$AAH?$AAI?$AAL?$AAD?$AAR?$AAE?$AAN@
467D0 45 ??_C@_1BI@OLBAGOJG@?$AAW?$AAS?$AA_?$AAM?$AAA?$AAX?$AAI?$AAM?$AAI?$AAZ?$AAE@
467E8 45 ??_C@_1BE@DAMMEKNP@?$AAW?$AAS?$AA_?$AAB?$AAO?$AAR?$AAD?$AAE?$AAR@
467FC 45 ??_C@_1BI@EDHINADK@?$AAW?$AAS?$AA_?$AAD?$AAL?$AAG?$AAF?$AAR?$AAA?$AAM?$AAE@
46814 45 ??_C@_1BG@CKCLFGFA@?$AAW?$AAS?$AA_?$AAV?$AAS?$AAC?$AAR?$AAO?$AAL?$AAL@
4682C 45 ??_C@_1BG@OMIOJOGF@?$AAW?$AAS?$AA_?$AAH?$AAS?$AAC?$AAR?$AAO?$AAL?$AAL@
46844 45 ??_C@_1BG@KJOBMDJC@?$AAW?$AAS?$AA_?$AAS?$AAY?$AAS?$AAM?$AAE?$AAN?$AAU@
4685C 45 ??_C@_1BM@GPNNOPCH@?$AAW?$AAS?$AA_?$AAT?$AAH?$AAI?$AAC?$AAK?$AAF?$AAR?$AAA?$AAM?$AAE@
46878 45 ??_C@_1BO@FODKBODI@?$AAW?$AAS?$AA_?$AAM?$AAI?$AAN?$AAI?$AAM?$AAI?$AAZ?$AAE?$AAB?$AAO?$AAX@
46898 45 ??_C@_1BO@IDJMAOMI@?$AAW?$AAS?$AA_?$AAM?$AAA?$AAX?$AAI?$AAM?$AAI?$AAZ?$AAE?$AAB?$AAO?$AAX@
468B8 45 ??_C@_1CI@PKBCIOPN@?$AAW?$AAS?$AA_?$AAE?$AAX?$AA_?$AAD?$AAL?$AAG?$AAM?$AAO?$AAD?$AAA?$AAL?$AAF@
468E0 45 ??_C@_1CK@KJECLHMG@?$AAW?$AAS?$AA_?$AAE?$AAX?$AA_?$AAN?$AAO?$AAP?$AAA?$AAR?$AAE?$AAN?$AAT?$AAN@
4690C 45 ??_C@_1BM@OCBKBALE@?$AAW?$AAS?$AA_?$AAE?$AAX?$AA_?$AAT?$AAO?$AAP?$AAM?$AAO?$AAS?$AAT@
46928 45 ??_C@_1CE@JIDMMICL@?$AAW?$AAS?$AA_?$AAE?$AAX?$AA_?$AAA?$AAC?$AAC?$AAE?$AAP?$AAT?$AAF?$AAI?$AAL@
4694C 45 ??_C@_1CE@PFFPBMCF@?$AAW?$AAS?$AA_?$AAE?$AAX?$AA_?$AAT?$AAR?$AAA?$AAN?$AAS?$AAP?$AAA?$AAR?$AAE@
46970 45 ??_C@_1BO@MEOEJPLO@?$AAW?$AAS?$AA_?$AAE?$AAX?$AA_?$AAM?$AAD?$AAI?$AAC?$AAH?$AAI?$AAL?$AAD@
46990 45 ??_C@_1CC@IEIGGJGG@?$AAW?$AAS?$AA_?$AAE?$AAX?$AA_?$AAT?$AAO?$AAO?$AAL?$AAW?$AAI?$AAN?$AAD?$AAO@
469B4 45 ??_C@_1CC@PLPNIKGL@?$AAW?$AAS?$AA_?$AAE?$AAX?$AA_?$AAW?$AAI?$AAN?$AAD?$AAO?$AAW?$AAE?$AAD?$AAG@
469D8 45 ??_C@_1CC@IAPGCLEG@?$AAW?$AAS?$AA_?$AAE?$AAX?$AA_?$AAC?$AAL?$AAI?$AAE?$AAN?$AAT?$AAE?$AAD?$AAG@
469FC 45 ??_C@_1CE@EANKNCIF@?$AAW?$AAS?$AA_?$AAE?$AAX?$AA_?$AAC?$AAO?$AAN?$AAT?$AAE?$AAX?$AAT?$AAH?$AAE@
46A20 45 ??_C@_1BI@GFIADCMK@?$AAW?$AAS?$AA_?$AAE?$AAX?$AA_?$AAR?$AAI?$AAG?$AAH?$AAT@
46A38 45 ??_C@_1CC@JOFCJJPB@?$AAW?$AAS?$AA_?$AAE?$AAX?$AA_?$AAR?$AAT?$AAL?$AAR?$AAE?$AAA?$AAD?$AAI?$AAN@
46A5C 45 ??_C@_1CI@EFLDECAB@?$AAW?$AAS?$AA_?$AAE?$AAX?$AA_?$AAL?$AAE?$AAF?$AAT?$AAS?$AAC?$AAR?$AAO?$AAL@
46A84 45 ??_C@_1CI@CIFGFFJB@?$AAW?$AAS?$AA_?$AAE?$AAX?$AA_?$AAC?$AAO?$AAN?$AAT?$AAR?$AAO?$AAL?$AAP?$AAA@
46AAC 45 ??_C@_1CC@BGEPLDCA@?$AAW?$AAS?$AA_?$AAE?$AAX?$AA_?$AAS?$AAT?$AAA?$AAT?$AAI?$AAC?$AAE?$AAD?$AAG@
46AD0 45 ??_C@_1CA@DOAIHHLO@?$AAW?$AAS?$AA_?$AAE?$AAX?$AA_?$AAA?$AAP?$AAP?$AAW?$AAI?$AAN?$AAD?$AAO?$AAW@
46AF0 45 ??_C@_1BM@FAODAMGD@?$AAW?$AAS?$AA_?$AAE?$AAX?$AA_?$AAL?$AAA?$AAY?$AAE?$AAR?$AAE?$AAD@
46B0C 45 ??_C@_1CM@DJKNBOGD@?$AAW?$AAS?$AA_?$AAE?$AAX?$AA_?$AAN?$AAO?$AAI?$AAN?$AAH?$AAE?$AAR?$AAI?$AAT@
46B38 45 ??_C@_1CA@KMHLBMFI@?$AAW?$AAS?$AA_?$AAE?$AAX?$AA_?$AAL?$AAA?$AAY?$AAO?$AAU?$AAT?$AAR?$AAT?$AAL@
46B58 45 ??_C@_1CC@LOFMDOPL@?$AAW?$AAS?$AA_?$AAE?$AAX?$AA_?$AAN?$AAO?$AAA?$AAC?$AAT?$AAI?$AAV?$AAA?$AAT@
46B7C 45 ??_C@_1O@EEMHCPPG@?$AA?$HL?$AA?3?$AA2?$AA0?$AA?$HN?$AA?6@
46B8C 45 ??_C@_1BM@LABJMFIE@?$AA?$HL?$AA?3?$AA?$DO?$AA2?$AA0?$AA?$HN?$AA?5?$AA?$HL?$AA?3?$AA7?$AA?$HN?$AA?$CF?$AA?6@
46BA8 45 ??_C@_1BO@HALKGPHE@?$AA?$HL?$AA?3?$AA2?$AA0?$AA?$HN?$AA?5?$AA?5?$AA?$HL?$AA?3?$AA7?$AA?$HN?$AA?$HL?$AA?$HN?$AA?6@
46BC8 45 ??_C@_19GGNHIDOH@?$AA?4?$AAt?$AAx?$AAt@
46BD4 45 ??_C@_1BI@KNPOOCNP@?$AA?$HL?$AA?$HN?$AA?$HL?$AA?$HN?$AA?0?$AA?5?$AA?$HL?$AA?$HN?$AA?$HL?$AA?$HN?$AA?6@
46BEC 45 ??_C@_1M@PLHOGBPP@?$AA?$HL?$AA?$HN?$AA?$HL?$AA?$HN?$AA?6@
46BF8 45 ??_C@_1BE@IFNNBPIG@?$AA?$HL?$AA?$HN?$AA?5?$AA?5?$AA?$CI?$AA?$HL?$AA?$HN?$AA?$CJ?$AA?6@
46C0C 45 ??_C@_17LDOGFDCL@?$AA?$HL?$AA?$HN?$AA?6@
46C14 45 ??_C@_1BE@DMHIKKPF@?$AA?6?$AA?$HL?$AA?$HN?$AA?$HL?$AA?$HN?$AA?5?$AA?$HL?$AA?$HN?$AA?6@
46C28 45 ??_C@_1O@IDCHAEMM@?$AA?6?$AA?$HL?$AA?$HN?$AA?$HL?$AA?$HN?$AA?6@
46C38 45 ??_C@_1BC@JCEOJDJG@?$AA?6?$AA?$HL?$AA?$HN?$AA?3?$AA?6?$AA?$HL?$AA?$HN?$AA?6@
46C4C 45 ??_C@_19OPNPIOHE@?$AAH?$AAW?$AAN?$AAD@
46C58 45 ??_C@_1BK@HEHCIBBK@?$AA?$HL?$AA?$HN?$AA?$HL?$AA?3?$AA0?$AA8?$AAX?$AA?$HN?$AA?5?$AA?$HL?$AA?$HN?$AA?6@
46C74 45 ??_C@_1CM@NMKGACPH@?$AA?6?$AA?$HL?$AA?$HN?$AA?3?$AA?6?$AA?$HL?$AA?3?$AA?$DM?$AA?$HL?$AA?$HN?$AA?$HN?$AA?5?$AA?$HL?$AA?3?$AA?$DM@
46CA0 45 ??_C@_15GKIJICBO@?$AAZ?$AAC@
46CA8 45 ??_C@_17JJIMNMHK@?$AA?5?$AA?$CG?$AA?$FO@
46CB0 45 ??_C@_13HOIJIPNN@?$AA?5@
46CB4 45 ??_C@_15LEKKCGMK@?$AA?2?$AA?2@
46CBC 45 ??_C@_15DDHGOCBH@?$AA?4?$AA?4@
46CC4 45 ??_C@_17FJPEEFCB@?$AAp?$AAr?$AAc@
46CCC 45 ??_C@_1BC@ENICKDH@?$AAC?$AAo?$AAn?$AAt?$AAe?$AAn?$AAt?$AAs@
46CE0 45 ??_C@_1CK@DGKCELDD@?$AAP?$AAr?$AAo?$AAc?$AAe?$AAs?$AAs?$AAL?$AAi?$AAs?$AAt?$AA?4?$AAC?$AAo?$AAm@
46D0C 45 ??_C@_1CK@ECJCGOEK@?$AAP?$AAr?$AAo?$AAc?$AAe?$AAs?$AAs?$AAL?$AAi?$AAs?$AAt?$AA?4?$AAU?$AAs?$AAe@
46D38 45 ??_C@_19LEMHLIAI@?$AA?$CF?$AA?5?$AA?$HL?$AA?$HN@
46D44 45 ??_C@_19NNDJOIOE@?$AA?$HL?$AA?$HN?$AA?$HL?$AA?$HN@
46D50 45 ??_C@_1DG@GNDNNFLA@?$AA?$HL?$AA?$HN?$AA?5?$AA?$HL?$AA?3?$AA0?$AA2?$AA?$HN?$AA?3?$AA?$HL?$AA?3?$AA0?$AA2?$AA?$HN?$AA?3@
46D88 45 ??_C@_1DA@IEGGOAFB@?$AA?$HL?$AA?3?$AA0?$AA2?$AA?$HN?$AA?3?$AA?$HL?$AA?3?$AA0?$AA2?$AA?$HN?$AA?3?$AA?$HL?$AA?3?$AA0@
46DB8 45 ??_C@_19JHEHLFPM@?$AA?2?$AA?$DP?$AA?$DP?$AA?2@
46DC4 45 ??_C@_1DC@HCLBMGIA@?$AA?2?$AAV?$AAa?$AAr?$AAF?$AAi?$AAl?$AAe?$AAI?$AAn?$AAf?$AAo?$AA?2?$AAT?$AAr@
46DF8 45 ??_C@_1DM@LKEGNDCP@?$AA?2?$AAS?$AAt?$AAr?$AAi?$AAn?$AAg?$AAF?$AAi?$AAl?$AAe?$AAI?$AAn?$AAf?$AAo@
46E34 45 ??_C@_1BI@HCCAONKE@?$AAF?$AAi?$AAl?$AAe?$AAV?$AAe?$AAr?$AAs?$AAi?$AAo?$AAn@
46E4C 45 ??_C@_1CA@JGBAIPOO@?$AAF?$AAi?$AAl?$AAe?$AAD?$AAe?$AAs?$AAc?$AAr?$AAi?$AAp?$AAt?$AAi?$AAo?$AAn@
46E6C 45 ??_C@_17FNIAADFF@?$AA?$HL?$AA?$HN?$AA?2@
46E74 45 ??_C@_1M@FLCNNCCB@?$AA?5?$AA?$CI?$AA?$HL?$AA?$HN?$AA?$CJ@
46E80 45 ??_C@_1BC@OMEIBLAI@?$AAw?$AAb?$AAe?$AAm?$AAc?$AAo?$AAm?$AAn@
46E94 45 ??_C@_0BA@FOIKENOD@vector?5too?5long@
46EA4 45 ??_C@_0BI@CFPLBAOH@invalid?5string?5position@
46EBC 45 ??_C@_15LGINNLBP@?$AA?$HL?$AA?$HN@
46EC4 45 ??_C@_0BL@GOIGLPKN@unordered_map?1set?5too?5long@
46EE0 45 ??_C@_0BK@OGNNAFAB@invalid?5hash?5bucket?5count@
46EFC 45 ?StatusCols@?1??InitializePanelModes@Plist@@SAXXZ@4QB_WB
46F10 45 ?ExtStyles@?1??window_ex_style@@YA@PAUHWND__@@@Z@4QBU?$pair@HPB_W@std@@B
46FB0 45 ?PrClasses@?ED@??ProcessKey@Plist@@QAEHPBU_INPUT_RECORD@@@Z@4QBGB
46FC0 45 ?FKeys@?1??GetOpenPanelInfo@Plist@@QAEXPAUOpenPanelInfo@@@Z@4PAGA
47004 45 ?StatusWidths@?1??InitializePanelModes@Plist@@SAXXZ@4QB_WB
47018 45 ??_7PluginEditFieldBinding@@6B@
47020 45 ?Pr@?HB@??ProcessKey@Plist@@QAEHPBU_INPUT_RECORD@@@Z@4QBEB
47030 45 ?Styles@?1??window_style@@YA@PAUHWND__@@@Z@4QBU?$pair@HPB_W@std@@B
470B0 45 ?invalid_chars@?1??GetFiles@Plist@@QAEHPAUPluginPanelItem@@IHPAPB_W_KAAUoptions@@@Z@4QB_WB
470D0 45 ?StaticItems@?JA@??ProcessKey@Plist@@QAEHPBU_INPUT_RECORD@@@Z@4QBU<unnamed-type-StaticItems>@?JA@??12@QAEH0@Z@B
47180 262 ?Counters@@3QBUcounters@@B
47288 262 ??_C@_1CC@DNHMJIKH@?$AA?$CF?$AA?5?$AAP?$AAr?$AAo?$AAc?$AAe?$AAs?$AAs?$AAo?$AAr?$AA?5?$AAT?$AAi?$AAm@
472AC 262 ??_C@_1CE@FNEMIHOD@?$AA?$CF?$AA?5?$AAP?$AAr?$AAi?$AAv?$AAi?$AAl?$AAe?$AAg?$AAe?$AAd?$AA?5?$AAT?$AAi@
472D0 262 ??_C@_1BI@IIOPEKIO@?$AA?$CF?$AA?5?$AAU?$AAs?$AAe?$AAr?$AA?5?$AAT?$AAi?$AAm?$AAe@
472E8 262 ??_C@_1BK@FAAJNJIB@?$AAH?$AAa?$AAn?$AAd?$AAl?$AAe?$AA?5?$AAC?$AAo?$AAu?$AAn?$AAt@
47304 262 ??_C@_1CA@KJMNGIDJ@?$AAP?$AAa?$AAg?$AAe?$AA?5?$AAF?$AAi?$AAl?$AAe?$AA?5?$AAB?$AAy?$AAt?$AAe?$AAs@
47324 262 ??_C@_1CK@FGGMBBIH@?$AAP?$AAa?$AAg?$AAe?$AA?5?$AAF?$AAi?$AAl?$AAe?$AA?5?$AAB?$AAy?$AAt?$AAe?$AAs@
47350 262 ??_C@_1BI@GCOMDKEO@?$AAW?$AAo?$AAr?$AAk?$AAi?$AAn?$AAg?$AA?5?$AAS?$AAe?$AAt@
47368 262 ??_C@_1CC@OFJLEPCP@?$AAW?$AAo?$AAr?$AAk?$AAi?$AAn?$AAg?$AA?5?$AAS?$AAe?$AAt?$AA?5?$AAP?$AAe?$AAa@
4738C 262 ??_C@_1CI@LLKMGPEG@?$AAP?$AAo?$AAo?$AAl?$AA?5?$AAN?$AAo?$AAn?$AAp?$AAa?$AAg?$AAe?$AAd?$AA?5?$AAB@
473B4 262 ??_C@_1CC@IMBAECJF@?$AAP?$AAo?$AAo?$AAl?$AA?5?$AAP?$AAa?$AAg?$AAe?$AAd?$AA?5?$AAB?$AAy?$AAt?$AAe@
473D8 262 ??_C@_1BM@DGDPAMAA@?$AAP?$AAr?$AAi?$AAv?$AAa?$AAt?$AAe?$AA?5?$AAB?$AAy?$AAt?$AAe?$AAs@
473F4 262 ??_C@_1CA@GADAGCME@?$AAP?$AAa?$AAg?$AAe?$AA?5?$AAF?$AAa?$AAu?$AAl?$AAt?$AAs?$AA?1?$AAs?$AAe?$AAc@
47414 262 ??_C@_1BM@FMIOMJAE@?$AAV?$AAi?$AAr?$AAt?$AAu?$AAa?$AAl?$AA?5?$AAB?$AAy?$AAt?$AAe?$AAs@
47430 262 ??_C@_1CG@KJOKFONA@?$AAV?$AAi?$AAr?$AAt?$AAu?$AAa?$AAl?$AA?5?$AAB?$AAy?$AAt?$AAe?$AAs?$AA?5?$AAP@
47458 262 ??_C@_1CE@DFDFLLAO@?$AAI?$AAO?$AA?5?$AAD?$AAa?$AAt?$AAa?$AA?5?$AAB?$AAy?$AAt?$AAe?$AAs?$AA?1?$AAs@
4747C 262 ??_C@_1CE@EFLEKJAB@?$AAI?$AAO?$AA?5?$AAR?$AAe?$AAa?$AAd?$AA?5?$AAB?$AAy?$AAt?$AAe?$AAs?$AA?1?$AAs@
474A0 262 ??_C@_1CG@MEJHKKKF@?$AAI?$AAO?$AA?5?$AAW?$AAr?$AAi?$AAt?$AAe?$AA?5?$AAB?$AAy?$AAt?$AAe?$AAs?$AA?1@
474C8 262 ??_C@_1CG@LBBBPCJA@?$AAI?$AAO?$AA?5?$AAO?$AAt?$AAh?$AAe?$AAr?$AA?5?$AAB?$AAy?$AAt?$AAe?$AAs?$AA?1@
474F0 262 ??_C@_1CO@LIEOHDCC@?$AAI?$AAO?$AA?5?$AAD?$AAa?$AAt?$AAa?$AA?5?$AAO?$AAp?$AAe?$AAr?$AAa?$AAt?$AAi@
47520 262 ??_C@_1CO@LIIKBHDH@?$AAI?$AAO?$AA?5?$AAR?$AAe?$AAa?$AAd?$AA?5?$AAO?$AAp?$AAe?$AAr?$AAa?$AAt?$AAi@
47550 262 ??_C@_1DA@HICMAFKK@?$AAI?$AAO?$AA?5?$AAW?$AAr?$AAi?$AAt?$AAe?$AA?5?$AAO?$AAp?$AAe?$AAr?$AAa?$AAt@
47580 262 ??_C@_1DA@BEHINMGJ@?$AAI?$AAO?$AA?5?$AAO?$AAt?$AAh?$AAe?$AAr?$AA?5?$AAO?$AAp?$AAe?$AAr?$AAa?$AAt@
475B0 262 ??_C@_1BA@MGJGGMO@?$AAC?$AAo?$AAu?$AAn?$AAt?$AAe?$AAr@
475C0 262 ??_C@_1BG@NKNJPBCD@?$AAI?$AAD?$AA?5?$AAP?$AAr?$AAo?$AAc?$AAe?$AAs?$AAs@
475D8 262 ??_C@_1BM@KCAKLHJN@?$AAP?$AAr?$AAi?$AAo?$AAr?$AAi?$AAt?$AAy?$AA?5?$AAB?$AAa?$AAs?$AAe@
475F4 262 ??_C@_1BK@KCHPPKHP@?$AAT?$AAh?$AAr?$AAe?$AAa?$AAd?$AA?5?$AAC?$AAo?$AAu?$AAn?$AAt@
47610 262 ??_C@_1CI@FNIEMNAI@?$AAC?$AAr?$AAe?$AAa?$AAt?$AAi?$AAn?$AAg?$AA?5?$AAP?$AAr?$AAo?$AAc?$AAe?$AAs@
47638 262 ??_C@_1BK@IKAFHKBD@?$AAE?$AAl?$AAa?$AAp?$AAs?$AAe?$AAd?$AA?5?$AAT?$AAi?$AAm?$AAe@
47654 262 ??_C@_19DOGDICKI@?$AA?4?$AAe?$AAx?$AAe@
47660 262 ??_C@_19DLCFHDFF@?$AAP?$AAE?$AAR?$AAF@
4766C 46 ??_C@_1O@NKAIMMPD@?$AA_?$AAT?$AAo?$AAt?$AAa?$AAl@
4767C 46 ??_C@_1CC@DMDJMJLM@?$AAS?$AAe?$AAD?$AAe?$AAb?$AAu?$AAg?$AAP?$AAr?$AAi?$AAv?$AAi?$AAl?$AAe?$AAg@
476A0 46 ??_C@_1BA@LGLNCAB@?$AA?$HL?$AA?$HN?$AA?3?$AA?6?$AA?$HL?$AA?$HN?$AA?6@
476B0 46 ??_C@_1M@JNLNOPHA@?$AA?6?$AA?$HL?$AA?$HN?$AA?3?$AA?6@
476BC 46 ??_C@_1BC@LCLKNDBE@?$AA?$HL?$AA?$HN?$AA?5?$AA?$HL?$AA?3?$AA8?$AAX?$AA?$HN@
476D0 46 ??_C@_17JLBLMHID@?$AA?5?$AA?$HL?$AA?$HN@
476D8 46 ??_C@_1BA@LLEFIMNA@?$AA?$HL?$AA?3?$AA0?$AA?$HL?$AA?$HN?$AAX?$AA?$HN@
476E8 46 ??_C@_1BA@EGCKMFAC@?$AA?$HL?$AA?3?$AA0?$AA1?$AA6?$AAX?$AA?$HN@
476FC 46 ??_7?$_Func_impl_no_alloc@V<lambda_1>@?6??PrintModules@?$ipc_functions@$00@@SAXPAX0AAUoptions@@@Z@_NPA_WI@std@@6B@
47718 46 ??_7?$_Func_impl_no_alloc@V<lambda_1>@?6??PrintModules@?$ipc_functions@$0A@@@SAXPAX0AAUoptions@@@Z@_NPA_WI@std@@6B@
47734 46 ??_7?$_Func_impl_no_alloc@V<lambda_3>@?N@??PrintModules@@YAXPAXKAAUoptions@@@Z@_NPA_WI@std@@6B@
4774C 47 ??_C@_1CA@CCAFOKCB@?$AAE?$AAr?$AAr?$AAo?$AAr?$AA?5?$AA0?$AAx?$AA?$HL?$AA0?$AA?3?$AA0?$AA8?$AAX?$AA?$HN@
4776C 47 ??_C@_15JNBOKNOG@?$AA?$AN?$AA?6@
47778 269 ??_7?$_Func_impl_no_alloc@V<lambda_1>@?1??GetProcessInt@WMIConnection@@AAEKKPB_W@Z@XABUtagVARIANT@@@std@@6B@
47794 269 ??_7?$_Func_impl_no_alloc@V<lambda_1>@?1??GetProcessString@WMIConnection@@AAE?AV?$basic_string@_WU?$char_traits@_W@std@@V?$allocator@_W@2@@std@@KPB_W@Z@XABUtagVARIANT@@@std@@6B@
477AC 269 ??_C@_1DC@LAIEFOLO@?$AAW?$AAi?$AAn?$AA3?$AA2?$AA_?$AAP?$AAr?$AAo?$AAc?$AAe?$AAs?$AAs?$AA?4?$AAH@
477E0 269 ??_C@_1BO@CLCOBGDE@?$AAE?$AAx?$AAe?$AAc?$AAu?$AAt?$AAa?$AAb?$AAl?$AAe?$AAP?$AAa?$AAt?$AAh@
47800 269 ??_C@_1BI@LPJNJKGA@?$AAC?$AAo?$AAm?$AAm?$AAa?$AAn?$AAd?$AAL?$AAi?$AAn?$AAe@
47818 269 ??_C@_1BC@JHNNEHFE@?$AAP?$AAr?$AAi?$AAo?$AAr?$AAi?$AAt?$AAy@
4782C 269 ??_C@_1BC@HJJANEGO@?$AAG?$AAe?$AAt?$AAO?$AAw?$AAn?$AAe?$AAr@
47840 269 ??_C@_19PIJILKAI@?$AAU?$AAs?$AAe?$AAr@
4784C 269 ??_C@_1O@OAMNPMOM@?$AAD?$AAo?$AAm?$AAa?$AAi?$AAn@
4785C 269 ??_C@_1BI@OIPNMPCL@?$AAG?$AAe?$AAt?$AAO?$AAw?$AAn?$AAe?$AAr?$AAS?$AAi?$AAd@
47874 269 ??_C@_17NKMLOKHF@?$AAS?$AAi?$AAd@
4787C 269 ??_C@_1BE@CFEJJKFE@?$AAS?$AAe?$AAs?$AAs?$AAi?$AAo?$AAn?$AAI?$AAd@
47890 269 ??_C@_1BM@MLGLIGHJ@?$AAW?$AAi?$AAn?$AA3?$AA2?$AA_?$AAP?$AAr?$AAo?$AAc?$AAe?$AAs?$AAs@
478AC 269 ??_C@_1BI@FLOHINJE@?$AAR?$AAe?$AAt?$AAu?$AAr?$AAn?$AAV?$AAa?$AAl?$AAu?$AAe@
478C4 269 ??_C@_1BI@NKNJJIDM@?$AAS?$AAe?$AAt?$AAP?$AAr?$AAi?$AAo?$AAr?$AAi?$AAt?$AAy@
478DC 269 ??_C@_1O@GGHBFGJC@?$AAR?$AAe?$AAa?$AAs?$AAo?$AAn@
478EC 269 ??_C@_1BE@PBPGMODO@?$AAT?$AAe?$AAr?$AAm?$AAi?$AAn?$AAa?$AAt?$AAe@
47900 269 ??_C@_13JOFGPIOO@?$AA?4@
47904 269 ??_C@_1CC@OGNCBAIB@?$AA?2?$AA?2?$AA?$HL?$AA0?$AA?$HN?$AA?2?$AAr?$AAo?$AAo?$AAt?$AA?2?$AAc?$AAi?$AAm?$AAv@
47928 50 ??_C@_1M@OAIMIKLP@?$AAn?$AAt?$AAd?$AAl?$AAl@
47934 50 ??_C@_0BK@EGDDIFMK@NtQueryInformationProcess@
47950 50 ??_C@_0BJ@HKKELGGC@NtQueryInformationThread@
4796C 50 ??_C@_0O@IFMDHOMC@NtQueryObject@
4797C 50 ??_C@_0BJ@NDLOPGCH@NtQuerySystemInformation@
47998 50 ??_C@_0BH@DLPGICA@NtQueryInformationFile@
479B0 50 ??_C@_0CB@GDPHBMJN@NtWow64QueryInformationProcess6@
479D4 50 ??_C@_0BL@NJDHCDMK@NtWow64ReadVirtualMemory64@
479F0 50 ??_C@_1BC@GDMECMAK@?$AAk?$AAe?$AAr?$AAn?$AAe?$AAl?$AA3?$AA2@
47A04 50 ??_C@_0P@LKABJJMO@IsWow64Process@
47A14 50 ??_C@_1BC@DNHGCMLG@?$AAa?$AAd?$AAv?$AAa?$AAp?$AAi?$AA3?$AA2@
47A28 50 ??_C@_0L@KJHKJIPF@IsValidSid@
47A34 50 ??_C@_0BK@FIHGNING@GetSidIdentifierAuthority@
47A50 50 ??_C@_0BI@LPFJALDI@GetSidSubAuthorityCount@
47A68 50 ??_C@_0BD@LMGFHOAE@GetSidSubAuthority@
47A7C 50 ??_C@_1O@BCCLBEOE@?$AAu?$AAs?$AAe?$AAr?$AA3?$AA2@
47A8C 50 ??_C@_0BA@FKGDNIJG@GetGuiResources@
47A9C 50 ??_C@_1M@FFPAMFOB@?$AAo?$AAl?$AAe?$AA3?$AA2@
47AA8 50 ??_C@_0BC@IOEGILCE@CoSetProxyBlanket@
47ABC 50 ??_C@_1M@OMFDJDJC@?$AAp?$AAs?$AAa?$AAp?$AAi@
47AC8 50 ??_C@_0BF@LEEEDPDK@EnumProcessModulesEx@
47AE0 50 ??_C@_1BC@PDEABLIN@?$AAP?$AAr?$AAo?$AAc?$AAL?$AAi?$AAs?$AAt@
47AF4 50 ??_C@_1DK@DCAMPEPJ@?$AAP?$AAr?$AAo?$AAc?$AAe?$AAs?$AAs?$AA?5?$AAL?$AAi?$AAs?$AAt?$AA?5?$AAf?$AAo@
47B30 50 ??_C@_1DE@BGKMIKPD@?$AAE?$AAu?$AAg?$AAe?$AAn?$AAe?$AA?5?$AAR?$AAo?$AAs?$AAh?$AAa?$AAl?$AA?5?$AA?$CG@
47B64 50 ??_C@_1M@MNPEKPKO@?$AAp?$AAl?$AAi?$AAs?$AAt@
47B70 50 _MenuGuid
47B80 50 _MainGuid
47B90 50 _ConfigDialogGuid
47BA0 266 ??_C@_0BG@JGJIBIIG@Wrapper_EncodePointer@
47BB8 266 ??_C@_0BG@OMFOEGFD@Wrapper_DecodePointer@
47BD0 266 ??_C@_0BL@BBEHGDBL@Wrapper_GetModuleHandleExW@
47BEC 266 ??_C@_0BM@EDOCFJPK@Wrapper_InitializeSListHead@
47C08 266 ??_C@_0BO@MMMKJFKC@Wrapper_InterlockedFlushSList@
47C28 266 ??_C@_0CC@NAEDINGB@Wrapper_InterlockedPushEntrySLi@
47C4C 266 ??_C@_0CB@CBAMEEON@Wrapper_GetNumaHighestNodeNumbe@
47C70 266 ??_C@_0CH@OPPPOLHC@Wrapper_GetLogicalProcessorInfo@
47C98 266 ??_C@_0CA@MMHMBOOA@Wrapper_SetThreadStackGuarantee@
47CB8 266 ??_C@_0CE@LIGPHONN@Wrapper_InitializeCriticalSecti@
47CDC 266 ??_C@_1CM@BFAMBNFD@?$AA?$CB?$AAx?$AA?9?$AAs?$AAy?$AAs?$AA?9?$AAd?$AAe?$AAf?$AAa?$AAu?$AAl?$AAt?$AA?9@
47D08 266 ??_C@_0BI@OMKKJAOO@Wrapper_CompareStringEx@
47D20 266 ??_C@_0BG@OHLPLANO@Wrapper_LCMapStringEx@
47D38 266 ??_C@_0CC@PDCHIDAD@Wrapper_SleepConditionVariableS@
47D5C 266 ??_C@_0CB@MCGLLAP@Wrapper_WakeAllConditionVariabl@
47D80 266 ??_C@_0CA@DKBCMHCP@Wrapper_AcquireSRWLockExclusive@
47DA0 266 ??_C@_0CA@KKENLMMH@Wrapper_ReleaseSRWLockExclusive@
47DC0 266 ??_C@_0CD@HMIPNKOD@Wrapper_TryAcquireSRWLockExclus@
47DE4 266 ??_C@_0BK@DDPOCJPI@Wrapper_InitializeSRWLock@
47E00 266 ??_C@_0BB@OCIMNOFH@Wrapper_FlsAlloc@
47E14 266 ??_C@_0BE@MINHNHKC@Wrapper_FlsGetValue@
47E28 266 ??_C@_0BE@DJPLMENP@Wrapper_FlsSetValue@
47E3C 266 ??_C@_0BA@BHMHFMJC@Wrapper_FlsFree@
47E4C 266 ?kernel32@modules@@3QB_WB
47E60 45 __real@4024000000000000
47E68 45 __real@41f0000000000000
47E70 45 __real@4f800000
47E80 184 POW_name
47E84 184 __half
47E90 185 Shifter
47EA0 185 SIGMASK
47EB0 185 ONEMASK
47EC0 185 ABSVALMASK
47ED0 185 cev
47EF8 185 HALFSIG
47F00 185 LHN
47F08 185 sNaN
47F10 185 INF
47F18 185 NEG_INF
47F20 185 NEG_ZERO
47F28 185 NEG_BIG
47F30 185 POS_BIG
47F38 185 EMIN
47F40 185 QIND
47F50 186 ___acrt_pow_rcp_t1
48360 186 ___acrt_pow_log2_t1
48B70 186 ___acrt_pow_rcp_t2
48F80 186 ___acrt_pow_log2_t2
49790 186 ___acrt_pow_rcp_t3
49FA0 186 ___acrt_pow_log2_t3
4AFB0 186 ___acrt_pow_clv
4AFD0 186 ___acrt_pow_exp2_tbl
4B7D0 30 __load_config_used
4B900 70 ??_R4bad_function_call@std@@6B@
4B914 70 ??_R3bad_function_call@std@@8
4B924 70 ??_R2bad_function_call@std@@8
4B930 70 ??_R1A@?0A@EA@bad_function_call@std@@8
4B94C 70 ??_R4logic_error@std@@6B@
4B960 70 ??_R3logic_error@std@@8
4B970 70 ??_R2logic_error@std@@8
4B97C 70 ??_R1A@?0A@EA@logic_error@std@@8
4B998 70 ??_R4length_error@std@@6B@
4B9AC 70 ??_R3length_error@std@@8
4B9BC 70 ??_R2length_error@std@@8
4B9CC 70 ??_R1A@?0A@EA@length_error@std@@8
4B9E8 70 ??_R4out_of_range@std@@6B@
4B9FC 70 ??_R3out_of_range@std@@8
4BA0C 70 ??_R2out_of_range@std@@8
4BA1C 70 ??_R1A@?0A@EA@out_of_range@std@@8
4BA38 60 ??_R4_Locimp@locale@std@@6B@
4BA4C 60 ??_R3_Locimp@locale@std@@8
4BA5C 60 ??_R2_Locimp@locale@std@@8
4BA70 60 ??_R1A@?0A@EA@_Locimp@locale@std@@8
4BA8C 36 ??_R4type_info@@6B@
4BAA0 36 ??_R3type_info@@8
4BAB0 36 ??_R2type_info@@8
4BAB8 36 ??_R1A@?0A@EA@type_info@@8
4BAD4 240 ??_R4bad_exception@std@@6B@
4BAE8 240 ??_R3bad_exception@std@@8
4BAF8 240 ??_R2bad_exception@std@@8
4BB04 240 ??_R1A@?0A@EA@bad_exception@std@@8
4BB20 53 ??_R4exception@std@@6B@
4BB34 53 ??_R2bad_array_new_length@std@@8
4BB44 53 ??_R4runtime_error@std@@6B@
4BB58 53 ??_R3_Facet_base@std@@8
4BB68 53 ??_R1A@?0A@EA@bad_cast@std@@8
4BB84 53 ??_R2bad_alloc@std@@8
4BB90 53 ??_R3format_error@v11@fmt@@8
4BBA0 53 ??_R3_Crt_new_delete@std@@8
4BBB0 53 ??_R1A@?0A@EA@runtime_error@std@@8
4BBCC 53 ??_R13?0A@EA@_Crt_new_delete@std@@8
4BBE8 53 ??_R1A@?0A@EA@exception@std@@8
4BC04 53 ??_R2?$numpunct@_W@std@@8
4BC18 53 ??_R1A@?0A@EA@_Facet_base@std@@8
4BC34 53 ??_R1A@?0A@EA@bad_alloc@std@@8
4BC50 53 ??_R4format_error@v11@fmt@@6B@
4BC64 53 ??_R1A@?0A@EA@format_error@v11@fmt@@8
4BC80 53 ??_R2bad_cast@std@@8
4BC8C 53 ??_R2exception@std@@8
4BC94 53 ??_R1A@?0A@EA@facet@locale@std@@8
4BCB0 53 ??_R2format_error@v11@fmt@@8
4BCC0 53 ??_R3?$numpunct@_W@std@@8
4BCD0 53 ??_R1A@?0A@EA@?$numpunct@_W@std@@8
4BCEC 53 ??_R3exception@std@@8
4BCFC 53 ??_R3facet@locale@std@@8
4BD0C 53 ??_R3bad_cast@std@@8
4BD1C 53 ??_R4bad_alloc@std@@6B@
4BD30 53 ??_R4bad_cast@std@@6B@
4BD44 53 ??_R1A@?0A@EA@_Crt_new_delete@std@@8
4BD60 53 ??_R3bad_array_new_length@std@@8
4BD70 53 ??_R3bad_alloc@std@@8
4BD80 53 ??_R4_Facet_base@std@@6B@
4BD94 53 ??_R2runtime_error@std@@8
4BDA0 53 ??_R4?$numpunct@_W@std@@6B@
4BDB4 53 ??_R4bad_array_new_length@std@@6B@
4BDC8 53 ??_R2_Crt_new_delete@std@@8
4BDD0 53 ??_R1A@?0A@EA@bad_array_new_length@std@@8
4BDEC 53 ??_R2_Facet_base@std@@8
4BDF4 53 ??_R2facet@locale@std@@8
4BE04 53 ??_R3runtime_error@std@@8
4BE14 44 ??_R3DialogAPIBinding@@8
4BE24 44 ??_R1A@?0A@EA@PluginCheckBoxBinding@@8
4BE40 44 ??_R3PluginCheckBoxBinding@@8
4BE50 44 ??_R2DialogAPIBinding@@8
4BE58 44 ??_R4PluginCheckBoxBinding@@6B@
4BE6C 44 ??_R2PluginCheckBoxBinding@@8
4BE78 44 ??_R1A@?0A@EA@DialogAPIBinding@@8
4BE94 45 ??_R2PluginEditFieldBinding@@8
4BEA0 45 ??_R4PluginEditFieldBinding@@6B@
4BEB4 45 ??_R3PluginEditFieldBinding@@8
4BEC4 45 ??_R1A@?0A@EA@PluginEditFieldBinding@@8
4BEE0 46 ??_R3?$_Func_impl_no_alloc@V<lambda_1>@?6??PrintModules@?$ipc_functions@$0A@@@SAXPAX0AAUoptions@@@Z@_NPA_WI@std@@8
4BEF0 46 ??_R2?$_Func_impl_no_alloc@V<lambda_1>@?6??PrintModules@?$ipc_functions@$00@@SAXPAX0AAUoptions@@@Z@_NPA_WI@std@@8
4BEFC 46 ??_R2?$_Func_base@_NPA_WI@std@@8
4BF04 46 ??_R1A@?0A@EA@?$_Func_impl_no_alloc@V<lambda_1>@?6??PrintModules@?$ipc_functions@$00@@SAXPAX0AAUoptions@@@Z@_NPA_WI@std@@8
4BF20 46 ??_R3?$_Func_impl_no_alloc@V<lambda_1>@?6??PrintModules@?$ipc_functions@$00@@SAXPAX0AAUoptions@@@Z@_NPA_WI@std@@8
4BF30 46 ??_R4?$_Func_impl_no_alloc@V<lambda_1>@?6??PrintModules@?$ipc_functions@$0A@@@SAXPAX0AAUoptions@@@Z@_NPA_WI@std@@6B@
4BF44 46 ??_R3?$_Func_base@_NPA_WI@std@@8
4BF54 46 ??_R1A@?0A@EA@?$_Func_impl_no_alloc@V<lambda_1>@?6??PrintModules@?$ipc_functions@$0A@@@SAXPAX0AAUoptions@@@Z@_NPA_WI@std@@8
4BF70 46 ??_R4?$_Func_impl_no_alloc@V<lambda_3>@?N@??PrintModules@@YAXPAXKAAUoptions@@@Z@_NPA_WI@std@@6B@
4BF84 46 ??_R3?$_Func_impl_no_alloc@V<lambda_3>@?N@??PrintModules@@YAXPAXKAAUoptions@@@Z@_NPA_WI@std@@8
4BF94 46 ??_R1A@?0A@EA@?$_Func_base@_NPA_WI@std@@8
4BFB0 46 ??_R1A@?0A@EA@?$_Func_impl_no_alloc@V<lambda_3>@?N@??PrintModules@@YAXPAXKAAUoptions@@@Z@_NPA_WI@std@@8
4BFCC 46 ??_R2?$_Func_impl_no_alloc@V<lambda_1>@?6??PrintModules@?$ipc_functions@$0A@@@SAXPAX0AAUoptions@@@Z@_NPA_WI@std@@8
4BFD8 46 ??_R4?$_Func_impl_no_alloc@V<lambda_1>@?6??PrintModules@?$ipc_functions@$00@@SAXPAX0AAUoptions@@@Z@_NPA_WI@std@@6B@
4BFEC 46 ??_R2?$_Func_impl_no_alloc@V<lambda_3>@?N@??PrintModules@@YAXPAXKAAUoptions@@@Z@_NPA_WI@std@@8
4BFF8 269 ??_R3?$_Func_impl_no_alloc@V<lambda_1>@?1??GetProcessString@WMIConnection@@AAE?AV?$basic_string@_WU?$char_traits@_W@std@@V?$allocator@_W@2@@std@@KPB_W@Z@XABUtagVARIANT@@@std@@8
4C008 269 ??_R2?$_Func_impl_no_alloc@V<lambda_1>@?1??GetProcessInt@WMIConnection@@AAEKKPB_W@Z@XABUtagVARIANT@@@std@@8
4C014 269 ??_R4?$_Func_impl_no_alloc@V<lambda_1>@?1??GetProcessInt@WMIConnection@@AAEKKPB_W@Z@XABUtagVARIANT@@@std@@6B@
4C028 269 ??_R4?$_Func_impl_no_alloc@V<lambda_1>@?1??GetProcessString@WMIConnection@@AAE?AV?$basic_string@_WU?$char_traits@_W@std@@V?$allocator@_W@2@@std@@KPB_W@Z@XABUtagVARIANT@@@std@@6B@
4C03C 269 ??_R1A@?0A@EA@?$_Func_base@XABUtagVARIANT@@@std@@8
4C058 269 ??_R3?$_Func_base@XABUtagVARIANT@@@std@@8
4C068 269 ??_R3?$_Func_impl_no_alloc@V<lambda_1>@?1??GetProcessInt@WMIConnection@@AAEKKPB_W@Z@XABUtagVARIANT@@@std@@8
4C078 269 ??_R2?$_Func_impl_no_alloc@V<lambda_1>@?1??GetProcessString@WMIConnection@@AAE?AV?$basic_string@_WU?$char_traits@_W@std@@V?$allocator@_W@2@@std@@KPB_W@Z@XABUtagVARIANT@@@std@@8
4C084 269 ??_R1A@?0A@EA@?$_Func_impl_no_alloc@V<lambda_1>@?1??GetProcessInt@WMIConnection@@AAEKKPB_W@Z@XABUtagVARIANT@@@std@@8
4C0A0 269 ??_R1A@?0A@EA@?$_Func_impl_no_alloc@V<lambda_1>@?1??GetProcessString@WMIConnection@@AAE?AV?$basic_string@_WU?$char_traits@_W@std@@V?$allocator@_W@2@@std@@KPB_W@Z@XABUtagVARIANT@@@std@@8
4C0BC 269 ??_R2?$_Func_base@XABUtagVARIANT@@@std@@8
4C0C4 3 ___safe_se_handler_table
4C254 3 ___volatile_metadata
4C6E0 25 ___rtc_iaa
4C6E4 25 ___rtc_izz
4C6E8 25 ___rtc_taa
4C6EC 25 ___rtc_tzz
4C6F0 53 __ehfuncinfo$?adjust_precision@detail@v11@fmt@@YAXAAHH@Z
4C714 53 __unwindtable$?adjust_precision@detail@v11@fmt@@YAXAAHH@Z
4C71C 53 __ehfuncinfo$?square@bigint@detail@v11@fmt@@QAEXXZ
4C740 53 __unwindtable$?square@bigint@detail@v11@fmt@@QAEXXZ
4C750 53 __ehfuncinfo$?format_dragon@detail@v11@fmt@@YAXU?$basic_fp@Vuint128_fallback@detail@v11@fmt@@@123@IHAAV?$buffer@D@123@AAH@Z
4C774 53 __unwindtable$?format_dragon@detail@v11@fmt@@YAXU?$basic_fp@Vuint128_fallback@detail@v11@fmt@@@123@IHAAV?$buffer@D@123@AAH@Z
4C794 53 __ehfuncinfo$??0_Locinfo@std@@QAE@PBD@Z
4C7B8 53 __unwindtable$??0_Locinfo@std@@QAE@PBD@Z
4C7F0 44 __ehfuncinfo$??1PluginDialogBuilder@@QAE@XZ
4C814 53 __ehfuncinfo$?report_error@v11@fmt@@YAXPBD@Z
4C838 53 __unwindtable$?report_error@v11@fmt@@YAXPBD@Z
4C840 53 __ehfuncinfo$?grow@?$basic_memory_buffer@D$0BPE@U?$allocator@D@detail@v11@fmt@@@v11@fmt@@CAXAAV?$buffer@D@detail@23@I@Z
4C864 53 __unwindtable$?grow@?$basic_memory_buffer@D$0BPE@U?$allocator@D@detail@v11@fmt@@@v11@fmt@@CAXAAV?$buffer@D@detail@23@I@Z
4C86C 53 __ehfuncinfo$??$use_facet@V?$numpunct@_W@std@@@std@@YAABV?$numpunct@_W@0@ABVlocale@0@@Z
4C890 53 __unwindtable$??$use_facet@V?$numpunct@_W@std@@@std@@YAABV?$numpunct@_W@0@ABVlocale@0@@Z
4C8A0 53 __ehfuncinfo$?_Getcat@?$numpunct@_W@std@@SAIPAPBVfacet@locale@2@PBV42@@Z
4C8C4 53 __unwindtable$?_Getcat@?$numpunct@_W@std@@SAIPAPBVfacet@locale@2@PBV42@@Z
4C8EC 54 __ehfuncinfo$??$decimal_point@_W@detail@v11@fmt@@YA_WUlocale_ref@012@@Z
4C910 54 __unwindtable$??$decimal_point@_W@detail@v11@fmt@@YA_WUlocale_ref@012@@Z
4C920 54 __ehfuncinfo$?write_loc@detail@v11@fmt@@YA_NV?$basic_appender@_W@23@Vloc_value@23@ABUformat_specs@23@Ulocale_ref@123@@Z
4C944 54 __unwindtable$?write_loc@detail@v11@fmt@@YA_NV?$basic_appender@_W@23@Vloc_value@23@ABUformat_specs@23@Ulocale_ref@123@@Z
4C974 54 __ehfuncinfo$?query_object@@YA?AV?$unique_ptr@$$BY0A@DU?$default_delete@$$BY0A@D@std@@@std@@PAXW4_OBJECT_INFORMATION_CLASS@@@Z
4C998 54 __unwindtable$?query_object@@YA?AV?$unique_ptr@$$BY0A@DU?$default_delete@$$BY0A@D@std@@@std@@PAXW4_OBJECT_INFORMATION_CLASS@@@Z
4C9A0 54 __ehfuncinfo$?GetFileName@@YA?AV?$basic_string@_WU?$char_traits@_W@std@@V?$allocator@_W@2@@std@@PAX@Z
4C9C4 54 __unwindtable$?GetFileName@@YA?AV?$basic_string@_WU?$char_traits@_W@std@@V?$allocator@_W@2@@std@@PAX@Z
4C9D4 54 __ehfuncinfo$??R<lambda_1>@?1??GetUserAccountID@@YA@XZ@QBE?AV?$basic_string@_WU?$char_traits@_W@std@@V?$allocator@_W@2@@std@@XZ
4C9F8 54 __unwindtable$??R<lambda_1>@?1??GetUserAccountID@@YA@XZ@QBE?AV?$basic_string@_WU?$char_traits@_W@std@@V?$allocator@_W@2@@std@@XZ
4CA10 54 __ehfuncinfo$?GetNameByType@@YA?AV?$basic_string@_WU?$char_traits@_W@std@@V?$allocator@_W@2@@std@@PAXGPAVPerfThread@@@Z
4CA34 54 __unwindtable$?GetNameByType@@YA?AV?$basic_string@_WU?$char_traits@_W@std@@V?$allocator@_W@2@@std@@PAXGPAVPerfThread@@@Z
4CA54 54 __ehfuncinfo$?PrintHandleInfo@@YA_NKPAX_NPAVPerfThread@@@Z
4CA78 54 __unwindtable$?PrintHandleInfo@@YA_NKPAX_NPAVPerfThread@@@Z
4CAA0 54 __ehfuncinfo$??$vformat@_W$0A@@v11@fmt@@YA?AV?$basic_string@_WU?$char_traits@_W@std@@V?$allocator@_W@2@@std@@V?$basic_string_view@_W@01@V?$basic_format_args@V?$generic_context@V?$basic_appender@_W@v11@fmt@@_W@v11@fmt@@@01@@Z
4CAC4 54 __unwindtable$??$vformat@_W$0A@@v11@fmt@@YA?AV?$basic_string@_WU?$char_traits@_W@std@@V?$allocator@_W@2@@std@@V?$basic_string_view@_W@01@V?$basic_format_args@V?$generic_context@V?$basic_appender@_W@v11@fmt@@_W@v11@fmt@@@01@@Z
4CACC 54 __ehfuncinfo$??$visit@AAU?$loc_writer@_W@detail@v11@fmt@@@?$basic_format_arg@Vcontext@v11@fmt@@@v11@fmt@@QBE_NAAU?$loc_writer@_W@detail@12@@Z
4CAF0 54 __unwindtable$??$visit@AAU?$loc_writer@_W@detail@v11@fmt@@@?$basic_format_arg@Vcontext@v11@fmt@@@v11@fmt@@QBE_NAAU?$loc_writer@_W@detail@12@@Z
4CB10 54 __ehfuncinfo$??$?RH$0A@@?$loc_writer@_W@detail@v11@fmt@@QAE_NH@Z
4CB34 54 __unwindtable$??$?RH$0A@@?$loc_writer@_W@detail@v11@fmt@@QAE_NH@Z
4CB44 54 __ehfuncinfo$??$?R_J$0A@@?$loc_writer@_W@detail@v11@fmt@@QAE_N_J@Z
4CB68 54 __unwindtable$??$?R_J$0A@@?$loc_writer@_W@detail@v11@fmt@@QAE_N_J@Z
4CB78 54 __ehfuncinfo$??$write_int@V?$basic_appender@_W@v11@fmt@@_K_W@detail@v11@fmt@@YA?AV?$basic_appender@_W@12@V312@_KIABUformat_specs@12@ABV?$digit_grouping@_W@012@@Z
4CB9C 54 __unwindtable$??$write_int@V?$basic_appender@_W@v11@fmt@@_K_W@detail@v11@fmt@@YA?AV?$basic_appender@_W@12@V312@_KIABUformat_specs@12@ABV?$digit_grouping@_W@012@@Z
4CBA4 54 __ehfuncinfo$??$apply@V?$basic_appender@_W@v11@fmt@@D@?$digit_grouping@_W@detail@v11@fmt@@QBE?AV?$basic_appender@_W@23@V423@V?$basic_string_view@D@23@@Z
4CBC8 54 __unwindtable$??$apply@V?$basic_appender@_W@v11@fmt@@D@?$digit_grouping@_W@detail@v11@fmt@@QBE?AV?$basic_appender@_W@23@V423@V?$basic_string_view@D@23@@Z
4CBD8 54 __ehfuncinfo$??$write_float@_WV?$basic_appender@_W@v11@fmt@@M@detail@v11@fmt@@YA?AV?$basic_appender@_W@12@V312@MUformat_specs@12@Ulocale_ref@012@@Z
4CBFC 54 __unwindtable$??$write_float@_WV?$basic_appender@_W@v11@fmt@@M@detail@v11@fmt@@YA?AV?$basic_appender@_W@12@V312@MUformat_specs@12@Ulocale_ref@012@@Z
4CC0C 54 __ehfuncinfo$??$write_float@_WV?$basic_appender@_W@v11@fmt@@N@detail@v11@fmt@@YA?AV?$basic_appender@_W@12@V312@NUformat_specs@12@Ulocale_ref@012@@Z
4CC30 54 __unwindtable$??$write_float@_WV?$basic_appender@_W@v11@fmt@@N@detail@v11@fmt@@YA?AV?$basic_appender@_W@12@V312@NUformat_specs@12@Ulocale_ref@012@@Z
4CC40 54 __ehfuncinfo$??$do_write_float@_WV?$basic_appender@_W@v11@fmt@@U?$decimal_fp@M@dragonbox@detail@23@V?$digit_grouping@_W@623@@detail@v11@fmt@@YA?AV?$basic_appender@_W@12@V312@ABU?$decimal_fp@M@dragonbox@012@ABUformat_specs@12@W4sign@12@HUlocale_ref@012@@Z
4CC64 54 __unwindtable$??$do_write_float@_WV?$basic_appender@_W@v11@fmt@@U?$decimal_fp@M@dragonbox@detail@23@V?$digit_grouping@_W@623@@detail@v11@fmt@@YA?AV?$basic_appender@_W@12@V312@ABU?$decimal_fp@M@dragonbox@012@ABUformat_specs@12@W4sign@12@HUlocale_ref@012@@Z
4CC74 54 __ehfuncinfo$??R<lambda_3>@?BD@???$do_write_float@_WV?$basic_appender@_W@v11@fmt@@U?$decimal_fp@M@dragonbox@detail@23@V?$digit_grouping@_W@623@@detail@v11@fmt@@YA?AV?$basic_appender@_W@23@V423@ABU?$decimal_fp@M@dragonbox@123@ABUformat_specs@23@W4sign@23@HUlocale_ref@123@@Z@QBE@0@Z
4CC98 54 __unwindtable$??R<lambda_3>@?BD@???$do_write_float@_WV?$basic_appender@_W@v11@fmt@@U?$decimal_fp@M@dragonbox@detail@23@V?$digit_grouping@_W@623@@detail@v11@fmt@@YA?AV?$basic_appender@_W@23@V423@ABU?$decimal_fp@M@dragonbox@123@ABUformat_specs@23@W4sign@23@HUlocale_ref@123@@Z@QBE@0@Z
4CCA0 54 __ehfuncinfo$??$do_write_float@_WV?$basic_appender@_W@v11@fmt@@U?$decimal_fp@N@dragonbox@detail@23@V?$digit_grouping@_W@623@@detail@v11@fmt@@YA?AV?$basic_appender@_W@12@V312@ABU?$decimal_fp@N@dragonbox@012@ABUformat_specs@12@W4sign@12@HUlocale_ref@012@@Z
4CCC4 54 __unwindtable$??$do_write_float@_WV?$basic_appender@_W@v11@fmt@@U?$decimal_fp@N@dragonbox@detail@23@V?$digit_grouping@_W@623@@detail@v11@fmt@@YA?AV?$basic_appender@_W@12@V312@ABU?$decimal_fp@N@dragonbox@012@ABUformat_specs@12@W4sign@12@HUlocale_ref@012@@Z
4CCD4 54 __ehfuncinfo$??R<lambda_3>@?BD@???$do_write_float@_WV?$basic_appender@_W@v11@fmt@@Ubig_decimal_fp@detail@23@V?$digit_grouping@_W@523@@detail@v11@fmt@@YA?AV?$basic_appender@_W@23@V423@ABUbig_decimal_fp@123@ABUformat_specs@23@W4sign@23@HUlocale_ref@123@@Z@QBE@0@Z
4CCF8 54 __unwindtable$??R<lambda_3>@?BD@???$do_write_float@_WV?$basic_appender@_W@v11@fmt@@Ubig_decimal_fp@detail@23@V?$digit_grouping@_W@523@@detail@v11@fmt@@YA?AV?$basic_appender@_W@23@V423@ABUbig_decimal_fp@123@ABUformat_specs@23@W4sign@23@HUlocale_ref@123@@Z@QBE@0@Z
4CD00 54 __ehfuncinfo$??$write_padded@_W$01V?$basic_appender@_W@v11@fmt@@AAV<lambda_4>@?BO@???$do_write_float@_WV?$basic_appender@_W@v11@fmt@@U?$decimal_fp@M@dragonbox@detail@23@V?$digit_grouping@_W@623@@detail@23@YA?AV123@V123@ABU?$decimal_fp@M@dragonbox@523@ABUformat_specs@23@W4sign@23@HUlocale_ref@523@@Z@@detail@v11@fmt@@YA?AV?$basic_appender@_W@12@V312@ABUformat_specs@12@IIAAV<lambda_4>@?BO@???$do_write_float@_WV?$basic_appender@_W@v11@fmt@@U?$decimal_fp@M@dragonbox@detail@23@V?$digit_grouping@_W@623@@012@YA?AV312@0ABU?$decimal_fp@M@dragonbox@012@1W4sign@12@HUlocale_ref@012@@Z@@Z
4CD24 54 __unwindtable$??$write_padded@_W$01V?$basic_appender@_W@v11@fmt@@AAV<lambda_4>@?BO@???$do_write_float@_WV?$basic_appender@_W@v11@fmt@@U?$decimal_fp@M@dragonbox@detail@23@V?$digit_grouping@_W@623@@detail@23@YA?AV123@V123@ABU?$decimal_fp@M@dragonbox@523@ABUformat_specs@23@W4sign@23@HUlocale_ref@523@@Z@@detail@v11@fmt@@YA?AV?$basic_appender@_W@12@V312@ABUformat_specs@12@IIAAV<lambda_4>@?BO@???$do_write_float@_WV?$basic_appender@_W@v11@fmt@@U?$decimal_fp@M@dragonbox@detail@23@V?$digit_grouping@_W@623@@012@YA?AV312@0ABU?$decimal_fp@M@dragonbox@012@1W4sign@12@HUlocale_ref@012@@Z@@Z
4CD2C 54 __ehfuncinfo$??$?0Ulocale_ref@detail@v11@fmt@@$0A@@?$digit_grouping@_W@detail@v11@fmt@@QAE@Ulocale_ref@123@_N@Z
4CD50 54 __unwindtable$??$?0Ulocale_ref@detail@v11@fmt@@$0A@@?$digit_grouping@_W@detail@v11@fmt@@QAE@Ulocale_ref@123@_N@Z
4CD80 54 __ehfuncinfo$??$write_padded@_W$01V?$basic_appender@_W@v11@fmt@@AAV<lambda_4>@?BO@???$do_write_float@_WV?$basic_appender@_W@v11@fmt@@U?$decimal_fp@N@dragonbox@detail@23@V?$digit_grouping@_W@623@@detail@23@YA?AV123@V123@ABU?$decimal_fp@N@dragonbox@523@ABUformat_specs@23@W4sign@23@HUlocale_ref@523@@Z@@detail@v11@fmt@@YA?AV?$basic_appender@_W@12@V312@ABUformat_specs@12@IIAAV<lambda_4>@?BO@???$do_write_float@_WV?$basic_appender@_W@v11@fmt@@U?$decimal_fp@N@dragonbox@detail@23@V?$digit_grouping@_W@623@@012@YA?AV312@0ABU?$decimal_fp@N@dragonbox@012@1W4sign@12@HUlocale_ref@012@@Z@@Z
4CDA4 54 __unwindtable$??$write_padded@_W$01V?$basic_appender@_W@v11@fmt@@AAV<lambda_4>@?BO@???$do_write_float@_WV?$basic_appender@_W@v11@fmt@@U?$decimal_fp@N@dragonbox@detail@23@V?$digit_grouping@_W@623@@detail@23@YA?AV123@V123@ABU?$decimal_fp@N@dragonbox@523@ABUformat_specs@23@W4sign@23@HUlocale_ref@523@@Z@@detail@v11@fmt@@YA?AV?$basic_appender@_W@12@V312@ABUformat_specs@12@IIAAV<lambda_4>@?BO@???$do_write_float@_WV?$basic_appender@_W@v11@fmt@@U?$decimal_fp@N@dragonbox@detail@23@V?$digit_grouping@_W@623@@012@YA?AV312@0ABU?$decimal_fp@N@dragonbox@012@1W4sign@12@HUlocale_ref@012@@Z@@Z
4CDAC 44 __ehfuncinfo$?Config@@YAHXZ
4CDD0 44 __unwindtable$?Config@@YAHXZ
4CDE8 44 __ehfuncinfo$?Read@options@@QAEXXZ
4CE0C 44 __unwindtable$?Read@options@@QAEXXZ
4CE1C 45 __ehfuncinfo$?ui64toa_width@@YA?AV?$basic_string@_WU?$char_traits@_W@std@@V?$allocator@_W@2@@std@@_KI_N@Z
4CE40 45 __unwindtable$?ui64toa_width@@YA?AV?$basic_string@_WU?$char_traits@_W@std@@V?$allocator@_W@2@@std@@_KI_N@Z
4CE48 45 __ehfuncinfo$?PrintTitle@@YA?AV?$basic_string@_WU?$char_traits@_W@std@@V?$allocator@_W@2@@std@@V?$basic_string_view@_WU?$char_traits@_W@std@@@2@@Z
4CE6C 45 __unwindtable$?PrintTitle@@YA?AV?$basic_string@_WU?$char_traits@_W@std@@V?$allocator@_W@2@@std@@V?$basic_string_view@_WU?$char_traits@_W@std@@@2@@Z
4CE74 45 __ehfuncinfo$??0Plist@@QAE@XZ
4CE98 45 __unwindtable$??0Plist@@QAE@XZ
4CEC8 45 __ehfuncinfo$?TranslateMode@@YA_NABV?$basic_string@_WU?$char_traits@_W@std@@V?$allocator@_W@2@@std@@AAV12@@Z
4CEEC 45 __unwindtable$?TranslateMode@@YA_NABV?$basic_string@_WU?$char_traits@_W@std@@V?$allocator@_W@2@@std@@AAV12@@Z
4CEF8 45 __ehfuncinfo$?InitializePanelModes@Plist@@SAXXZ
4CF20 45 __unwindtable$?InitializePanelModes@Plist@@SAXXZ
4D078 45 __ehfuncinfo$?SavePanelModes@Plist@@SAXXZ
4D09C 45 __unwindtable$?SavePanelModes@Plist@@SAXXZ
4D0B4 45 __ehfuncinfo$?generate_titles@@YAXABV?$basic_string@_WU?$char_traits@_W@std@@V?$allocator@_W@2@@std@@AAUPanelMode@@@Z
4D0D8 45 __unwindtable$?generate_titles@@YAXABV?$basic_string@_WU?$char_traits@_W@std@@V?$allocator@_W@2@@std@@AAUPanelMode@@@Z
4D0E0 45 __ehfuncinfo$?GetOpenPanelInfo@Plist@@QAEXPAUOpenPanelInfo@@@Z
4D104 45 __unwindtable$?GetOpenPanelInfo@Plist@@QAEXPAUOpenPanelInfo@@@Z
4D110 45 __ehfuncinfo$?GetFindData@Plist@@QAEHAAPAUPluginPanelItem@@AAI_K@Z
4D138 45 __unwindtable$?GetFindData@Plist@@QAEHAAPAUPluginPanelItem@@AAI_K@Z
4D190 45 __ehfuncinfo$?window_ex_style@@YA@PAUHWND__@@@Z
4D1B4 45 __unwindtable$?window_ex_style@@YA@PAUHWND__@@@Z
4D1BC 45 __ehfuncinfo$?DumpNTCounters@@YAXPAXAAVPerfThread@@KK@Z
4D1E0 45 __unwindtable$?DumpNTCounters@@YAXPAXAAVPerfThread@@KK@Z
4D1F0 45 __ehfuncinfo$?GetFiles@Plist@@QAEHPAUPluginPanelItem@@IHPAPB_W_KAAUoptions@@@Z
4D218 45 __unwindtable$?GetFiles@Plist@@QAEHPAUPluginPanelItem@@IHPAPB_W_KAAUoptions@@@Z
4D2F8 45 __ehfuncinfo$?DeleteFiles@Plist@@QAEHPAUPluginPanelItem@@I_K@Z
4D31C 45 __unwindtable$?DeleteFiles@Plist@@QAEHPAUPluginPanelItem@@I_K@Z
4D334 45 __ehfuncinfo$?Connect@Plist@@QAE_NPB_W00@Z
4D358 45 __unwindtable$?Connect@Plist@@QAE_NPB_W00@Z
4D370 45 __ehfuncinfo$?ProcessKey@Plist@@QAEHPBU_INPUT_RECORD@@@Z
4D398 45 __unwindtable$?ProcessKey@Plist@@QAEHPBU_INPUT_RECORD@@@Z
4D420 45 __ehfuncinfo$?GetVersionInfo@Plist@@SA_NPB_WAAV?$unique_ptr@$$BY0A@DU?$default_delete@$$BY0A@D@std@@@std@@AAPB_W2@Z
4D444 45 __unwindtable$?GetVersionInfo@Plist@@SA_NPB_WAAV?$unique_ptr@$$BY0A@DU?$default_delete@$$BY0A@D@std@@@std@@AAPB_W2@Z
4D45C 45 __ehfuncinfo$?PrintOwnerInfo@Plist@@AAEXPAXK@Z
4D480 45 __unwindtable$?PrintOwnerInfo@Plist@@AAEXPAXK@Z
4D4A0 45 __ehfuncinfo$?Compare@Plist@@QBEHPBUPluginPanelItem@@0I@Z
4D4C4 45 __unwindtable$?Compare@Plist@@QBEHPBUPluginPanelItem@@0I@Z
4D4D4 45 __ehfuncinfo$??1?$unique_ptr@VWMIConnection@@U?$default_delete@VWMIConnection@@@std@@@std@@QAE@XZ
4D4F8 45 __unwindtable$??1?$unique_ptr@VWMIConnection@@U?$default_delete@VWMIConnection@@@std@@@std@@QAE@XZ
4D500 45 __ehfuncinfo$??$make_unique@VPerfThread@@PAVPlist@@$0A@@std@@YA?AV?$unique_ptr@VPerfThread@@U?$default_delete@VPerfThread@@@std@@@0@$$QAPAVPlist@@@Z
4D524 45 __unwindtable$??$make_unique@VPerfThread@@PAVPlist@@$0A@@std@@YA?AV?$unique_ptr@VPerfThread@@U?$default_delete@VPerfThread@@@std@@@0@$$QAPAVPlist@@@Z
4D52C 45 __ehfuncinfo$??$_Try_emplace@ABK$$V@?$_Hash@V?$_Umap_traits@KPAUHWND__@@V?$_Uhash_compare@KU?$hash@K@std@@U?$equal_to@K@2@@std@@V?$allocator@U?$pair@$$CBKPAUHWND__@@@std@@@3@$0A@@std@@@std@@IAE?AU?$pair@PAU?$_List_node@U?$pair@$$CBKPAUHWND__@@@std@@PAX@std@@_N@1@ABK@Z
4D550 45 __unwindtable$??$_Try_emplace@ABK$$V@?$_Hash@V?$_Umap_traits@KPAUHWND__@@V?$_Uhash_compare@KU?$hash@K@std@@U?$equal_to@K@2@@std@@V?$allocator@U?$pair@$$CBKPAUHWND__@@@std@@@3@$0A@@std@@@std@@IAE?AU?$pair@PAU?$_List_node@U?$pair@$$CBKPAUHWND__@@@std@@PAX@std@@_N@1@ABK@Z
4D560 45 __ehfuncinfo$??$_Uninitialized_copy_n@PBUmode@@V?$allocator@Umode@@@std@@@std@@YAPAUmode@@PBU1@IPAU1@AAV?$allocator@Umode@@@0@@Z
4D584 45 __unwindtable$??$_Uninitialized_copy_n@PBUmode@@V?$allocator@Umode@@@std@@@std@@YAPAUmode@@PBU1@IPAU1@AAV?$allocator@Umode@@@0@@Z
4D5B8 262 __ehfuncinfo$??0PerfThread@@QAE@PAVPlist@@PB_W11@Z
4D5E0 262 __unwindtable$??0PerfThread@@QAE@PAVPlist@@PB_W11@Z
4D658 262 __ehfuncinfo$?RefreshImpl@PerfThread@@AAE_NXZ
4D67C 262 __unwindtable$?RefreshImpl@PerfThread@@AAE_NXZ
4D694 262 __ehfuncinfo$??R<lambda_1>@?1??RefreshImpl@PerfThread@@AAE_NXZ@QBE@PBU_PERF_COUNTER_BLOCK@@V?$basic_string_view@_WU?$char_traits@_W@std@@@std@@@Z
4D6B8 262 __unwindtable$??R<lambda_1>@?1??RefreshImpl@PerfThread@@AAE_NXZ@QBE@PBU_PERF_COUNTER_BLOCK@@V?$basic_string_view@_WU?$char_traits@_W@std@@@std@@@Z
4D6D8 262 __ehfuncinfo$?RefreshWMIData@PerfThread@@AAEXXZ
4D6FC 262 __unwindtable$?RefreshWMIData@PerfThread@@AAEXXZ
4D724 262 __ehfuncinfo$??0?$unordered_multimap@KUProcessPerfData@@U?$hash@K@std@@U?$equal_to@K@3@V?$allocator@U?$pair@$$CBKUProcessPerfData@@@std@@@3@@std@@QAE@XZ
4D748 262 __unwindtable$??0?$unordered_multimap@KUProcessPerfData@@U?$hash@K@std@@U?$equal_to@K@3@V?$allocator@U?$pair@$$CBKUProcessPerfData@@@std@@@3@@std@@QAE@XZ
4D758 262 __ehfuncinfo$??$transform@V?$_List_const_iterator@V?$_List_val@U?$_List_simple_types@U?$pair@$$CBKUProcessPerfData@@@std@@@std@@@std@@@std@@V?$back_insert_iterator@V?$vector@UProcessPerfData@@V?$allocator@UProcessPerfData@@@std@@@std@@@2@V<lambda_1>@?2??RefreshWMIData@PerfThread@@AAEXXZ@@std@@YA?AV?$back_insert_iterator@V?$vector@UProcessPerfData@@V?$allocator@UProcessPerfData@@@std@@@std@@@0@V?$_List_const_iterator@V?$_List_val@U?$_List_simple_types@U?$pair@$$CBKUProcessPerfData@@@std@@@std@@@std@@@0@0V10@V<lambda_1>@?2??RefreshWMIData@PerfThread@@AAEXXZ@@Z
4D77C 262 __unwindtable$??$transform@V?$_List_const_iterator@V?$_List_val@U?$_List_simple_types@U?$pair@$$CBKUProcessPerfData@@@std@@@std@@@std@@@std@@V?$back_insert_iterator@V?$vector@UProcessPerfData@@V?$allocator@UProcessPerfData@@@std@@@std@@@2@V<lambda_1>@?2??RefreshWMIData@PerfThread@@AAEXXZ@@std@@YA?AV?$back_insert_iterator@V?$vector@UProcessPerfData@@V?$allocator@UProcessPerfData@@@std@@@std@@@0@V?$_List_const_iterator@V?$_List_val@U?$_List_simple_types@U?$pair@$$CBKUProcessPerfData@@@std@@@std@@@std@@@0@0V10@V<lambda_1>@?2??RefreshWMIData@PerfThread@@AAEXXZ@@Z
4D784 262 __ehfuncinfo$??0ProcessPerfData@@QAE@ABU0@@Z
4D7A8 262 __unwindtable$??0ProcessPerfData@@QAE@ABU0@@Z
4D7C0 46 __ehfuncinfo$?is_wow64_itself@@YA_NXZ
4D7E4 46 __unwindtable$?is_wow64_itself@@YA_NXZ
4D7EC 46 __ehfuncinfo$?GetList@@YA_NAAPAUPluginPanelItem@@AAIAAVPerfThread@@@Z
4D810 46 __unwindtable$?GetList@@YA_NAAPAUPluginPanelItem@@AAIAAVPerfThread@@@Z
4D828 46 __ehfuncinfo$?KillProcess@@YA_NKPAUHWND__@@@Z
4D84C 46 __unwindtable$?KillProcess@@YA_NKPAUHWND__@@@Z
4D85C 46 __ehfuncinfo$?PrintNTCurDirAndEnv@@YAXPAX0H@Z
4D880 46 __unwindtable$?PrintNTCurDirAndEnv@@YAXPAX0H@Z
4D890 46 __ehfuncinfo$?print_module_impl@@YAXQAXABV?$basic_string@_WU?$char_traits@_W@std@@V?$allocator@_W@2@@std@@KABUoptions@@ABV?$function@$$A6A_NPA_WI@Z@2@@Z
4D8B4 46 __unwindtable$?print_module_impl@@YAXQAXABV?$basic_string@_WU?$char_traits@_W@std@@V?$allocator@_W@2@@std@@KABUoptions@@ABV?$function@$$A6A_NPA_WI@Z@2@@Z
4D8BC 46 __ehfuncinfo$?PrintModules@@YAXPAXKAAUoptions@@@Z
4D8E0 46 __unwindtable$?PrintModules@@YAXPAXKAAUoptions@@@Z
4D900 46 __ehfuncinfo$?PrintModules@?$ipc_functions@$0A@@@SAXPAX0AAUoptions@@@Z
4D924 46 __unwindtable$?PrintModules@?$ipc_functions@$0A@@@SAXPAX0AAUoptions@@@Z
4D92C 46 __ehfuncinfo$?PrintModules@?$ipc_functions@$00@@SAXPAX0AAUoptions@@@Z
4D950 46 __unwindtable$?PrintModules@?$ipc_functions@$00@@SAXPAX0AAUoptions@@@Z
4D958 46 __ehfuncinfo$?read_string@?$ipc_functions@$00@@SA?AV?$basic_string@_WU?$char_traits@_W@std@@V?$allocator@_W@2@@std@@PAXABUUNICODE_STRING_64@detail@@@Z
4D97C 46 __unwindtable$?read_string@?$ipc_functions@$00@@SA?AV?$basic_string@_WU?$char_traits@_W@std@@V?$allocator@_W@2@@std@@PAXABUUNICODE_STRING_64@detail@@@Z
4D984 46 __ehfuncinfo$??$print_module@PAX@@YAXQAXPAXKAAUoptions@@ABV?$function@$$A6A_NPA_WI@Z@std@@@Z
4D9A8 46 __unwindtable$??$print_module@PAX@@YAXQAXPAXKAAUoptions@@ABV?$function@$$A6A_NPA_WI@Z@std@@@Z
4D9B0 46 __ehfuncinfo$??$print_module@_K@@YAXQAX_KKAAUoptions@@ABV?$function@$$A6A_NPA_WI@Z@std@@@Z
4D9D4 46 __unwindtable$??$print_module@_K@@YAXQAX_KKAAUoptions@@ABV?$function@$$A6A_NPA_WI@Z@std@@@Z
4D9DC 46 __ehfuncinfo$??$_Insert_range_unchecked@V?$_List_unchecked_const_iterator@V?$_List_val@U?$_List_simple_types@U?$pair@$$CBKUProcessPerfData@@@std@@@std@@@std@@U_Iterator_base0@2@@std@@V12@@?$_Hash@V?$_Umap_traits@KUProcessPerfData@@V?$_Uhash_compare@KU?$hash@K@std@@U?$equal_to@K@2@@std@@V?$allocator@U?$pair@$$CBKUProcessPerfData@@@std@@@3@$00@std@@@std@@IAEXV?$_List_unchecked_const_iterator@V?$_List_val@U?$_List_simple_types@U?$pair@$$CBKUProcessPerfData@@@std@@@std@@@std@@U_Iterator_base0@2@@1@V21@@Z
4DA00 46 __unwindtable$??$_Insert_range_unchecked@V?$_List_unchecked_const_iterator@V?$_List_val@U?$_List_simple_types@U?$pair@$$CBKUProcessPerfData@@@std@@@std@@@std@@U_Iterator_base0@2@@std@@V12@@?$_Hash@V?$_Umap_traits@KUProcessPerfData@@V?$_Uhash_compare@KU?$hash@K@std@@U?$equal_to@K@2@@std@@V?$allocator@U?$pair@$$CBKUProcessPerfData@@@std@@@3@$00@std@@@std@@IAEXV?$_List_unchecked_const_iterator@V?$_List_val@U?$_List_simple_types@U?$pair@$$CBKUProcessPerfData@@@std@@@std@@@std@@U_Iterator_base0@2@@1@V21@@Z
4DA10 47 __ehfuncinfo$?WinError@@YAHPB_W@Z
4DA34 47 __unwindtable$?WinError@@YAHPB_W@Z
4DA48 269 __ehfuncinfo$?GetProcessOwner@WMIConnection@@QAE?AV?$basic_string@_WU?$char_traits@_W@std@@V?$allocator@_W@2@@std@@KPAV23@@Z
4DA70 269 __unwindtable$?GetProcessOwner@WMIConnection@@QAE?AV?$basic_string@_WU?$char_traits@_W@std@@V?$allocator@_W@2@@std@@KPAV23@@Z
4DAB0 269 __ehfuncinfo$?GetProcessUserSid@WMIConnection@@QAE?AV?$basic_string@_WU?$char_traits@_W@std@@V?$allocator@_W@2@@std@@K@Z
4DAD8 269 __unwindtable$?GetProcessUserSid@WMIConnection@@QAE?AV?$basic_string@_WU?$char_traits@_W@std@@V?$allocator@_W@2@@std@@K@Z
4DB18 269 __ehfuncinfo$?GetProcessSessionId@WMIConnection@@QAEKK@Z
4DB3C 269 __unwindtable$?GetProcessSessionId@WMIConnection@@QAEKK@Z
4DB48 269 __ehfuncinfo$?ExecMethod@WMIConnection@@AAEHKPB_W0K@Z
4DB70 269 __unwindtable$?ExecMethod@WMIConnection@@AAEHKPB_W0K@Z
4DC10 269 __ehfuncinfo$?GetProcessProperty@WMIConnection@@AAE_NKPB_WABV?$function@$$A6AXABUtagVARIANT@@@Z@std@@@Z
4DC34 269 __unwindtable$?GetProcessProperty@WMIConnection@@AAE_NKPB_WABV?$function@$$A6AXABUtagVARIANT@@@Z@std@@@Z
4DC6C 269 __ehfuncinfo$?GetProcessInt@WMIConnection@@AAEKKPB_W@Z
4DC90 269 __unwindtable$?GetProcessInt@WMIConnection@@AAEKKPB_W@Z
4DC98 269 __ehfuncinfo$?GetProcessString@WMIConnection@@AAE?AV?$basic_string@_WU?$char_traits@_W@std@@V?$allocator@_W@2@@std@@KPB_W@Z
4DCBC 269 __unwindtable$?GetProcessString@WMIConnection@@AAE?AV?$basic_string@_WU?$char_traits@_W@std@@V?$allocator@_W@2@@std@@KPB_W@Z
4DCCC 269 __ehfuncinfo$?Connect@WMIConnection@@QAE_NPB_W00@Z
4DCF0 269 __unwindtable$?Connect@WMIConnection@@QAE_NPB_W00@Z
4DD28 50 __ehfuncinfo$_ProcessPanelEventW@4
4DD4C 50 __unwindtable$_ProcessPanelEventW@4
4DD54 70 __CT??_R0?AVlogic_error@std@@@8??0logic_error@std@@QAE@ABV01@@Z12
4DD70 70 __TI3?AVlength_error@std@@
4DD80 70 __CTA3?AVlength_error@std@@
4DD90 70 __CT??_R0?AVlength_error@std@@@8??0length_error@std@@QAE@ABV01@@Z12
4DDAC 70 __TI3?AVout_of_range@std@@
4DDBC 70 __CTA3?AVout_of_range@std@@
4DDCC 70 __CT??_R0?AVout_of_range@std@@@8??0out_of_range@std@@QAE@ABV01@@Z12
4DDE8 70 __TI2?AVbad_function_call@std@@
4DDF8 70 __CTA2?AVbad_function_call@std@@
4DE04 70 __CT??_R0?AVbad_function_call@std@@@8??0bad_function_call@std@@QAE@ABV01@@Z12
4DE20 60 __unwindtable$?_Init@locale@std@@CAPAV_Locimp@12@_N@Z
4DE28 60 __ehfuncinfo$?_Init@locale@std@@CAPAV_Locimp@12@_N@Z
4DE50 41 __sehtable$___scrt_is_nonwritable_in_current_image
4DE70 17 __sehtable$??_M@YGXPAXIIP6EX0@Z@Z
4DE90 17 __sehtable$?__ArrayUnwind@@YGXPAXIIP6EX0@Z@Z
4DEB0 13 __sehtable$?dllmain_crt_process_attach@@YAHQAUHINSTANCE__@@QAX@Z
4DED0 13 __sehtable$?dllmain_crt_process_detach@@YAH_N@Z
4DEF8 13 __sehtable$?dllmain_dispatch@@YAHQAUHINSTANCE__@@KQAX@Z
4DF18 236 __sehtable$___DestructExceptionObject
4DF38 240 __sehtable$?FrameUnwindToState@__FrameHandler3@@SAXPAUEHRegistrationNode@@PAXPBU_s_FuncInfo@@H@Z
4DF60 240 __sehtable$?CallCatchBlock@@YAPAXPAUEHExceptionRecord@@PAUEHRegistrationNode@@PAU_CONTEXT@@PBU_s_FuncInfo@@PAXHK@Z
4DF88 240 __catchsym$?CallUnexpected@@YAXPBU_s_ESTypeList@@@Z$2
4DF98 240 __unwindtable$?CallUnexpected@@YAXPBU_s_ESTypeList@@@Z
4DFA8 240 __tryblocktable$?CallUnexpected@@YAXPBU_s_ESTypeList@@@Z
4DFBC 240 __ehfuncinfo$?CallUnexpected@@YAXPBU_s_ESTypeList@@@Z
4DFE0 240 __sehtable$??$BuildCatchObjectHelperInternal@V__FrameHandler3@@@@YAHPAUEHExceptionRecord@@PAXPBU_s_HandlerType@@PBU_s_CatchableType@@@Z
4E000 240 __sehtable$??$BuildCatchObjectInternal@V__FrameHandler3@@@@YAXPAUEHExceptionRecord@@PAXPBU_s_HandlerType@@PBU_s_CatchableType@@@Z
4E01C 240 __TI2?AVbad_exception@std@@
4E02C 240 __CTA2?AVbad_exception@std@@
4E038 240 __CT??_R0?AVbad_exception@std@@@8??0bad_exception@std@@QAE@ABV01@@Z12
4E058 180 __sehtable$___acrt_lowio_ensure_fh_exists
4E078 112 __sehtable$??$?RV<lambda_2866be3712abc81a800a822484c830d8>@@AAV<lambda_39ca0ed439415581b5b15c265174cece>@@V<lambda_2b24c74d71094a6cd0cb82e44167d71b>@@@?$__crt_seh_guarded_call@X@@QAEX$$QAV<lambda_2866be3712abc81a800a822484c830d8>@@AAV<lambda_39ca0ed439415581b5b15c265174cece>@@$$QAV<lambda_2b24c74d71094a6cd0cb82e44167d71b>@@@Z
4E098 112 __sehtable$??$?RV<lambda_2cc53f568c5a2bb6f192f930a45d44ea>@@AAV<lambda_ab61a845afdef5b7c387490eaf3616ee>@@V<lambda_c2ffc0b7726aa6be21d5f0026187e748>@@@?$__crt_seh_guarded_call@X@@QAEX$$QAV<lambda_2cc53f568c5a2bb6f192f930a45d44ea>@@AAV<lambda_ab61a845afdef5b7c387490eaf3616ee>@@$$QAV<lambda_c2ffc0b7726aa6be21d5f0026187e748>@@@Z
4E0B8 195 __sehtable$??$?RV<lambda_f5952838e36297a1e2e9d6c748429792>@@AAV<lambda_2116bde18c9e5f34230805ea4a4660ed>@@V<lambda_3c7107de1cc98bf330a3031f42c322a3>@@@?$__crt_seh_guarded_call@PAD@@QAEPAD$$QAV<lambda_f5952838e36297a1e2e9d6c748429792>@@AAV<lambda_2116bde18c9e5f34230805ea4a4660ed>@@$$QAV<lambda_3c7107de1cc98bf330a3031f42c322a3>@@@Z
4E0D4 106 __unwindtable$?common_exit@@YAXHW4_crt_exit_cleanup_mode@@W4_crt_exit_return_mode@@@Z
4E0DC 106 __ehfuncinfo$?common_exit@@YAXHW4_crt_exit_cleanup_mode@@W4_crt_exit_return_mode@@@Z
4E100 106 __sehtable$??R<lambda_6e4b09c48022b2350581041d5f6b0c4c>@@QBE@XZ
4E120 106 __sehtable$??$?RV<lambda_03b1d95aef87969028cfba75ccab2455>@@AAV<lambda_6e4b09c48022b2350581041d5f6b0c4c>@@V<lambda_22bdf7517842c4b3e53723af5aa32b9e>@@@?$__crt_seh_guarded_call@X@@QAEX$$QAV<lambda_03b1d95aef87969028cfba75ccab2455>@@AAV<lambda_6e4b09c48022b2350581041d5f6b0c4c>@@$$QAV<lambda_22bdf7517842c4b3e53723af5aa32b9e>@@@Z
4E13C 103 __unwindtable$___dcrt_uninitialize_environments_nolock
4E14C 103 __ehfuncinfo$___dcrt_uninitialize_environments_nolock
4E170 179 __unwindtable$__execute_onexit_table
4E178 179 __ehfuncinfo$__execute_onexit_table
4E1A0 179 __sehtable$??$?RV<lambda_8e746cf0007f6ed984d6f78af1fec997>@@AAV<lambda_22ebabd17bc4fa466a2aca6d8deb888d>@@V<lambda_18ed0c0b38a6dc0daf1e7ac6d6adf05e>@@@?$__crt_seh_guarded_call@H@@QAEH$$QAV<lambda_8e746cf0007f6ed984d6f78af1fec997>@@AAV<lambda_22ebabd17bc4fa466a2aca6d8deb888d>@@$$QAV<lambda_18ed0c0b38a6dc0daf1e7ac6d6adf05e>@@@Z
4E1C0 179 __sehtable$??$?RV<lambda_69a2805e680e0e292e8ba93315fe43a8>@@AAV<lambda_f03950bc5685219e0bcd2087efbe011e>@@V<lambda_03fcd07e894ec930e3f35da366ca99d6>@@@?$__crt_seh_guarded_call@H@@QAEH$$QAV<lambda_69a2805e680e0e292e8ba93315fe43a8>@@AAV<lambda_f03950bc5685219e0bcd2087efbe011e>@@$$QAV<lambda_03fcd07e894ec930e3f35da366ca99d6>@@@Z
4E1E0 176 __sehtable$__query_new_handler
4E200 209 __sehtable$_terminate
4E220 183 __sehtable$??$?RV<lambda_15ade71b0218206bbe3333a0c9b79046>@@AAV<lambda_da44e0f8b0f19ba52fefafb335991732>@@V<lambda_207f2d024fc103971653565357d6cd41>@@@?$__crt_seh_guarded_call@X@@QAEX$$QAV<lambda_15ade71b0218206bbe3333a0c9b79046>@@AAV<lambda_da44e0f8b0f19ba52fefafb335991732>@@$$QAV<lambda_207f2d024fc103971653565357d6cd41>@@@Z
4E240 183 __sehtable$??$?RV<lambda_a7e850c220f1c8d1e6efeecdedd162c6>@@AAV<lambda_46720907175c18b6c9d2717bc0d2d362>@@V<lambda_9048902d66e8d99359bc9897bbb930a8>@@@?$__crt_seh_guarded_call@X@@QAEX$$QAV<lambda_a7e850c220f1c8d1e6efeecdedd162c6>@@AAV<lambda_46720907175c18b6c9d2717bc0d2d362>@@$$QAV<lambda_9048902d66e8d99359bc9897bbb930a8>@@@Z
4E260 183 __sehtable$??$?RV<lambda_38edbb1296d33220d7e4dd0ed76b244a>@@AAV<lambda_5ce1d447e08cb34b2473517608e21441>@@V<lambda_fb385d3da700c9147fc39e65dd577a8c>@@@?$__crt_seh_guarded_call@X@@QAEX$$QAV<lambda_38edbb1296d33220d7e4dd0ed76b244a>@@AAV<lambda_5ce1d447e08cb34b2473517608e21441>@@$$QAV<lambda_fb385d3da700c9147fc39e65dd577a8c>@@@Z
4E280 183 __sehtable$??$?RV<lambda_6affb1475c98b40b75cdec977db92e3c>@@AAV<lambda_b8d4b9c228a6ecc3f80208dbb4b4a104>@@V<lambda_608742c3c92a14382c1684fc64f96c88>@@@?$__crt_seh_guarded_call@X@@QAEX$$QAV<lambda_6affb1475c98b40b75cdec977db92e3c>@@AAV<lambda_b8d4b9c228a6ecc3f80208dbb4b4a104>@@$$QAV<lambda_608742c3c92a14382c1684fc64f96c88>@@@Z
4E2A0 233 __sehtable$??$?RV<lambda_e5124f882df8998aaf41531e079ba474>@@AAV<lambda_3e16ef9562a7dcce91392c22ab16ea36>@@V<lambda_e25ca0880e6ef98be67edffd8c599615>@@@?$__crt_seh_guarded_call@X@@QAEX$$QAV<lambda_e5124f882df8998aaf41531e079ba474>@@AAV<lambda_3e16ef9562a7dcce91392c22ab16ea36>@@$$QAV<lambda_e25ca0880e6ef98be67edffd8c599615>@@@Z
4E2C0 233 __sehtable$??$?RV<lambda_4fdada1b837b2abbf20876fac97688ad>@@AAV<lambda_b57350f2640456a0859d250846f69caf>@@V<lambda_eed5e4f92b5b7d55fa22c48c484aaa54>@@@?$__crt_seh_guarded_call@X@@QAEX$$QAV<lambda_4fdada1b837b2abbf20876fac97688ad>@@AAV<lambda_b57350f2640456a0859d250846f69caf>@@$$QAV<lambda_eed5e4f92b5b7d55fa22c48c484aaa54>@@@Z
4E2E0 233 __sehtable$??$?RV<lambda_ac03c5d59bd18b09cb88b28331f6bfed>@@AAV<lambda_2a444430fde8c29194d880d93eed5e8f>@@AAV<lambda_02db5278e8aef8b5e4976579d73f5304>@@@?$__crt_seh_guarded_call@X@@QAEX$$QAV<lambda_ac03c5d59bd18b09cb88b28331f6bfed>@@AAV<lambda_2a444430fde8c29194d880d93eed5e8f>@@AAV<lambda_02db5278e8aef8b5e4976579d73f5304>@@@Z
4E300 197 __sehtable$_raise
4E320 197 __sehtable$??$?RV<lambda_cbab9ec6f41b0180b23cc171c22676b0>@@AAV<lambda_44731a7d0e6d81c3e6aa82d741081786>@@V<lambda_4b292cb8dd18144e164572427af410ab>@@@?$__crt_seh_guarded_call@P6AXH@Z@@QAEP6AXH@Z$$QAV<lambda_cbab9ec6f41b0180b23cc171c22676b0>@@AAV<lambda_44731a7d0e6d81c3e6aa82d741081786>@@$$QAV<lambda_4b292cb8dd18144e164572427af410ab>@@@Z
4E340 139 __sehtable$___acrt_initialize_lowio
4E360 231 __sehtable$??$?RV<lambda_6b4b7855443974f2b4b77000ea21c99c>@@AAV<lambda_8f7d3b162ab39427f4fa9995c67a7986>@@V<lambda_cc9a5ba8a5d8428b9634eab82665e5dc>@@@?$__crt_seh_guarded_call@H@@QAEH$$QAV<lambda_6b4b7855443974f2b4b77000ea21c99c>@@AAV<lambda_8f7d3b162ab39427f4fa9995c67a7986>@@$$QAV<lambda_cc9a5ba8a5d8428b9634eab82665e5dc>@@@Z
4E380 97 __sehtable$__fcloseall
4E3A0 98 __sehtable$??$?RV<lambda_9e9de3de5fa147e2223d7db92bc10aa6>@@AAV<lambda_38ce7e780aa69e748d6df282ebc68efe>@@V<lambda_8ca6da459f0f6780f1cff60fdc3d00e5>@@@?$__crt_seh_guarded_call@H@@QAEH$$QAV<lambda_9e9de3de5fa147e2223d7db92bc10aa6>@@AAV<lambda_38ce7e780aa69e748d6df282ebc68efe>@@$$QAV<lambda_8ca6da459f0f6780f1cff60fdc3d00e5>@@@Z
4E3C0 232 __sehtable$__write_internal
4E3E0 162 __sehtable$?update_thread_multibyte_data_internal@@YAPAU__crt_multibyte_data@@QAU__acrt_ptd@@QAPAU1@@Z
4E400 162 __sehtable$??$?RV<lambda_ceb1ee4838e85a9d631eb091e2fbe199>@@AAV<lambda_ae742caa10f662c28703da3d2ea5e57e>@@V<lambda_cd08b5d6af4937fe54fc07d0c9bf6b37>@@@?$__crt_seh_guarded_call@X@@QAEX$$QAV<lambda_ceb1ee4838e85a9d631eb091e2fbe199>@@AAV<lambda_ae742caa10f662c28703da3d2ea5e57e>@@$$QAV<lambda_cd08b5d6af4937fe54fc07d0c9bf6b37>@@@Z
4E420 149 __sehtable$___acrt_update_thread_locale_data
4E440 107 __sehtable$?_fclose_internal@@YAHQAU_iobuf@@AAV__crt_cached_ptd_host@@@Z
4E460 96 __sehtable$??$?RV<lambda_d422a76eb4c3bf3ad751449ab71a6ea4>@@AAV<lambda_c9ba49e555ba839a7b07aa3fbecb7617>@@V<lambda_9476263c8ee91a25d21c55370bdb50de>@@@?$__crt_seh_guarded_call@H@@QAEH$$QAV<lambda_d422a76eb4c3bf3ad751449ab71a6ea4>@@AAV<lambda_c9ba49e555ba839a7b07aa3fbecb7617>@@$$QAV<lambda_9476263c8ee91a25d21c55370bdb50de>@@@Z
4E480 33 __sehtable$__IsNonwritableInCurrentImage
4E49C 53 __CTA3?AVformat_error@v11@fmt@@
4E4AC 53 __TI2?AVruntime_error@std@@
4E4BC 53 __CTA3?AVbad_array_new_length@std@@
4E4CC 53 __CT??_R0?AVbad_alloc@std@@@8??0bad_alloc@std@@QAE@ABV01@@Z12
4E4E8 53 __CTA2?AVbad_cast@std@@
4E4F4 53 __CT??_R0?AVformat_error@v11@fmt@@@8??0format_error@v11@fmt@@QAE@ABV012@@Z12
4E510 53 __CTA2?AVruntime_error@std@@
4E51C 53 __CT??_R0?AVbad_cast@std@@@8??0bad_cast@std@@QAE@ABV01@@Z12
4E538 53 __TI2?AVbad_cast@std@@
4E548 53 __CT??_R0?AVruntime_error@std@@@8??0runtime_error@std@@QAE@ABV01@@Z12
4E564 53 __CTA2?AVbad_alloc@std@@
4E570 53 __CT??_R0?AVexception@std@@@8??0exception@std@@QAE@ABV01@@Z12
4E58C 53 __TI3?AVbad_array_new_length@std@@
4E59C 53 __CT??_R0?AVbad_array_new_length@std@@@8??0bad_array_new_length@std@@QAE@ABV01@@Z12
4E5B8 53 __TI3?AVformat_error@v11@fmt@@
4E5C8 53 __TI2?AVbad_alloc@std@@
4E5E0 48 .edata
4E608 48 rgpv
4E644 48 rgszName
4E680 48 rgwOrd
4E69E 48 szName
4E6AB 48 $N00001
4E6B7 48 $N00002
4E6C0 48 $N00003
4E6CB 48 $N00004
4E6D8 48 $N00005
4E6E6 48 $N00006
4E6F0 48 $N00007
4E6FD 48 $N00008
4E70C 48 $N00009
4E71E 48 $N00010
4E72D 48 $N00011
4E733 48 $N00012
4E746 48 $N00013
4E759 48 $N00014
4E76E 48 $N00015
4E780 55 __IMPORT_DESCRIPTOR_KERNEL32
4E794 51 __IMPORT_DESCRIPTOR_ADVAPI32
4E7A8 264 __IMPORT_DESCRIPTOR_USER32
4E7BC 259 __IMPORT_DESCRIPTOR_MPR
4E7D0 260 __IMPORT_DESCRIPTOR_ole32
4E7E4 261 __IMPORT_DESCRIPTOR_OLEAUT32
4E7F8 263 __IMPORT_DESCRIPTOR_PSAPI
4E80C 267 __IMPORT_DESCRIPTOR_VERSION
4E820 55 __NULL_IMPORT_DESCRIPTOR
4EE3C 55 .idata$6
4EF3E 51 .idata$6
4F022 264 .idata$6
4F05E 259 .idata$6
4F09C 260 .idata$6
4F0A6 261 .idata$6
4F0E4 263 .idata$6
4F130 267 .idata$6
50000 65 ?init@std@@3JA
50004 58 ?atcount_cdecl@@3IA
50008 26 ___do_unsigned_char_lconv_initialization
5000C 41 ___scrt_native_dllmain_reason
50040 20 ___security_cookie
50080 20 ___security_cookie_complement
50084 18 __fltused
50088 8 ___isa_inverted
50090 8 ___isa_enabled
500A0 248 ?__vcrt_flsindex@@3KA
500B0 238 __NLG_Destination
500C0 85 ___abort_behavior
500C8 76 __iob
50170 151 ___acrt_lconv_c
501C0 151 ___acrt_lconv
501C4 151 ___acrt_lconv_static_decimal
501C8 151 ___acrt_lconv_static_W_decimal
501CC 104 ?errno_no_memory@@3HA
501D0 104 ?doserrno_no_memory@@3KA
501E0 102 __pctype
501E4 102 __pwctype
501F0 183 ?__acrt_flsindex@@3KA
501F4 233 __ctype_loc_style
501F8 178 ___acrt_initial_locale_data
502B0 178 ___acrt_initial_locale_pointers
502B8 178 ___acrt_wide_c_locale_string
502BC 178 ___mb_cur_max
502C0 168 _newcw
502C4 128 ___globallocalestatus
502C8 210 ?tzstd_program@@3PADA
50308 210 ?tzdst_program@@3PADA
50348 210 ?w_tzstd_program@@3PA_WA
503C8 210 ?w_tzdst_program@@3PA_WA
50448 210 ?tzname_states@@3PAY01PADA
50450 210 ?w_tzname_states@@3PAY01PA_WA
50458 162 ___acrt_initial_multibyte_data
50678 162 __mbctypes
50780 162 __mbcasemaps
50880 162 ?__rgctypeflag@@3PADA
50888 162 ?__rgcode_page_info@@3PAUcode_page_info@@A
50978 190 __lookuptrailbytes
50A80 131 ?__dcrt_lowio_console_output_handle@@3PAXA
50A90 45 ?Title@?1??GetOpenPanelInfo@Plist@@QAEXPAUOpenPanelInfo@@@Z@4V?$basic_string@_WU?$char_traits@_W@std@@V?$allocator@_W@2@@std@@A
50AA8 45 ?kbt@?1??GetOpenPanelInfo@Plist@@QAEXPAUOpenPanelInfo@@@Z@4UKeyBarTitles@@A
50AB0 45 ?nr@?7??Connect@Plist@@QAE_NPB_W00@Z@4U_NETRESOURCEW@@A
50AD0 50 ?pIsWow64Process@@3P6GHPAXPAH@ZA
50AD4 50 ?pNtQuerySystemInformation@@3P6GJKPAXKPAK@ZA
50AD8 50 ?pNtQueryInformationProcess@@3P6GJPAXW4_PROCESSINFOCLASS@@0KPAK@ZA
50ADC 50 ?pNtQueryObject@@3P6GJPAXK0K0@ZA
50AE0 50 ?pNtQueryInformationThread@@3P6GJPAXK0KPAK@ZA
50AE4 50 ?pNtQueryInformationFile@@3P6GJPAX00KK@ZA
50AE8 50 ?pGetGuiResources@@3P6GKPAXK@ZA
50AEC 50 ?pNtWow64ReadVirtualMemory64@@3P6GJPAX_K01PA_K@ZA
50AF0 50 ?pNtWow64QueryInformationProcess64@@3P6GJPAXW4_PROCESSINFOCLASS@@0KPAK@ZA
50AF4 50 ?pEnumProcessModulesEx@@3P6GHPAXPAPAUHINSTANCE__@@KPAKK@ZA
50AF8 50 ?pCoSetProxyBlanket@@3P6GJPAUIUnknown@@KKPA_WKKPAXK@ZA
50AFC 52 ?m_PanelModesDataRemote@Plist@@0V?$vector@Umode@@V?$allocator@Umode@@@std@@@std@@A
50B08 52 ?m_PanelModesDataLocal@Plist@@0V?$vector@Umode@@V?$allocator@Umode@@@std@@@std@@A
50B20 70 ??_R0?AVlogic_error@std@@@8
50B40 70 ??_R0?AVlength_error@std@@@8
50B60 70 ??_R0?AVout_of_range@std@@@8
50B80 70 ??_R0?AVbad_function_call@std@@@8
50BA4 240 ??_R0?AVbad_exception@std@@@8
50BC4 53 ??_R0?AVruntime_error@std@@@8
50BE4 53 ??_R0?AVbad_alloc@std@@@8
50C00 53 ??_R0?AVformat_error@v11@fmt@@@8
50C24 53 ??_R0?AVbad_cast@std@@@8
50C40 53 ??_R0?AVexception@std@@@8
50C5C 53 ??_R0?AVbad_array_new_length@std@@@8
50C88 46 ??_R0?AV<lambda_3>@?N@??PrintModules@@YAXPAXKAAUoptions@@@Z@@8
50CD0 46 ??_R0?AV<lambda_1>@?6??PrintModules@?$ipc_functions@$00@@SAXPAX0AAUoptions@@@Z@@8
50D28 46 ??_R0?AV<lambda_1>@?6??PrintModules@?$ipc_functions@$0A@@@SAXPAX0AAUoptions@@@Z@@8
50D80 269 ??_R0?AV<lambda_1>@?1??GetProcessInt@WMIConnection@@AAEKKPB_W@Z@@8
50DC8 269 ??_R0?AV<lambda_1>@?1??GetProcessString@WMIConnection@@AAE?AV?$basic_string@_WU?$char_traits@_W@std@@V?$allocator@_W@2@@std@@KPB_W@Z@@8
50E58 60 ??_R0?AV_Locimp@locale@std@@@8
50E7C 36 ??_R0?AVtype_info@@@8
50E94 53 ??_R0?AV_Facet_base@std@@@8
50EB4 53 ??_R0?AU_Crt_new_delete@std@@@8
50ED8 53 ??_R0?AV?$numpunct@_W@std@@@8
50EF8 53 ??_R0?AVfacet@locale@std@@@8
50F18 44 ??_R0?AVDialogAPIBinding@@@8
50F38 44 ??_R0?AVPluginCheckBoxBinding@@@8
50F5C 45 ??_R0?AVPluginEditFieldBinding@@@8
50F88 46 ??_R0?AV?$_Func_impl_no_alloc@V<lambda_1>@?6??PrintModules@?$ipc_functions@$00@@SAXPAX0AAUoptions@@@Z@_NPA_WI@std@@@8
51000 46 ??_R0?AV?$_Func_impl_no_alloc@V<lambda_1>@?6??PrintModules@?$ipc_functions@$0A@@@SAXPAX0AAUoptions@@@Z@_NPA_WI@std@@@8
5107C 46 ??_R0?AV?$_Func_base@_NPA_WI@std@@@8
510A8 46 ??_R0?AV?$_Func_impl_no_alloc@V<lambda_3>@?N@??PrintModules@@YAXPAXKAAUoptions@@@Z@_NPA_WI@std@@@8
51110 269 ??_R0?AV?$_Func_base@XABUtagVARIANT@@@std@@@8
51140 269 ??_R0?AV?$_Func_impl_no_alloc@V<lambda_1>@?1??GetProcessInt@WMIConnection@@AAEKKPB_W@Z@XABUtagVARIANT@@@std@@@8
511B8 269 ??_R0?AV?$_Func_impl_no_alloc@V<lambda_1>@?1??GetProcessString@WMIConnection@@AAE?AV?$basic_string@_WU?$char_traits@_W@std@@V?$allocator@_W@2@@std@@KPB_W@Z@XABUtagVARIANT@@@std@@@8
51270 65 ?initlocks@std@@3V_Init_locks@1@A
51278 65 ?mtx@std@@3PAU_RTL_CRITICAL_SECTION@@A
51338 60 ?_Id_cnt@id@locale@std@@0HA
5133C 60 ?_Clocptr@_Locimp@locale@std@@0PAV123@A
51340 60 ?id@?$ctype@G@std@@2V0locale@2@A
51344 60 ?id@?$codecvt@_WDU_Mbstatet@@@std@@2V0locale@2@A
51348 60 ?id@?$codecvt@GDU_Mbstatet@@@std@@2V0locale@2@A
5134C 60 ?id@?$ctype@_W@std@@2V0locale@2@A
51350 60 ?id@?$ctype@D@std@@2V0locale@2@A
51354 60 ?classic_locale@std@@3Vlocale@1@A
5135C 60 ?_Fac_head@std@@3PAU_Fac_node@1@A
51360 60 ?_Fac_tidy_reg@std@@3U_Fac_tidy_reg_t@1@B
51364 60 _global_locale
51368 60 ?registered@?1??_Setgloballocale@locale@std@@CAXPAX@Z@4_NA
5136C 59 ?id@?$num_get@DV?$istreambuf_iterator@DU?$char_traits@D@std@@@std@@@std@@2V0locale@2@A
51370 59 ?id@?$num_put@DV?$ostreambuf_iterator@DU?$char_traits@D@std@@@std@@@std@@2V0locale@2@A
51374 58 ?_Ptr_cin@std@@3PAV?$basic_istream@DU?$char_traits@D@std@@@1@A
51378 58 ?_Ptr_cout@std@@3PAV?$basic_ostream@DU?$char_traits@D@std@@@1@A
5137C 58 ?_Ptr_cerr@std@@3PAV?$basic_ostream@DU?$char_traits@D@std@@@1@A
51380 58 ?_Ptr_clog@std@@3PAV?$basic_ostream@DU?$char_traits@D@std@@@1@A
51384 58 ?_Ptr_wcin@std@@3PAV?$basic_istream@_WU?$char_traits@_W@std@@@1@A
51388 58 ?_Ptr_wcout@std@@3PAV?$basic_ostream@_WU?$char_traits@_W@std@@@1@A
5138C 58 ?_Ptr_wcerr@std@@3PAV?$basic_ostream@_WU?$char_traits@_W@std@@@1@A
51390 58 ?_Ptr_wclog@std@@3PAV?$basic_ostream@_WU?$char_traits@_W@std@@@1@A
51394 58 ?initlocks@std@@3V_Init_locks@1@A
51395 58 ?init_atexit@@3U_Init_atexit@@A
51398 58 ?atfuns_cdecl@@3PAP6AXXZA
513C0 63 ?id@?$time_put@_WV?$ostreambuf_iterator@_WU?$char_traits@_W@std@@@std@@@std@@2V0locale@2@A
513C4 63 ?id@?$num_get@_WV?$istreambuf_iterator@_WU?$char_traits@_W@std@@@std@@@std@@2V0locale@2@A
513C8 63 ?id@?$num_put@_WV?$ostreambuf_iterator@_WU?$char_traits@_W@std@@@std@@@std@@2V0locale@2@A
513CC 63 ?id@?$collate@_W@std@@2V0locale@2@A
513D0 63 ?id@?$messages@_W@std@@2V0locale@2@A
513D4 63 ?id@?$money_get@_WV?$istreambuf_iterator@_WU?$char_traits@_W@std@@@std@@@std@@2V0locale@2@A
513D8 63 ?id@?$money_put@_WV?$ostreambuf_iterator@_WU?$char_traits@_W@std@@@std@@@std@@2V0locale@2@A
513DC 63 ?id@?$moneypunct@_W$0A@@std@@2V0locale@2@A
513E0 63 ?id@?$moneypunct@_W$00@std@@2V0locale@2@A
513E4 63 ?id@?$time_get@_WV?$istreambuf_iterator@_WU?$char_traits@_W@std@@@std@@@std@@2V0locale@2@A
513E8 63 ?id@?$num_get@GV?$istreambuf_iterator@GU?$char_traits@G@std@@@std@@@std@@2V0locale@2@A
513EC 63 ?id@?$num_put@GV?$ostreambuf_iterator@GU?$char_traits@G@std@@@std@@@std@@2V0locale@2@A
513F0 63 ?id@?$numpunct@G@std@@2V0locale@2@A
513F4 63 ?id@?$collate@G@std@@2V0locale@2@A
513F8 63 ?id@?$messages@G@std@@2V0locale@2@A
513FC 63 ?id@?$money_get@GV?$istreambuf_iterator@GU?$char_traits@G@std@@@std@@@std@@2V0locale@2@A
51400 63 ?id@?$money_put@GV?$ostreambuf_iterator@GU?$char_traits@G@std@@@std@@@std@@2V0locale@2@A
51404 63 ?id@?$moneypunct@G$0A@@std@@2V0locale@2@A
51408 63 ?id@?$moneypunct@G$00@std@@2V0locale@2@A
5140C 63 ?id@?$time_get@GV?$istreambuf_iterator@GU?$char_traits@G@std@@@std@@@std@@2V0locale@2@A
51410 63 ?id@?$time_put@GV?$ostreambuf_iterator@GU?$char_traits@G@std@@@std@@@std@@2V0locale@2@A
51414 64 ?id@?$collate@D@std@@2V0locale@2@A
51418 64 ?id@?$messages@D@std@@2V0locale@2@A
5141C 64 ?id@?$money_get@DV?$istreambuf_iterator@DU?$char_traits@D@std@@@std@@@std@@2V0locale@2@A
51420 64 ?id@?$money_put@DV?$ostreambuf_iterator@DU?$char_traits@D@std@@@std@@@std@@2V0locale@2@A
51424 64 ?id@?$moneypunct@D$0A@@std@@2V0locale@2@A
51428 64 ?id@?$moneypunct@D$00@std@@2V0locale@2@A
5142C 64 ?id@?$time_get@DV?$istreambuf_iterator@DU?$char_traits@D@std@@@std@@@std@@2V0locale@2@A
51430 64 ?id@?$time_put@DV?$ostreambuf_iterator@DU?$char_traits@D@std@@@std@@@std@@2V0locale@2@A
51434 41 ___scrt_current_native_startup_state
51438 41 ___scrt_native_startup_lock
5143C 41 ?is_initialized_as_dll@@3_NA
5143D 41 ?module_local_atexit_table_initialized@@3_NA
51440 41 ?module_local_atexit_table@@3U_onexit_table_t@@A
5144C 41 ?module_local_at_quick_exit_table@@3U_onexit_table_t@@A
51458 21 _GS_ExceptionRecord
514A8 21 _GS_ContextRecord
51774 13 ?__proc_attached@@3HA
51778 8 ___avx10_version
5177C 8 ___isa_available
51780 8 ___favor
51784 42 ___scrt_debugger_hook_flag
51788 37 ?__type_info_root_node@@3U__type_info_node@@A
51790 9 ?_OptionsStorage@?1??__local_stdio_scanf_options@@9@4_KA
51798 236 ?__WinRTOutOfMemoryExceptionCallback@@3P6GPAXXZA
5179C 248 ?__vcrt_startup_thread_ptd@@3U__vcrt_ptd@@A
517C4 250 ___pPurecall
517C8 243 ___vcrt_lock_table
517E0 243 ___vcrt_locks_initialized
517E4 255 ?pArgList@UnDecorator@@0PAVReplicator@@A
517E8 255 ?pZNameList@UnDecorator@@0PAVReplicator@@A
517EC 255 ?pTemplateArgList@UnDecorator@@0PAVReplicator@@A
517F0 255 ?gName@UnDecorator@@0PBDB
517F4 255 ?name@UnDecorator@@0PBDB
517F8 255 ?disableFlags@UnDecorator@@0KA
517FC 255 ?fExplicitTemplateParams@UnDecorator@@0_NA
517FD 255 ?fGetTemplateArgumentList@UnDecorator@@0_NA
51800 255 ?m_pGetParameter@UnDecorator@@0P6APADJ@ZA
51804 255 ?m_CHPENameOffset@UnDecorator@@0KA
51808 255 ?m_recursionLevel@UnDecorator@@0KA
5180C 255 ?heap@@3V_HeapManager@@A
51820 258 ?module_handles@@3PAPAUHINSTANCE__@@A
5182C 258 ?function_pointers@@3PAPAXA
51840 138 ?__acrt_invalid_parameter_handler@@3V?$dual_state_global@P6AXPB_W00II@Z@__crt_state_management@@A
51844 76 __nstream
51848 76 ___piob
5184C 151 ___acrt_lconv_static_null
51850 151 ___acrt_lconv_static_W_null
51858 152 ?__acrt_lock_table@@3PAU_RTL_CRITICAL_SECTION@@A
519A8 152 ?__acrt_locks_initialized@@3IA
519AC 106 ?c_termination_complete@@3JA
519B0 106 ?thread_local_exit_callback_func@@3P6GXPAXK0@ZA
519B4 106 ?c_exit_complete@?1???R<lambda_6e4b09c48022b2350581041d5f6b0c4c>@@QBE@XZ@4_NA
519B8 87 ?program_name@?1???$common_configure_argv@D@@YAHW4_crt_argv_mode@@@Z@4PADA
51AC0 103 __environ_table
51AC4 103 __wenviron_table
51AC8 103 ___dcrt_initial_wide_environment
51ACC 103 ___dcrt_initial_narrow_environment
51AD0 179 ___acrt_atexit_table
51ADC 179 ___acrt_at_quick_exit_table
51AE8 176 ?__acrt_new_handler@@3V?$dual_state_global@P6AHI@Z@__crt_state_management@@A
51AEC 233 ___acrt_locale_changed_data
51AF0 178 ___acrt_current_locale_data
51AF4 197 ?ctrlc_action@@3V?$dual_state_global@P6AXH@Z@__crt_state_management@@A
51AF8 197 ?ctrlbreak_action@@3V?$dual_state_global@P6AXH@Z@__crt_state_management@@A
51AFC 197 ?abort_action@@3V?$dual_state_global@P6AXH@Z@__crt_state_management@@A
51B00 197 ?term_action@@3V?$dual_state_global@P6AXH@Z@__crt_state_management@@A
51B08 139 ___pioinfo
51D08 139 __nhandle
51D0C 193 ?__acrt_app_type@@3W4_crt_app_type@@A
51D10 231 ?module_handles@@3PAPAUHINSTANCE__@@A
51D68 231 ?encoded_function_pointers@@3PAPAXA
51DF4 231 ?static_enum_proc@?1??enum_system_locales_ex_nolock@@YAHQ6GHPA_WKJ@Z@Z@4P6GH0KJ@ZA
51DF8 167 ?internal_state@?1??_mbtowc_internal@@9@4U_Mbstatet@@A
51E00 79 ___acrt_stdout_buffer
51E04 79 ___acrt_stderr_buffer
51E08 147 __pmatherr_set
51E0C 210 ?_timezone@@3V?$dual_state_global@J@__crt_state_management@@A
51E10 210 ?_daylight@@3V?$dual_state_global@H@__crt_state_management@@A
51E14 210 ?_dstbias@@3V?$dual_state_global@J@__crt_state_management@@A
51E18 210 ?_tzname@@3V?$dual_state_global@PAPAD@__crt_state_management@@A
51E1C 210 ?w_tzname@@3V?$dual_state_global@PAPA_W@__crt_state_management@@A
51E20 213 ?tz_api_used@@3HA
51E24 213 ?tzset_init_state@@3V?$dual_state_global@J@__crt_state_management@@A
51E28 213 ?tz_info@@3U_TIME_ZONE_INFORMATION@@A
51ED4 162 __mbctype
51ED8 162 __mbcasemap
51EDC 162 ___acrt_current_multibyte_data
51EE0 162 ?fSystemSet@@3HA
51EE4 162 ?initialized@?1??__acrt_initialize_multibyte@@9@4_NA
51EE8 86 __pgmptr
51EEC 86 ___argc
51EF0 86 ___argv
51EF4 86 ___wargv
51EF8 86 __acmdln
51EFC 86 __wcmdln
51F00 129 ___acrt_heap
51F04 160 ?user_matherr@@3V?$dual_state_global@P6AHPAU_exception@@@Z@__crt_state_management@@A
51F08 177 ?__acrt_global_new_mode@@3V?$dual_state_global@J@__crt_state_management@@A
51F0C 163 ?internal_pst@?1??__mbrtoc32_utf8@__crt_mbstring@@YAIPA_UPBDIPAU_Mbstatet@@AAV__crt_cached_ptd_host@@@Z@4U3@A
51F14 90 ?internal_pst@?1??__c16rtomb_utf8@__crt_mbstring@@YAIPAD_SPAU_Mbstatet@@AAV__crt_cached_ptd_host@@@Z@4U3@A
51F1C 114 ___fastflag
51F20 53 ?_OptionsStorage@?1??__local_stdio_printf_options@@9@4_KA
51F28 53 ?_Psave@?$_Facetptr@V?$numpunct@_W@std@@@std@@2PBVfacet@locale@2@B
51F30 45 ?kbl@?1??GetOpenPanelInfo@Plist@@QAEXPAUOpenPanelInfo@@@Z@4PAUKeyBarLabel@@A
51FE0 45 ?ArraysInited@?2??PanelModes@Plist@@QAEPAUPanelMode@@AAI@Z@4_NA
51FE1 50 ?Inited@?1??dynamic_bind@@YAXXZ@4_NA
51FF0 50 ?FSF@@3UFarStandardFunctions@@A
520C0 50 ?Opt@@3Uoptions@@A
520E8 50 ?PsInfo@@3UPluginStartupInfo@@A
52174 52 ?id@?$numpunct@_W@std@@2V0locale@2@A
52178 52 ?id@?$codecvt@DDU_Mbstatet@@@std@@2V0locale@2@A
5217C 53 ?id@?$format_facet@Vlocale@std@@@v11@fmt@@2V0locale@std@@A
52180 53 ?id@?$numpunct@D@std@@2V0locale@2@A
52184 54 ?UserAccountID@?1??GetUserAccountID@@YA@XZ@4V?$basic_string@_WU?$char_traits@_W@std@@V?$allocator@_W@2@@std@@B
5219C 54 ?$S6@?1??GetUserAccountID@@YA@XZ@4IA
521A0 45 ?PanelModesRemote@?1??PanelModes@Plist@@QAEPAUPanelMode@@AAI@Z@4V?$array@UPanelMode@@$09@std@@A
522E0 45 ?PanelModesLocal@?1??PanelModes@Plist@@QAEPAUPanelMode@@AAI@Z@4V?$array@UPanelMode@@$09@std@@A
52420 45 ?$S6@?1??GetOpenPanelInfo@Plist@@QAEXPAUOpenPanelInfo@@@Z@4IA
52428 45 ?TitlesLocal@?1??PanelModes@Plist@@QAEPAUPanelMode@@AAI@Z@4V?$array@V?$array@PA_W$0BI@@std@@$09@std@@A
527E8 45 ?TitlesRemote@?1??PanelModes@Plist@@QAEPAUPanelMode@@AAI@Z@4V?$array@V?$array@PA_W$0BI@@std@@$09@std@@A
52BA8 262 ?$S6@?1??Is64BitWindows@@YA_NXZ@4IA
52BAC 262 ?IsWow64@?1??Is64BitWindows@@YA_NXZ@4_NB
52BAD 46 ?IsWow64@?1??is_wow64_itself@@YA_NXZ@4_NB
52BB0 46 ?hDebugToken@@3V?$unique_ptr@XUhandle_closer@@@std@@A
52BB4 46 ?$S6@?1??is_wow64_itself@@YA_NXZ@4IA
52BB8 50 ?PluginMenuStrings@?4??GetPluginInfoW@@9@4@4PAPB_WA
52BBC 50 ?PluginCfgStrings@?1??GetPluginInfoW@@9@4@4PAPB_WA
52BC0 50 ?DiskMenuStrings@?7??GetPluginInfoW@@9@4@4PAPB_WA
52BC4 266 ?FunctionPointer@?1??Wrapper_FlsAlloc@@9@4@4Q6GKP6GXPAX@Z@ZA
52BC8 266 ?FunctionPointer@?1??Wrapper_CompareStringEx@@9@36@4Q6GHPB_WK0H0HPAU_nlsversioninfo@@PAXJ@ZA
52BCC 266 ?FunctionPointer@?1??Wrapper_InitializeSListHead@@9@4@4Q6GXPAT_SLIST_HEADER@@@ZA
52BD0 266 ?$S11@?1??Wrapper_InitializeCriticalSectionEx@@9@12@4IA
52BD4 266 ?$S6@?1??Wrapper_InterlockedFlushSList@@9@4@4IA
52BD8 266 ?FunctionPointer@?1??Wrapper_WakeAllConditionVariable@@9@4@4Q6GXPAU_RTL_CONDITION_VARIABLE@@@ZA
52BDC 266 ?$S4@?1??Wrapper_GetModuleHandleExW@@9@12@4IA
52BE0 266 ?Cookie@?1??XorPointer@@YAPAXPAX@Z@4IB
52BE4 266 ?FunctionPointer@?1??Wrapper_GetLogicalProcessorInformation@@9@8@4Q6GHPAU_SYSTEM_LOGICAL_PROCESSOR_INFORMATION@@PAK@ZA
52BE8 266 ?$S1@?1??XorPointer@@YAPAXPAX@Z@4IA
52BEC 266 ?FunctionPointer@?1??Wrapper_SleepConditionVariableSRW@@9@16@4Q6GHPAU_RTL_CONDITION_VARIABLE@@PAU_RTL_SRWLOCK@@KK@ZA
52BF0 266 ?$S13@?1??Wrapper_LCMapStringEx@@9@36@4IA
52BF4 266 ?$S10@?1??Wrapper_SetThreadStackGuarantee@@9@4@4IA
52BF8 266 ?FunctionPointer@?1??Wrapper_TryAcquireSRWLockExclusive@@9@4@4Q6GEPAU_RTL_SRWLOCK@@@ZA
52BFC 266 ?$S12@?1??Wrapper_CompareStringEx@@9@36@4IA
52C00 266 ?$S16@?1??Wrapper_AcquireSRWLockExclusive@@9@4@4IA
52C04 266 ?FunctionPointer@?1??Wrapper_GetModuleHandleExW@@9@12@4Q6GHKPB_WPAPAUHINSTANCE__@@@ZA
52C08 266 ?$S7@?1??Wrapper_InterlockedPushEntrySList@@9@8@4IA
52C0C 266 ?$S9@?1??Wrapper_GetLogicalProcessorInformation@@9@8@4IA
52C10 266 ?$S23@?1??Wrapper_FlsFree@@9@4@4IA
52C14 266 ?$S8@?1??Wrapper_GetNumaHighestNodeNumber@@9@4@4IA
52C18 266 ?$S5@?1??Wrapper_InitializeSListHead@@9@4@4IA
52C1C 266 ?FunctionPointer@?1??Wrapper_FlsGetValue@@9@4@4Q6GPAXK@ZA
52C20 266 ?FunctionPointer@?1??Wrapper_DecodePointer@@9@4@4Q6GPAXPAX@ZA
52C24 266 ?FunctionPointer@?1??Wrapper_SetThreadStackGuarantee@@9@4@4Q6GHPAK@ZA
52C28 266 ?$S14@?1??Wrapper_SleepConditionVariableSRW@@9@16@4IA
52C2C 266 ?$S21@?1??Wrapper_FlsGetValue@@9@4@4IA
52C30 266 ?$S18@?1??Wrapper_TryAcquireSRWLockExclusive@@9@4@4IA
52C34 266 ?$S15@?1??Wrapper_WakeAllConditionVariable@@9@4@4IA
52C38 266 ?FunctionPointer@?1??Wrapper_FlsFree@@9@4@4Q6GHK@ZA
52C3C 266 ?$S3@?1??Wrapper_DecodePointer@@9@4@4IA
52C40 266 ?$S20@?1??Wrapper_FlsAlloc@@9@4@4IA
52C44 266 ?$S19@?1??Wrapper_InitializeSRWLock@@9@4@4IA
52C48 266 ?FunctionPointer@?1??Wrapper_InterlockedFlushSList@@9@4@4Q6GPAU_SINGLE_LIST_ENTRY@@PAT_SLIST_HEADER@@@ZA
52C4C 266 ?FunctionPointer@?1??Wrapper_InterlockedPushEntrySList@@9@8@4Q6GPAU_SINGLE_LIST_ENTRY@@PAT_SLIST_HEADER@@PAU2@@ZA
52C50 266 ?$S17@?1??Wrapper_ReleaseSRWLockExclusive@@9@4@4IA
52C54 266 ?$S2@?1??Wrapper_EncodePointer@@9@4@4IA
52C58 266 ?FunctionPointer@?1??Wrapper_InitializeSRWLock@@9@4@4Q6GXPAU_RTL_SRWLOCK@@@ZA
52C5C 266 ?Ptr@?1???R<lambda_1>@?1??XorPointer@@YAPAXPAX@Z@QBE@XZ@4PAXA
52C60 266 ?FunctionPointer@?1??Wrapper_EncodePointer@@9@4@4Q6GPAXPAX@ZA
52C64 266 ?$S22@?1??Wrapper_FlsSetValue@@9@8@4IA
52C68 266 ?FunctionPointer@?1??Wrapper_InitializeCriticalSectionEx@@9@12@4Q6GHPAU_RTL_CRITICAL_SECTION@@KK@ZA
52C6C 266 ?FunctionPointer@?1??Wrapper_ReleaseSRWLockExclusive@@9@4@4Q6GXPAU_RTL_SRWLOCK@@@ZA
52C70 266 ?FunctionPointer@?1??Wrapper_LCMapStringEx@@9@36@4Q6GHPB_WK0HPA_WHPAU_nlsversioninfo@@PAXJ@ZA
52C74 266 ?FunctionPointer@?1??Wrapper_GetNumaHighestNodeNumber@@9@4@4Q6GHPAK@ZA
52C78 266 ?FunctionPointer@?1??Wrapper_AcquireSRWLockExclusive@@9@4@4Q6GXPAU_RTL_SRWLOCK@@@ZA
52C7C 266 ?FunctionPointer@?1??Wrapper_FlsSetValue@@9@8@4Q6GHKPAX@ZA
52C80 2 ___dyn_tls_init_callback
52C84 2 ___scrt_ucrt_dll_is_in_use
52C88 2 __pmatherr
52C8C 2 ___use_sse2_mathfcns
53060 49 $R000000
