MINIMAP

FILES
0 *
1 <absolute>
2 <common>
3 <linker-defined>
4 ApiLog.cpp.obj
5 AsyncProxySocketLayer.cpp.obj
6 AsyncSocketEx.cpp.obj
7 AsyncSocketExLayer.cpp.obj
8 AsyncSslSocketLayer.cpp.obj
9 Bookmarks.cpp.obj
10 CBase64Coding.cpp.obj
11 Common.cpp.obj
12 Configuration.cpp.obj
13 CopyParam.cpp.obj
14 CoreMain.cpp.obj
15 Crypt32:CRYPT32.dll
16 Cryptography.cpp.obj
17 Exceptions.cpp.obj
18 Far3Storage.cpp.obj
19 FarConfiguration.cpp.obj
20 FarDialog.cpp.obj
21 FarInterface.cpp.obj
22 FarPlugin.cpp.obj
23 FarPluginStrings.cpp.obj
24 FarUtils.cpp.obj
25 FileBuffer.cpp.obj
26 FileInfo.cpp.obj
27 FileMasks.cpp.obj
28 FileOperationProgress.cpp.obj
29 FileSystems.cpp.obj
30 FileZillaApi.cpp.obj
31 FileZillaIntern.cpp.obj
32 FileZillaIntf.cpp.obj
33 FormatUtils.cpp.obj
34 FtpControlSocket.cpp.obj
35 FtpFileSystem.cpp.obj
36 FtpListResult.cpp.obj
37 FzApiStructures.cpp.obj
38 GUIConfiguration.cpp.obj
39 GUITools.cpp.obj
40 Global.cpp.obj
41 HierarchicalStorage.cpp.obj
42 Http.cpp.obj
43 MFC64bitFix.cpp.obj
44 MainThread.cpp.obj
45 MessageDlg.cpp.obj
46 NamedObjs.cpp.obj
47 NeonIntf.cpp.obj
48 NetBox.cpp.obj
49 NetBox.exp
50 Option.cpp.obj
51 ProgParams.cpp.obj
52 PuttyIntf.cpp.obj
53 Queue.cpp.obj
54 RemoteFiles.cpp.obj
55 S3FileSystem.cpp.obj
56 ScpFileSystem.cpp.obj
57 SecureShell.cpp.obj
58 ServerPath.cpp.obj
59 SessionData.cpp.obj
60 SessionInfo.cpp.obj
61 SftpFileSystem.cpp.obj
62 SynchronizeController.cpp.obj
63 System.IOUtils.cpp.obj
64 System.SyncObjs.cpp.obj
65 Terminal.cpp.obj
66 TextsFileZilla.rc.res
67 Tools.cpp.obj
68 TransferSocket.cpp.obj
69 Usage.cpp.obj
70 UserInterface.cpp.obj
71 Version:VERSION.dll
72 WebDAVFileSystem.cpp.obj
73 WinInterface.cpp.obj
74 WinSCPDialogs.cpp.obj
75 WinSCPFileSystem.cpp.obj
76 WinSCPPlugin.cpp.obj
77 WinSCPSecurity.cpp.obj
78 Ws2_32:WS2_32.dll
79 XmlStorage.cpp.obj
80 advapi32:ADVAPI32.dll
81 afxdll.cpp.obj
82 atlmfc:mfc1.cpp.obj
83 atlmfc:mfc2.cpp.obj
84 atlmfc:mfc4.cpp.obj
85 baselib:Classes.cpp.obj
86 baselib:Masks.cpp.obj
87 baselib:StrUtils.cpp.obj
88 baselib:Sysutils.cpp.obj
89 baselib:UnicodeString.cpp.obj
90 baselib:nbmemory.cpp.obj
91 baselib:nbstring.cpp.obj
92 baselib:nbutils.cpp.obj
93 delayimp:delaygv1.obj
94 delayimp:delayhk1.obj
95 delayimp:delayhk2.obj
96 delayimp:delayhlp.obj
97 dlmalloc:dlmalloc.cc.obj
98 expat:loadlibrary.c.obj
99 expat:xmlparse.c.obj
100 expat:xmlrole.c.obj
101 expat:xmltok.c.obj
102 fmt:format.cc.obj
103 kernel32:KERNEL32.dll
104 libcmt:alloca16.obj
105 libcmt:argv_mode.obj
106 libcmt:chkstk.obj
107 libcmt:cpu_disp.obj
108 libcmt:default_local_stdio_options.obj
109 libcmt:delete_scalar_size.obj
110 libcmt:dll_dllmain.obj
111 libcmt:dyn_tls_init.obj
112 libcmt:ehprolg3.obj
113 libcmt:ehvecctr.obj
114 libcmt:ehvecdtr.obj
115 libcmt:fltused.obj
116 libcmt:ftol2.obj
117 libcmt:ftol3.obj
118 libcmt:gs_cookie.obj
119 libcmt:gs_report.obj
120 libcmt:gs_support.obj
121 libcmt:guard_support.obj
122 libcmt:initializers.obj
123 libcmt:initsect.obj
124 libcmt:lldiv.obj
125 libcmt:lldvrm.obj
126 libcmt:llmul.obj
127 libcmt:llrem.obj
128 libcmt:llshl.obj
129 libcmt:loadcfg.obj
130 libcmt:pesect.obj
131 libcmt:secchk.obj
132 libcmt:sehprolg4.obj
133 libcmt:std_type_info_static.obj
134 libcmt:tncleanup.obj
135 libcmt:ucrt_detection.obj
136 libcmt:ulldiv.obj
137 libcmt:ulldvrm.obj
138 libcmt:ullrem.obj
139 libcmt:ullshr.obj
140 libcmt:utility.obj
141 libcmt:utility_desktop.obj
142 libcmt:x86_exception_filter.obj
143 libcpmt:StlLCMapStringA.obj
144 libcpmt:StlLCMapStringW.obj
145 libcpmt:_tolower.obj
146 libcpmt:_toupper.obj
147 libcpmt:asan_noop.obj
148 libcpmt:cerr.obj
149 libcpmt:fiopen.obj
150 libcpmt:ios.obj
151 libcpmt:iosptrs.obj
152 libcpmt:locale.obj
153 libcpmt:locale0.obj
154 libcpmt:mutex.obj
155 libcpmt:syserror.obj
156 libcpmt:syserror_import_lib.obj
157 libcpmt:thread0.obj
158 libcpmt:uncaught_exception.obj
159 libcpmt:uncaught_exceptions.obj
160 libcpmt:vector_algorithms.obj
161 libcpmt:winapisupp.obj
162 libcpmt:wlocale.obj
163 libcpmt:xgetwctype.obj
164 libcpmt:xlocale.obj
165 libcpmt:xlock.obj
166 libcpmt:xmbtowc.obj
167 libcpmt:xmtx.obj
168 libcpmt:xstoul.obj
169 libcpmt:xstoull.obj
170 libcpmt:xthrow.obj
171 libcpmt:xtime.obj
172 libcpmt:xtowlower.obj
173 libcpmt:xtowupper.obj
174 libcpmt:xwctomb.obj
175 libeay32:a_bitstr.c.obj
176 libeay32:a_d2i_fp.c.obj
177 libeay32:a_digest.c.obj
178 libeay32:a_dup.c.obj
179 libeay32:a_gentm.c.obj
180 libeay32:a_i2d_fp.c.obj
181 libeay32:a_int.c.obj
182 libeay32:a_mbstr.c.obj
183 libeay32:a_object.c.obj
184 libeay32:a_print.c.obj
185 libeay32:a_sign.c.obj
186 libeay32:a_strex.c.obj
187 libeay32:a_strnid.c.obj
188 libeay32:a_time.c.obj
189 libeay32:a_type.c.obj
190 libeay32:a_utf8.c.obj
191 libeay32:a_verify.c.obj
192 libeay32:ameth_lib.c.obj
193 libeay32:argon2.c.obj
194 libeay32:aria.c.obj
195 libeay32:asn1_dsa.c.obj
196 libeay32:asn1_gen.c.obj
197 libeay32:asn1_lib.c.obj
198 libeay32:asn1_par.c.obj
199 libeay32:asn_moid.c.obj
200 libeay32:asn_mstbl.c.obj
201 libeay32:asn_pack.c.obj
202 libeay32:asymcipher.c.obj
203 libeay32:async.c.obj
204 libeay32:async_wait.c.obj
205 libeay32:baseprov.c.obj
206 libeay32:bf_buff.c.obj
207 libeay32:bf_cfb64.c.obj
208 libeay32:bf_ofb64.c.obj
209 libeay32:bf_readbuff.c.obj
210 libeay32:bf_skey.c.obj
211 libeay32:bio_addr.c.obj
212 libeay32:bio_dump.c.obj
213 libeay32:bio_enc.c.obj
214 libeay32:bio_lib.c.obj
215 libeay32:bio_md.c.obj
216 libeay32:bio_meth.c.obj
217 libeay32:bio_print.c.obj
218 libeay32:bio_prov.c.obj
219 libeay32:bio_sock.c.obj
220 libeay32:bio_sock2.c.obj
221 libeay32:blake2_prov.c.obj
222 libeay32:blake2b_mac.c.obj
223 libeay32:blake2b_prov.c.obj
224 libeay32:blake2s_mac.c.obj
225 libeay32:blake2s_prov.c.obj
226 libeay32:bn_add.c.obj
227 libeay32:bn_asm.c.obj
228 libeay32:bn_blind.c.obj
229 libeay32:bn_const.c.obj
230 libeay32:bn_conv.c.obj
231 libeay32:bn_ctx.c.obj
232 libeay32:bn_dh.c.obj
233 libeay32:bn_div.c.obj
234 libeay32:bn_exp.c.obj
235 libeay32:bn_exp2.c.obj
236 libeay32:bn_gcd.c.obj
237 libeay32:bn_gf2m.c.obj
238 libeay32:bn_intern.c.obj
239 libeay32:bn_kron.c.obj
240 libeay32:bn_lib.c.obj
241 libeay32:bn_mod.c.obj
242 libeay32:bn_mont.c.obj
243 libeay32:bn_mul.c.obj
244 libeay32:bn_nist.c.obj
245 libeay32:bn_prime.c.obj
246 libeay32:bn_print.c.obj
247 libeay32:bn_rand.c.obj
248 libeay32:bn_recp.c.obj
249 libeay32:bn_rsa_fips186_4.c.obj
250 libeay32:bn_shift.c.obj
251 libeay32:bn_sqr.c.obj
252 libeay32:bn_sqrt.c.obj
253 libeay32:bn_srp.c.obj
254 libeay32:bn_word.c.obj
255 libeay32:bsearch.c.obj
256 libeay32:bss_bio.c.obj
257 libeay32:bss_core.c.obj
258 libeay32:bss_dgram_pair.c.obj
259 libeay32:bss_file.c.obj
260 libeay32:bss_mem.c.obj
261 libeay32:bss_null.c.obj
262 libeay32:bss_sock.c.obj
263 libeay32:buffer.c.obj
264 libeay32:by_dir.c.obj
265 libeay32:by_file.c.obj
266 libeay32:by_store.c.obj
267 libeay32:c_allc.c.obj
268 libeay32:c_alld.c.obj
269 libeay32:c_cfb64.c.obj
270 libeay32:c_ofb64.c.obj
271 libeay32:c_skey.c.obj
272 libeay32:capabilities.c.obj
273 libeay32:cbc128.c.obj
274 libeay32:ccm128.c.obj
275 libeay32:cfb128.c.obj
276 libeay32:cfb64ede.c.obj
277 libeay32:cfb64enc.c.obj
278 libeay32:cfb_enc.c.obj
279 libeay32:chacha_enc.c.obj
280 libeay32:cipher_aes.c.obj
281 libeay32:cipher_aes_cbc_hmac_sha.c.obj
282 libeay32:cipher_aes_ccm.c.obj
283 libeay32:cipher_aes_ccm_hw.c.obj
284 libeay32:cipher_aes_gcm.c.obj
285 libeay32:cipher_aes_gcm_hw.c.obj
286 libeay32:cipher_aes_gcm_siv.c.obj
287 libeay32:cipher_aes_gcm_siv_hw.c.obj
288 libeay32:cipher_aes_gcm_siv_polyval.c.obj
289 libeay32:cipher_aes_hw.c.obj
290 libeay32:cipher_aes_ocb.c.obj
291 libeay32:cipher_aes_ocb_hw.c.obj
292 libeay32:cipher_aes_siv.c.obj
293 libeay32:cipher_aes_siv_hw.c.obj
294 libeay32:cipher_aes_wrp.c.obj
295 libeay32:cipher_aes_xts.c.obj
296 libeay32:cipher_aes_xts_hw.c.obj
297 libeay32:cipher_aria.c.obj
298 libeay32:cipher_aria_ccm.c.obj
299 libeay32:cipher_aria_ccm_hw.c.obj
300 libeay32:cipher_aria_gcm.c.obj
301 libeay32:cipher_aria_gcm_hw.c.obj
302 libeay32:cipher_aria_hw.c.obj
303 libeay32:cipher_chacha20.c.obj
304 libeay32:cipher_chacha20_hw.c.obj
305 libeay32:cipher_chacha20_poly1305.c.obj
306 libeay32:cipher_chacha20_poly1305_hw.c.obj
307 libeay32:cipher_cts.c.obj
308 libeay32:cipher_null.c.obj
309 libeay32:cipher_sm4.c.obj
310 libeay32:cipher_sm4_ccm.c.obj
311 libeay32:cipher_sm4_ccm_hw.c.obj
312 libeay32:cipher_sm4_gcm.c.obj
313 libeay32:cipher_sm4_gcm_hw.c.obj
314 libeay32:cipher_sm4_hw.c.obj
315 libeay32:cipher_sm4_xts.c.obj
316 libeay32:cipher_sm4_xts_hw.c.obj
317 libeay32:cipher_tdes.c.obj
318 libeay32:cipher_tdes_common.c.obj
319 libeay32:cipher_tdes_default.c.obj
320 libeay32:cipher_tdes_default_hw.c.obj
321 libeay32:cipher_tdes_hw.c.obj
322 libeay32:cipher_tdes_wrap.c.obj
323 libeay32:cipher_tdes_wrap_hw.c.obj
324 libeay32:ciphercommon.c.obj
325 libeay32:ciphercommon_block.c.obj
326 libeay32:ciphercommon_ccm.c.obj
327 libeay32:ciphercommon_ccm_hw.c.obj
328 libeay32:ciphercommon_gcm.c.obj
329 libeay32:ciphercommon_gcm_hw.c.obj
330 libeay32:ciphercommon_hw.c.obj
331 libeay32:cmac.c.obj
332 libeay32:cmac_prov.c.obj
333 libeay32:conf_api.c.obj
334 libeay32:conf_def.c.obj
335 libeay32:conf_lib.c.obj
336 libeay32:conf_mod.c.obj
337 libeay32:conf_sap.c.obj
338 libeay32:conf_ssl.c.obj
339 libeay32:context.c.obj
340 libeay32:core_algorithm.c.obj
341 libeay32:core_fetch.c.obj
342 libeay32:core_namemap.c.obj
343 libeay32:cpuid.c.obj
344 libeay32:crngt.c.obj
345 libeay32:cryptlib.c.obj
346 libeay32:ct_log.c.obj
347 libeay32:ct_oct.c.obj
348 libeay32:ct_policy.c.obj
349 libeay32:ct_prn.c.obj
350 libeay32:ct_sct.c.obj
351 libeay32:ct_sct_ctx.c.obj
352 libeay32:ct_vfy.c.obj
353 libeay32:ct_x509v3.c.obj
354 libeay32:ctr128.c.obj
355 libeay32:ctrl_params_translate.c.obj
356 libeay32:ctype.c.obj
357 libeay32:curve25519.c.obj
358 libeay32:curve448.c.obj
359 libeay32:curve448_tables.c.obj
360 libeay32:d2i_pr.c.obj
361 libeay32:decode_der2key.c.obj
362 libeay32:decode_epki2pki.c.obj
363 libeay32:decode_msblob2key.c.obj
364 libeay32:decode_pem2der.c.obj
365 libeay32:decode_pvk2key.c.obj
366 libeay32:decode_spki2typespki.c.obj
367 libeay32:decoder_lib.c.obj
368 libeay32:decoder_meth.c.obj
369 libeay32:decoder_pkey.c.obj
370 libeay32:defltprov.c.obj
371 libeay32:defn_cache.c.obj
372 libeay32:der_dsa_gen.c.obj
373 libeay32:der_ec_gen.c.obj
374 libeay32:der_ecx_gen.c.obj
375 libeay32:der_rsa_gen.c.obj
376 libeay32:der_rsa_key.c.obj
377 libeay32:der_rsa_sig.c.obj
378 libeay32:der_sm2_gen.c.obj
379 libeay32:der_wrap_gen.c.obj
380 libeay32:der_writer.c.obj
381 libeay32:deterministic_nonce.c.obj
382 libeay32:dh_ameth.c.obj
383 libeay32:dh_asn1.c.obj
384 libeay32:dh_backend.c.obj
385 libeay32:dh_check.c.obj
386 libeay32:dh_ctrl.c.obj
387 libeay32:dh_exch.c.obj
388 libeay32:dh_gen.c.obj
389 libeay32:dh_group_params.c.obj
390 libeay32:dh_kdf.c.obj
391 libeay32:dh_key.c.obj
392 libeay32:dh_kmgmt.c.obj
393 libeay32:dh_lib.c.obj
394 libeay32:dh_pmeth.c.obj
395 libeay32:dh_support.c.obj
396 libeay32:digest.c.obj
397 libeay32:digest_to_nid.c.obj
398 libeay32:digestcommon.c.obj
399 libeay32:drbg.c.obj
400 libeay32:drbg_ctr.c.obj
401 libeay32:drbg_hash.c.obj
402 libeay32:drbg_hmac.c.obj
403 libeay32:dsa_ameth.c.obj
404 libeay32:dsa_asn1.c.obj
405 libeay32:dsa_backend.c.obj
406 libeay32:dsa_check.c.obj
407 libeay32:dsa_ctrl.c.obj
408 libeay32:dsa_gen.c.obj
409 libeay32:dsa_key.c.obj
410 libeay32:dsa_kmgmt.c.obj
411 libeay32:dsa_lib.c.obj
412 libeay32:dsa_ossl.c.obj
413 libeay32:dsa_pmeth.c.obj
414 libeay32:dsa_sig.c.obj
415 libeay32:dsa_sign.c.obj
416 libeay32:dso_lib.c.obj
417 libeay32:dso_win32.c.obj
418 libeay32:e_aes.c.obj
419 libeay32:e_aria.c.obj
420 libeay32:e_bf.c.obj
421 libeay32:e_cast.c.obj
422 libeay32:e_chacha20_poly1305.c.obj
423 libeay32:e_des.c.obj
424 libeay32:e_des3.c.obj
425 libeay32:e_idea.c.obj
426 libeay32:e_rc2.c.obj
427 libeay32:e_rc4.c.obj
428 libeay32:e_rc4_hmac_md5.c.obj
429 libeay32:e_sm4.c.obj
430 libeay32:e_xcbc_d.c.obj
431 libeay32:ec2_oct.c.obj
432 libeay32:ec2_smpl.c.obj
433 libeay32:ec_ameth.c.obj
434 libeay32:ec_asn1.c.obj
435 libeay32:ec_backend.c.obj
436 libeay32:ec_check.c.obj
437 libeay32:ec_ctrl.c.obj
438 libeay32:ec_curve.c.obj
439 libeay32:ec_cvt.c.obj
440 libeay32:ec_kem.c.obj
441 libeay32:ec_key.c.obj
442 libeay32:ec_kmeth.c.obj
443 libeay32:ec_kmgmt.c.obj
444 libeay32:ec_lib.c.obj
445 libeay32:ec_mult.c.obj
446 libeay32:ec_oct.c.obj
447 libeay32:ec_pmeth.c.obj
448 libeay32:ec_support.c.obj
449 libeay32:ecdh_exch.c.obj
450 libeay32:ecdh_kdf.c.obj
451 libeay32:ecdh_ossl.c.obj
452 libeay32:ecdsa_ossl.c.obj
453 libeay32:ecdsa_sig.c.obj
454 libeay32:ecdsa_sign.c.obj
455 libeay32:ecdsa_vrf.c.obj
456 libeay32:eck_prn.c.obj
457 libeay32:ecp_mont.c.obj
458 libeay32:ecp_nist.c.obj
459 libeay32:ecp_oct.c.obj
460 libeay32:ecp_smpl.c.obj
461 libeay32:ecx_backend.c.obj
462 libeay32:ecx_exch.c.obj
463 libeay32:ecx_kem.c.obj
464 libeay32:ecx_key.c.obj
465 libeay32:ecx_kmgmt.c.obj
466 libeay32:ecx_meth.c.obj
467 libeay32:eddsa.c.obj
468 libeay32:eddsa_sig.c.obj
469 libeay32:encode.c.obj
470 libeay32:encode_key2any.c.obj
471 libeay32:encode_key2blob.c.obj
472 libeay32:encode_key2ms.c.obj
473 libeay32:encode_key2text.c.obj
474 libeay32:encoder_lib.c.obj
475 libeay32:encoder_meth.c.obj
476 libeay32:encoder_pkey.c.obj
477 libeay32:endecoder_common.c.obj
478 libeay32:err.c.obj
479 libeay32:err_blocks.c.obj
480 libeay32:err_mark.c.obj
481 libeay32:err_prn.c.obj
482 libeay32:evp_asn1.c.obj
483 libeay32:evp_cnf.c.obj
484 libeay32:evp_enc.c.obj
485 libeay32:evp_fetch.c.obj
486 libeay32:evp_key.c.obj
487 libeay32:evp_lib.c.obj
488 libeay32:evp_pbe.c.obj
489 libeay32:evp_pkey.c.obj
490 libeay32:evp_rand.c.obj
491 libeay32:evp_utils.c.obj
492 libeay32:ex_data.c.obj
493 libeay32:exchange.c.obj
494 libeay32:f_generic.c.obj
495 libeay32:f_impl32.c.obj
496 libeay32:f_int.c.obj
497 libeay32:ffc_backend.c.obj
498 libeay32:ffc_dh.c.obj
499 libeay32:ffc_key_generate.c.obj
500 libeay32:ffc_key_validate.c.obj
501 libeay32:ffc_params.c.obj
502 libeay32:ffc_params_generate.c.obj
503 libeay32:ffc_params_validate.c.obj
504 libeay32:file_store.c.obj
505 libeay32:file_store_any2obj.c.obj
506 libeay32:gcm128.c.obj
507 libeay32:getenv.c.obj
508 libeay32:gmac_prov.c.obj
509 libeay32:hkdf.c.obj
510 libeay32:hmac.c.obj
511 libeay32:hmac_prov.c.obj
512 libeay32:hmacdrbg_kdf.c.obj
513 libeay32:hpke_util.c.obj
514 libeay32:http_client.c.obj
515 libeay32:http_lib.c.obj
516 libeay32:i_cbc.c.obj
517 libeay32:i_cfb64.c.obj
518 libeay32:i_ofb64.c.obj
519 libeay32:i_skey.c.obj
520 libeay32:init.c.obj
521 libeay32:initthread.c.obj
522 libeay32:kbkdf.c.obj
523 libeay32:kdf_exch.c.obj
524 libeay32:kdf_legacy_kmgmt.c.obj
525 libeay32:kdf_lib.c.obj
526 libeay32:kdf_meth.c.obj
527 libeay32:keccak1600.c.obj
528 libeay32:kem.c.obj
529 libeay32:kem_util.c.obj
530 libeay32:keymgmt_lib.c.obj
531 libeay32:keymgmt_meth.c.obj
532 libeay32:kmac_prov.c.obj
533 libeay32:krb5kdf.c.obj
534 libeay32:legacy_blake2.c.obj
535 libeay32:legacy_md4.c.obj
536 libeay32:legacy_md5.c.obj
537 libeay32:legacy_md5_sha1.c.obj
538 libeay32:legacy_ripemd.c.obj
539 libeay32:legacy_sha.c.obj
540 libeay32:legacy_sm3.c.obj
541 libeay32:lhash.c.obj
542 libeay32:libcrypto-lib-aes-586.obj.asm.obj
543 libeay32:libcrypto-lib-bf-586.obj.asm.obj
544 libeay32:libcrypto-lib-cast-586.obj.asm.obj
545 libeay32:libcrypto-lib-des-586.obj.asm.obj
546 libeay32:libcrypto-lib-rc4-586.obj.asm.obj
547 libeay32:m_null.c.obj
548 libeay32:m_sigver.c.obj
549 libeay32:mac_legacy_kmgmt.c.obj
550 libeay32:mac_legacy_sig.c.obj
551 libeay32:mac_lib.c.obj
552 libeay32:mac_meth.c.obj
553 libeay32:md4_dgst.c.obj
554 libeay32:md5_dgst.c.obj
555 libeay32:md5_prov.c.obj
556 libeay32:md5_sha1.c.obj
557 libeay32:md5_sha1_prov.c.obj
558 libeay32:mem.c.obj
559 libeay32:mem_clr.c.obj
560 libeay32:mem_sec.c.obj
561 libeay32:names.c.obj
562 libeay32:null_prov.c.obj
563 libeay32:nullprov.c.obj
564 libeay32:o_dir.c.obj
565 libeay32:o_fopen.c.obj
566 libeay32:o_names.c.obj
567 libeay32:o_str.c.obj
568 libeay32:o_time.c.obj
569 libeay32:obj_dat.c.obj
570 libeay32:obj_lib.c.obj
571 libeay32:obj_xref.c.obj
572 libeay32:ocb128.c.obj
573 libeay32:ocsp_asn.c.obj
574 libeay32:ocsp_cl.c.obj
575 libeay32:ofb128.c.obj
576 libeay32:ofb64ede.c.obj
577 libeay32:ofb64enc.c.obj
578 libeay32:ossl_core_bio.c.obj
579 libeay32:p12_add.c.obj
580 libeay32:p12_asn.c.obj
581 libeay32:p12_attr.c.obj
582 libeay32:p12_crpt.c.obj
583 libeay32:p12_decr.c.obj
584 libeay32:p12_key.c.obj
585 libeay32:p12_kiss.c.obj
586 libeay32:p12_mutl.c.obj
587 libeay32:p12_p8d.c.obj
588 libeay32:p12_p8e.c.obj
589 libeay32:p12_utl.c.obj
590 libeay32:p5_crpt.c.obj
591 libeay32:p5_crpt2.c.obj
592 libeay32:p5_pbe.c.obj
593 libeay32:p5_pbev2.c.obj
594 libeay32:p5_scrypt.c.obj
595 libeay32:p8_pkey.c.obj
596 libeay32:p_legacy.c.obj
597 libeay32:p_lib.c.obj
598 libeay32:p_sign.c.obj
599 libeay32:packet.c.obj
600 libeay32:param_build.c.obj
601 libeay32:param_build_set.c.obj
602 libeay32:params.c.obj
603 libeay32:params_dup.c.obj
604 libeay32:params_from_text.c.obj
605 libeay32:params_idx.c.obj
606 libeay32:passphrase.c.obj
607 libeay32:pbe_scrypt.c.obj
608 libeay32:pbkdf2.c.obj
609 libeay32:pcy_cache.c.obj
610 libeay32:pcy_data.c.obj
611 libeay32:pcy_map.c.obj
612 libeay32:pcy_node.c.obj
613 libeay32:pcy_tree.c.obj
614 libeay32:pem_all.c.obj
615 libeay32:pem_info.c.obj
616 libeay32:pem_lib.c.obj
617 libeay32:pem_oth.c.obj
618 libeay32:pem_pkey.c.obj
619 libeay32:pem_x509.c.obj
620 libeay32:pk7_asn1.c.obj
621 libeay32:pk7_attr.c.obj
622 libeay32:pk7_doit.c.obj
623 libeay32:pk7_lib.c.obj
624 libeay32:pkcs12kdf.c.obj
625 libeay32:pmeth_check.c.obj
626 libeay32:pmeth_gn.c.obj
627 libeay32:pmeth_lib.c.obj
628 libeay32:poly1305.c.obj
629 libeay32:poly1305_prov.c.obj
630 libeay32:property.c.obj
631 libeay32:property_parse.c.obj
632 libeay32:property_query.c.obj
633 libeay32:property_string.c.obj
634 libeay32:prov_seed.c.obj
635 libeay32:provider_child.c.obj
636 libeay32:provider_conf.c.obj
637 libeay32:provider_core.c.obj
638 libeay32:provider_ctx.c.obj
639 libeay32:provider_predefined.c.obj
640 libeay32:provider_seeding.c.obj
641 libeay32:provider_util.c.obj
642 libeay32:punycode.c.obj
643 libeay32:pvkfmt.c.obj
644 libeay32:rand_lib.c.obj
645 libeay32:rand_meth.c.obj
646 libeay32:rand_pool.c.obj
647 libeay32:rand_win.c.obj
648 libeay32:rc2_cbc.c.obj
649 libeay32:rc2_skey.c.obj
650 libeay32:rc2cfb64.c.obj
651 libeay32:rc2ofb64.c.obj
652 libeay32:ripemd_prov.c.obj
653 libeay32:rmd_dgst.c.obj
654 libeay32:rsa_ameth.c.obj
655 libeay32:rsa_asn1.c.obj
656 libeay32:rsa_backend.c.obj
657 libeay32:rsa_chk.c.obj
658 libeay32:rsa_crpt.c.obj
659 libeay32:rsa_enc.c.obj
660 libeay32:rsa_gen.c.obj
661 libeay32:rsa_kem.c.obj
662 libeay32:rsa_kmgmt.c.obj
663 libeay32:rsa_lib.c.obj
664 libeay32:rsa_mp.c.obj
665 libeay32:rsa_mp_names.c.obj
666 libeay32:rsa_none.c.obj
667 libeay32:rsa_oaep.c.obj
668 libeay32:rsa_ossl.c.obj
669 libeay32:rsa_pk1.c.obj
670 libeay32:rsa_pmeth.c.obj
671 libeay32:rsa_pss.c.obj
672 libeay32:rsa_saos.c.obj
673 libeay32:rsa_schemes.c.obj
674 libeay32:rsa_sig.c.obj
675 libeay32:rsa_sign.c.obj
676 libeay32:rsa_sp800_56b_check.c.obj
677 libeay32:rsa_sp800_56b_gen.c.obj
678 libeay32:rsa_x931.c.obj
679 libeay32:scalar.c.obj
680 libeay32:scrypt.c.obj
681 libeay32:securitycheck.c.obj
682 libeay32:securitycheck_default.c.obj
683 libeay32:seed_src.c.obj
684 libeay32:self_test_core.c.obj
685 libeay32:set_key.c.obj
686 libeay32:sha1_one.c.obj
687 libeay32:sha1dgst.c.obj
688 libeay32:sha256.c.obj
689 libeay32:sha2_prov.c.obj
690 libeay32:sha3.c.obj
691 libeay32:sha3_prov.c.obj
692 libeay32:sha512.c.obj
693 libeay32:signature.c.obj
694 libeay32:siphash.c.obj
695 libeay32:siphash_prov.c.obj
696 libeay32:siv128.c.obj
697 libeay32:sm2_crypt.c.obj
698 libeay32:sm2_enc.c.obj
699 libeay32:sm2_key.c.obj
700 libeay32:sm2_sig.c.obj
701 libeay32:sm2_sign.c.obj
702 libeay32:sm3.c.obj
703 libeay32:sm3_prov.c.obj
704 libeay32:sm4.c.obj
705 libeay32:sparse_array.c.obj
706 libeay32:srp_lib.c.obj
707 libeay32:srp_vfy.c.obj
708 libeay32:sshkdf.c.obj
709 libeay32:sskdf.c.obj
710 libeay32:stack.c.obj
711 libeay32:store_lib.c.obj
712 libeay32:store_meth.c.obj
713 libeay32:store_register.c.obj
714 libeay32:store_result.c.obj
715 libeay32:t_pkey.c.obj
716 libeay32:t_x509.c.obj
717 libeay32:tasn_dec.c.obj
718 libeay32:tasn_enc.c.obj
719 libeay32:tasn_fre.c.obj
720 libeay32:tasn_new.c.obj
721 libeay32:tasn_prn.c.obj
722 libeay32:tasn_typ.c.obj
723 libeay32:tasn_utl.c.obj
724 libeay32:test_rng.c.obj
725 libeay32:thread_win.c.obj
726 libeay32:threads_win.c.obj
727 libeay32:time.c.obj
728 libeay32:tls1_prf.c.obj
729 libeay32:ui_lib.c.obj
730 libeay32:ui_openssl.c.obj
731 libeay32:ui_util.c.obj
732 libeay32:v3_admis.c.obj
733 libeay32:v3_akeya.c.obj
734 libeay32:v3_akid.c.obj
735 libeay32:v3_bcons.c.obj
736 libeay32:v3_bitst.c.obj
737 libeay32:v3_conf.c.obj
738 libeay32:v3_cpols.c.obj
739 libeay32:v3_crld.c.obj
740 libeay32:v3_enum.c.obj
741 libeay32:v3_extku.c.obj
742 libeay32:v3_genn.c.obj
743 libeay32:v3_group_ac.c.obj
744 libeay32:v3_ia5.c.obj
745 libeay32:v3_ind_iss.c.obj
746 libeay32:v3_info.c.obj
747 libeay32:v3_int.c.obj
748 libeay32:v3_ist.c.obj
749 libeay32:v3_lib.c.obj
750 libeay32:v3_ncons.c.obj
751 libeay32:v3_no_ass.c.obj
752 libeay32:v3_no_rev_avail.c.obj
753 libeay32:v3_ocsp.c.obj
754 libeay32:v3_pci.c.obj
755 libeay32:v3_pcia.c.obj
756 libeay32:v3_pcons.c.obj
757 libeay32:v3_pku.c.obj
758 libeay32:v3_pmaps.c.obj
759 libeay32:v3_prn.c.obj
760 libeay32:v3_purp.c.obj
761 libeay32:v3_san.c.obj
762 libeay32:v3_single_use.c.obj
763 libeay32:v3_skid.c.obj
764 libeay32:v3_soa_id.c.obj
765 libeay32:v3_sxnet.c.obj
766 libeay32:v3_tlsf.c.obj
767 libeay32:v3_utf8.c.obj
768 libeay32:v3_utl.c.obj
769 libeay32:winstore_store.c.obj
770 libeay32:wrap128.c.obj
771 libeay32:x509_att.c.obj
772 libeay32:x509_cmp.c.obj
773 libeay32:x509_d2.c.obj
774 libeay32:x509_def.c.obj
775 libeay32:x509_ext.c.obj
776 libeay32:x509_lu.c.obj
777 libeay32:x509_obj.c.obj
778 libeay32:x509_set.c.obj
779 libeay32:x509_trust.c.obj
780 libeay32:x509_txt.c.obj
781 libeay32:x509_v3.c.obj
782 libeay32:x509_vfy.c.obj
783 libeay32:x509_vpm.c.obj
784 libeay32:x509name.c.obj
785 libeay32:x942kdf.c.obj
786 libeay32:x_algor.c.obj
787 libeay32:x_all.c.obj
788 libeay32:x_attrib.c.obj
789 libeay32:x_bignum.c.obj
790 libeay32:x_crl.c.obj
791 libeay32:x_exten.c.obj
792 libeay32:x_info.c.obj
793 libeay32:x_int64.c.obj
794 libeay32:x_name.c.obj
795 libeay32:x_pkey.c.obj
796 libeay32:x_pubkey.c.obj
797 libeay32:x_sig.c.obj
798 libeay32:x_val.c.obj
799 libeay32:x_x509.c.obj
800 libeay32:x_x509a.c.obj
801 libeay32:xcbc_enc.c.obj
802 libeay32:xts128.c.obj
803 libeay32:xts128gb.c.obj
804 libucrt:87disp.obj
805 libucrt:87except.obj
806 libucrt:87tran.obj
807 libucrt:_ctype.obj
808 libucrt:_fenvutils.obj
809 libucrt:_filbuf.obj
810 libucrt:_file.obj
811 libucrt:_flsbuf.obj
812 libucrt:_fptostr.obj
813 libucrt:_freebuf.obj
814 libucrt:_getbuf.obj
815 libucrt:_sftbuf.obj
816 libucrt:_strnicm.obj
817 libucrt:_test.obj
818 libucrt:_wctype.obj
819 libucrt:abort.obj
820 libucrt:argv_data.obj
821 libucrt:argv_parsing.obj
822 libucrt:argv_wildcards.obj
823 libucrt:atof.obj
824 libucrt:atox.obj
825 libucrt:c16rtomb.obj
826 libucrt:c32rtomb.obj
827 libucrt:calloc.obj
828 libucrt:calloc_base.obj
829 libucrt:ceil.obj
830 libucrt:ceil_pentium4.obj
831 libucrt:cfout.obj
832 libucrt:checkcfg.obj
833 libucrt:chsize.obj
834 libucrt:close.obj
835 libucrt:closeall.obj
836 libucrt:commit.obj
837 libucrt:common.obj
838 libucrt:common_utf8.obj
839 libucrt:comparestringa.obj
840 libucrt:comparestringw.obj
841 libucrt:console_output_initializer.obj
842 libucrt:contrlfp.obj
843 libucrt:ctype.obj
844 libucrt:cvt.obj
845 libucrt:days.obj
846 libucrt:difftime.obj
847 libucrt:drive.obj
848 libucrt:environment_initialization.obj
849 libucrt:errno.obj
850 libucrt:exception_filter.obj
851 libucrt:exit.obj
852 libucrt:fclose.obj
853 libucrt:fegetenv.obj
854 libucrt:fegetround.obj
855 libucrt:feholdexcept.obj
856 libucrt:feoferr.obj
857 libucrt:fesetenv.obj
858 libucrt:fflush.obj
859 libucrt:fgetc.obj
860 libucrt:fgetpos.obj
861 libucrt:fgets.obj
862 libucrt:fileno.obj
863 libucrt:fmode_initializer.obj
864 libucrt:fopen.obj
865 libucrt:fp_flags.obj
866 libucrt:fpctrl.obj
867 libucrt:fpexcept.obj
868 libucrt:fputc.obj
869 libucrt:fputs.obj
870 libucrt:fread.obj
871 libucrt:free.obj
872 libucrt:free_base.obj
873 libucrt:frexp.obj
874 libucrt:frnd.obj
875 libucrt:fseek.obj
876 libucrt:fsetpos.obj
877 libucrt:ftell.obj
878 libucrt:fullpath.obj
879 libucrt:fwrite.obj
880 libucrt:genexcep.obj
881 libucrt:get_environment_from_os.obj
882 libucrt:get_qualified_locale.obj
883 libucrt:getcwd.obj
884 libucrt:getenv.obj
885 libucrt:getlocaleinfoa.obj
886 libucrt:getmodulefilenamea.obj
887 libucrt:getpid.obj
888 libucrt:getqloc_downlevel.obj
889 libucrt:getstringtypea.obj
890 libucrt:getstringtypew.obj
891 libucrt:glstatus.obj
892 libucrt:gmtime.obj
893 libucrt:heap_handle.obj
894 libucrt:ieee87.obj
895 libucrt:ieeemisc.obj
896 libucrt:initcon.obj
897 libucrt:initctype.obj
898 libucrt:initialization.obj
899 libucrt:initmon.obj
900 libucrt:initnum.obj
901 libucrt:initterm.obj
902 libucrt:inittime.obj
903 libucrt:input.obj
904 libucrt:invalid_parameter.obj
905 libucrt:ioinit.obj
906 libucrt:isatty.obj
907 libucrt:isctype.obj
908 libucrt:ismbbyte.obj
909 libucrt:iswctype.obj
910 libucrt:lcidtoname_downlevel.obj
911 libucrt:lcmapstringa.obj
912 libucrt:lcmapstringw.obj
913 libucrt:libm_error.obj
914 libucrt:locale_initializer.obj
915 libucrt:locale_refcounting.obj
916 libucrt:locale_update.obj
917 libucrt:localeconv.obj
918 libucrt:localtime.obj
919 libucrt:locks.obj
920 libucrt:loctotime.obj
921 libucrt:log10_impl.obj
922 libucrt:log10_pentium4.obj
923 libucrt:log10_sse2_precise.obj
924 libucrt:log10_tables.obj
925 libucrt:lseek.obj
926 libucrt:malloc.obj
927 libucrt:malloc_base.obj
928 libucrt:matherr.obj
929 libucrt:mathfcns.obj
930 libucrt:mbctype.obj
931 libucrt:mbrtoc32.obj
932 libucrt:mbrtowc.obj
933 libucrt:mbschr.obj
934 libucrt:mbscmp.obj
935 libucrt:mbsdec.obj
936 libucrt:mbsstr.obj
937 libucrt:mbstowcs.obj
938 libucrt:mbsupr.obj
939 libucrt:mbtowc.obj
940 libucrt:mktime.obj
941 libucrt:modf.obj
942 libucrt:modf_pentium4.obj
943 libucrt:msize.obj
944 libucrt:multibyte_initializer.obj
945 libucrt:multibytetowidechar.obj
946 libucrt:nan.obj
947 libucrt:ncommode.obj
948 libucrt:new_handler.obj
949 libucrt:new_mode.obj
950 libucrt:nlsdata.obj
951 libucrt:onexit.obj
952 libucrt:open.obj
953 libucrt:openfile.obj
954 libucrt:osfinfo.obj
955 libucrt:output.obj
956 libucrt:peb_access.obj
957 libucrt:per_thread_data.obj
958 libucrt:powhlp.obj
959 libucrt:printf_count_output.obj
960 libucrt:putwch.obj
961 libucrt:qsort.obj
962 libucrt:rand.obj
963 libucrt:read.obj
964 libucrt:realloc.obj
965 libucrt:realloc_base.obj
966 libucrt:recalloc.obj
967 libucrt:report_runtime_error.obj
968 libucrt:round.obj
969 libucrt:setenv.obj
970 libucrt:setenvironmentvariablea.obj
971 libucrt:setlocale.obj
972 libucrt:setmode.obj
973 libucrt:setvbuf.obj
974 libucrt:shared_initialization.obj
975 libucrt:signal.obj
976 libucrt:sse2_initializer.obj
977 libucrt:stat.obj
978 libucrt:stdio_initializer.obj
979 libucrt:strcat_s.obj
980 libucrt:strcmp.obj
981 libucrt:strcpy_s.obj
982 libucrt:strcspn.obj
983 libucrt:strdup.obj
984 libucrt:stream.obj
985 libucrt:strerror.obj
986 libucrt:strftime.obj
987 libucrt:stricmp.obj
988 libucrt:strlwr.obj
989 libucrt:strncat.obj
990 libucrt:strncmp.obj
991 libucrt:strncnt.obj
992 libucrt:strncpy.obj
993 libucrt:strncpy_s.obj
994 libucrt:strnicmp.obj
995 libucrt:strnicol.obj
996 libucrt:strnlen.obj
997 libucrt:strpbrk.obj
998 libucrt:strrev.obj
999 libucrt:strspn.obj
1000 libucrt:strtox.obj
1001 libucrt:syserr.obj
1002 libucrt:terminate.obj
1003 libucrt:time.obj
1004 libucrt:timeset.obj
1005 libucrt:timeset_initializer.obj
1006 libucrt:tolower_toupper.obj
1007 libucrt:towlower.obj
1008 libucrt:towupper.obj
1009 libucrt:txtmode.obj
1010 libucrt:tzset.obj
1011 libucrt:umask.obj
1012 libucrt:ungetc.obj
1013 libucrt:wcrtomb.obj
1014 libucrt:wcscat_s.obj
1015 libucrt:wcscpy_s.obj
1016 libucrt:wcscspn.obj
1017 libucrt:wcsdup.obj
1018 libucrt:wcsftime.obj
1019 libucrt:wcsicmp.obj
1020 libucrt:wcslwr.obj
1021 libucrt:wcsncat_s.obj
1022 libucrt:wcsncmp.obj
1023 libucrt:wcsncpy.obj
1024 libucrt:wcsncpy_s.obj
1025 libucrt:wcsnicmp.obj
1026 libucrt:wcsnicol.obj
1027 libucrt:wcspbrk.obj
1028 libucrt:wcstombs.obj
1029 libucrt:wctomb.obj
1030 libucrt:widechartomultibyte.obj
1031 libucrt:win_policies.obj
1032 libucrt:winapi_thunks.obj
1033 libucrt:wmemcpy_s.obj
1034 libucrt:write.obj
1035 libucrt:wsetlocale.obj
1036 libucrt:xtoa.obj
1037 libvcruntime:chandler4.obj
1038 libvcruntime:ehhelpers.obj
1039 libvcruntime:ehstate.obj
1040 libvcruntime:exsup.obj
1041 libvcruntime:exsup4.obj
1042 libvcruntime:frame.obj
1043 libvcruntime:initialization.obj
1044 libvcruntime:jbcxrval.obj
1045 libvcruntime:locks.obj
1046 libvcruntime:lowhelpr.obj
1047 libvcruntime:memchr.obj
1048 libvcruntime:memcmp.obj
1049 libvcruntime:memcpy.obj
1050 libvcruntime:memset.obj
1051 libvcruntime:per_thread_data.obj
1052 libvcruntime:purevirt.obj
1053 libvcruntime:purevirt_data.obj
1054 libvcruntime:std_exception.obj
1055 libvcruntime:std_type_info.obj
1056 libvcruntime:strchr.obj
1057 libvcruntime:strrchr.obj
1058 libvcruntime:strstr.obj
1059 libvcruntime:throw.obj
1060 libvcruntime:trnsctrl.obj
1061 libvcruntime:uncaught_exception.obj
1062 libvcruntime:uncaught_exceptions.obj
1063 libvcruntime:undname.obj
1064 libvcruntime:unexpected.obj
1065 libvcruntime:wcschr.obj
1066 libvcruntime:wcsrchr.obj
1067 libvcruntime:wcsstr.obj
1068 libvcruntime:winapi_downlevel.obj
1069 neon:ne_207.c.obj
1070 neon:ne_alloc.c.obj
1071 neon:ne_auth.c.obj
1072 neon:ne_basic.c.obj
1073 neon:ne_dates.c.obj
1074 neon:ne_locks.c.obj
1075 neon:ne_openssl.c.obj
1076 neon:ne_props.c.obj
1077 neon:ne_redirect.c.obj
1078 neon:ne_request.c.obj
1079 neon:ne_session.c.obj
1080 neon:ne_socket.c.obj
1081 neon:ne_socks.c.obj
1082 neon:ne_sspi.c.obj
1083 neon:ne_string.c.obj
1084 neon:ne_uri.c.obj
1085 neon:ne_utils.c.obj
1086 neon:ne_xml.c.obj
1087 neon:ne_xmlreq.c.obj
1088 putty:aes-common.c.obj
1089 putty:aes-select.c.obj
1090 putty:aes-sw.c.obj
1091 putty:aesgcm-select.c.obj
1092 putty:aesgcm-sw.c.obj
1093 putty:agent-client.c.obj
1094 putty:agent_named_pipe_name.c.obj
1095 putty:agentf.c.obj
1096 putty:antispoof.c.obj
1097 putty:arcfour.c.obj
1098 putty:argon2.c.obj
1099 putty:backend_socket_log.c.obj
1100 putty:base64_decode_atom.c.obj
1101 putty:base64_encode_atom.c.obj
1102 putty:blake2.c.obj
1103 putty:blowfish.c.obj
1104 putty:bpp-bare.c.obj
1105 putty:bpp2.c.obj
1106 putty:bufchain.c.obj
1107 putty:callback.c.obj
1108 putty:censor2.c.obj
1109 putty:cert-expr.c.obj
1110 putty:chacha20-poly1305.c.obj
1111 putty:common_p.c.obj
1112 putty:conf.c.obj
1113 putty:connection2-client.c.obj
1114 putty:connection2.c.obj
1115 putty:cproxy.c.obj
1116 putty:cryptoapi.c.obj
1117 putty:default_description.c.obj
1118 putty:defaults.c.obj
1119 putty:des.c.obj
1120 putty:diffie-hellman.c.obj
1121 putty:dsa.c.obj
1122 putty:dup_mb_to_wc.c.obj
1123 putty:dupcat.c.obj
1124 putty:dupprintf.c.obj
1125 putty:dupstr.c.obj
1126 putty:ecc-arithmetic.c.obj
1127 putty:ecc-ssh.c.obj
1128 putty:errsock.c.obj
1129 putty:escape_registry_key.c.obj
1130 putty:filename.c.obj
1131 putty:fontspec.c.obj
1132 putty:get_system_dir.c.obj
1133 putty:get_username.c.obj
1134 putty:gss.c.obj
1135 putty:gssc.c.obj
1136 putty:handle-io.c.obj
1137 putty:handle-socket.c.obj
1138 putty:handle-wait.c.obj
1139 putty:hash_simple.c.obj
1140 putty:hmac.c.obj
1141 putty:host_strchr_internal.c.obj
1142 putty:host_strduptrim.c.obj
1143 putty:http_p.c.obj
1144 putty:import.c.obj
1145 putty:interactor.c.obj
1146 putty:kex2-client.c.obj
1147 putty:key_components.c.obj
1148 putty:load_system32_dll.c.obj
1149 putty:local-proxy.c.obj
1150 putty:local.c.obj
1151 putty:log_proxy_stderr.c.obj
1152 putty:logging.c.obj
1153 putty:ltime.c.obj
1154 putty:mac.c.obj
1155 putty:mac_simple.c.obj
1156 putty:mainchan.c.obj
1157 putty:make_spr_sw_abort_static.c.obj
1158 putty:marshal.c.obj
1159 putty:md5.c.obj
1160 putty:memory.c.obj
1161 putty:mpint.c.obj
1162 putty:named-pipe-client.c.obj
1163 putty:network.c.obj
1164 putty:noise.c.obj
1165 putty:ntru.c.obj
1166 putty:null-key.c.obj
1167 putty:null-opener.c.obj
1168 putty:open_for_write_would_lose_data.c.obj
1169 putty:openssh-certs.c.obj
1170 putty:out_of_memory.c.obj
1171 putty:pgssapi.c.obj
1172 putty:portfwd.c.obj
1173 putty:prng.c.obj
1174 putty:prompts.c.obj
1175 putty:proxy.c.obj
1176 putty:ptrlen.c.obj
1177 putty:registry.c.obj
1178 putty:rfc6979.c.obj
1179 putty:rsa.c.obj
1180 putty:seat_connection_fatal.c.obj
1181 putty:seat_dialog_text.c.obj
1182 putty:security_p.c.obj
1183 putty:settings.c.obj
1184 putty:sha1-common.c.obj
1185 putty:sha1-select.c.obj
1186 putty:sha1-sw.c.obj
1187 putty:sha256-common.c.obj
1188 putty:sha256-select.c.obj
1189 putty:sha256-sw.c.obj
1190 putty:sha3.c.obj
1191 putty:sha512-common.c.obj
1192 putty:sha512-select.c.obj
1193 putty:sha512-sw.c.obj
1194 putty:sharing.c.obj
1195 putty:smemclr.c.obj
1196 putty:socks4.c.obj
1197 putty:socks5.c.obj
1198 putty:spr_get_error_message.c.obj
1199 putty:ssh.c.obj
1200 putty:sshpubk.c.obj
1201 putty:sshrand.c.obj
1202 putty:sshutils.c.obj
1203 putty:storage.c.obj
1204 putty:strbuf.c.obj
1205 putty:telnet.c.obj
1206 putty:tempseat.c.obj
1207 putty:transient-hostkey-cache.c.obj
1208 putty:transport2.c.obj
1209 putty:tree234.c.obj
1210 putty:userauth2-client.c.obj
1211 putty:verstring.c.obj
1212 putty:wildcard.c.obj
1213 putty:win_strerror.c.obj
1214 putty:write_c_string_literal.c.obj
1215 putty:zlib.c.obj
1216 puttyvs:aes-ni.c.obj
1217 puttyvs:aes-sw.c.obj
1218 puttyvs:argon2.c.obj
1219 puttyvs:sha256-sw.c.obj
1220 s3:bucket.c.obj
1221 s3:bucket_metadata.c.obj
1222 s3:error_parser.c.obj
1223 s3:general.c.obj
1224 s3:mingw_functions.c.obj
1225 s3:multipart.c.obj
1226 s3:object.c.obj
1227 s3:request.c.obj
1228 s3:response_headers_handler.c.obj
1229 s3:service.c.obj
1230 s3:simplexml.c.obj
1231 s3:util.c.obj
1232 secur32:Secur32.dll
1233 shell32:SHELL32.dll
1234 shlwapi:SHLWAPI.dll
1235 ssleay32:bio_ssl.c.obj
1236 ssleay32:d1_lib.c.obj
1237 ssleay32:d1_msg.c.obj
1238 ssleay32:dtls_meth.c.obj
1239 ssleay32:extensions.c.obj
1240 ssleay32:extensions_clnt.c.obj
1241 ssleay32:extensions_cust.c.obj
1242 ssleay32:extensions_srvr.c.obj
1243 ssleay32:methods.c.obj
1244 ssleay32:pqueue.c.obj
1245 ssleay32:rec_layer_d1.c.obj
1246 ssleay32:rec_layer_s3.c.obj
1247 ssleay32:s3_enc.c.obj
1248 ssleay32:s3_lib.c.obj
1249 ssleay32:s3_msg.c.obj
1250 ssleay32:ssl3_cbc.c.obj
1251 ssleay32:ssl3_meth.c.obj
1252 ssleay32:ssl_asn1.c.obj
1253 ssleay32:ssl_cert.c.obj
1254 ssleay32:ssl_ciph.c.obj
1255 ssleay32:ssl_conf.c.obj
1256 ssleay32:ssl_init.c.obj
1257 ssleay32:ssl_lib.c.obj
1258 ssleay32:ssl_mcnf.c.obj
1259 ssleay32:ssl_rsa.c.obj
1260 ssleay32:ssl_sess.c.obj
1261 ssleay32:ssl_stat.c.obj
1262 ssleay32:statem.c.obj
1263 ssleay32:statem_clnt.c.obj
1264 ssleay32:statem_dtls.c.obj
1265 ssleay32:statem_lib.c.obj
1266 ssleay32:statem_srvr.c.obj
1267 ssleay32:t1_enc.c.obj
1268 ssleay32:t1_lib.c.obj
1269 ssleay32:tls13_enc.c.obj
1270 ssleay32:tls13_meth.c.obj
1271 ssleay32:tls1_meth.c.obj
1272 ssleay32:tls_common.c.obj
1273 ssleay32:tls_depr.c.obj
1274 ssleay32:tls_multib.c.obj
1275 ssleay32:tls_pad.c.obj
1276 ssleay32:tls_srp.c.obj
1277 ssleay32:tlsany_meth.c.obj
1278 structures.cpp.obj
1279 tinylog:LogStream.cpp.obj
1280 tinylog:TinyLog.cpp.obj
1281 tinylog:Utils.cpp.obj
1282 tinyxml2:tinyxml2.cpp.obj
1283 user32:USER32.dll

SYMBOLS
0 1 ___AbsoluteZero
100 1 ___guard_flags
623 1 ___safe_se_handler_count
1000 545 __x86_DES_encrypt
1720 545 __x86_DES_decrypt
1E40 545 _DES_encrypt1
1EAC 545 L$000pic_point
1ECA 545 L$001decrypt
1ECF 545 L$002done
1F40 545 _DES_encrypt2
1F5E 545 L$003pic_point
1F7C 545 L$004decrypt
1F81 545 L$005done
1FA0 545 _DES_encrypt3
20D0 545 _DES_decrypt3
2200 545 _DES_ncbc_encrypt
2244 545 L$008encrypt_loop
2276 545 L$007encrypt_finish
2288 545 L$010PIC_point
229A 545 L$012ej7
22A0 545 L$013ej6
22A3 545 L$014ej5
22A6 545 L$015ej4
22AD 545 L$017ej3
22B3 545 L$018ej2
22B6 545 L$019ej1
22B8 545 L$016ejend
22DB 545 L$006decrypt
22EC 545 L$021decrypt_loop
2333 545 L$020decrypt_finish
236B 545 L$022dj7
2374 545 L$023dj6
2377 545 L$024dj5
237A 545 L$025dj4
2381 545 L$027dj3
238A 545 L$028dj2
238D 545 L$029dj1
238F 545 L$026djend
2394 545 L$009finish
23C0 545 L$011cbc_enc_jmp_table
2400 545 _DES_ede3_cbc_encrypt
244D 545 L$032encrypt_loop
247F 545 L$031encrypt_finish
2491 545 L$034PIC_point
24A3 545 L$036ej7
24A9 545 L$037ej6
24AC 545 L$038ej5
24AF 545 L$039ej4
24B6 545 L$041ej3
24BC 545 L$042ej2
24BF 545 L$043ej1
24C1 545 L$040ejend
24E4 545 L$030decrypt
24F5 545 L$045decrypt_loop
253C 545 L$044decrypt_finish
2574 545 L$046dj7
257D 545 L$047dj6
2580 545 L$048dj5
2583 545 L$049dj4
258A 545 L$051dj3
2593 545 L$052dj2
2596 545 L$053dj1
2598 545 L$050djend
259D 545 L$033finish
25C0 545 L$035cbc_enc_jmp_table
2600 545 _DES_SPtrans
2E00 542 __x86_AES_encrypt_compact
2E40 542 L$000loop
3160 542 __sse_AES_encrypt_compact
31A0 542 L$001loop
3360 542 L$002out
3370 542 __x86_AES_encrypt
3390 542 L$003loop
35C0 542 L$AES_Te
4200 542 _AES_encrypt
422F 542 L$004pic_point
4280 542 L$005x86
42B0 542 __x86_AES_decrypt_compact
42F0 542 L$006loop
4730 542 __sse_AES_decrypt_compact
4770 542 L$007loop
49F0 542 L$008out
4A00 542 __x86_AES_decrypt
4A20 542 L$009loop
4C40 542 L$AES_Td
5840 542 _AES_decrypt
586F 542 L$010pic_point
58C0 542 L$011x86
58F0 542 _AES_cbc_encrypt
5906 542 L$013pic_point
5924 542 L$014picked_te
5980 542 L$016tbl_break_out
5990 542 L$017tbl_ok
59FC 542 L$018do_copy
5A04 542 L$019skip_copy
5A0C 542 L$020prefetch_tbl
5A50 542 L$022fast_enc_loop
5AD0 542 L$023skip_ezero
5AD5 542 L$012drop_out
5AE0 542 L$021fast_decrypt
5AF0 542 L$025fast_dec_loop
5B70 542 L$024fast_dec_in_place
5BF0 542 L$026fast_dec_out
5C10 542 L$028skip_dzero
5C20 542 L$015slow_way
5CC0 542 L$032slow_enc_loop_sse
5D30 542 L$031slow_enc_x86
5D38 542 L$033slow_enc_loop_x86
5DC0 542 L$030slow_enc_tail
5DDD 542 L$034enc_in_place
5DE0 542 L$035enc_skip_in_place
5E00 542 L$029slow_decrypt
5E0C 542 L$037slow_dec_loop_sse
5E80 542 L$038slow_dec_partial_sse
5EA0 542 L$036slow_dec_loop_x86
5F30 542 L$039slow_dec_partial_x86
5F80 542 __x86_AES_set_encrypt_key
5FA9 542 L$041pic_point
6000 542 L$04210rounds
6020 542 L$04710loop
6025 542 L$04610shortcut
6090 542 L$04312rounds
60BC 542 L$04912loop
60C1 542 L$04812shortcut
612F 542 L$05012break
613D 542 L$04414rounds
6174 542 L$05214loop
6177 542 L$05114shortcut
6229 542 L$05314break
6237 542 L$040badpointer
623C 542 L$045exit
6250 542 _AES_set_encrypt_key
6260 542 _AES_set_decrypt_key
626F 542 L$054proceed
6288 542 L$055invert
62DC 542 L$056permute
6540 544 _CAST_encrypt
69C3 544 L$000cast_enc_done
69E0 544 _CAST_decrypt
6B19 544 L$001cast_dec_skip
6E70 544 _CAST_cbc_encrypt
6EB3 544 L$004encrypt_loop
6EED 544 L$003encrypt_finish
6EFF 544 L$006PIC_point
6F11 544 L$008ej7
6F17 544 L$009ej6
6F1A 544 L$010ej5
6F1D 544 L$011ej4
6F24 544 L$013ej3
6F2A 544 L$014ej2
6F2D 544 L$015ej1
6F2F 544 L$012ejend
6F5A 544 L$002decrypt
6F6B 544 L$017decrypt_loop
6FBA 544 L$016decrypt_finish
6FFA 544 L$018dj7
7003 544 L$019dj6
7006 544 L$020dj5
7009 544 L$021dj4
7010 544 L$023dj3
7019 544 L$024dj2
701C 544 L$025dj1
701E 544 L$022djend
7023 544 L$005finish
7040 544 L$007cbc_enc_jmp_table
7080 546 _RC4
7120 546 L$005loop_mmx
714A 546 L$004loop_mmx_enter
7270 546 L$003go4loop4
7278 546 L$007loop4
7320 546 L$002loop1
7360 546 L$001RC4_CHAR
7364 546 L$008cloop1
738F 546 L$006done
7397 546 L$000abort
73A0 546 _RC4_set_key
73D0 546 L$010w1stloop
73E0 546 L$011w2ndloop
73F7 546 L$012wnowrap
7410 546 L$009c1stloop
7430 546 L$014c2ndloop
7447 546 L$015cnowrap
7460 546 L$013exit
7470 546 _RC4_options
7475 546 L$016pic_point
7499 546 L$0181xchar
749C 546 L$019ret
74C0 546 L$017opts
7540 543 _BF_encrypt
7960 543 _BF_decrypt
7D80 543 _BF_cbc_encrypt
7DC3 543 L$002encrypt_loop
7DFD 543 L$001encrypt_finish
7E0F 543 L$004PIC_point
7E21 543 L$006ej7
7E27 543 L$007ej6
7E2A 543 L$008ej5
7E2D 543 L$009ej4
7E34 543 L$011ej3
7E3A 543 L$012ej2
7E3D 543 L$013ej1
7E3F 543 L$010ejend
7E6A 543 L$000decrypt
7E7B 543 L$015decrypt_loop
7ECA 543 L$014decrypt_finish
7F0A 543 L$016dj7
7F13 543 L$017dj6
7F16 543 L$018dj5
7F19 543 L$019dj4
7F20 543 L$021dj3
7F29 543 L$022dj2
7F2C 543 L$023dj1
7F2E 543 L$020djend
7F33 543 L$003finish
7F80 543 L$005cbc_enc_jmp_table
7FD0 11 ??__EYearlyDateTimeParams@@YAXXZ
8020 11 ??__EDateTimeParamsSection@@YAXXZ
8040 11 ??__EGPackageName@@YAXXZ
80A0 11 ??__EADefaultEncodingName@@YAXXZ
8100 11 ??__EParentProcessName@@YAXXZ
8160 11 ??__EAncestorProcessNames@@YAXXZ
81C0 57 ??__EPuttyStorageSection@@YAXXZ
8210 27 ??__EFileMasksDelimiters@@YAXXZ
8270 27 ??__EAllFileMasksDelimiters@@YAXXZ
8290 27 ??__EDirectoryMaskDelimiters@@YAXXZ
82F0 27 ??__EFileMasksDelimiterStr@@YAXXZ
83D0 27 ??__EMaskSymbols@@YAXXZ
8430 59 ??__EProxyMethodMapping@@YAXXZ
86C0 59 ??__EPasswordFilesCacheSection@@YAXXZ
8710 59 ??__EPasswordFilesCache@@YAXXZ
8760 55 ??__ELibS3Section@@YAXXZ
87B0 55 ??__ES3ConfigFileName@@YAXXZ
8810 55 ??__ES3ConfigTimestamp@@YAXXZ
8820 55 ??__ES3Profile@@YAXXZ
8880 55 ??__ES3CredentialsExpiration@@YAXXZ
8890 55 ??__ES3SecurityProfile@@YAXXZ
88F0 55 ??__ES3Credentials@@YAXXZ
8940 52 ??__EPuttyRegistrySection@@YAXXZ
8960 52 ??__EPuttyRegistryTypes@@YAXXZ
89B0 16 ??__EOpensslInitializationErrors@@YAXXZ
8A10 41 ??__EEscapedBom@@YAXXZ
8AF0 41 ??__EAutoSwitchMapping@@YAXXZ
8B40 41 ??__EAutoSwitchReversedMapping@@YAXXZ
8B90 41 ??__EBoolMapping@@YAXXZ
8D90 41 ??__EAccessValueName@@YAXXZ
8DF0 41 ??__EDefaultAccessString@@YAXXZ
8E50 47 ??__EDebugSection@@YAXXZ
8EA0 47 ??__ENeonTerminals@@YAXXZ
8EE0 39 ??__E?FSection@TPuttyCleanupThread@@0V?$unique_ptr@VTCriticalSection@@U?$default_delete@VTCriticalSection@@@std@@@std@@A@@YAXXZ
8F30 38 ??__E?FInvalidChars@TCopyParamList@@0VUnicodeString@@A@@YAXXZ
8F90 51 ??__EProgramParamsOwner@@YAXXZ
8FA0 73 ??__ELastGUIUpdate@@YAXXZ
8FB0 8 ??__E?m_sCriticalSection@CAsyncSslSocketLayer@@0V?$unique_ptr@VTCriticalSection@@U?$default_delete@VTCriticalSection@@@std@@@std@@A@@YAXXZ
9000 6 ??__E?m_sGlobalCriticalSection@CAsyncSocketEx@@1VCCriticalSectionWrapper@@A@@YAXXZ
9020 34 ??__E?m_InstanceList@CFtpControlSocket@@1PAV?$list@Ut_ActiveList@CFtpControlSocket@@U?$custom_nballocator_t@Ut_ActiveList@CFtpControlSocket@@@nb@@@std@@A@@YAXXZ
9050 34 ??__E?m_CurrentTransferTime@CFtpControlSocket@@1PAVCTime@ATL@@A@@YAXXZ
9090 34 ??__E?m_SpeedLimitSync@CFtpControlSocket@@1VCCriticalSectionWrapper@@A@@YAXXZ
90B0 88 ??__Eengine@@YAXXZ
90F0 88 ??__EEmptyStr@Sysutils@@YAXXZ
9150 84 ??__E_afxThreadState@@YAXXZ
9160 84 ??__E_afxBaseModuleState@@YAXXZ
9170 82 ??__EafxGlobalData@@YAXXZ
9280 82 ??__E_simpleMemoryException@@YAXXZ
9290 82 ??__E_simpleNotSupportedException@@YAXXZ
92A0 82 ??__E_simpleInvalidArgException@@YAXXZ
92AC 165 ??__Einitlocks@std@@YAXXZ
92C2 153 ??__E_Fac_tidy_reg@std@@YAXXZ
92CE 153 ??__Eclassic_locale@std@@YAXXZ
92DA 148 ??__Ecerr@std@@YAXXZ
92F9 148 ??__Eferr@std@@YAXXZ
9333 148 ??__Einit_cerr@std@@YAXXZ
933D 148 ??__Einitlocks@@YAXXZ
9353 151 ??__Einit_atexit@@YAXXZ
935F 151 ??__Einitlocks@std@@YAXXZ
9380 11 ?fpclassify@@YAHN@Z
93A0 11 ??0exception@std@@QAE@QBD@Z
93E0 11 ??0exception@std@@QAE@ABV01@@Z
9410 11 ?what@exception@std@@UBEPBDXZ
9420 0 ??_EFormatError@fmt@@UAEPAXI@Z
9450 102 ??1FormatError@fmt@@UAE@XZ
9470 11 ??0bad_array_new_length@std@@QAE@XZ
9490 11 ?_Throw_bad_array_new_length@std@@YAXXZ
94B0 11 ??0bad_array_new_length@std@@QAE@ABV01@@Z
94E0 11 ??0bad_alloc@std@@QAE@ABV01@@Z
9510 11 ?_Xlen_string@std@@YAXXZ
9520 11 ??0runtime_error@std@@QAE@PBD@Z
9560 11 ??0runtime_error@std@@QAE@ABV01@@Z
9590 11 ?default_error_condition@error_category@std@@UBE?AVerror_condition@2@H@Z
95A0 11 ?equivalent@error_category@std@@UBE_NHABVerror_condition@2@@Z
95E0 11 ?equivalent@error_category@std@@UBE_NABVerror_code@2@H@Z
9610 11 ?make_error_code@std@@YA?AVerror_code@1@W4io_errc@1@@Z
9630 11 ??0_System_error@std@@IAE@Verror_code@1@ABV?$basic_string@DU?$char_traits@D@std@@V?$allocator@D@2@@1@@Z
97E0 0 ??_E_System_error@std@@UAEPAXI@Z
9810 11 ??0system_error@std@@QAE@ABV01@@Z
9860 11 ??0_System_error@std@@QAE@ABV01@@Z
98A0 11 ?name@_Iostream_error_category2@std@@UBEPBDXZ
98B0 11 ?message@_Iostream_error_category2@std@@UBE?AV?$basic_string@DU?$char_traits@D@std@@V?$allocator@D@2@@2@H@Z
9960 0 ??_E_Iostream_error_category2@std@@UAEPAXI@Z
9980 11 ??0FormatError@fmt@@QAE@V?$BasicCStringRef@D@1@@Z
99C0 11 ??0FormatError@fmt@@QAE@ABV01@@Z
99F0 11 ?count_digits@internal@fmt@@YAI_K@Z
9A60 11 ?count_digits@internal@fmt@@YAII@Z
9A90 11 ?flag@FormatSpec@fmt@@QBE_NI@Z
9AA0 11 ?type@FormatSpec@fmt@@QBEDXZ
9AB0 11 ?format@fmt@@YA?AV?$basic_string@DU?$char_traits@D@std@@V?$allocator@D@2@@std@@V?$BasicCStringRef@D@1@VArgList@1@@Z
9C00 11 ??1?$BasicMemoryWriter@DU?$custom_nballocator_t@D@nb@@@fmt@@UAE@XZ
9C30 11 ?require_numeric_argument@internal@fmt@@YAXABUArg@12@D@Z
9CC0 0 ??_E_Facet_base@std@@UAEPAXI@Z
9CF0 11 ??0_Locinfo@std@@QAE@PBD@Z
9DA0 11 ??1_Locinfo@std@@QAE@XZ
9E80 11 ?_Incref@facet@locale@std@@UAEXXZ
9E90 11 ?_Decref@facet@locale@std@@UAEPAV_Facet_base@3@XZ
9EB0 11 ??1locale@std@@QAE@XZ
9ED0 11 ?do_is@?$ctype@_W@std@@MBE_NF_W@Z
9EF0 11 ?do_is@?$ctype@_W@std@@MBEPB_WPB_W0PAF@Z
9F10 11 ?do_scan_is@?$ctype@_W@std@@MBEPB_WFPB_W0@Z
9F50 11 ?do_scan_not@?$ctype@_W@std@@MBEPB_WFPB_W0@Z
9F90 11 ?do_tolower@?$ctype@_W@std@@MBE_W_W@Z
9FB0 11 ?do_tolower@?$ctype@_W@std@@MBEPB_WPA_WPB_W@Z
9FF0 11 ?do_toupper@?$ctype@_W@std@@MBE_W_W@Z
A010 11 ?do_toupper@?$ctype@_W@std@@MBEPB_WPA_WPB_W@Z
A050 11 ?do_widen@?$ctype@_W@std@@MBE_WD@Z
A0A0 11 ?do_widen@?$ctype@_W@std@@MBEPBDPBD0PA_W@Z
A120 11 ?do_narrow@?$ctype@_W@std@@MBED_WD@Z
A180 11 ?do_narrow@?$ctype@_W@std@@MBEPB_WPB_W0DPAD@Z
A210 0 ??_E?$ctype@_W@std@@MAEPAXI@Z
A260 11 ??0failure@ios_base@std@@QAE@PBDABVerror_code@2@@Z
A360 11 ?clear@ios_base@std@@QAEXH_N@Z
A3E0 11 ??0ios_base@std@@IAE@XZ
A440 11 ?_Init@ios_base@std@@IAEXXZ
A510 11 ??0failure@ios_base@std@@QAE@ABV012@@Z
A560 0 ??_Eios_base@std@@UAEPAXI@Z
A5D0 11 ?_Throw_tree_length_error@std@@YAXXZ
A5E0 11 ?ToInt32@nb@@YAH_J@Z
A5F0 75 ??$ToObj@PAX@@YAPAVTObject@@ABQAX@Z
A600 11 ??0UnicodeString@@QAE@$$QAV0@@Z
A630 11 ??0UnicodeString@@QAE@H_W@Z
A720 11 ?Length@RawByteString@@QBEHXZ
A730 11 ?IsEmpty@RawByteString@@QBE_NXZ
A740 11 ?Clear@UnicodeString@@QAEAAV1@XZ
A750 11 ?UpperCase@UnicodeString@@QAEAAV1@XZ
A820 11 ??4UnicodeString@@QAEAAV0@$$QAV0@@Z
A840 11 ??8UnicodeString@@QBE_NABV0@@Z
A890 11 ??9UnicodeString@@QBE_NABV0@@Z
A8E0 34 ??2CApiLog@@SAPAXI@Z
A910 22 ??$nb_free@UEditorInfo@@@@YAXPBUEditorInfo@@@Z
A920 11 ?is@Exception@@UBE_NG@Z
A930 11 ??1TDateTime@@UAE@XZ
A940 0 ??_ETObject@@UAEPAXI@Z
A970 11 ??1?$CMSimpleStringT@_W@@QAE@XZ
A9B0 11 ??1TStringList@@UAE@XZ
A9F0 11 ??0TDateTime@@QAE@ABV0@@Z
AA20 11 ??BTDateTime@@QBENXZ
AA30 0 ??_ETDateTime@@UAEPAXI@Z
AA60 11 ?GetZero@TTimeSpan@@SA?AV1@XZ
AA80 11 ??1EAbort@@UAE@XZ
AAC0 0 ??_EEAbort@@UAEPAXI@Z
AB30 11 ??0UnicodeString@@QAE@XZ
AB40 11 ?is@EAbort@@UBE_NG@Z
AB60 11 ??0EAbort@@QAE@ABVUnicodeString@@@Z
AB90 11 ?Create@TFormatSettings@Sysutils@@SA?AU12@K@Z
ABA0 11 ??1TFormatSettings@Sysutils@@UAE@XZ
AD00 11 ?is@EConvertError@Sysutils@@UBE_NG@Z
AD20 11 ??0EConvertError@Sysutils@@QAE@ABVUnicodeString@@@Z
AD50 11 ?is@ExtException@@UBE_NG@Z
AD70 11 ??0ExtException@@QAE@ABV0@@Z
ADF0 0 ??_EECRTExtException@@UAEPAXI@Z
AE30 11 ??0Exception@@QAE@ABV0@@Z
AE60 11 ?is@EOSExtException@@UBE_NG@Z
AE90 11 ?Abort@@YAXABVUnicodeString@@@Z
AEB0 11 ??0EAbort@@QAE@ABV0@@Z
AEE0 11 ?Error@@YAXHH@Z
AF60 11 ?ThrowNotImplemented@@YAXH@Z
AF70 11 ?ThrowExtException@@YAXXZ
AFE0 11 ?IsUnixStyleWindowsPath@base@@YA_NABVUnicodeString@@@Z
B020 11 ?UnixIsAbsolutePath@base@@YA_NABVUnicodeString@@@Z
B060 11 ?UnixIncludeTrailingBackslash@base@@YA?AVUnicodeString@@ABV2@@Z
B1A0 11 ?UnixExcludeTrailingBackslash@base@@YA?AVUnicodeString@@ABV2@_N@Z
B3A0 11 ?UnixSamePath@base@@YA_NABVUnicodeString@@0@Z
B4B0 11 ?UnixIsChildPath@base@@YA_NABVUnicodeString@@0@Z
B600 11 ?UnixExtractFileDir@base@@YA?AVUnicodeString@@ABV2@@Z
B770 11 ?UnixExtractFilePath@base@@YA?AVUnicodeString@@ABV2@@Z
B840 11 ?UnixExtractFileName@base@@YA?AVUnicodeString@@ABV2@@Z
B970 11 ?ExtractShortName@base@@YA?AVUnicodeString@@ABV2@_N@Z
B9C0 11 ?UnixExtractFileExt@base@@YA?AVUnicodeString@@ABV2@@Z
BB40 11 ?ExtractFileName@base@@YA?AVUnicodeString@@ABV2@_N@Z
BBA0 11 ?ExtractCommonPath@base@@YA_NPBVTStrings@@AAVUnicodeString@@@Z
BE10 11 ?GetFileListItemPath@base@@YA?AVUnicodeString@@PBVTStrings@@H@Z
BF30 11 ?UnixExtractCommonPath@base@@YA_NPBVTStrings@@AAVUnicodeString@@@Z
C1B0 11 ?IsUnixRootPath@base@@YA_NABVUnicodeString@@@Z
C200 11 ?IsUnixHiddenFile@base@@YA_NABVUnicodeString@@@Z
C2A0 11 ?AbsolutePath@base@@YA?AVUnicodeString@@ABV2@0@Z
C630 11 ?FromUnixPath@base@@YA?AVUnicodeString@@ABV2@@Z
C760 11 ?ToUnixPath@base@@YA?AVUnicodeString@@ABV2@@Z
C890 11 ?CutFirstDirectory@base@@YAXAAVUnicodeString@@_N@Z
CC40 11 ?MinimizeName@base@@YA?AVUnicodeString@@ABV2@H_N@Z
D090 11 ?MakeFileList@base@@YA?AVUnicodeString@@PBVTStrings@@@Z
D200 11 ?ReduceDateTimePrecision@base@@YA?AVTDateTime@@ABV2@W4TModificationFmt@@@Z
D310 11 ?UserModificationStr@base@@YA?AVUnicodeString@@ABVTDateTime@@W4TModificationFmt@@@Z
D504 11 $LN81
D520 11 ?ModificationStr@base@@YA?AVUnicodeString@@ABVTDateTime@@W4TModificationFmt@@@Z
D724 11 $LN717
D740 11 ?GetPartialFileExtLen@base@@YAHABVUnicodeString@@@Z
DA40 11 ?SameUserName@base@@YA_NABVUnicodeString@@0@Z
DB40 11 ?FormatBytes@base@@YA?AVUnicodeString@@_J_N@Z
DD10 11 ?GetEnvironmentVariable@base@@YA?AVUnicodeString@@ABV2@@Z
DD60 11 ?ReplaceChar@@YA?AVUnicodeString@@ABV1@_W1@Z
DDA0 11 ?DeleteChar@@YA?AVUnicodeString@@ABV1@_W@Z
DE50 11 ?PackStr@@YAXAAVUnicodeString@@@Z
DE90 11 ?AnsiToString@@YA?AVUnicodeString@@ABVRawByteString@@@Z
DF20 11 ?MakeValidFileName@@YA?AVUnicodeString@@ABV1@@Z
E0B0 11 ?RootKeyToStr@@YA?AVUnicodeString@@PAUHKEY__@@ABV1@@Z
E210 11 ?BooleanToEngStr@@YA?AVUnicodeString@@_N@Z
E240 11 ?DefaultStr@@YA?AVUnicodeString@@ABV1@0@Z
E270 11 ?CutToChar@@YA?AVUnicodeString@@AAV1@_W_N@Z
E480 11 ?CopyToChars@@YA?AVUnicodeString@@ABV1@AAH0_NPA_W2@Z
E6C0 11 ?CopyToChar@@YA?AVUnicodeString@@ABV1@_W_N@Z
E770 11 ?DelimitStr@@YA?AVUnicodeString@@ABV1@_W@Z
E960 11 ?MidStr@@YA?AVUnicodeString@@ABV1@H@Z
E980 11 ?ShellQuoteStr@@YA?AVUnicodeString@@ABV1@@Z
EAB0 11 ?ExceptionLogString@@YA?AVUnicodeString@@PAVException@@@Z
ECF0 11 ?MainInstructions@@YA?AVUnicodeString@@ABV1@@Z
EDB0 11 ?MainInstructionsFirstParagraph@@YA?AVUnicodeString@@ABV1@@Z
EF90 11 ?ExtractMainInstructions@@YA_NAAVUnicodeString@@0@Z
F190 11 ?FindInteractiveMsgStart@@YAHABVUnicodeString@@@Z
F310 11 ?RemoveMainInstructionsTag@@YA?AVUnicodeString@@ABV1@@Z
F410 11 ?UnformatMessage@@YA?AVUnicodeString@@ABV1@@Z
F4D0 11 ?IsNumber@@YA_NABVUnicodeString@@@Z
F520 11 ?EncodeStrToBase64@@YA?AVUnicodeString@@ABVRawByteString@@@Z
F530 11 ?DecodeBase64ToStr@@YA?AVRawByteString@@ABVUnicodeString@@@Z
F540 11 ?Base64ToUrlSafe@@YA?AVUnicodeString@@ABV1@@Z
F700 11 ?SameChecksum@@YA_NABVUnicodeString@@0_N@Z
F880 11 ?GetShellFolderPath@@YA?AVUnicodeString@@H@Z
F920 11 ?StripPathQuotes@@YA?AVUnicodeString@@ABV1@@Z
F9C0 11 ?AddQuotes@@YA?AVUnicodeString@@ABV1@@Z
FB10 11 ?ReplaceChar@@YAPA_WAAVUnicodeString@@PA_W_W@Z
FC10 11 ?ValidLocalFileName@@YA?AVUnicodeString@@ABV1@_W00@Z
FDB0 11 ?SplitCommand@@YAXABVUnicodeString@@AAV1@11@Z
10120 11 ?ExtractProgram@@YA?AVUnicodeString@@ABV1@@Z
10220 11 ?ExtractProgramName@@YA?AVUnicodeString@@ABV1@@Z
103D0 11 ?FormatCommand@@YA?AVUnicodeString@@ABV1@0@Z
10570 11 ?EscapePuttyCommandParam@@YA?AVUnicodeString@@ABV1@@Z
10820 11 ?ExpandEnvironmentVariables@@YA?AVUnicodeString@@ABV1@@Z
108E0 11 ?GetNormalizedPath@@YA?AVUnicodeString@@ABV1@@Z
10950 11 ?GetCanonicalPath@@YA?AVUnicodeString@@ABV1@@Z
10A20 11 ?IsPathToSameFile@@YA_NABVUnicodeString@@0@Z
10B10 11 ?SamePaths@@YA_NABVUnicodeString@@0@Z
10C00 11 ?CombinePaths@@YA?AVUnicodeString@@ABV1@0@Z
10D80 11 ?IsReservedName@@YA_NABVUnicodeString@@@Z
10FD0 11 ?PathRootLength@@YAHABVUnicodeString@@@Z
11070 11 ?PathIsRelative_CorrectedForMicrosoftStupidity@@YA_NABVUnicodeString@@@Z
110F0 11 ?GetOffsetAfterPathRoot@@YAHABVUnicodeString@@AAW4PATH_PREFIX_TYPE@@@Z
116D0 11 ?MakeUnicodeLargePath@@YA?AVUnicodeString@@ABV1@@Z
11930 11 ?ApiPath@@YA?AVUnicodeString@@ABV1@@Z
11AE0 11 ?DisplayableStr@@YA?AVUnicodeString@@ABVRawByteString@@@Z
11E74 11 $LN1152
11E90 11 $LN1151
11EF0 11 ?ByteToHex@@YA?AVUnicodeString@@E_N@Z
120E0 11 ?BytesToHex@@YA?AVUnicodeString@@PBEI_N_W@Z
121F0 11 ?CharToHex@@YA?AVUnicodeString@@_W_N@Z
122E0 11 ?HexToBytes@@YA?AVRawByteString@@ABVUnicodeString@@@Z
124B0 11 ?HexToByte@@YAEABVUnicodeString@@@Z
12630 11 ??0TSearchRec@Sysutils@@QAE@XZ
12690 0 ??_ETSearchRecSmart@@UAEPAXI@Z
12700 65 ??1TCalculateSizeParams@@UAE@XZ
12740 0 ??_ETSearchRec@Sysutils@@UAEPAXI@Z
127B0 11 ?GetLastWriteTime@TSearchRecSmart@@QBE?AVTDateTime@@XZ
12820 11 ??1TSearchRecOwned@@UAE@XZ
12860 0 ??_ETSearchRecOwned@@UAEPAXI@Z
128C0 11 ??1TSearchRecChecked@@UAE@XZ
12980 11 ?FindCheck@@YAKKABVUnicodeString@@@Z
12A00 17 ??1ECRTExtException@@UAE@XZ
12A10 11 ??0EOSExtException@@QAE@ABV0@@Z
12A90 11 ?FindFirstUnchecked@@YAKABVUnicodeString@@KAAUTSearchRecChecked@@@Z
12B30 11 ?FileSearchRec@@YA_NABVUnicodeString@@AAUTSearchRec@Sysutils@@@Z
12C00 11 ?IsRealFile@@YA_NABVUnicodeString@@@Z
12C80 11 ?GetEnvironmentInfo@@YA?AVUnicodeString@@XZ
12E40 11 ?ProcessLocalDirectory@@YAXABVUnicodeString@@$$QAV?$FastDelegate3@XABVUnicodeString@@ABUTSearchRecSmart@@PAX@fastdelegate@@PAXK@Z
13090 11 ??0TSearchRecChecked@@QAE@XZ
13100 0 ??_ETSearchRecChecked@@UAEPAXI@Z
13140 11 ?FileGetAttrFix@@YAKABVUnicodeString@@@Z
1326E 11 __catch$?FileGetAttrFix@@YAKABVUnicodeString@@@Z$0
1327B 11 __catch$?FileGetAttrFix@@YAKABVUnicodeString@@@Z$1
13300 11 ?EncodeDateVerbose@@YA?AVTDateTime@@GGG@Z
13395 11 __catch$?EncodeDateVerbose@@YA?AVTDateTime@@GGG@Z$0
13420 11 ??0EConvertError@Sysutils@@QAE@ABV01@@Z
13450 11 ?EncodeTimeVerbose@@YA?AVTDateTime@@GGGG@Z
134F0 11 __catch$?EncodeTimeVerbose@@YA?AVTDateTime@@GGGG@Z$0
13590 11 ?SystemTimeToDateTimeVerbose@@YA?AVTDateTime@@ABU_SYSTEMTIME@@@Z
13666 11 __catch$?SystemTimeToDateTimeVerbose@@YA?AVTDateTime@@ABU_SYSTEMTIME@@@Z$0
13740 0 ??_ETDateTimeParams@@UAEPAXI@Z
13780 11 ??1TDateTimeParams@@UAE@XZ
13810 11 ?DecodeYear@@YAGABVTDateTime@@@Z
13840 11 ?GetDateTimeParams@@YAPBUTDateTimeParams@@G@Z
13B90 11 ?EncodeDSTMargin@@YAXABU_SYSTEMTIME@@GAAVTDateTime@@@Z
13CF0 11 ?IsDateInDST@@YA_NABVTDateTime@@@Z
13D90 11 ?UnixToDateTime@@YA?AVTDateTime@@_JW4TDSTMode@@@Z
13E90 11 ?TryRelativeStrToDateTime@@YA_NABVUnicodeString@@AAVTDateTime@@_N@Z
144A0 11 ?TryStrToDateTimeStandard@@YA_NABVUnicodeString@@AAVTDateTime@@@Z
14520 11 ?TryStrToSize@@YA_NABVUnicodeString@@AA_J@Z
14780 11 ?SizeToStr@@YA?AVUnicodeString@@_J@Z
148E0 11 ?DateTimeToUnix@@YA_JABVTDateTime@@@Z
149D0 11 ?DateTimeToFileTime@@YA?AU_FILETIME@@ABVTDateTime@@W4TDSTMode@@@Z
14A80 11 ?FileTimeToDateTime@@YA?AVTDateTime@@ABU_FILETIME@@@Z
14B50 11 ?ConvertTimestampToUnix@@YA_JABU_FILETIME@@W4TDSTMode@@@Z
14CC0 11 ?ConvertTimestampToUTC@@YA?AVTDateTime@@ABV1@@Z
14D40 11 ?ConvertTimestampFromUTC@@YA?AVTDateTime@@ABV1@@Z
14DD0 11 ?DSTDifferenceForTime@@YANABVTDateTime@@@Z
14E30 11 ?FormatTimeZone@@YA?AVUnicodeString@@H@Z
15130 11 ?GetTimeZoneLogString@@YA?AVUnicodeString@@XZ
153C0 11 ?AdjustClockForDSTEnabled@@YA_NXZ
156AF 11 __catch$?AdjustClockForDSTEnabled@@YA_NXZ$0
156E0 11 ?StandardTimestamp@@YA?AVUnicodeString@@ABVTDateTime@@@Z
157E0 11 ?CompareFileTime@@YAHABVTDateTime@@0@Z
15870 11 ?TimeToMSec@@YAHABVTDateTime@@@Z
15930 11 ?DoRecursiveDeleteFile@@YA_NABVUnicodeString@@_NAAV1@AAH@Z
15D70 11 ?RecursiveDeleteFile@@YA_NABVUnicodeString@@_N@Z
15E10 11 ?DeleteFileChecked@@YAXABVUnicodeString@@@Z
15EE0 11 ?CancelAnswer@@YAII@Z
15F20 11 ?AbortAnswer@@YAII@Z
15F60 11 ?LoadStr@@YA?AVUnicodeString@@HI@Z
15F80 11 ?LoadStrPart@@YA?AVUnicodeString@@HH@Z
160A0 11 ?DecodeUrlChars@@YA?AVUnicodeString@@ABV1@@Z
163F0 11 ?DoEncodeUrl@@YA?AVUnicodeString@@ABV1@0@Z
166E0 11 ?EncodeUrlString@@YA?AVUnicodeString@@ABV1@@Z
16790 11 ?IsDomainOrSubdomain@@YA_NABVUnicodeString@@0@Z
16840 11 ?DoCutToken@@YA_NAAVUnicodeString@@0PAV1@1_N@Z
16AF0 11 ?AddToList@@YAXAAVUnicodeString@@ABV1@1@Z
16B80 11 ?AddToShellFileListCommandLine@@YAXAAVUnicodeString@@ABV1@@Z
16C70 11 ?NeedUWPData@@YAXXZ
16F00 11 ?GetDefaultLCID@@YAKXZ
16F10 11 ?WindowsProductName@@YA?AVUnicodeString@@XZ
1719A 11 __catch$?WindowsProductName@@YA?AVUnicodeString@@XZ$0
171C0 11 ?WindowsVersionLong@@YA?AVUnicodeString@@XZ
173A0 11 ?FormatNumber@@YA?AVUnicodeString@@_J@Z
17450 11 ?FormatSize@@YA?AVUnicodeString@@_J@Z
17480 11 ?FormatDateTimeSpan@@YA?AVUnicodeString@@ABVTDateTime@@@Z
175F0 11 ?TextToStringList@@YAPAVTStringList@@ABVUnicodeString@@@Z
17680 11 ?CommaTextToStringList@@YAPAVTStringList@@ABVUnicodeString@@@Z
17720 11 ?FormatVersion@@YA?AVUnicodeString@@HHH@Z
177E0 11 ?ParseShortEngMonthName@@YAHABVUnicodeString@@@Z
17840 11 ?CreateSortedStringList@@YAPAVTStringList@@_NW4TDuplicatesEnum@@@Z
178E0 11 ?NormalizeIdent@@YA?AVUnicodeString@@ABV1@@Z
17A10 11 ?SameIdent@@YA_NABVUnicodeString@@0@Z
17BC0 11 ?FindIdent@@YA?AVUnicodeString@@ABV1@PAVTStrings@@@Z
17D70 11 ?GetTlsErrorStr@@YA?AVUnicodeString@@I@Z
18000 11 ?GetTlsErrorStrs@@YA?AVUnicodeString@@XZ
18340 11 ?OpenCertificate@@YAPAU_iobuf@@ABVUnicodeString@@@Z
18420 11 ?PemPasswordCallback@@YAHPADHHPAX@Z
184F0 11 ?ThrowTlsCertificateErrorIgnorePassphraseErrors@@YAXABVUnicodeString@@_N@Z
185B0 11 ?ParseCertificate@@YAXABVUnicodeString@@0AAPAUx509_st@@AAPAUevp_pkey_st@@AA_N@Z
18780 11 ??R<lambda_3ecff1f0c54593f6cf1b57f5e347d3ba>@@QBE@XZ
18AE0 11 ??R<lambda_31253a97a2d36b59c434dcd1b3e6bbb1>@@QBE@XZ
18B80 11 ?StripEllipsis@@YA?AVUnicodeString@@ABV1@@Z
18DD0 11 ?NotImplemented@@YAXXZ
18DF0 11 ?NotSupported@@YAXXZ
18E60 11 ??A?$map@HUTDateTimeParams@@U?$less@H@std@@U?$custom_nballocator_t@U?$pair@$$CBHUTDateTimeParams@@@std@@@nb@@@std@@QAEAAUTDateTimeParams@@$$QAH@Z
18F00 65 ??1?$_Vb_val@U?$custom_nballocator_t@_N@nb@@@std@@QAE@XZ
18F30 11 ??B?$ROProperty2@_N@@QBE_NXZ
18F40 22 ?release@?$unique_ptr@VTFarText@@U?$default_delete@VTFarText@@@std@@@std@@QAEPAVTFarText@@XZ
18F50 54 ??1?$unique_ptr@V?$TListBase@VTChecklistItem@@@@U?$default_delete@V?$TListBase@VTChecklistItem@@@@@std@@@std@@QAE@XZ
18F60 11 ??1?$unique_ptr@VTRegistry@@U?$default_delete@VTRegistry@@@std@@@std@@QAE@XZ
18FD0 11 ??1?$vector@VUnicodeString@@U?$custom_nballocator_t@VUnicodeString@@@nb@@@std@@QAE@XZ
19010 11 ??B?$ROProperty@H@@QBEHXZ
19020 22 ??1?$basic_ios@DU?$char_traits@D@std@@@std@@UAE@XZ
19070 11 ??1?$_Yarn@D@std@@QAE@XZ
19090 11 ??1?$MemoryBuffer@_W$0BPE@U?$custom_nballocator_t@_W@nb@@@internal@fmt@@UAE@XZ
190B0 11 ??0?$BasicCStringRef@D@fmt@@QAE@PBD@Z
190C0 11 ??1?$basic_string@DU?$char_traits@D@std@@V?$allocator@D@2@@std@@QAE@XZ
190D0 11 ??0?$basic_string@DU?$char_traits@D@std@@V?$allocator@D@2@@std@@QAE@QBD@Z
19110 11 ??0?$basic_string@DU?$char_traits@D@std@@V?$allocator@D@2@@std@@QAE@ABV01@@Z
191B0 0 ??_E?$basic_ostream@_WU?$char_traits@_W@std@@@std@@UAEPAXI@Z
19240 0 ??_E?$basic_ios@DU?$char_traits@D@std@@@std@@UAEPAXI@Z
192B0 0 ??_E?$BasicMemoryWriter@DU?$custom_nballocator_t@D@nb@@@fmt@@UAEPAXI@Z
19300 11 ??1?$BasicFormatter@DV?$ArgFormatter@D@fmt@@@fmt@@QAE@XZ
19330 0 ??_E?$BasicWriter@D@fmt@@UAEPAXI@Z
19360 0 ??_E?$MemoryBuffer@D$0BPE@U?$custom_nballocator_t@D@nb@@@internal@fmt@@UAEPAXI@Z
193A0 0 ??_E?$Buffer@D@fmt@@UAEPAXI@Z
193D0 0 ??_E?$MemoryBuffer@_W$0BPE@U?$custom_nballocator_t@_W@nb@@@internal@fmt@@UAEPAXI@Z
19410 0 ??_E?$Buffer@_W@fmt@@UAEPAXI@Z
19440 11 ??_D?$basic_ostream@_WU?$char_traits@_W@std@@@std@@QAEXXZ
194B0 11 ??0?$fpos@U_Mbstatet@@@std@@QAE@_J@Z
194E0 54 ??B?$ROProperty@VUnicodeString@@@@QBE?AVUnicodeString@@XZ
19500 11 ?_Tidy_deallocate@?$basic_string@DU?$char_traits@D@std@@V?$allocator@D@2@@std@@AAEXXZ
19550 11 ?append@?$basic_string@DU?$char_traits@D@std@@V?$allocator@D@2@@std@@QAEAAV12@QBDI@Z
196A0 11 ?deallocate@?$allocator@D@std@@QAEXQADI@Z
196E0 0 ??_ETRegistry@@UAEPAXI@Z
19770 11 ?_Deallocate_for_capacity@?$basic_string@DU?$char_traits@D@std@@V?$allocator@D@2@@std@@CAXAAV?$allocator@D@2@QADI@Z
197B0 16 ??$calloc@PAD@nb@@YAPADII@Z
19800 11 ?grow@?$MemoryBuffer@_W$0BPE@U?$custom_nballocator_t@_W@nb@@@internal@fmt@@MAEXI@Z
19870 11 ?grow@?$MemoryBuffer@D$0BPE@U?$custom_nballocator_t@D@nb@@@internal@fmt@@MAEXI@Z
198D0 11 ??$format@D@fmt@@YA?AV?$basic_string@DU?$char_traits@D@std@@V?$allocator@D@2@@std@@V?$BasicCStringRef@D@0@ABD@Z
19930 11 ??$?0V?$allocator@D@std@@@?$BasicCStringRef@D@fmt@@QAE@ABV?$basic_string@DU?$char_traits@D@std@@V?$allocator@D@2@@std@@@Z
19950 11 ??4?$CMSimpleStringT@_W@@QAEAAV0@ABV0@@Z
199D0 11 ?Empty@?$CMSimpleStringT@_W@@QAEXXZ
19A40 11 ??$?6_WU?$char_traits@_W@std@@@std@@YAAAV?$basic_ostream@_WU?$char_traits@_W@std@@@0@AAV10@PB_W@Z
19C14 11 __catch$??$?6_WU?$char_traits@_W@std@@@std@@YAAAV?$basic_ostream@_WU?$char_traits@_W@std@@@0@AAV10@PB_W@Z$0
19CA0 11 ??$FmtLoadStr@H@nb@@YA?AVUnicodeString@@HABH@Z
19D00 11 ??$Sprintf@$$BY03_WGG@nb@@YA?AVUnicodeString@@ABV1@AAY03$$CB_WABG2@Z
19DB0 11 ??$Sprintf@$$BY03_WGGG@nb@@YA?AVUnicodeString@@ABV1@AAY03$$CB_WABG22@Z
19E80 11 ??$Sprintf@$$BY03_WGGGGG@nb@@YA?AVUnicodeString@@ABV1@AAY03$$CB_WABG2222@Z
19F70 11 ??$FmtLoadStr@VUnicodeString@@V1@V1@@nb@@YA?AVUnicodeString@@HABV1@00@Z
1A000 11 ??$Sprintf@N@nb@@YA?AVUnicodeString@@ABV1@ABN@Z
1A060 11 ??$FmtLoadStr@VUnicodeString@@@nb@@YA?AVUnicodeString@@HABV1@@Z
1A0C0 11 ??$Sprintf@VUnicodeString@@@nb@@YA?AVUnicodeString@@ABV1@0@Z
1A120 11 ??$Sprintf@VUnicodeString@@V1@@nb@@YA?AVUnicodeString@@ABV1@00@Z
1A190 11 ??$Sprintf@VUnicodeString@@HHH@nb@@YA?AVUnicodeString@@ABV1@0ABH11@Z
1A240 11 ??$Sprintf@VUnicodeString@@HHHH@nb@@YA?AVUnicodeString@@ABV1@0ABH111@Z
1A300 11 ??$Sprintf@VUnicodeString@@HHHHHHH@nb@@YA?AVUnicodeString@@ABV1@0ABH111111@Z
1A3F0 11 ??$FmtLoadStr@$$V@nb@@YA?AVUnicodeString@@H@Z
1A440 11 ??$Sprintf@H@nb@@YA?AVUnicodeString@@ABV1@ABH@Z
1A4A0 11 ??$Sprintf@HH@nb@@YA?AVUnicodeString@@ABV1@ABH1@Z
1A510 11 ??$Sprintf@HHH@nb@@YA?AVUnicodeString@@ABV1@ABH11@Z
1A5B0 11 ??$Sprintf@VUnicodeString@@V1@V1@V1@V1@V1@@nb@@YA?AVUnicodeString@@ABV1@000000@Z
1A670 11 ??$make_unique@VTRegistry@@$$V$0A@@std@@YA?AV?$unique_ptr@VTRegistry@@U?$default_delete@VTRegistry@@@std@@@0@XZ
1A720 11 ??$Sprintf@GGG@nb@@YA?AVUnicodeString@@ABV1@ABG11@Z
1A7C0 11 ??$Sprintf@GGGGGGG@nb@@YA?AVUnicodeString@@ABV1@ABG111111@Z
1A8A0 11 ??$Sprintf@VUnicodeString@@H@nb@@YA?AVUnicodeString@@ABV1@0ABH@Z
1A910 11 ??$Sprintf@HGG@nb@@YA?AVUnicodeString@@ABV1@ABHABG2@Z
1A9B0 11 ??$make_unique@VTStringList@@$$V$0A@@std@@YA?AV?$unique_ptr@VTStringList@@U?$default_delete@VTStringList@@@std@@@0@XZ
1AA00 11 ??$IndexStr@$0M@@@YAHABVUnicodeString@@AAY0M@$$CBV0@@Z
1AA60 11 ?format@?$BasicFormatter@DV?$ArgFormatter@D@fmt@@@fmt@@QAEXV?$BasicCStringRef@D@2@@Z
1ADB0 11 ??$_Construct@$00PBD@?$basic_string@DU?$char_traits@D@std@@V?$allocator@D@2@@std@@AAEXQBDI@Z
1AE40 11 ??$_Destroy_range@U?$custom_nballocator_t@VUnicodeString@@@nb@@@std@@YAXPAVUnicodeString@@QAV1@AAU?$custom_nballocator_t@VUnicodeString@@@nb@@@Z
1AEA0 55 ?GetSupportedChecksumAlgs@TS3FileSystem@@UAEXPAVTStrings@@@Z
1AEB0 53 ?CreateParallelOperation@TQueueItem@@MAEPAV1@XZ
1AEC0 22 ?setbuf@?$basic_streambuf@DU?$char_traits@D@std@@@std@@MAEPAV12@PAD_J@Z
1AED0 22 ?seekpos@?$basic_streambuf@DU?$char_traits@D@std@@@std@@MAE?AV?$fpos@U_Mbstatet@@@2@V32@H@Z
1AF00 22 ?seekoff@?$basic_streambuf@DU?$char_traits@D@std@@@std@@MAE?AV?$fpos@U_Mbstatet@@@2@_JHH@Z
1AF30 11 ?xsputn@?$basic_streambuf@_WU?$char_traits@_W@std@@@std@@MAE_JPB_W_J@Z
1B020 11 ?xsgetn@?$basic_streambuf@_WU?$char_traits@_W@std@@@std@@MAE_JPA_W_J@Z
1B110 11 ?uflow@?$basic_streambuf@_WU?$char_traits@_W@std@@@std@@MAEGXZ
1B140 11 ?underflow@?$basic_streambuf@_WU?$char_traits@_W@std@@@std@@MAEGXZ
1B150 22 ?showmanyc@?$basic_streambuf@DU?$char_traits@D@std@@@std@@MAE_JXZ
1B160 11 ?overflow@?$basic_streambuf@_WU?$char_traits@_W@std@@@std@@MAEGG@Z
1B170 85 ??1sentry@?$basic_ostream@DU?$char_traits@D@std@@@std@@QAE@XZ
1B1E0 85 ??0sentry@?$basic_ostream@DU?$char_traits@D@std@@@std@@QAE@AAV12@@Z
1B280 35 ??1?$unique_ptr@VTFileZillaIntf@@U?$default_delete@VTFileZillaIntf@@@std@@@std@@QAE@XZ
1B290 11 ??0?$scope_guard@V<lambda_3ecff1f0c54593f6cf1b57f5e347d3ba>@@V<lambda_31253a97a2d36b59c434dcd1b3e6bbb1>@@@detail@Sysutils@@QAE@$$QAV<lambda_3ecff1f0c54593f6cf1b57f5e347d3ba>@@$$QAV<lambda_31253a97a2d36b59c434dcd1b3e6bbb1>@@@Z
1B31A 11 __catch$??0?$scope_guard@V<lambda_3ecff1f0c54593f6cf1b57f5e347d3ba>@@V<lambda_31253a97a2d36b59c434dcd1b3e6bbb1>@@@detail@Sysutils@@QAE@$$QAV<lambda_3ecff1f0c54593f6cf1b57f5e347d3ba>@@$$QAV<lambda_31253a97a2d36b59c434dcd1b3e6bbb1>@@@Z$0
1B340 61 ?_Insert_node@?$_Tree_val@U?$_Tree_simple_types@I@std@@@std@@QAEPAU?$_Tree_node@IPAX@2@U?$_Tree_id@PAU?$_Tree_node@IPAX@std@@@2@QAU32@@Z
1B4B0 85 ?setstate@?$basic_ios@DU?$char_traits@D@std@@@std@@QAEXH_N@Z
1B4E0 0 ??_E?$basic_streambuf@_WU?$char_traits@_W@std@@@std@@UAEPAXI@Z
1B530 85 ??1_Sentry_base@?$basic_ostream@DU?$char_traits@D@std@@@std@@QAE@XZ
1B580 61 ?_Rrotate@?$_Tree_val@U?$_Tree_simple_types@I@std@@@std@@QAEXPAU?$_Tree_node@IPAX@2@@Z
1B5E0 85 ?flush@?$basic_ostream@DU?$char_traits@D@std@@@std@@QAEAAV12@XZ
1B65D 11 __catch$?flush@?$basic_ostream@_WU?$char_traits@_W@std@@@std@@QAEAAV12@XZ$0
1B6F0 85 ?_Osfx@?$basic_ostream@DU?$char_traits@D@std@@@std@@QAEXXZ
1B76B 11 __catch$?_Osfx@?$basic_ostream@_WU?$char_traits@_W@std@@@std@@QAEXXZ$0
1B780 11 ?grow_buffer@?$BasicWriter@_W@fmt@@AAEPA_WI@Z
1B7C0 11 ?grow_buffer@?$BasicWriter@D@fmt@@AAEPADI@Z
1B7F0 63 ??0?$CMSimpleStringT@D@@QAE@XZ
1B850 11 ?SetString@?$CMSimpleStringT@_W@@QAEXPB_WH@Z
1B8C0 11 ?PrepareWrite@?$CMSimpleStringT@_W@@AAEPA_WH@Z
1B950 11 ?parse_arg_index@?$BasicFormatter@_WV?$ArgFormatter@_W@fmt@@@fmt@@AAE?AUArg@internal@2@AAPB_W@Z
1BA70 11 ?parse_arg_name@?$BasicFormatter@_WV?$ArgFormatter@_W@fmt@@@fmt@@AAE?AUArg@internal@2@AAPB_W@Z
1BB30 11 ?format@?$BasicFormatter@_WV?$ArgFormatter@_W@fmt@@@fmt@@QAEPB_WAAPB_WABUArg@internal@2@@Z
1BFB8 11 $LN93
1BFCC 11 $LN92
1BFF0 11 $LN94
1C000 11 $LN97
1C010 11 ?parse_arg_index@?$BasicFormatter@DV?$ArgFormatter@D@fmt@@@fmt@@AAE?AUArg@internal@2@AAPBD@Z
1C110 11 ?parse_arg_name@?$BasicFormatter@DV?$ArgFormatter@D@fmt@@@fmt@@AAE?AUArg@internal@2@AAPBD@Z
1C190 11 ?format@?$BasicFormatter@DV?$ArgFormatter@D@fmt@@@fmt@@QAEPBDAAPBDABUArg@internal@2@@Z
1C610 11 $LN102
1C624 11 $LN101
1C648 11 $LN103
1C658 11 $LN106
1C670 11 ??$parse_nonnegative_int@D@internal@fmt@@YAIAAPBD@Z
1C6D0 11 ??$parse_nonnegative_int@_W@internal@fmt@@YAIAAPB_W@Z
1C740 11 ??$_Find_lower_bound@H@?$_Tree@V?$_Tmap_traits@HUTDateTimeParams@@U?$less@H@std@@U?$custom_nballocator_t@U?$pair@$$CBHUTDateTimeParams@@@std@@@nb@@$0A@@std@@@std@@IBE?AU?$_Tree_find_result@PAU?$_Tree_node@U?$pair@$$CBHUTDateTimeParams@@@std@@PAX@std@@@1@ABH@Z
1C790 11 ??$?0ABUpiecewise_construct_t@std@@V?$tuple@$$QAH@1@V?$tuple@$$V@1@@?$_Tree_temp_node@U?$custom_nballocator_t@U?$_Tree_node@U?$pair@$$CBHUTDateTimeParams@@@std@@PAX@std@@@nb@@@std@@QAE@AAU?$custom_nballocator_t@U?$_Tree_node@U?$pair@$$CBHUTDateTimeParams@@@std@@PAX@std@@@nb@@PAU?$_Tree_node@U?$pair@$$CBHUTDateTimeParams@@@std@@PAX@1@ABUpiecewise_construct_t@1@$$QAV?$tuple@$$QAH@1@$$QAV?$tuple@$$V@1@@Z
1C8E0 11 ??$_Erase_tree@U?$custom_nballocator_t@U?$_Tree_node@U?$pair@$$CBHUTDateTimeParams@@@std@@PAX@std@@@nb@@@?$_Tree_val@U?$_Tree_simple_types@U?$pair@$$CBHUTDateTimeParams@@@std@@@std@@@std@@QAEXAAU?$custom_nballocator_t@U?$_Tree_node@U?$pair@$$CBHUTDateTimeParams@@@std@@PAX@std@@@nb@@PAU?$_Tree_node@U?$pair@$$CBHUTDateTimeParams@@@std@@PAX@1@@Z
1C920 11 ??$is_name_start@_W@internal@fmt@@YA_N_W@Z
1C950 11 ??$is_name_start@D@internal@fmt@@YA_ND@Z
1C970 11 ??$_Allocate@$07U_Default_allocate_traits@std@@@std@@YAPAXI@Z
1C9F0 11 ??$write_int@HUFormatSpec@fmt@@@?$BasicWriter@_W@fmt@@AAEXHUFormatSpec@1@@Z
1CC78 11 $LN95
1CC90 11 $LN94
1CD10 11 ??$write_str@_WUFormatSpec@fmt@@@?$BasicWriter@_W@fmt@@AAEXABU?$StringValue@_W@Value@internal@1@ABUFormatSpec@1@@Z
1CE60 11 ??$write_str@DUFormatSpec@fmt@@@?$BasicWriter@_W@fmt@@AAEXABU?$StringValue@D@Value@internal@1@ABUFormatSpec@1@@Z
1CEE0 11 ??$write_int@HUFormatSpec@fmt@@@?$BasicWriter@D@fmt@@AAEXHUFormatSpec@1@@Z
1D150 11 $LN122
1D168 11 $LN121
1D1F0 11 ??$write_str@DUFormatSpec@fmt@@@?$BasicWriter@D@fmt@@AAEXABU?$StringValue@D@Value@internal@1@ABUFormatSpec@1@@Z
1D270 11 ??$write_int@IUFormatSpec@fmt@@@?$BasicWriter@_W@fmt@@AAEXIUFormatSpec@1@@Z
1D4E8 11 $LN91
1D500 11 $LN90
1D580 11 ??$write_int@IUFormatSpec@fmt@@@?$BasicWriter@D@fmt@@AAEXIUFormatSpec@1@@Z
1D7F0 11 $LN118
1D808 11 $LN117
1D890 11 ?visit@?$ArgVisitor@V?$ArgFormatter@D@fmt@@X@fmt@@QAEXABUArg@internal@2@@Z
1DCCC 11 $LN100
1DD00 11 ?visit@?$ArgVisitor@V?$ArgFormatter@_W@fmt@@X@fmt@@QAEXABUArg@internal@2@@Z
1E14C 11 $LN102
1E180 11 ?fill_padding@?$BasicWriter@D@fmt@@CAPADPADII_W@Z
1E1D0 11 ?fill_padding@?$BasicWriter@_W@fmt@@CAPA_WPA_WII_W@Z
1E2A0 11 ?get_arg@?$BasicFormatter@_WV?$ArgFormatter@_W@fmt@@@fmt@@AAE?AUArg@internal@2@V?$BasicStringRef@_W@2@AAPBD@Z
1E560 11 ?get_arg@?$BasicFormatter@DV?$ArgFormatter@D@fmt@@@fmt@@AAE?AUArg@internal@2@V?$BasicStringRef@D@2@AAPBD@Z
1E880 11 ??$check_sign@_W@internal@fmt@@YAXAAPB_WABUArg@01@@Z
1E930 11 ??$format@PBD@fmt@@YA?AV?$basic_string@DU?$char_traits@D@std@@V?$allocator@D@2@@std@@V?$BasicCStringRef@D@0@ABQBD@Z
1E990 11 ??$check_sign@D@internal@fmt@@YAXAAPBDABUArg@01@@Z
1EA40 11 ??$prepare_int_buffer@UFormatSpec@fmt@@@?$BasicWriter@_W@fmt@@AAEPA_WIABUFormatSpec@1@PBDI@Z
1ECC0 11 ??$format_decimal@I_W@internal@fmt@@YAXPA_WII@Z
1ED40 11 ??$format_decimal@I_WVThousandsSep@internal@fmt@@@internal@fmt@@YAXPA_WIIVThousandsSep@01@@Z
1EE60 11 ??$write_int@_NUFormatSpec@fmt@@@?$BasicWriter@_W@fmt@@AAEX_NUFormatSpec@1@@Z
1F0E8 11 $LN91
1F100 11 $LN90
1F180 11 ??$write_str@D@?$BasicWriter@_W@fmt@@AAEPA_WPBDIABUAlignSpec@1@@Z
1F270 11 ??$write_double@OUFormatSpec@fmt@@@?$BasicWriter@_W@fmt@@AAEXOABUFormatSpec@1@@Z
1F6A8 11 $LN138
1F6BC 11 $LN137
1F730 11 ??$write_double@NUFormatSpec@fmt@@@?$BasicWriter@_W@fmt@@AAEXNABUFormatSpec@1@@Z
1FB58 11 $LN136
1FB6C 11 $LN135
1FBE0 11 ??$write_int@_KUFormatSpec@fmt@@@?$BasicWriter@_W@fmt@@AAEX_KUFormatSpec@1@@Z
1FEC8 11 $LN87
1FEE0 11 $LN86
1FF60 11 ??$write_int@_JUFormatSpec@fmt@@@?$BasicWriter@_W@fmt@@AAEX_JUFormatSpec@1@@Z
20250 11 $LN95
20268 11 $LN94
202F0 11 ??$prepare_int_buffer@UFormatSpec@fmt@@@?$BasicWriter@D@fmt@@AAEPADIABUFormatSpec@1@PBDI@Z
20580 11 ??$format_decimal@ID@internal@fmt@@YAXPADII@Z
205F0 11 ??$format_decimal@IDVThousandsSep@internal@fmt@@@internal@fmt@@YAXPADIIVThousandsSep@01@@Z
206E0 11 ??$write_int@_NUFormatSpec@fmt@@@?$BasicWriter@D@fmt@@AAEX_NUFormatSpec@1@@Z
20950 11 $LN118
20968 11 $LN117
209F0 11 ??$write_str@D@?$BasicWriter@D@fmt@@AAEPADPBDIABUAlignSpec@1@@Z
20AD0 11 ??$write_double@OUFormatSpec@fmt@@@?$BasicWriter@D@fmt@@AAEXOABUFormatSpec@1@@Z
20F08 11 $LN174
20F1C 11 $LN173
20F90 11 ??$write_double@NUFormatSpec@fmt@@@?$BasicWriter@D@fmt@@AAEXNABUFormatSpec@1@@Z
213BC 11 $LN172
213D0 11 $LN171
21440 11 ??$write_int@_KUFormatSpec@fmt@@@?$BasicWriter@D@fmt@@AAEX_KUFormatSpec@1@@Z
21718 11 $LN114
21730 11 $LN113
217B0 11 ??$write_int@_JUFormatSpec@fmt@@@?$BasicWriter@D@fmt@@AAEX_JUFormatSpec@1@@Z
21AAC 11 $LN122
21AC4 11 $LN121
21B40 11 ??$uninitialized_fill_n@PADID@std@@YAPADPADIABD@Z
21B70 11 ??$uninitialized_fill_n@PA_WI_W@std@@YAPA_WPA_WIAB_W@Z
21BC0 11 ?Fork@?$CMSimpleStringT@_W@@AAEXH@Z
21C70 11 ??$format_custom_arg@VUnicodeString@@@?$MakeValue@V?$BasicFormatter@_WV?$ArgFormatter@_W@fmt@@@fmt@@@internal@fmt@@CAXPAXPBX0@Z
21E00 11 ??$prepare_int_buffer@UAlignSpec@fmt@@@?$BasicWriter@_W@fmt@@AAEPA_WIABUAlignSpec@1@PBDI@Z
22080 11 ??$uninitialized_fill@PA_W_W@std@@YAXQA_W0AB_W@Z
220D0 11 ??$uninitialized_copy@PBDPA_W@std@@YAPA_WQBD0PA_W@Z
22100 11 ??$?R_W@ThousandsSep@internal@fmt@@QAEXAAPA_W@Z
22150 11 ??$format_decimal@_K_W@internal@fmt@@YAXPA_W_KI@Z
22270 11 ??$format_decimal@_K_WVThousandsSep@internal@fmt@@@internal@fmt@@YAXPA_W_KIVThousandsSep@01@@Z
22450 11 ??$prepare_int_buffer@UAlignSpec@fmt@@@?$BasicWriter@D@fmt@@AAEPADIABUAlignSpec@1@PBDI@Z
226D0 11 ??$format_decimal@_KD@internal@fmt@@YAXPAD_KI@Z
227E0 11 ??$format_decimal@_KDVThousandsSep@internal@fmt@@@internal@fmt@@YAXPAD_KIVThousandsSep@01@@Z
22970 11 ??1?$FormatBuf@_W@internal@fmt@@UAE@XZ
229B0 11 ?xsputn@?$FormatBuf@_W@internal@fmt@@MAE_JPB_W_J@Z
22A00 11 ?overflow@?$FormatBuf@_W@internal@fmt@@MAEGG@Z
22A40 11 ??0?$FormatBuf@_W@internal@fmt@@QAE@AAV?$Buffer@_W@2@@Z
22B80 11 ??0?$basic_ostream@_WU?$char_traits@_W@std@@@std@@QAE@PAV?$basic_streambuf@_WU?$char_traits@_W@std@@@1@_N@Z
22CA0 0 ??_E?$FormatBuf@_W@internal@fmt@@UAEPAXI@Z
22CF0 11 ??$?0V?$BasicStringRef@_W@fmt@@@?$MakeArg@V?$BasicFormatter@_WV?$ArgFormatter@_W@fmt@@@fmt@@@internal@fmt@@QAE@ABV?$BasicStringRef@_W@2@@Z
22D40 11 ??$_Emplace_reallocate@U?$pair@V?$BasicStringRef@D@fmt@@UArg@internal@2@@std@@@?$vector@U?$pair@V?$BasicStringRef@D@fmt@@UArg@internal@2@@std@@U?$custom_nballocator_t@U?$pair@V?$BasicStringRef@D@fmt@@UArg@internal@2@@std@@@nb@@@std@@AAEPAU?$pair@V?$BasicStringRef@D@fmt@@UArg@internal@2@@1@QAU21@$$QAU21@@Z
22E60 11 ??$use_facet@V?$ctype@_W@std@@@std@@YAABV?$ctype@_W@0@ABVlocale@0@@Z
23010 63 ?_Xlength@?$vector@EU?$custom_nballocator_t@E@nb@@@std@@CAXXZ
23020 11 ??$_Uninitialized_move@PAU?$pair@V?$BasicStringRef@D@fmt@@UArg@internal@2@@std@@U?$custom_nballocator_t@U?$pair@V?$BasicStringRef@D@fmt@@UArg@internal@2@@std@@@nb@@@std@@YAPAU?$pair@V?$BasicStringRef@D@fmt@@UArg@internal@2@@0@QAU10@0PAU10@AAU?$custom_nballocator_t@U?$pair@V?$BasicStringRef@D@fmt@@UArg@internal@2@@std@@@nb@@@Z
2304B 11 ??_E?$basic_ostream@_WU?$char_traits@_W@std@@@std@@$4PPPPPPPM@A@AEPAXI@Z
23060 17 ?is@EAccessViolation@@UBE_NG@Z
23080 17 ??0EAccessViolation@@QAE@ABVUnicodeString@@@Z
230B0 17 ?is@ECRTExtException@@UBE_NG@Z
230E0 17 ?is@EFatal@@UBE_NG@Z
23110 17 ??0EFatal@@QAE@PBVException@@ABVUnicodeString@@@Z
231A0 17 ?is@ETerminate@@UBE_NG@Z
231D0 17 ??0ETerminate@@QAE@PBVException@@ABVUnicodeString@@W4TOnceDoneOperation@@11@Z
23280 0 ??_EETerminate@@UAEPAXI@Z
23330 17 ??1ETerminate@@UAE@XZ
233C0 17 ?is@ECallbackGuardAbort@@UBE_NG@Z
233F0 17 ?WellKnownException@@YA_NPBVException@@PAVUnicodeString@@PAPB_WPAPAV1@_N@Z
23600 17 ??0EAccessViolation@@QAE@ABV0@@Z
23630 17 ?ExceptionMessage@@YA_NPBVException@@_N1AAVUnicodeString@@AA_N@Z
23750 17 ?ExceptionToMoreMessages@@YAPAVTStrings@@PAVException@@@Z
238A0 17 ?GetExceptionHelpKeyword@@YA?AVUnicodeString@@PBVException@@@Z
23A00 17 ?MergeHelpKeyword@@YA?AVUnicodeString@@ABV1@0@Z
23AD0 17 ??0ExtException@@QAE@GPBVException@@@Z
23CE0 17 ??0ExtException@@QAE@PBVException@@ABVUnicodeString@@1@Z
23DE0 17 ??0ExtException@@QAE@GABVUnicodeString@@PBVException@@@Z
23F20 17 ??0ExtException@@QAE@ABVUnicodeString@@0@Z
23FB0 17 ??0ExtException@@QAE@ABVUnicodeString@@PAVTStrings@@_N0@Z
240A0 17 ?AddMoreMessages@ExtException@@IAEXPBVException@@@Z
24240 17 ??1ExtException@@UAE@XZ
242E0 17 ?CloneFrom@ExtException@@SAPAV1@PBVException@@@Z
24490 17 ?Clone@ExtException@@UBEPAV1@XZ
244A0 17 ?Rethrow@ExtException@@UAEXXZ
24510 17 ?SysErrorMessageForError@@YA?AVUnicodeString@@H@Z
24620 17 ??0EOSExtException@@QAE@ABVUnicodeString@@@Z
24680 17 ??0EOSExtException@@QAE@ABVUnicodeString@@H@Z
246D0 0 ??_EEConnectionFatal@@UAEPAXI@Z
24710 17 ??0ECRTExtException@@QAE@ABVUnicodeString@@@Z
24760 17 ?Clone@EFatal@@UBEPAVExtException@@XZ
249A0 17 ?Rethrow@EFatal@@UAEXXZ
24A00 17 ??0EFatal@@QAE@ABV0@@Z
24A90 17 ?Clone@ETerminate@@UBEPAVExtException@@XZ
24D00 17 ?Rethrow@ETerminate@@UAEXXZ
24D70 17 ??0ETerminate@@QAE@ABV0@@Z
24E20 17 ??0ECallbackGuardAbort@@QAE@XZ
24ED0 17 ?CloneException@@YAPAVException@@PAV1@@Z
24FF0 17 ?RethrowException@@YAXPAVException@@@Z
250F0 17 ??0ECallbackGuardAbort@@QAE@ABV0@@Z
25120 17 ?AddContextToExceptionMessage@@YA?AVUnicodeString@@ABVException@@ABV1@@Z
252C0 17 ??$FmtLoadStr@HVUnicodeString@@$$BY00_W@nb@@YA?AVUnicodeString@@HABHABV1@AAY00$$CB_W@Z
25360 17 ??$isa@VECallbackGuardAbort@@VException@@@rtti@@YA_NPBVException@@@Z
25380 17 ?reset@?$unique_ptr@VException@@U?$default_delete@VException@@@std@@@std@@QAEXPAVException@@@Z
253A0 25 ?GetSize@TMemoryStream@@UBE_JXZ
253B0 25 ?GetSize@TFileBuffer@@QBE_JXZ
253C0 25 ?GetMemory@TFileBuffer@@QBEPAVTMemoryStream@@XZ
253D0 25 ?GetData@TFileBuffer@@QBEPADXZ
253E0 25 ??0TFileBuffer@@QAE@XZ
254F0 0 ??_ETFileBuffer@@UAEPAXI@Z
25530 25 ??1TFileBuffer@@UAE@XZ
255D0 25 ?SetSize@TFileBuffer@@QAEX_J@Z
25650 25 ?Reset@TFileBuffer@@QAEXXZ
25670 25 ?ProcessRead@TFileBuffer@@QAEX_JK@Z
256D0 25 ?NeedSpace@TFileBuffer@@QAEX_J@Z
25700 25 ?ReadStream@TFileBuffer@@QAE_JPAVTStream@@_J_N@Z
257C7 25 __catch$?ReadStream@TFileBuffer@@QAE_JPAVTStream@@_J_N@Z$0
257E0 25 ?LoadStream@TFileBuffer@@QAE_JPAVTStream@@_J_N@Z
25810 25 ?LoadFromIn@TFileBuffer@@QAEK$$QAV?$FastDelegate3@IPAVTObject@@PAEI@fastdelegate@@PAVTObject@@_J@Z
258C0 25 ?Convert@TFileBuffer@@QAEXPAD0HAA_N@Z
25C60 25 ?Convert@TFileBuffer@@QAEXW4TEOLType@@0HAA_N@Z
25D00 25 ?Insert@TFileBuffer@@QAEX_JPBD0@Z
25D70 25 ?Delete@TFileBuffer@@QAEX_J0@Z
25DD0 25 ?WriteToStream@TFileBuffer@@QAEXPAVTStream@@_J@Z
25E4A 25 __catch$?WriteToStream@TFileBuffer@@QAEXPAVTStream@@_J@Z$0
25E60 25 ?WriteToOut@TFileBuffer@@QAEX$$QAV?$FastDelegate3@XPAVTObject@@PBEI@fastdelegate@@PAVTObject@@_J@Z
25EA0 25 ??4?$RWProperty@_J@@QAEAAV0@_J@Z
25ED0 0 ??_ETMemoryStream@@UAEPAXI@Z
25F60 65 ??$bind@UTClipboardHandler@@U1@XPAVTObject@@AAI@fastdelegate@@YA?AV?$FastDelegate@$$A6AXPAVTObject@@AAI@Z@0@P8TClipboardHandler@@BEXPAVTObject@@AAI@ZPAU2@ZZ
25F80 0 ??_ETFileStream@@UAEPAXI@Z
26010 63 ?PrepareWrite@?$CMSimpleStringT@D@@AAEPADH@Z
260A0 63 ??$_Resize_reallocate@U_Value_init_tag@std@@@?$vector@EU?$custom_nballocator_t@E@nb@@@std@@AAEXIABU_Value_init_tag@1@@Z
26160 63 ?Fork@?$CMSimpleStringT@D@@AAEXH@Z
26200 40 ?NormalizeString@@YA?AVUnicodeString@@ABV1@@Z
262B0 40 ??1TGuard@@QAE@XZ
262C0 40 ??1TUnguard@@QAE@XZ
262D0 64 ??1TCriticalSection@@QAE@XZ
262E0 33 ?terminate@details@gsl@@YAXXZ
262F0 33 ??1?$BasicMemoryWriter@_WU?$custom_nballocator_t@_W@nb@@@fmt@@UAE@XZ
26320 33 ?report_unhandled_arg@PrecisionHandler@internal@fmt@@QAEXXZ
26350 33 ?report_unhandled_arg@WidthHandler@internal@fmt@@QAEXXZ
26380 33 ?printf@fmt@@YAXAAV?$BasicWriter@_W@1@V?$BasicCStringRef@_W@1@VArgList@1@@Z
263B0 33 ?Sprintf@nb@@YA?AVUnicodeString@@ABV2@VArgList@fmt@@@Z
264A3 33 __catch$?Sprintf@nb@@YA?AVUnicodeString@@ABV2@VArgList@fmt@@@Z$0
264F0 33 ?FmtLoadStr@nb@@YA?AVUnicodeString@@HVArgList@fmt@@@Z
265C0 0 ??_E?$BasicMemoryWriter@_WU?$custom_nballocator_t@_W@nb@@@fmt@@UAEPAXI@Z
26610 0 ??_E?$BasicWriter@_W@fmt@@UAEPAXI@Z
26640 33 ?format@?$PrintfFormatter@_WV?$PrintfArgFormatter@_W@fmt@@@fmt@@QAEXV?$BasicCStringRef@_W@2@@Z
26D48 33 $LN360
26D60 33 $LN359
26D74 33 $LN361
26DA8 33 $LN364
26DDC 33 $LN366
26DF8 33 $LN365
26E28 33 $LN367
26E5C 33 $LN368
26E90 33 ?visit@?$ArgVisitor@V?$PrintfArgFormatter@_W@fmt@@X@fmt@@QAEXABUArg@internal@2@@Z
27254 33 $LN559
27290 33 ?visit@?$ArgVisitor@V?$ArgConverter@X@internal@fmt@@X@fmt@@QAEXABUArg@internal@2@@Z
273F4 33 $LN80
27430 33 ?visit@?$ArgVisitor@V?$ArgConverter@H@internal@fmt@@X@fmt@@QAEXABUArg@internal@2@@Z
27570 33 $LN80
275B0 33 ?visit@?$ArgVisitor@V?$ArgConverter@_J@internal@fmt@@X@fmt@@QAEXABUArg@internal@2@@Z
27730 33 $LN80
27770 33 ?visit@?$ArgVisitor@V?$ArgConverter@F@internal@fmt@@X@fmt@@QAEXABUArg@internal@2@@Z
278B4 33 $LN80
278F0 33 ?visit@?$ArgVisitor@V?$ArgConverter@C@internal@fmt@@X@fmt@@QAEXABUArg@internal@2@@Z
27A48 33 $LN80
27A80 33 ?visit_cstring@?$BasicPrintfArgFormatter@V?$PrintfArgFormatter@_W@fmt@@_WUFormatSpec@2@@fmt@@QAEXPBD@Z
27BA0 33 ?visit_cstring@?$ArgVisitor@VPrecisionHandler@internal@fmt@@H@fmt@@QAEHPBD@Z
27BB0 33 ?visit_double@?$ArgVisitor@VPrecisionHandler@internal@fmt@@H@fmt@@QAEHN@Z
27BC0 33 ?visit_unhandled_arg@?$ArgVisitor@VPrecisionHandler@internal@fmt@@H@fmt@@QAEHXZ
27BD0 33 ?get_arg@?$PrintfFormatter@_WV?$PrintfArgFormatter@_W@fmt@@@fmt@@AAE?AUArg@internal@2@PB_WI@Z
27CC0 33 ??$fill_n@PA_WI_W@std@@YAPA_WPA_WIAB_W@Z
27D40 33 ??$visit_any_int@H@?$ArgConverter@H@internal@fmt@@QAEXH@Z
27DA0 33 ??$visit_any_int@H@?$ArgConverter@_J@internal@fmt@@QAEXH@Z
27E00 33 ??$visit_any_int@H@?$ArgConverter@F@internal@fmt@@QAEXH@Z
27E60 33 ??$visit_any_int@H@?$ArgConverter@C@internal@fmt@@QAEXH@Z
27EC0 33 ??$visit_any_double@N@?$ArgVisitor@VPrecisionHandler@internal@fmt@@H@fmt@@QAEHN@Z
27ED0 33 ?visit@?$ArgVisitor@VWidthHandler@internal@fmt@@I@fmt@@QAEIABUArg@internal@2@@Z
280A0 33 $LN78
280E0 33 ?visit_cstring@?$ArgVisitor@VWidthHandler@internal@fmt@@I@fmt@@QAEIPBD@Z
280F0 33 ?visit_double@?$ArgVisitor@VWidthHandler@internal@fmt@@I@fmt@@QAEIN@Z
28100 33 ?visit_unhandled_arg@?$ArgVisitor@VWidthHandler@internal@fmt@@I@fmt@@QAEIXZ
28110 33 ??$visit_any_double@N@?$ArgVisitor@VWidthHandler@internal@fmt@@I@fmt@@QAEIN@Z
28120 54 ___local_stdio_scanf_options
28130 54 __vswscanf_l
28160 54 _swscanf
28180 54 ?is@TList@@UBE_NG@Z
281B0 54 ??0TList@@QAE@G@Z
28220 0 ??_ETList@@UAEPAXI@Z
282E0 54 ?is@TObjectList@@UBE_NG@Z
28310 54 ?SetOwnsObjects@TObjectList@@QAEX_N@Z
28320 0 ??_ETObjectList@@UAEPAXI@Z
28360 54 ?is@TStrings@@UBE_NG@Z
283A0 54 ?is@TStringList@@UBE_NG@Z
283E0 54 ?GetSorted@TStringList@@UBE_NXZ
283F0 54 ?GetCaseSensitive@TStringList@@UBE_NXZ
28400 54 ?is@ETerminal@@UBE_NG@Z
28430 54 ??1ETerminal@@UAE@XZ
28440 54 ?Clone@ETerminal@@UBEPAVExtException@@XZ
284D0 54 ?Rethrow@ETerminal@@UAEXXZ
284F0 0 ??_EETerminal@@UAEPAXI@Z
28530 54 ??0ETerminal@@QAE@GPBVException@@@Z
28550 54 ??0ETerminal@@QAE@ABV0@@Z
285D0 54 ?GetDirectory@TRemoteFileList@@QBE?AVUnicodeString@@XZ
285F0 54 ?GetIDValid@TRemoteToken@@QBE_NXZ
28600 54 ?is@TRemoteFile@@UBE_NG@Z
28630 65 ?GetCacheDirectories@TSessionData@@QBE_NXZ
28640 54 ?SetSize@TRemoteFile@@QAEX_J@Z
28660 54 ?GetFileName@TRemoteFile@@QBE?AVUnicodeString@@XZ
28680 54 ?SetFileName@TRemoteFile@@QAEXABVUnicodeString@@@Z
286A0 54 ?GetModification@TRemoteFile@@QBE?AVTDateTime@@XZ
286C0 54 ?GetIsSymLink@TRemoteFile@@QBE_NXZ
286D0 54 ?GetLinkTo@TRemoteFile@@QBE?AVUnicodeString@@XZ
286F0 54 ?GetRights@TRemoteFile@@QBEPBVTRights@@XZ
28700 54 ?GetTerminal@TRemoteFile@@QBEPBVTTerminal@@XZ
28710 54 ?SetFullFileName@TRemoteFile@@QAEXABVUnicodeString@@@Z
28730 54 ?is@TRemoteDirectoryFile@@UBE_NG@Z
28760 54 ?is@TRemoteParentDirectory@@UBE_NG@Z
28790 54 ?is@TRemoteFileList@@UBE_NG@Z
287D0 54 ??1TRemoteFileList@@UAE@XZ
28860 0 ??_ETRemoteFileList@@UAEPAXI@Z
288A0 54 ?is@TRemoteDirectory@@UBE_NG@Z
288E0 54 ?is@TRemoteProperties@@UBE_NG@Z
28900 54 ?is@TChecklistItem@@UBE_NG@Z
28920 54 ?GetDSTMode@TSessionData@@QBE?AW4TDSTMode@@XZ
28930 54 ?GetSessionData@TTerminal@@QBEPAVTSessionData@@XZ
28940 54 ?GetLog@TTerminal@@QAEPAVTSessionLog@@XZ
28950 54 ??0TRemoteToken@@QAE@XZ
28A20 0 ??_ETRemoteToken@@UAEPAXI@Z
28A90 54 ??1TRemoteToken@@UAE@XZ
28AD0 54 ??0TRemoteToken@@QAE@ABVUnicodeString@@@Z
28BA0 54 ??0TRemoteToken@@QAE@ABV0@@Z
28C90 54 ??8TRemoteToken@@QBE_NABV0@@Z
28D00 54 ?GetNameValid@TRemoteToken@@QBE_NXZ
28D10 54 ?GetIsSet@TRemoteToken@@QBE_NXZ
28D30 54 ?GetDisplayText@TRemoteToken@@QBE?AVUnicodeString@@XZ
28D90 54 ?GetLogText@TRemoteToken@@QBE?AVUnicodeString@@XZ
28E40 54 ?Clear@TRemoteTokenList@@QAEXXZ
28ED0 54 ?Add@TRemoteTokenList@@QAEXABVTRemoteToken@@@Z
28FD0 54 ?Log@TRemoteTokenList@@QAEXPAVTTerminal@@PB_W@Z
29240 54 ??0TRemoteFile@@QAE@GPAV0@@Z
29880 0 ??_ETRemoteDirectoryFile@@UAEPAXI@Z
298C0 54 ??0TRemoteFile@@QAE@PAV0@@Z
29F10 54 ??1TRemoteFile@@UAE@XZ
2A020 54 ?Duplicate@TRemoteFile@@QBEPAV1@_N@Z
2A0C0 54 ??R<lambda_e8b13f48e535d19cd4122dbd09498280>@@QBE@XZ
2A340 54 ?GetSize@TRemoteFile@@QBE_JXZ
2A380 54 ?GetIsHidden@TRemoteFile@@QBE_NXZ
2A420 54 ?GetIsDirectory@TRemoteFile@@QBE_NXZ
2A440 54 ?GetIsParentDirectory@TRemoteFile@@QBE_NXZ
2A480 54 ?GetIsThisDirectory@TRemoteFile@@QBE_NXZ
2A4C0 54 ?GetIsInaccessibleDirectory@TRemoteFile@@QBE_NXZ
2A710 54 ?GetType@TRemoteFile@@QBE_WXZ
2A720 54 ?SetType@TRemoteFile@@QAEX_W@Z
2A750 54 ?GetLinkedFile@TRemoteFile@@QBEPBV1@XZ
2A760 54 ?ShiftTimeInSeconds@TRemoteFile@@QAEX_J@Z
2A7F0 54 ?SetModification@TRemoteFile@@QAEXABVTDateTime@@@Z
2A820 54 ?GetExtension@TRemoteFile@@QBE?AVUnicodeString@@XZ
2A840 54 ?SetRights@TRemoteFile@@QAEXPBVTRights@@@Z
2A880 54 ?GetFullLinkName@TRemoteFile@@QBE?AVUnicodeString@@XZ
2A960 54 ?SetListingStr@TRemoteFile@@QAEXABVUnicodeString@@@Z
2B661 54 __catch$?SetListingStr@TRemoteFile@@QAEXABVUnicodeString@@@Z$0
2B750 54 ??R<lambda_95ff06a481b98d3297053576950dac5a>@@QBE@XZ
2B890 54 ??R<lambda_ff146c80ff88493d28b589b9446b9bf3>@@QBE@XZ
2B8F0 54 ??R<lambda_bad53ed84a4f1e7e4fe8741d86c55821>@@QBE@XZ
2B9C0 54 ??0ETerminal@@QAE@PBVException@@ABVUnicodeString@@1@Z
2B9F0 54 ?Complete@TRemoteFile@@QAEXXZ
2BA30 54 ?SetEncrypted@TRemoteFile@@QAEXXZ
2BAB0 54 ?FindLinkedFile@TRemoteFile@@IAEXXZ
2BCFB 54 __catch$?FindLinkedFile@TRemoteFile@@IAEXXZ$0
2BD40 54 ??R<lambda_65681ce42b34b8b79560e811e97d29c6>@@QBE@XZ
2BDD0 54 ?Resolve@TRemoteFile@@QBEPBV1@XZ
2BE20 54 ?GetListingStr@TRemoteFile@@QBE?AVUnicodeString@@XZ
2C0B0 54 ?GetFullFileName@TRemoteFile@@QBE?AVUnicodeString@@XZ
2C260 54 ?GetHaveFullFileName@TRemoteFile@@QBE_NXZ
2C280 54 ?SetTerminal@TRemoteFile@@QAEXPBVTTerminal@@@Z
2C2C0 54 ??0TRemoteDirectoryFile@@QAE@XZ
2C2F0 54 ??0TRemoteDirectoryFile@@QAE@G@Z
2C320 54 ?Init@TRemoteDirectoryFile@@QAEXXZ
2C3C0 54 ??0TRemoteParentDirectory@@QAE@PAVTTerminal@@@Z
2C4A0 54 ??0TRemoteFileList@@QAE@XZ
2C610 54 ?AddFile@TRemoteFileList@@UAEXPAVTRemoteFile@@@Z
2C630 54 ?DuplicateTo@TRemoteFileList@@UBEXPAV1@@Z
2C7A0 54 ?Reset@TRemoteFileList@@UAEXXZ
2C7D0 54 ?SetDirectory@TRemoteDirectory@@UAEXABVUnicodeString@@@Z
2C830 54 ?GetFullDirectory@TRemoteFileList@@QBE?AVUnicodeString@@XZ
2C8D0 54 ?GetFile@TRemoteFileList@@QBEPAVTRemoteFile@@H@Z
2C900 54 ?GetIsRoot@TRemoteFileList@@QBE_NXZ
2C990 54 ?GetParentPath@TRemoteFileList@@QBE?AVUnicodeString@@XZ
2CA30 54 ?GetTotalSize@TRemoteFileList@@QBE_JXZ
2CAE0 54 ?FindFile@TRemoteFileList@@QBEPAVTRemoteFile@@ABVUnicodeString@@@Z
2CBE0 54 ??0TRemoteDirectory@@QAE@PAVTTerminal@@PAV0@@Z
2CDA0 0 ??_ETRemoteDirectory@@UAEPAXI@Z
2CDF0 54 ?ReleaseRelativeDirectories@TRemoteDirectory@@QAEXXZ
2CE60 54 ?Reset@TRemoteDirectory@@UAEXXZ
2CE70 54 ?AddFile@TRemoteDirectory@@UAEXPAVTRemoteFile@@@Z
2CFB0 54 ?DuplicateTo@TRemoteDirectory@@UBEXPAVTRemoteFileList@@@Z
2D020 0 ??_ETRemoteDirectoryCache@@UAEPAXI@Z
2D100 54 ?Clear@TRemoteDirectoryCache@@UAEXXZ
2D180 54 ??R<lambda_f8fb971e48344cf190071c2bed6cf177>@@QBE@XZ
2D230 54 ??R<lambda_976710258afbc1f99a3c1349d7dba156>@@QBE@XZ
2D240 54 ?HasFileList@TRemoteDirectoryCache@@QBE_NABVUnicodeString@@@Z
2D300 54 ?HasNewerFileList@TRemoteDirectoryCache@@QBE_NABVUnicodeString@@ABVTDateTime@@@Z
2D410 54 ?GetFileList@TRemoteDirectoryCache@@QBE_NABVUnicodeString@@PAVTRemoteFileList@@@Z
2D520 54 ?AddFileList@TRemoteDirectoryCache@@QAEXPAVTRemoteFileList@@@Z
2D690 54 ?DoClearFileList@TRemoteDirectoryCache@@AAEXABVUnicodeString@@_N@Z
2D850 54 ?Delete@TRemoteDirectoryCache@@MAEXH@Z
2D8A0 0 ??_ETFarMenuItems@@UAEPAXI@Z
2D910 54 ?Clear@?$TListBase@VTChecklistItem@@@@UAEXXZ
2D920 54 ?GetValue@TRemoteDirectoryChangesCache@@AAE?AVUnicodeString@@ABV2@@Z
2D990 54 ?AddDirectoryChange@TRemoteDirectoryChangesCache@@QAEXABVUnicodeString@@00@Z
2DB90 54 ?ClearDirectoryChange@TRemoteDirectoryChangesCache@@QAEXABVUnicodeString@@@Z
2DCB0 54 ?ClearDirectoryChangeTarget@TRemoteDirectoryChangesCache@@QAEXABVUnicodeString@@@Z
2DF80 54 ?DirectoryChangeKey@TRemoteDirectoryChangesCache@@CA_NABVUnicodeString@@0AAV2@@Z
2E060 54 ??0TRights@@QAE@XZ
2E1F0 0 ??_ETRights@@UAEPAXI@Z
2E260 54 ??1TRights@@UAE@XZ
2E2A0 54 ??0TRights@@QAE@G@Z
2E430 54 ??0TRights@@QAE@ABV0@@Z
2E5D0 54 ??8TRights@@QBE_NABV0@@Z
2E670 54 ??4TRights@@QAEAAV0@ABV0@@Z
2E6B0 54 ??_4TRights@@QAEAAV0@ABV0@@Z
2E770 54 ??_4TRights@@QAEAAV0@G@Z
2E7C0 54 ??_5TRights@@QAEAAV0@G@Z
2E810 54 ?SetAllowUndef@TRights@@QAEX_N@Z
2E820 54 ?SetText@TRights@@QAEXABVUnicodeString@@@Z
2EBD0 54 ?GetText@TRights@@QBE?AVUnicodeString@@XZ
2EDC0 54 ?SetOctal@TRights@@QAEXABVUnicodeString@@@Z
2F180 54 ?GetOctal@TRights@@QBE?AVUnicodeString@@XZ
2F370 54 ?SetNumber@TRights@@QAEXG@Z
2F3C0 54 ?GetNumber@TRights@@QBEGXZ
2F3D0 54 ?GetRight@TRights@@QBE_NW4TRight@1@@Z
2F420 54 ?SetRightUndef@TRights@@QAEXW4TRight@1@W4TState@1@@Z
2F4C0 54 ?GetChmodStr@TRights@@QBE?AVUnicodeString@@H@Z
2F650 54 ?GetModeStr@TRights@@QBE?AVUnicodeString@@XZ
2FA20 54 ?AddExecute@TRights@@QAEXXZ
2FA80 54 ?GetIsUndef@TRights@@QBE_NXZ
2FAA0 54 ?Combine@TRights@@QBE?AV1@ABV1@@Z
2FB50 54 ??0TRemoteProperties@@QAE@XZ
2FBE0 0 ??_ETRemoteProperties@@UAEPAXI@Z
2FC20 54 ??1TRemoteProperties@@UAE@XZ
2FCE0 54 ??0TRemoteProperties@@QAE@ABV0@@Z
2FDA0 54 ?Default@TRemoteProperties@@QAEXXZ
2FE50 54 ?CommonProperties@TRemoteProperties@@SA?AV1@PAVTStrings@@@Z
300A0 54 ??4TRemoteProperties@@QAEAAV0@ABV0@@Z
30190 54 ?Load@TRemoteProperties@@QAEXPAVTHierarchicalStorage@@@Z
30350 54 ?Save@TRemoteProperties@@QBEXPAVTHierarchicalStorage@@@Z
30510 54 ??0TFileInfo@TChecklistItem@@QAE@XZ
30560 0 ??_ETChecklistItem@@UAEPAXI@Z
305C0 0 ??_ETFileInfo@TChecklistItem@@UAEPAXI@Z
30600 75 ??1TEditHistory@@UAE@XZ
30680 54 ?GetBaseSize@TChecklistItem@@ABE_JW4TChecklistAction@@@Z
306AC 54 $LN12
306D0 0 ??_ETSynchronizeChecklist@@UAEPAXI@Z
30710 54 ??1TSynchronizeChecklist@@UAE@XZ
30780 54 __catch$??1TSynchronizeChecklist@@UAE@XZ$0
307B0 54 ?Compare@TSynchronizeChecklist@@CAHPBX0@Z
30860 54 ?GetCount@TSynchronizeChecklist@@QBEHXZ
30870 54 ?GetCheckedCount@TSynchronizeChecklist@@QBEHXZ
308E0 54 ?SetCount@?$TListBase@VTChecklistItem@@@@UAEXH@Z
30993 20 __catch$?SetCount@?$TListBase@VTFarDialogContainer@@@@UAEXH@Z$0
309E0 54 ?GetCount@?$TListBase@VTChecklistItem@@@@UBEHXZ
309F0 54 ?Sort@?$TListBase@VTChecklistItem@@@@UAEXXZ
30A00 55 ?AnyCommand@TS3FileSystem@@UAEXABVUnicodeString@@$$QAV?$FastDelegate2@XABVUnicodeString@@W4TCaptureOutputType@@@fastdelegate@@@Z
30A10 54 ?Delete@?$TListBase@VTChecklistItem@@@@UAEXH@Z
30A60 54 ?Move@?$TListBase@VTChecklistItem@@@@UAEXHH@Z
30B60 54 ?Add@?$TListBase@VTChecklistItem@@@@UAEHPAVTChecklistItem@@@Z
30BB0 54 ??A?$TListBase@VTChecklistItem@@@@UBEPBVTChecklistItem@@H@Z
30BC0 54 ??1?$TListBase@VTChecklistItem@@@@UAE@XZ
30C30 54 ?is@?$TListBase@VTChecklistItem@@@@UBE_NG@Z
30C60 54 ??1?$unique_ptr@VTRights@@U?$default_delete@VTRights@@@std@@@std@@QAE@XZ
30CB0 54 ?GetCount@?$TListBase@VTObject@@@@UBEHXZ
30CD0 20 ?IndexOf@?$TListBase@VTFarDialogContainer@@@@QBEHPBVTFarDialogContainer@@@Z
30D10 54 ?Delete@?$TListBase@VTObject@@@@UAEXH@Z
30D60 54 ?Move@?$TListBase@VTObject@@@@UAEXHH@Z
30DD0 0 ??_E?$TListBase@VTChecklistItem@@@@UAEPAXI@Z
30E80 0 ??_E?$TListBase@VTObject@@@@UAEPAXI@Z
30F30 54 ?Insert@?$TListBase@VTObject@@@@QAEXHPAVTObject@@@Z
30FD0 54 ?Remove@?$TListBase@VTObject@@@@QAEHPBVTObject@@@Z
31000 0 ??_ETRemoteTokenList@@UAEPAXI@Z
31060 54 ??1TRemoteTokenList@@UAE@XZ
31090 44 ??1?$_Tree@V?$_Tmap_traits@HHU?$less@H@std@@U?$custom_nballocator_t@U?$pair@$$CBHH@std@@@nb@@$0A@@std@@@std@@QAE@XZ
310D0 54 ??1?$vector@VTRemoteToken@@U?$custom_nballocator_t@VTRemoteToken@@@nb@@@std@@QAE@XZ
31120 54 ??$insert@$0A@$0A@@?$_Tree@V?$_Tmap_traits@HIU?$less@H@std@@U?$custom_nballocator_t@U?$pair@$$CBHI@std@@@nb@@$0A@@std@@@std@@QAE?AU?$pair@V?$_Tree_iterator@V?$_Tree_val@U?$_Tree_simple_types@U?$pair@$$CBHI@std@@@std@@@std@@@std@@_N@1@$$QAU?$pair@$$CBHI@1@@Z
311E0 54 ??$insert@$0A@$0A@@?$_Tree@V?$_Tmap_traits@VUnicodeString@@IU?$less@VUnicodeString@@@std@@U?$custom_nballocator_t@U?$pair@$$CBVUnicodeString@@I@std@@@nb@@$0A@@std@@@std@@QAE?AU?$pair@V?$_Tree_iterator@V?$_Tree_val@U?$_Tree_simple_types@U?$pair@$$CBVUnicodeString@@I@std@@@std@@@std@@@std@@_N@1@$$QAU?$pair@$$CBVUnicodeString@@I@1@@Z
312D0 54 ??$Sprintf@PB_W@nb@@YA?AVUnicodeString@@ABV1@ABQB_W@Z
31340 54 ??$Sprintf@_WVUnicodeString@@V1@V1@V1@V1@V1@V1@V1@@nb@@YA?AVUnicodeString@@ABV1@AB_W00000000@Z
31440 54 ??$GetAs@VTRemoteFile@@@TObjectList@@QAEPAVTRemoteFile@@H@Z
31470 54 ??$make_unique@VTRemoteFileList@@$$V$0A@@std@@YA?AV?$unique_ptr@VTRemoteFileList@@U?$default_delete@VTRemoteFileList@@@std@@@0@XZ
314C0 61 ??$_Erase_tree@U?$custom_nballocator_t@U?$_Tree_node@IPAX@std@@@nb@@@?$_Tree_val@U?$_Tree_simple_types@I@std@@@std@@QAEXAAU?$custom_nballocator_t@U?$_Tree_node@IPAX@std@@@nb@@PAU?$_Tree_node@IPAX@1@@Z
31500 59 ??$_Erase_tree@U?$custom_nballocator_t@U?$_Tree_node@U?$pair@$$CBVUnicodeString@@H@std@@PAX@std@@@nb@@@?$_Tree_val@U?$_Tree_simple_types@U?$pair@$$CBVUnicodeString@@H@std@@@std@@@std@@QAEXAAU?$custom_nballocator_t@U?$_Tree_node@U?$pair@$$CBVUnicodeString@@H@std@@PAX@std@@@nb@@PAU?$_Tree_node@U?$pair@$$CBVUnicodeString@@H@std@@PAX@1@@Z
31570 54 ??0?$TListBase@VTChecklistItem@@@@QAE@XZ
315E0 54 ??0?$scope_guard@V<lambda_809f3025ebea7c8e5b177259fcdc42f3>@@V<lambda_6755ad6735ed2a853ae080090c743f50>@@@detail@Sysutils@@QAE@$$QAV<lambda_809f3025ebea7c8e5b177259fcdc42f3>@@$$QAV<lambda_6755ad6735ed2a853ae080090c743f50>@@@Z
316D1 54 __catch$??0?$scope_guard@V<lambda_809f3025ebea7c8e5b177259fcdc42f3>@@V<lambda_6755ad6735ed2a853ae080090c743f50>@@@detail@Sysutils@@QAE@$$QAV<lambda_809f3025ebea7c8e5b177259fcdc42f3>@@$$QAV<lambda_6755ad6735ed2a853ae080090c743f50>@@@Z$0
316E0 54 ??0?$scope_guard@V<lambda_f8fb971e48344cf190071c2bed6cf177>@@V<lambda_976710258afbc1f99a3c1349d7dba156>@@@detail@Sysutils@@QAE@$$QAV<lambda_f8fb971e48344cf190071c2bed6cf177>@@$$QAV<lambda_976710258afbc1f99a3c1349d7dba156>@@@Z
31752 54 __catch$??0?$scope_guard@V<lambda_f8fb971e48344cf190071c2bed6cf177>@@V<lambda_976710258afbc1f99a3c1349d7dba156>@@@detail@Sysutils@@QAE@$$QAV<lambda_f8fb971e48344cf190071c2bed6cf177>@@$$QAV<lambda_976710258afbc1f99a3c1349d7dba156>@@@Z$0
31770 54 ??0?$scope_guard@V<lambda_ea35d23d29b97b5c0c359bbc092abbd7>@@V<lambda_65681ce42b34b8b79560e811e97d29c6>@@@detail@Sysutils@@QAE@$$QAV<lambda_ea35d23d29b97b5c0c359bbc092abbd7>@@$$QAV<lambda_65681ce42b34b8b79560e811e97d29c6>@@@Z
3184B 54 __catch$??0?$scope_guard@V<lambda_ea35d23d29b97b5c0c359bbc092abbd7>@@V<lambda_65681ce42b34b8b79560e811e97d29c6>@@@detail@Sysutils@@QAE@$$QAV<lambda_ea35d23d29b97b5c0c359bbc092abbd7>@@$$QAV<lambda_65681ce42b34b8b79560e811e97d29c6>@@@Z$0
31870 54 ??0?$scope_guard@V<lambda_e8b13f48e535d19cd4122dbd09498280>@@V<lambda_8bcffec212f1895749b5630952ef8c0b>@@@detail@Sysutils@@QAE@$$QAV<lambda_e8b13f48e535d19cd4122dbd09498280>@@$$QAV<lambda_8bcffec212f1895749b5630952ef8c0b>@@@Z
318CE 54 __catch$??0?$scope_guard@V<lambda_e8b13f48e535d19cd4122dbd09498280>@@V<lambda_8bcffec212f1895749b5630952ef8c0b>@@@detail@Sysutils@@QAE@$$QAV<lambda_e8b13f48e535d19cd4122dbd09498280>@@$$QAV<lambda_8bcffec212f1895749b5630952ef8c0b>@@@Z$0
318E0 54 ??0?$map@HIU?$less@H@std@@U?$custom_nballocator_t@U?$pair@$$CBHI@std@@@nb@@@std@@QAE@XZ
31930 54 ??$_Sort_unchecked@PAPAVTChecklistItem@@V<lambda_0d40bdaa34849b8b067c70bf33922076>@@@std@@YAXPAPAVTChecklistItem@@0HV<lambda_0d40bdaa34849b8b067c70bf33922076>@@@Z
31BB0 54 ??$_Find_lower_bound@H@?$_Tree@V?$_Tmap_traits@HIU?$less@H@std@@U?$custom_nballocator_t@U?$pair@$$CBHI@std@@@nb@@$0A@@std@@@std@@IBE?AU?$_Tree_find_result@PAU?$_Tree_node@U?$pair@$$CBHI@std@@PAX@std@@@1@ABH@Z
31C00 69 ??$_Find_lower_bound@VUnicodeString@@@?$_Tree@V?$_Tmap_traits@VUnicodeString@@HU?$less@VUnicodeString@@@std@@U?$custom_nballocator_t@U?$pair@$$CBVUnicodeString@@H@std@@@nb@@$0A@@std@@@std@@IBE?AU?$_Tree_find_result@PAU?$_Tree_node@U?$pair@$$CBVUnicodeString@@H@std@@PAX@std@@@1@ABVUnicodeString@@@Z
31C70 54 ??$_Emplace_reallocate@ABVTRemoteToken@@@?$vector@VTRemoteToken@@U?$custom_nballocator_t@VTRemoteToken@@@nb@@@std@@AAEPAVTRemoteToken@@QAV2@ABV2@@Z
31D90 61 ??$_Resize_reallocate@U_Value_init_tag@std@@@?$vector@IU?$custom_nballocator_t@I@nb@@@std@@AAEXIABU_Value_init_tag@1@@Z
31E60 65 ??$_Emplace_reallocate@ABH@?$vector@HU?$custom_nballocator_t@H@nb@@@std@@AAEPAHQAHABH@Z
31F90 54 ??R?$less@VUnicodeString@@@std@@QBE_NABVUnicodeString@@0@Z
31FC0 54 ??$_Partition_by_median_guess_unchecked@PAPAVTChecklistItem@@V<lambda_0d40bdaa34849b8b067c70bf33922076>@@@std@@YA?AU?$pair@PAPAVTChecklistItem@@PAPAV1@@0@PAPAVTChecklistItem@@0V<lambda_0d40bdaa34849b8b067c70bf33922076>@@@Z
32240 54 ??$_Uninitialized_move@PAVTRemoteToken@@U?$custom_nballocator_t@VTRemoteToken@@@nb@@@std@@YAPAVTRemoteToken@@QAV1@0PAV1@AAU?$custom_nballocator_t@VTRemoteToken@@@nb@@@Z
32270 54 ??$_Pop_heap_hole_by_index@PAPAVTChecklistItem@@PAV1@V<lambda_0d40bdaa34849b8b067c70bf33922076>@@@std@@YAXPAPAVTChecklistItem@@HH$$QAPAV1@V<lambda_0d40bdaa34849b8b067c70bf33922076>@@@Z
32330 54 ??$_Med3_unchecked@PAPAVTChecklistItem@@V<lambda_0d40bdaa34849b8b067c70bf33922076>@@@std@@YAXPAPAVTChecklistItem@@00V<lambda_0d40bdaa34849b8b067c70bf33922076>@@@Z
3238F 54 ??_9?$TListBase@VTChecklistItem@@@@$BDM@AE
323A0 54 ??_9TRemoteFileList@@$BEE@AE
323B0 65 ??4RawByteString@@QAEAAV0@$$QAV0@@Z
323D0 65 ??4?$CMStringT@EV?$NBChTraitsCRT@E@@@@QAEAAV0@$$QAV0@@Z
324A0 65 ?is@EInvalidOperation@@UBE_NG@Z
324C0 65 ??0EInvalidOperation@@QAE@ABVUnicodeString@@@Z
324F0 65 ?is@ECommand@@UBE_NG@Z
32520 65 ??0ECommand@@QAE@ABVUnicodeString@@@Z
32550 65 ??1ECommand@@UAE@XZ
32560 65 ?Clone@ECommand@@UBEPAVExtException@@XZ
325F0 65 ?Rethrow@ECommand@@UAEXXZ
32610 0 ??_EECommand@@UAEPAXI@Z
32650 65 ??0ECommand@@QAE@GPBVException@@@Z
32670 65 ??0ECommand@@QAE@ABV0@@Z
326F0 65 ??0ESkipFile@@QAE@XZ
327A0 65 ?is@ESkipFile@@UBE_NG@Z
327D0 56 ??1EScpFileSkipped@@UAE@XZ
327E0 65 ?Clone@ESkipFile@@UBEPAVExtException@@XZ
32870 65 ?Rethrow@ESkipFile@@UAEXXZ
32890 0 ??_EEScpFileSkipped@@UAEPAXI@Z
328D0 65 ??0ESkipFile@@QAE@GPBVException@@@Z
32900 65 ??0ESkipFile@@QAE@ABV0@@Z
32980 65 ?is@EConnectionFatal@@UBE_NG@Z
329B0 65 ??0EConnectionFatal@@QAE@PBVException@@ABVUnicodeString@@@Z
32A40 65 ?Clone@EConnectionFatal@@UBEPAVExtException@@XZ
32C80 57 ??1?$TValueRestorer@PAVTHierarchicalStorage@@@@QAE@XZ
32CA0 65 ??1?$TValueRestorer@_N@@QAE@XZ
32CC0 65 ?SetAccessMode@THierarchicalStorage@@QAEXW4TStorageAccessMode@@@Z
32CD0 65 ?GetActualLogProtocol@TConfiguration@@QBEHXZ
32CE0 65 ?GetHostName@TSessionData@@QBE?AVUnicodeString@@XZ
32D00 65 ?GetFSProtocol@TSessionData@@QBE?AW4TFSProtocol@@XZ
32D10 65 ?GetRemoteDirectory@TSessionData@@QBE?AVUnicodeString@@XZ
32D30 65 ?GetCacheDirectoryChanges@TSessionData@@QBE_NXZ
32D40 65 ?GetPreserveDirectoryChanges@TSessionData@@QBE_NXZ
32D50 65 ?GetSendBuf@TSessionData@@QBEHXZ
32D60 65 ?GetProxyMethod@TSessionData@@QBE?AW4TProxyMethod@@XZ
32D70 65 ?GetFtpProxyLogonType@TSessionData@@QBEHXZ
32D80 65 ?GetResolveSymlinks@TSessionData@@QBE_NXZ
32D90 65 ?GetFollowDirectorySymlinks@TSessionData@@QBE_NXZ
32DA0 65 ?GetTlsCertificateFile@TSessionData@@QBE?AVUnicodeString@@XZ
32DC0 65 ?GetDeleteToRecycleBin@TSessionData@@QBE_NXZ
32DD0 65 ?GetRecycleBinPath@TSessionData@@QBE?AVUnicodeString@@XZ
32DF0 65 ?GetTunnel@TSessionData@@QBE_NXZ
32E00 65 ?GetTunnelLocalPortNumber@TSessionData@@QBEHXZ
32E10 65 ?GetFtps@TSessionData@@QBE?AW4TFtps@@XZ
32E20 65 ?GetHostKey@TSessionData@@QBE?AVUnicodeString@@XZ
32E40 65 ?GetFingerprintScan@TSessionData@@QBE_NXZ
32E50 65 ?Copy@TClipboardHandler@@QBEXPAVTObject@@AAI@Z
32F00 65 ?is@TSessionUI@@UBE_NG@Z
32F20 65 ?GetPreserveTime@TCopyParamType@@QBE_NXZ
32F30 65 ?SetPreserveTime@TCopyParamType@@QAEX_N@Z
32F40 65 ?GetSide@TFileOperationProgressType@@QBE?AW4TOperationSide@@XZ
32F50 65 ?GetOperation@TFileOperationProgressType@@QBE?AW4TFileOperation@@XZ
32F60 65 ?GetConfigurationConst@TTerminal@@QBEPBVTConfiguration@@XZ
32F70 65 ?GetTransferredSize@TFileOperationProgressType@@QBE_JXZ
32F80 65 ??1TPersistence@TFileOperationProgressType@@UAE@XZ
32FD0 65 ??0TSuspendFileOperationProgress@@QAE@PAVTFileOperationProgressType@@@Z
33030 65 ??1TSuspendFileOperationProgress@@UAE@XZ
33084 65 __catch$??1TSuspendFileOperationProgress@@UAE@XZ$0
33090 0 ??_ETSuspendFileOperationProgress@@UAEPAXI@Z
330D0 65 ?is@TTerminal@@UBE_NG@Z
33100 53 ??$ToUInt32@H@nb@@YAIH@Z
33110 65 ?GetActionLog@TTerminal@@QBEPAVTActionLog@@XZ
33120 65 ?is@TSecondaryTerminal@@UBE_NG@Z
33150 65 ?GetPasswordSource@TSecondaryTerminal@@MBEPBVTTerminal@@XZ
33160 0 ??_ETSecondaryTerminal@@UAEPAXI@Z
331A0 65 ?is@TCustomCommandParams@@UBE_NG@Z
331C0 65 ??0TCustomCommandParams@@QAE@XZ
33200 0 ??_ETCustomCommandParams@@UAEPAXI@Z
33270 65 ?is@TCalculateSizeParams@@UBE_NG@Z
33290 65 ?is@TCollectedFileList@@UBE_NG@Z
332B0 65 ?Output@TOutputProxy@@QAEXABVUnicodeString@@W4TCaptureOutputType@@@Z
33490 0 ??_ETOutputProxy@@UAEPAXI@Z
334C0 65 ??0ESkipFile@@QAE@PBVException@@ABVUnicodeString@@1@Z
334F0 65 ?is@TSinkFileParams@@UBE_NG@Z
33510 0 ??_ETSinkFileParams@@UAEPAXI@Z
33580 65 ?is@TOverwriteFileParams@@UBE_NG@Z
335A0 65 ??0TOverwriteFileParams@@QAE@XZ
33610 0 ??_ETOverwriteFileParams@@UAEPAXI@Z
33640 65 ?is@TSimpleThread@@UBE_NG@Z
33660 65 ?is@TMoveFileParams@@UBE_NG@Z
33680 0 ??_ETMoveFileParams@@UAEPAXI@Z
336C0 0 ??_ETCalculateSizeStats@@UAEPAXI@Z
336F0 65 ??0TCalculateSizeParams@@QAE@XZ
33750 0 ??_ETCalculateSizeParams@@UAEPAXI@Z
337C0 0 ??_ETSynchronizeOptions@@UAEPAXI@Z
33810 65 ??1TSynchronizeOptions@@UAE@XZ
33830 65 ?MatchesFilter@TSynchronizeOptions@@QBE_NABVUnicodeString@@@Z
33860 65 ?is@TTunnelThread@@UBE_NG@Z
33890 0 ??_ETTunnelThread@@UAEPAXI@Z
33960 65 ?Terminate@TTunnelThread@@UAEXXZ
33970 65 ?Execute@TTunnelThread@@MAEXXZ
339BC 65 __catch$?Execute@TTunnelThread@@MAEXXZ$0
339F0 65 ?Information@TTunnelUI@@UAEXABVUnicodeString@@_N@Z
33A10 65 ?QueryUser@TTunnelUI@@UAEIABVUnicodeString@@PAVTStrings@@IPBUTQueryParams@@W4TQueryType@@@Z
33A70 65 ?QueryUserException@TTunnelUI@@UAEIABVUnicodeString@@PAVException@@IPBUTQueryParams@@W4TQueryType@@@Z
33AD0 65 ?PromptUser@TTunnelUI@@UAE_NPAVTSessionData@@W4TPromptKind@@ABVUnicodeString@@2PAVTStrings@@3@Z
33C60 65 ?DisplayBanner@TTunnelUI@@UAEXABVUnicodeString@@@Z
33C80 65 ?FatalError@TTunnelUI@@UAEXPAVException@@ABVUnicodeString@@1@Z
33CB0 65 ??0EConnectionFatal@@QAE@ABV0@@Z
33D40 65 ?HandleExtendedException@TTunnelUI@@UAEXPAVException@@@Z
33D60 65 ??0TCallbackGuard@@QAE@PAVTTerminal@@@Z
33DA0 0 ??_ETCallbackGuard@@UAEPAXI@Z
33E00 65 ??1TCallbackGuard@@UAE@XZ
33E40 65 ?FatalError@TCallbackGuard@@QAEXPAVException@@ABVUnicodeString@@1@Z
33EE0 65 ?Verify@TCallbackGuard@@QAEXXZ
33F70 65 ?Verify@TCallbackGuard@@QAE_NPAVException@@@Z
33FC0 65 ??0TRobustOperationLoop@@QAE@V?$not_null@PAVTTerminal@@@gsl@@PAVTFileOperationProgressType@@PA_N_N@Z
34070 0 ??_ETRobustOperationLoop@@UAEPAXI@Z
340B0 65 ??1TRobustOperationLoop@@UAE@XZ
340D0 65 ?TryReopen@TRobustOperationLoop@@QAE_NAAVException@@@Z
342B0 65 ?DoError@TRetryOperationLoop@@AAEXAAVException@@PAVTSessionAction@@ABVUnicodeString@@@Z
343BB 65 __catch$?DoError@TRetryOperationLoop@@AAEXAAVException@@PAVTSessionAction@@ABVUnicodeString@@@Z$0
34410 65 ?Error@TRetryOperationLoop@@QAEXAAVException@@@Z
344B0 65 ??0TCollectedFileList@@QAE@XZ
34500 0 ??_ETCollectedFileList@@UAEPAXI@Z
345C0 65 ?Add@TCollectedFileList@@QAEHABVUnicodeString@@PAVTObject@@_N@Z
346E0 65 ?GetCount@TCollectedFileList@@QBEHXZ
34700 65 ?GetObject@TCollectedFileList@@ABEPAVTObject@@H@Z
34710 0 ??_ETParallelOperation@@UAEPAXI@Z
34850 65 ?Init@TParallelOperation@@QAEXPAVTStrings@@ABVUnicodeString@@PBVTCopyParamType@@HPAVTFileOperationProgressType@@1_J@Z
34950 65 ?WaitFor@TParallelOperation@@QAEXXZ
349B0 65 ?Done@TParallelOperation@@QAEXABVUnicodeString@@_N10PBVTCopyParamType@@PAVTTerminal@@@Z
34CC0 65 ??R<lambda_6bfb13fca0bca2841d05880c503beec8>@@QBE@XZ
35260 65 __catch$??R<lambda_6bfb13fca0bca2841d05880c503beec8>@@QBE@XZ$0
352E0 65 ??R<lambda_e39dc48a0aec1462944f0b0d28dc1e47>@@QBE@XZ
35360 65 ?CheckEnd@TParallelOperation@@AAE_NPAVTCollectedFileList@@@Z
35390 65 ?GetFileList@TParallelOperation@@AAEPAVTCollectedFileList@@H@Z
353D0 65 ?GetPartPrefix@TParallelOperation@@SA?AVUnicodeString@@ABV2@@Z
35500 65 ?GetNext@TParallelOperation@@QAEHPAVTTerminal@@AAVUnicodeString@@AAPAVTObject@@1AA_N3AAPAVTCopyParamType@@@Z
35D70 65 ??1?$pair@$$CBVUnicodeString@@UTDirectoryData@TParallelOperation@@@std@@QAE@XZ
35DF0 65 ??0EInvalidOperation@@QAE@ABV0@@Z
35E20 65 ?UpdateFileList@TParallelOperation@@QAE_NPAVTQueueFileList@@@Z
36040 65 ??0TTerminal@@QAE@G@Z
366D0 0 ??_ETTerminal@@UAEPAXI@Z
36710 65 ??1?$map@VUnicodeString@@V1@U?$less@VUnicodeString@@@std@@U?$custom_nballocator_t@U?$pair@$$CBVUnicodeString@@V1@@std@@@nb@@@std@@QAE@XZ
36730 59 ??1?$_Tree@V?$_Tmap_traits@VUnicodeString@@HU?$less@VUnicodeString@@@std@@U?$custom_nballocator_t@U?$pair@$$CBVUnicodeString@@H@std@@@nb@@$0A@@std@@@std@@QAE@XZ
36750 65 ?Init@TTerminal@@QAEXV?$not_null@PAVTSessionData@@@gsl@@V?$not_null@PAVTConfiguration@@@3@PAVTActionLog@@@Z
36C60 65 ??1TTerminal@@UAE@XZ
36D8E 65 __catch$??1TTerminal@@UAE@XZ$0
37000 65 ?Idle@TTerminal@@QAEXXZ
370A5 65 __catch$?Idle@TTerminal@@QAEXXZ$0
370F0 65 ?EncryptPassword@TTerminal@@IBE?AVRawByteString@@ABVUnicodeString@@@Z
37190 65 ?DecryptPassword@TTerminal@@IBE?AVUnicodeString@@ABVRawByteString@@@Z
37281 65 __catch$?DecryptPassword@TTerminal@@IBE?AVUnicodeString@@ABVRawByteString@@@Z$0
372A0 65 ?ExpandFileName@TTerminal@@SA?AVUnicodeString@@ABV2@0@Z
37400 65 ?GetActive@TTerminal@@QBE_NXZ
37420 65 ?Close@TTerminal@@QAEXXZ
37490 65 ?Open@TTerminal@@QAEXXZ
376ED 65 __catch$?Open@TTerminal@@QAEXXZ$1
377DD 65 __catch$?Open@TTerminal@@QAEXXZ$0
377F0 65 ??R<lambda_34dac934d9cf936299c6ae1959f07027>@@QBE@XZ
378E0 65 ?InternalTryOpen@TTerminal@@AAEXXZ
37C65 65 __catch$?InternalTryOpen@TTerminal@@AAEXXZ$0
37D80 65 ??R<lambda_26b9b270ce3d3be4c19935c0607a43a6>@@QBE@XZ
37EE0 65 ?InternalDoTryOpen@TTerminal@@AAEXXZ
38260 65 ?InitFileSystem@TTerminal@@AAEXXZ
38670 65 ??R<lambda_6727bceec5d374205ae22676a13c79b9>@@QBE@XZ
38732 65 __catch$??R<lambda_6727bceec5d374205ae22676a13c79b9>@@QBE@XZ$0
38AA0 65 ??R<lambda_f3e1c1b19f17d91b910335753891dfc4>@@QBE@XZ
38AC0 65 ?SetupTunnelLocalPortNumber@TTerminal@@QAEXXZ
38DF0 65 ?OpenTunnel@TTerminal@@IAEXXZ
3911E 65 __catch$?OpenTunnel@TTerminal@@IAEXXZ$0
39220 65 ??R<lambda_e43cd5e81ea0629e9222b38a7d95519d>@@QBE@XZ
39230 65 ?CloseTunnel@TTerminal@@IAEXXZ
39340 65 ?Closed@TTerminal@@MAEXXZ
39404 65 __catch$?Closed@TTerminal@@MAEXXZ$0
39500 65 ?ProcessGUI@TTerminal@@MAEXXZ
39520 65 ?Reopen@TTerminal@@QAEXH@Z
39640 65 ??R<lambda_581da8cff99aa1f1848e76f74d5bfd82>@@QBE@XZ
396E0 65 ?PromptUser@TTerminal@@IAE_NPAVTSessionData@@W4TPromptKind@@ABVUnicodeString@@22_NHAAV4@@Z
39810 65 ?PromptUser@TTerminal@@MAE_NPAVTSessionData@@W4TPromptKind@@ABVUnicodeString@@2PAVTStrings@@3@Z
39820 65 ?DoPromptUser@TTerminal@@MAE_NPAVTSessionData@@W4TPromptKind@@ABVUnicodeString@@2PAVTStrings@@3@Z
39A32 65 __catch$?DoPromptUser@TTerminal@@MAE_NPAVTSessionData@@W4TPromptKind@@ABVUnicodeString@@2PAVTStrings@@3@Z$0
39C10 65 ?QueryUser@TTerminal@@MAEIABVUnicodeString@@PAVTStrings@@IPBUTQueryParams@@W4TQueryType@@@Z
39E06 65 __catch$?QueryUser@TTerminal@@MAEIABVUnicodeString@@PAVTStrings@@IPBUTQueryParams@@W4TQueryType@@@Z$0
39EF0 65 ?QueryUserException@TTerminal@@MAEIABVUnicodeString@@PAVException@@IPBUTQueryParams@@W4TQueryType@@@Z
3A040 65 ??R<lambda_cb012b7fb98bea3bc0b53c6cb558715e>@@QBE@XZ
3A260 65 ??1TQueryParams@@UAE@XZ
3A2E0 65 ?DisplayBanner@TTerminal@@MAEXABVUnicodeString@@@Z
3A4DB 65 __catch$?DisplayBanner@TTerminal@@MAEXABVUnicodeString@@@Z$0
3A660 65 ?HandleExtendedException@TTerminal@@MAEXPAVException@@@Z
3A77D 65 __catch$?HandleExtendedException@TTerminal@@MAEXPAVException@@@Z$0
3A870 65 ?DoInformation@TTerminal@@IAEXABVUnicodeString@@_NH0@Z
3A92D 65 __catch$?DoInformation@TTerminal@@IAEXABVUnicodeString@@_NH0@Z$0
3AA20 65 ?Information@TTerminal@@MAEXABVUnicodeString@@_N@Z
3AAC0 65 ?DoProgress@TTerminal@@IAEXAAVTFileOperationProgressType@@@Z
3AC1F 65 __catch$?DoProgress@TTerminal@@IAEXAAVTFileOperationProgressType@@@Z$0
3AD10 65 ?DoFinished@TTerminal@@IAEXW4TFileOperation@@W4TOperationSide@@_NABVUnicodeString@@2AAW4TOnceDoneOperation@@@Z
3ADD2 65 __catch$?DoFinished@TTerminal@@IAEXW4TFileOperation@@W4TOperationSide@@_NABVUnicodeString@@2AAW4TOnceDoneOperation@@@Z$0
3AED0 65 ?SaveCapabilities@TTerminal@@QAEXAAUTFileSystemInfo@@@Z
3AF20 65 ?AbsolutePath@TTerminal@@QBE?AVUnicodeString@@ABV2@_N@Z
3AF40 65 ?ReactOnCommand@TTerminal@@QAEXH@Z
3AFE4 65 $LN40
3AFF0 65 $LN39
3B010 65 ?TerminalError@TTerminal@@QAEXABVUnicodeString@@@Z
3B060 65 ?TerminalError@TTerminal@@QAEXPAVException@@ABVUnicodeString@@1@Z
3B090 65 ?DoQueryReopen@TTerminal@@MAE_NPAVException@@@Z
3B380 65 ??1TQueryButtonAlias@@UAE@XZ
3B400 65 ?ContinueReopen@TTerminal@@QBE_NABVTDateTime@@@Z
3B460 65 ?QueryReopen@TTerminal@@QAE_NPAVException@@HPAVTFileOperationProgressType@@@Z
3B4FD 65 __catch$?QueryReopen@TTerminal@@QAE_NPAVException@@HPAVTFileOperationProgressType@@@Z$0
3B590 65 ?FileOperationLoopQuery@TTerminal@@QAE_NAAVException@@PAVTFileOperationProgressType@@ABVUnicodeString@@I22@Z
3B960 65 ?FileOperationLoopEnd@TTerminal@@QAEXAAVException@@PAVTFileOperationProgressType@@ABVUnicodeString@@I22@Z
3BAC0 65 ?FileOperationLoop@TTerminal@@IAEH$$QAV?$FastDelegate2@HPAXPAX@fastdelegate@@PAVTFileOperationProgressType@@IABVUnicodeString@@PAX3@Z
3BB1F 65 __catch$?FileOperationLoop@TTerminal@@IAEH$$QAV?$FastDelegate2@HPAXPAX@fastdelegate@@PAVTFileOperationProgressType@@IABVUnicodeString@@PAX3@Z$0
3BB80 65 ?ClearCaches@TTerminal@@QAEXXZ
3BC80 65 ?SetCurrentDirectoryW@TTerminal@@QAEXABVUnicodeString@@@Z
3BD30 65 ?GetCurrentDirectory@TTerminal@@QAE?AVUnicodeString@@XZ
3BE00 65 ?PeekCurrentDirectory@TTerminal@@QAE?AVUnicodeString@@XZ
3BE90 65 ?GetUserName@TTerminal@@QBE?AVUnicodeString@@XZ
3C030 65 ?DoInitializeLog@TTerminal@@IAEXXZ
3C0E1 65 __catch$?DoInitializeLog@TTerminal@@IAEXXZ$0
3C1D0 65 ?DoChangeDirectory@TTerminal@@IAEXXZ
3C275 65 __catch$?DoChangeDirectory@TTerminal@@IAEXXZ$0
3C360 65 ?DoReadDirectory@TTerminal@@IAEX_N@Z
3C408 65 __catch$?DoReadDirectory@TTerminal@@IAEX_N@Z$0
3C500 65 ?DoStartReadDirectory@TTerminal@@IAEXXZ
3C5A5 65 __catch$?DoStartReadDirectory@TTerminal@@IAEXXZ$0
3C690 65 ?DoReadDirectoryProgress@TTerminal@@IAEXHHAA_N@Z
3C719 65 __catch$?DoReadDirectoryProgress@TTerminal@@IAEXHHAA_N@Z$0
3C860 65 __catch$?DoReadDirectoryProgress@TTerminal@@IAEXHHAA_N@Z$2
3C960 65 ?BeginTransaction@TTerminal@@QAEXXZ
3C980 65 ?DoEndTransaction@TTerminal@@IAEX_N@Z
3CA30 65 ??R<lambda_5b8293990e2ce3467e89867be55b8121>@@QBE@XZ
3CA40 65 ?SetExceptionOnFail@TTerminal@@QAEX_N@Z
3CAD0 65 ?GetExceptionOnFail@TTerminal@@QBE_NXZ
3CAE0 65 ?FatalError@TTerminal@@MAEXPAVException@@ABVUnicodeString@@1@Z
3CC90 65 ?CommandError@TTerminal@@QAEXPAVException@@ABVUnicodeString@@@Z
3CD30 65 ?CommandError@TTerminal@@QAEIPAVException@@ABVUnicodeString@@I1@Z
3CF40 65 ??0ECommand@@QAE@PBVException@@ABVUnicodeString@@1@Z
3CF70 65 ?HandleException@TTerminal@@IAE_NPAVException@@@Z
3D020 65 ?CloseOnCompletion@TTerminal@@QAEXW4TOnceDoneOperation@@ABVUnicodeString@@11@Z
3D170 65 ?EffectiveBatchOverwrite@TTerminal@@IBE?AW4TBatchOverwrite@@ABVUnicodeString@@PBVTCopyParamType@@HPAVTFileOperationProgressType@@_N@Z
3D270 61 ??R<lambda_6982e59c31cdf0957e6060b569ff60bb>@@QBE@XZ
3D2A0 65 ?ConfirmFileOverwrite@TTerminal@@IAEIABVUnicodeString@@0PBUTOverwriteFileParams@@IPAUTQueryParams@@W4TOperationSide@@PBVTCopyParamType@@HPAVTFileOperationProgressType@@0@Z
3D768 65 $LN626
3D780 65 ??R<lambda_950dc155e07b0cb7b2fa45db281f129a>@@QBE@XZ
3DC30 65 ?FileModified@TTerminal@@IAEXPBVTRemoteFile@@ABVUnicodeString@@_N@Z
3DEE0 65 ?DirectoryModified@TTerminal@@UAEXABVUnicodeString@@_N@Z
3DFF0 65 ?DirectoryLoaded@TTerminal@@UAEXPAVTRemoteFileList@@@Z
3E000 65 ?EnsureNonExistence@TTerminal@@IAEXABVUnicodeString@@@Z
3E210 65 ?LogEvent@TTerminal@@QAEXABVUnicodeString@@@Z
3E230 65 ?LogEvent@TTerminal@@QAEXHABVUnicodeString@@@Z
3E290 65 ?RollbackAction@TTerminal@@IAEXAAVTSessionAction@@PAVTFileOperationProgressType@@PAVException@@@Z
3E310 65 ??R<lambda_4b809d5c6557f78ef470a7964c908bc1>@@QBE@XZ
3E50A 65 __catch$??R<lambda_4b809d5c6557f78ef470a7964c908bc1>@@QBE@XZ$0
3E610 65 ??R<lambda_12124123fca997d2314320a2b59f431f>@@QBE@XZ
3E620 65 ?ReadCurrentDirectory@TTerminal@@QAEXXZ
3E839 65 __catch$?ReadCurrentDirectory@TTerminal@@QAEXXZ$0
3E870 65 ?ReadDirectory@TTerminal@@QAEX_N0@Z
3EAA5 65 __catch$?ReadDirectory@TTerminal@@QAEX_N0@Z$0
3EAF0 65 ??R<lambda_59268597ebe8cc926090b32952636e3c>@@QBE@XZ
3EB00 65 ??R<lambda_c7fd7116c1011e70cb9e61c75e1ec33b>@@QBE@XZ
3EC10 65 ??R<lambda_16d56232f4baff488e88cebe482972d3>@@QBE@XZ
3EC30 65 ?GetRemoteFileInfo@TTerminal@@IBE?AVUnicodeString@@PAVTRemoteFile@@@Z
3EE60 65 ?FormatFileDetailsForLog@TTerminal@@IBE?AVUnicodeString@@ABV2@ABVTDateTime@@_JPBVTRemoteFile@@@Z
3F150 65 ?LogFileDetails@TTerminal@@IAEXABVUnicodeString@@ABVTDateTime@@_JPBVTRemoteFile@@@Z
3F2A0 65 ?LogFileDone@TTerminal@@IAEXPAVTFileOperationProgressType@@ABVUnicodeString@@AAVTTransferSessionAction@@@Z
3F460 65 ?CustomReadDirectory@TTerminal@@IAEXPAVTRemoteFileList@@@Z
3F576 65 __catch$?CustomReadDirectory@TTerminal@@IAEXPAVTRemoteFileList@@@Z$0
3F6C0 65 ?CustomReadDirectoryListing@TTerminal@@QAEPAVTRemoteFileList@@ABVUnicodeString@@_N@Z
3F78D 65 __catch$?CustomReadDirectoryListing@TTerminal@@QAEPAVTRemoteFileList@@ABVUnicodeString@@_N@Z$0
3F7E0 65 ?DoReadDirectoryListing@TTerminal@@IAEPAVTRemoteFileList@@ABVUnicodeString@@_N@Z
3F880 65 ??R<lambda_59853c054af7384e67cfb82ea4024b6d>@@QBE@XZ
3F950 65 ??R<lambda_426a8babf542a43c39899e95abbd801b>@@QBE@XZ
3F9D0 65 ?DeleteContentsIfDirectory@TTerminal@@IAE_NABVUnicodeString@@PBVTRemoteFile@@HAAVTRmSessionAction@@@Z
3FAAA 65 __catch$?DeleteContentsIfDirectory@TTerminal@@IAE_NABVUnicodeString@@PBVTRemoteFile@@HAAVTRmSessionAction@@@Z$0
3FAD0 65 ?ProcessDirectory@TTerminal@@IAEXABVUnicodeString@@$$QAV?$FastDelegate3@XABVUnicodeString@@PBVTRemoteFile@@PAX@fastdelegate@@PAX_N3@Z
3FBB0 65 ??R<lambda_15ba5ba1922fd0f83ad9b6f339f9a440>@@QBE@XZ
3FC1A 65 __catch$??R<lambda_15ba5ba1922fd0f83ad9b6f339f9a440>@@QBE@XZ$0
3FC40 65 ??R<lambda_cc948fc356f6abfb59852271014b8a80>@@QBE@XZ
3FE00 65 ?ReadDirectory@TTerminal@@IAEXPAVTRemoteFileList@@@Z
3FE51 65 __catch$?ReadDirectory@TTerminal@@IAEXPAVTRemoteFileList@@@Z$0
3FEB0 65 ?ReadSymlink@TTerminal@@QAEXPAVTRemoteFile@@AAPAV2@@Z
40015 65 __catch$?ReadSymlink@TTerminal@@QAEXPAVTRemoteFile@@AAPAV2@@Z$0
40060 65 ?ReadFile@TTerminal@@QAEPAVTRemoteFile@@ABVUnicodeString@@@Z
401B0 65 __catch$?ReadFile@TTerminal@@QAEPAVTRemoteFile@@ABVUnicodeString@@@Z$0
40210 65 ?TryReadFile@TTerminal@@QAEPAVTRemoteFile@@ABVUnicodeString@@@Z
40292 65 __catch$?TryReadFile@TTerminal@@QAEPAVTRemoteFile@@ABVUnicodeString@@@Z$0
402C0 65 ?FileExists@TTerminal@@QAE_NABVUnicodeString@@@Z
402F0 65 ?OperationFinish@TTerminal@@IAEXPAVTFileOperationProgressType@@PBXABVUnicodeString@@_NAAW4TOnceDoneOperation@@@Z
40310 65 ?OperationStart@TTerminal@@IAEXAAVTFileOperationProgressType@@W4TFileOperation@@W4TOperationSide@@H@Z
403C0 65 ?OperationStart@TTerminal@@IAEXAAVTFileOperationProgressType@@W4TFileOperation@@W4TOperationSide@@H_NABVUnicodeString@@IW4TOnceDoneOperation@@@Z
40470 65 ?OperationStop@TTerminal@@IAEXAAVTFileOperationProgressType@@@Z
40520 65 ?ProcessFiles@TTerminal@@IAE_NPAVTStrings@@W4TFileOperation@@$$QAV?$FastDelegate3@XABVUnicodeString@@PBVTRemoteFile@@PAX@fastdelegate@@PAXW4TOperationSide@@_N@Z
40747 65 __catch$?ProcessFiles@TTerminal@@IAE_NPAVTStrings@@W4TFileOperation@@$$QAV?$FastDelegate3@XABVUnicodeString@@PBVTRemoteFile@@PAX@fastdelegate@@PAXW4TOperationSide@@_N@Z$0
40760 65 ??R<lambda_e65cc36a2605558025ab5117cccb8f3e>@@QBE@XZ
40860 65 ??R<lambda_a7a81355ed49ff9a0312f4a997785b68>@@QBE@XZ
409AB 65 __catch$??R<lambda_a7a81355ed49ff9a0312f4a997785b68>@@QBE@XZ$0
40A70 65 ??R<lambda_adea5f44322a42494b6be5c5463d15fd>@@QBE@XZ
40A90 65 ??R<lambda_2055a480a879163ea21982b8d1f42634>@@QBE@XZ
40AB0 65 ??R<lambda_5a37a9b01851dfb86db6b96380e36afd>@@QBE@XZ
40AC0 65 ?GetResolvingSymlinks@TTerminal@@QBE_NXZ
40AF0 65 ?UsableCopyParamAttrs@TTerminal@@QBE?AUTUsableCopyParamAttrs@@H@Z
40D00 65 ?IsRecycledFile@TTerminal@@QAE_NABVUnicodeString@@@Z
40E90 65 ?RecycleFile@TTerminal@@IAE_NABVUnicodeString@@PBVTRemoteFile@@@Z
411B0 65 ?DeleteFileW@TTerminal@@QAEXABVUnicodeString@@PBVTRemoteFile@@PAX@Z
413A0 65 ?DoDeleteFile@TTerminal@@IAEXPAVTCustomFileSystem@@ABVUnicodeString@@PBVTRemoteFile@@H@Z
415B9 65 __catch$?DoDeleteFile@TTerminal@@IAEXPAVTCustomFileSystem@@ABVUnicodeString@@PBVTRemoteFile@@H@Z$0
41660 65 ??1TCallSessionAction@@UAE@XZ
41670 65 ?DeleteFiles@TTerminal@@QAE_NPAVTStrings@@H@Z
41700 65 ?DeleteLocalFile@TTerminal@@IAEXABVUnicodeString@@PBVTRemoteFile@@PAX@Z
41890 65 ?CustomCommandOnFile@TTerminal@@QAEXABVUnicodeString@@PBVTRemoteFile@@PAX@Z
41A90 65 ?PrepareCommandSession@TTerminal@@QAEX_N@Z
41C30 65 ?DoCustomCommandOnFile@TTerminal@@IAEXABVUnicodeString@@PBVTRemoteFile@@0H$$QAV?$FastDelegate2@XABVUnicodeString@@W4TCaptureOutputType@@@fastdelegate@@@Z
41CDF 65 __catch$?DoCustomCommandOnFile@TTerminal@@IAEXABVUnicodeString@@PBVTRemoteFile@@0H$$QAV?$FastDelegate2@XABVUnicodeString@@W4TCaptureOutputType@@@fastdelegate@@@Z$0
41D50 65 ?CustomCommandOnFiles@TTerminal@@QAEXABVUnicodeString@@HPAVTStrings@@$$QAV?$FastDelegate2@XABVUnicodeString@@W4TCaptureOutputType@@@fastdelegate@@@Z
42050 65 ??1TFileCustomCommand@@UAE@XZ
42120 65 ??1TCustomCommandData@@UAE@XZ
42140 65 ?ChangeFileProperties@TTerminal@@QAEXABVUnicodeString@@PBVTRemoteFile@@PAX@Z
42650 65 ?DoChangeFileProperties@TTerminal@@IAEXABVUnicodeString@@PBVTRemoteFile@@PBVTRemoteProperties@@@Z
42738 65 __catch$?DoChangeFileProperties@TTerminal@@IAEXABVUnicodeString@@PBVTRemoteFile@@PBVTRemoteProperties@@@Z$0
427B0 65 ?DoCalculateFileSize@TTerminal@@IAEXABVUnicodeString@@PBVTRemoteFile@@PAX@Z
42950 65 ?CalculateFileSize@TTerminal@@IAEXABVUnicodeString@@PBVTRemoteFile@@PAX@Z
42BF0 65 ?DoCalculateDirectorySize@TTerminal@@IAE_NABVUnicodeString@@PAUTCalculateSizeParams@@@Z
42D44 65 __catch$?DoCalculateDirectorySize@TTerminal@@IAE_NABVUnicodeString@@PAUTCalculateSizeParams@@@Z$0
42E80 65 ?CalculateFilesSize@TTerminal@@QAE_NPAVTStrings@@AA_JAAUTCalculateSizeParams@@@Z
43080 65 ?CalculateSubFoldersChecksum@TTerminal@@IAEXABVUnicodeString@@PAVTStrings@@$$QAV?$FastDelegate3@XABVUnicodeString@@ABV1@ABV1@@fastdelegate@@PAVTFileOperationProgressType@@_N@Z
433B0 65 ??R<lambda_38c7d76c8bdbe1e80d2b842a742a6a5a>@@QBE@XZ
435A0 35 ??R<lambda_0a89d704a7c762602a402a27637df15b>@@QBE@XZ
43660 65 ??R<lambda_45a2687a617969459d97274717a52aa7>@@QBE@XZ
43670 65 ?RenameFile@TTerminal@@QAEXPBVTRemoteFile@@ABVUnicodeString@@@Z
438E0 65 ?DoRenameOrCopyFile@TTerminal@@IAE_N_NABVUnicodeString@@PBVTRemoteFile@@1000@Z
43DB0 65 ??R<lambda_33e9cba5f04bb05be99239f63d85f427>@@QBE@XZ
43F9F 65 __catch$??R<lambda_33e9cba5f04bb05be99239f63d85f427>@@QBE@XZ$0
4406D 65 __catch$??R<lambda_33e9cba5f04bb05be99239f63d85f427>@@QBE@XZ$2
440F0 65 ??R<lambda_397ebbf82a48dbbf3e5b6c2ac083d8ff>@@QBE@XZ
44100 65 ?DoRenameFile@TTerminal@@IAE_NABVUnicodeString@@PBVTRemoteFile@@0_N2@Z
44160 65 ?DoMoveFile@TTerminal@@IAE_NABVUnicodeString@@PBVTRemoteFile@@PAX@Z
443A0 65 ?MoveFileW@TTerminal@@QAEXABVUnicodeString@@PBVTRemoteFile@@PAX@Z
443B0 65 ??R<lambda_a3c7e2a1e5cdef48ff375dd4abcae7d5>@@QBE@XZ
44800 65 ?CopyFileW@TTerminal@@QAEXABVUnicodeString@@PBVTRemoteFile@@PAX@Z
44A00 65 ?CreateDirectoryW@TTerminal@@QAEXABVUnicodeString@@PBVTRemoteProperties@@@Z
44BB0 65 ?DoCreateDirectory@TTerminal@@IAEXABVUnicodeString@@_N@Z
44C91 65 __catch$?DoCreateDirectory@TTerminal@@IAEXABVUnicodeString@@_N@Z$0
44D10 65 ?CreateLink@TTerminal@@QAEXABVUnicodeString@@0_N@Z
44EC0 65 ?DoCreateLink@TTerminal@@IAEXABVUnicodeString@@0_N@Z
44F24 65 __catch$?DoCreateLink@TTerminal@@IAEXABVUnicodeString@@0_N@Z$0
44F90 65 ?HomeDirectory@TTerminal@@QAEXXZ
45053 65 __catch$?HomeDirectory@TTerminal@@QAEXXZ$0
45090 65 ?ChangeDirectory@TTerminal@@QAEXABVUnicodeString@@@Z
45386 65 __catch$?ChangeDirectory@TTerminal@@QAEXABVUnicodeString@@@Z$0
45410 65 ?LookupUsersGroups@TTerminal@@IAEXXZ
45522 65 __catch$?LookupUsersGroups@TTerminal@@IAEXXZ$0
45570 65 ?GetCommandSession@TTerminal@@QAEPAV1@XZ
459B0 65 ?AnyCommand@TTerminal@@QAEXABVUnicodeString@@$$QAV?$FastDelegate2@XABVUnicodeString@@W4TCaptureOutputType@@@fastdelegate@@@Z
45B80 65 ?DoAnyCommand@TTerminal@@IAEXABVUnicodeString@@$$QAV?$FastDelegate2@XABVUnicodeString@@W4TCaptureOutputType@@@fastdelegate@@PAVTCallSessionAction@@@Z
45D67 65 __catch$?DoAnyCommand@TTerminal@@IAEXABVUnicodeString@@$$QAV?$FastDelegate2@XABVUnicodeString@@W4TCaptureOutputType@@@fastdelegate@@PAVTCallSessionAction@@@Z$0
45DC0 65 ?DoCreateLocalFile@TTerminal@@IAE_NABVUnicodeString@@PAVTFileOperationProgressType@@PAPAX_N@Z
46068 65 __catch$?DoCreateLocalFile@TTerminal@@IAE_NABVUnicodeString@@PAVTFileOperationProgressType@@PAPAX_N@Z$0
46110 65 ??R<lambda_560d90d8a424fcf400f8b61d55fab874>@@QBE@XZ
462EC 65 $LN81
46300 65 $LN80
46340 65 ?CreateLocalFile@TTerminal@@IAE_NABVUnicodeString@@PAVTFileOperationProgressType@@PAPAX_N@Z
4639C 65 __catch$?CreateLocalFile@TTerminal@@IAE_NABVUnicodeString@@PAVTFileOperationProgressType@@PAPAX_N@Z$0
46420 65 ?OpenLocalFile@TTerminal@@IAEXABVUnicodeString@@KPAKPAPAXPA_J333_N@Z
465D4 65 __catch$?OpenLocalFile@TTerminal@@IAEXABVUnicodeString@@KPAKPAPAXPA_J333_N@Z$4
4670C 65 __catch$?OpenLocalFile@TTerminal@@IAEXABVUnicodeString@@KPAKPAPAXPA_J333_N@Z$6
467E0 65 __catch$?OpenLocalFile@TTerminal@@IAEXABVUnicodeString@@KPAKPAPAXPA_J333_N@Z$2
4685E 65 __catch$?OpenLocalFile@TTerminal@@IAEXABVUnicodeString@@KPAKPAPAXPA_J333_N@Z$0
468F7 65 __catch$?OpenLocalFile@TTerminal@@IAEXABVUnicodeString@@KPAKPAPAXPA_J333_N@Z$8
46920 65 ?OpenLocalFile@TTerminal@@IAEXABVUnicodeString@@KAAUTLocalFileHandle@@_N@Z
469B0 65 ?DoAllowLocalFileTransfer@TTerminal@@IAE_NABVUnicodeString@@ABUTSearchRecSmart@@PBVTCopyParamType@@_N@Z
46B00 65 ?DoAllowRemoteFileTransfer@TTerminal@@IAE_NPBVTRemoteFile@@PBVTCopyParamType@@_N@Z
46D60 65 ?AllowLocalFileTransfer@TTerminal@@IAE_NABVUnicodeString@@PBUTSearchRecSmart@@PBVTCopyParamType@@PAVTFileOperationProgressType@@@Z
46E85 65 __catch$?AllowLocalFileTransfer@TTerminal@@IAE_NABVUnicodeString@@PBUTSearchRecSmart@@PBVTCopyParamType@@PAVTFileOperationProgressType@@@Z$0
471A0 65 ?MakeLocalFileList@TTerminal@@QAEXABVUnicodeString@@ABUTSearchRecSmart@@PAX@Z
47260 65 ?CalculateLocalFileSize@TTerminal@@IAEXABVUnicodeString@@ABUTSearchRecSmart@@PAX@Z
473AF 65 __catch$?CalculateLocalFileSize@TTerminal@@IAEXABVUnicodeString@@ABUTSearchRecSmart@@PAX@Z$0
473CC 65 __catch$?CalculateLocalFileSize@TTerminal@@IAEXABVUnicodeString@@ABUTSearchRecSmart@@PAX@Z$2
473E0 65 ?CalculateLocalFilesSize@TTerminal@@QAE_NPAVTStrings@@AA_JPBVTCopyParamType@@_N0PAV?$vector@_JU?$custom_nballocator_t@_J@nb@@@std@@@Z
476C0 65 ??R<lambda_c9da1d11861aae47e2cc3f40c3625791>@@QBE@XZ
47AB0 65 ?is@TSynchronizeFileData@@UBE_NG@Z
47AD0 0 ??_ETSynchronizeFileData@@UAEPAXI@Z
47B10 65 ?is@TSynchronizeData@@UBE_NG@Z
47B30 65 ??0TSynchronizeData@@QAE@XZ
47BA0 0 ??_ETSynchronizeData@@UAEPAXI@Z
47BE0 65 ?SynchronizeCollect@TTerminal@@QAEPAVTSynchronizeChecklist@@ABVUnicodeString@@0W4TSynchronizeMode@1@PBVTCopyParamType@@H$$QAV?$FastDelegate5@XABVUnicodeString@@ABV1@AA_N_NPBUTSynchronizeOptions@@@fastdelegate@@PAUTSynchronizeOptions@@@Z
47D60 65 ?AddFlagName@@YAXAAVUnicodeString@@AAHHABV1@@Z
47E20 65 ?SynchronizeParamsStr@TTerminal@@SA?AVUnicodeString@@H@Z
482D0 65 ?LocalFindFirstLoop@TTerminal@@IAE_NABVUnicodeString@@AAUTSearchRecChecked@@@Z
48341 65 __catch$?LocalFindFirstLoop@TTerminal@@IAE_NABVUnicodeString@@AAUTSearchRecChecked@@@Z$0
483C0 65 ?LocalFindNextLoop@TTerminal@@IAE_NAAUTSearchRecChecked@@@Z
48440 65 __catch$?LocalFindNextLoop@TTerminal@@IAE_NAAUTSearchRecChecked@@@Z$0
484C0 65 ?IsEmptyLocalDirectory@TTerminal@@IAE_NABVUnicodeString@@PBVTCopyParamType@@_N@Z
48800 65 ?DoSynchronizeCollectDirectory@TTerminal@@IAEXABVUnicodeString@@0W4TSynchronizeMode@1@PBVTCopyParamType@@H$$QAV?$FastDelegate5@XABVUnicodeString@@ABV1@AA_N_NPBUTSynchronizeOptions@@@fastdelegate@@PAUTSynchronizeOptions@@HPAVTSynchronizeChecklist@@@Z
48AB0 65 ??R<lambda_e7b77c3c61f523deb9f1dc42d13437c8>@@QBE@XZ
49220 65 ??R<lambda_b3f6805632609bf74c27d936efa09255>@@QBE@XZ
493F0 65 ??4TFileInfo@TChecklistItem@@QAEAAU01@ABU01@@Z
49450 65 ??R<lambda_ac0177111ea047bc11fdcef25cdd0a3b>@@QBE@XZ
494C0 65 ?SynchronizeCollectFile@TTerminal@@IAEXABVUnicodeString@@PBVTRemoteFile@@PAX@Z
49515 65 __catch$?SynchronizeCollectFile@TTerminal@@IAEXABVUnicodeString@@PBVTRemoteFile@@PAX@Z$0
49570 65 ?IsEmptyRemoteDirectory@TTerminal@@IAE_NPBVTRemoteFile@@PBVTCopyParamType@@_N@Z
49760 65 ?CollectCalculatedChecksum@TTerminal@@IAEXABVUnicodeString@@00@Z
49780 65 ?SameFileChecksum@TTerminal@@IAE_NABVUnicodeString@@PBVTRemoteFile@@@Z
49B96 65 __catch$?SameFileChecksum@TTerminal@@IAE_NABVUnicodeString@@PBVTRemoteFile@@@Z$0
49C20 65 ?DoSynchronizeCollectFile@TTerminal@@IAEXABVUnicodeString@@PBVTRemoteFile@@PAX@Z
49F20 65 ??R<lambda_be41b431f2f887175275140a0eb308c5>@@QBE@XZ
4A7B0 65 ?SynchronizeApply@TTerminal@@QAEXPAVTSynchronizeChecklist@@PBVTCopyParamType@@H$$QAV?$FastDelegate5@XABVUnicodeString@@ABV1@AA_N_NPBUTSynchronizeOptions@@@fastdelegate@@$$QAV?$FastDelegate2@XPAXPBVTChecklistItem@@@5@$$QAV?$FastDelegate1@XABV?$TListBase@VTChecklistItem@@@@@5@PAXPAVTFileOperationStatistics@@@Z
4ABD0 65 ??R<lambda_f5ce53928d867f1c298995814313751b>@@QBE@XZ
4B1CC 65 $LN1538
4B1F0 65 ?SynchronizeChecklistCalculateSize@TTerminal@@QAEXPAVTSynchronizeChecklist@@ABV?$TListBase@VTChecklistItem@@@@PBVTCopyParamType@@@Z
4B480 65 ??R<lambda_0b5105d60ec0b5e7246ed0cd3b9f794c>@@QBE@XZ
4B580 65 ?DoSynchronizeProgress@TTerminal@@IAEXABUTSynchronizeData@@_N@Z
4B610 65 ?SynchronizeLocalTimestamp@TTerminal@@IAEXABVUnicodeString@@PBVTRemoteFile@@PAX@Z
4B75D 65 __catch$?SynchronizeLocalTimestamp@TTerminal@@IAEXABVUnicodeString@@PBVTRemoteFile@@PAX@Z$0
4B800 65 ?SynchronizeRemoteTimestamp@TTerminal@@IAEXABVUnicodeString@@PBVTRemoteFile@@PAX@Z
4B8F0 65 ?SpaceAvailable@TTerminal@@QAEXABVUnicodeString@@AAUTSpaceAvailable@@@Z
4B960 65 __catch$?SpaceAvailable@TTerminal@@QAEXABVUnicodeString@@AAUTSpaceAvailable@@@Z$0
4B9A0 65 ?GetFileSystemInfo@TTerminal@@QAEABUTFileSystemInfo@@_N@Z
4B9C0 65 ?GetShellChecksumAlgDefs@TTerminal@@IAEPAVTStrings@@XZ
4BC70 65 ?GetShellChecksumAlgs@TTerminal@@IAEXPAVTStrings@@@Z
4BD50 65 ?GetSupportedChecksumAlgs@TTerminal@@QAEXPAVTStrings@@@Z
4BDC0 65 ?GetPassword@TTerminal@@QBE?AVUnicodeString@@XZ
4BEB0 65 ?CopyToParallel@TTerminal@@QAEHPAVTParallelOperation@@PAVTFileOperationProgressType@@@Z
4C0E0 65 ??R<lambda_05df852a7bc607e5003c4157d3e0d0c8>@@QBE@XZ
4C130 65 ?CopyParallel@TTerminal@@IAEXPAVTParallelOperation@@PAVTFileOperationProgressType@@@Z
4C170 65 ??R<lambda_92919642265722fd1d58688fd139fade>@@QBE@XZ
4C1A0 65 ?LogTotalTransferDetails@TTerminal@@IAEXABVUnicodeString@@PBVTCopyParamType@@PAVTFileOperationProgressType@@_NPAVTStrings@@@Z
4C470 65 ?LogTotalTransferDone@TTerminal@@IAEXPAVTFileOperationProgressType@@@Z
4C5F0 65 ?CopyToRemote@TTerminal@@QAE_NPAVTStrings@@ABVUnicodeString@@PBVTCopyParamType@@HPAVTParallelOperation@@@Z
4C97A 65 __catch$?CopyToRemote@TTerminal@@QAE_NPAVTStrings@@ABVUnicodeString@@PBVTCopyParamType@@HPAVTParallelOperation@@@Z$0
4C9E0 65 ??R<lambda_433c911554c2dd83ae38060c1d13b0ff>@@QBE@XZ
4CB20 65 ??R<lambda_357120f27485ab69c4ce222fef3c0745>@@QBE@XZ
4CC80 65 ??R<lambda_85a47c60c36cc915396b8d5c5cda3e01>@@QBE@XZ
4CCB0 65 ?DoCopyToRemote@TTerminal@@IAEXPAVTStrings@@ABVUnicodeString@@PBVTCopyParamType@@HPAVTFileOperationProgressType@@IAAW4TOnceDoneOperation@@@Z
4CF50 65 ??R<lambda_3464a0a5164a41ca1643836bdabe01f8>@@QBE@XZ
4D0A4 65 __catch$??R<lambda_3464a0a5164a41ca1643836bdabe01f8>@@QBE@XZ$0
4D100 65 ??R<lambda_2ab4bfe723a9dd2bf780cb115150cd55>@@QBE@XZ
4D140 65 ?SourceRobust@TTerminal@@IAEXABVUnicodeString@@PBUTSearchRecSmart@@0PBVTCopyParamType@@HPAVTFileOperationProgressType@@I@Z
4D1FD 65 __catch$?SourceRobust@TTerminal@@IAEXABVUnicodeString@@PBUTSearchRecSmart@@0PBVTCopyParamType@@HPAVTFileOperationProgressType@@I@Z$0
4D2A0 65 ?CreateTargetDirectory@TTerminal@@QAE_NABVUnicodeString@@IPBVTCopyParamType@@@Z
4D400 65 ?DirectorySource@TTerminal@@IAEXABVUnicodeString@@00IPBVTCopyParamType@@HPAVTFileOperationProgressType@@I@Z
4D5D0 65 __catch$?DirectorySource@TTerminal@@IAEXABVUnicodeString@@00IPBVTCopyParamType@@HPAVTFileOperationProgressType@@I@Z$0
4D8E3 65 __catch$?DirectorySource@TTerminal@@IAEXABVUnicodeString@@00IPBVTCopyParamType@@HPAVTFileOperationProgressType@@I@Z$2
4D980 65 ?UseAsciiTransfer@TTerminal@@IBE_NABVUnicodeString@@W4TOperationSide@@PBVTCopyParamType@@ABUTParams@TFileMasks@@@Z
4D9E0 65 ?SelectTransferMode@TTerminal@@IAEXABVUnicodeString@@W4TOperationSide@@PBVTCopyParamType@@ABUTParams@TFileMasks@@@Z
4DB80 65 ?SelectSourceTransferMode@TTerminal@@IAEXABUTLocalFileHandle@@PBVTCopyParamType@@@Z
4DC50 65 ?DoDeleteLocalFile@TTerminal@@IAEXABVUnicodeString@@@Z
4DCA3 65 __catch$?DoDeleteLocalFile@TTerminal@@IAEXABVUnicodeString@@@Z$0
4DD20 65 ?DoRenameLocalFileForce@TTerminal@@IAEXABVUnicodeString@@0@Z
4DE73 65 __catch$?DoRenameLocalFileForce@TTerminal@@IAEXABVUnicodeString@@0@Z$0
4DF20 65 ?UpdateSource@TTerminal@@IAEXABUTLocalFileHandle@@PBVTCopyParamType@@H@Z
4E0F2 65 __catch$?UpdateSource@TTerminal@@IAEXABUTLocalFileHandle@@PBVTCopyParamType@@H@Z$0
4E180 65 ?Source@TTerminal@@IAEXABVUnicodeString@@PBUTSearchRecSmart@@0PBVTCopyParamType@@HPAVTFileOperationProgressType@@IAAVTUploadSessionAction@@AA_N@Z
4E5D0 65 ??0TLocalFileHandle@@QAE@XZ
4E630 65 ?CheckParallelFileTransfer@TTerminal@@IAEXABVUnicodeString@@PAVTStringList@@PBVTCopyParamType@@HAAV2@AA_JPAVTFileOperationProgressType@@@Z
4E9F0 65 ?CopyToLocal@TTerminal@@QAE_NPAVTStrings@@ABVUnicodeString@@PBVTCopyParamType@@HPAVTParallelOperation@@@Z
4EBC0 65 ??R<lambda_22236de6d4263179090e60c45f46eb2b>@@QBE@XZ
4EE90 65 ??R<lambda_db1827406c9abec5a1f356887aacf5d7>@@QBE@XZ
4EEB0 65 ??R<lambda_9c7352a759a4096d59b90223898be416>@@QBE@XZ
4F132 65 __catch$??R<lambda_9c7352a759a4096d59b90223898be416>@@QBE@XZ$0
4F210 65 ??R<lambda_1b403db6246ef42bf8fd900f945b1957>@@QBE@XZ
4F400 65 ??R<lambda_6cd13290cdc4f9a969490c0059c55396>@@QBE@XZ
4F430 65 ??R<lambda_136a8b6399cdc870b8dee98294619d56>@@QBE@XZ
4F5D0 65 ?DoCopyToLocal@TTerminal@@IAEXPAVTStrings@@ABVUnicodeString@@PBVTCopyParamType@@HPAVTFileOperationProgressType@@IAAW4TOnceDoneOperation@@@Z
4F7D0 65 ??R<lambda_631d73e50f222bc9e23866de457e5215>@@QBE@XZ
4F89E 65 __catch$??R<lambda_631d73e50f222bc9e23866de457e5215>@@QBE@XZ$0
4F8F0 65 ??R<lambda_6df7bec8c685d21a48e2da611e2a99d5>@@QBE@XZ
4F910 65 ?SinkRobust@TTerminal@@IAEXABVUnicodeString@@PBVTRemoteFile@@0PBVTCopyParamType@@HPAVTFileOperationProgressType@@I@Z
4F9C0 65 ??R<lambda_565585ccb43d034e468ad58e4b09c3be>@@QBE@XZ
4FABE 65 __catch$??R<lambda_565585ccb43d034e468ad58e4b09c3be>@@QBE@XZ$0
4FB90 65 ??R<lambda_22a1fcca7e8d7cca31e325e208fe6c15>@@QBE@XZ
4FBF0 65 ?Sink@TTerminal@@IAEXABVUnicodeString@@PBVTRemoteFile@@0PBVTCopyParamType@@HPAVTFileOperationProgressType@@IAAVTDownloadSessionAction@@@Z
4FEEE 65 __catch$?Sink@TTerminal@@IAEXABVUnicodeString@@PBVTRemoteFile@@0PBVTCopyParamType@@HPAVTFileOperationProgressType@@IAAVTDownloadSessionAction@@@Z$2
4FF6C 65 __catch$?Sink@TTerminal@@IAEXABVUnicodeString@@PBVTRemoteFile@@0PBVTCopyParamType@@HPAVTFileOperationProgressType@@IAAVTDownloadSessionAction@@@Z$0
50289 65 __catch$?Sink@TTerminal@@IAEXABVUnicodeString@@PBVTRemoteFile@@0PBVTCopyParamType@@HPAVTFileOperationProgressType@@IAAVTDownloadSessionAction@@@Z$4
50450 65 ?UpdateTargetAttrs@TTerminal@@IAEXABVUnicodeString@@PBVTRemoteFile@@PBVTCopyParamType@@H@Z
50572 65 __catch$?UpdateTargetAttrs@TTerminal@@IAEXABVUnicodeString@@PBVTRemoteFile@@PBVTCopyParamType@@H@Z$0
50620 65 ?UpdateTargetTime@TTerminal@@IAEXPAXABVTDateTime@@W4TModificationFmt@@W4TDSTMode@@@Z
50890 65 ?SinkFile@TTerminal@@IAEXABVUnicodeString@@PBVTRemoteFile@@PAX@Z
508F7 65 __catch$?SinkFile@TTerminal@@IAEXABVUnicodeString@@PBVTRemoteFile@@PAX@Z$0
50980 65 ?FormatCertificateData@@YA?AVUnicodeString@@ABV1@H@Z
50A30 65 ?VerifyCertificate@TTerminal@@IAE_NABVUnicodeString@@0000H@Z
50E30 65 ?ConfirmCertificate@TTerminal@@IAE_NABUTSessionInfo@@HABVUnicodeString@@_N@Z
51230 65 ?VerifyOrConfirmHttpCertificate@TTerminal@@IAE_NABVUnicodeString@@HABUTNeonCertificateData@@_NAAUTSessionInfo@@@Z
51550 65 ??1TNeonCertificateData@@QAE@XZ
51620 65 ?CollectTlsUsage@TTerminal@@IAEXABVUnicodeString@@@Z
519D0 65 ?LoadTlsCertificate@TTerminal@@IAE_NAAPAUx509_st@@AAPAUevp_pkey_st@@@Z
51C90 65 ?GetBaseFileName@TTerminal@@QBE?AVUnicodeString@@ABV2@@Z
51DB0 65 ?ChangeFileName@TTerminal@@QBE?AVUnicodeString@@PBVTCopyParamType@@ABV2@W4TOperationSide@@_N@Z
51E70 65 ?CanRecurseToDirectory@TTerminal@@IBE_NPBVTRemoteFile@@@Z
51EA0 65 ?GetEncryptedFileName@TTerminal@@IAE?AV?$_Tree_const_iterator@V?$_Tree_val@U?$_Tree_simple_types@U?$pair@$$CBVUnicodeString@@V1@@std@@@std@@@std@@@std@@ABVUnicodeString@@@Z
51F58 65 __catch$?GetEncryptedFileName@TTerminal@@IAE?AV?$_Tree_const_iterator@V?$_Tree_val@U?$_Tree_simple_types@U?$pair@$$CBVUnicodeString@@V1@@std@@@std@@@std@@@std@@ABVUnicodeString@@@Z$0
520C0 65 ?IsFileEncrypted@TTerminal@@IAE_NABVUnicodeString@@_N@Z
52160 65 ?EncryptFileName@TTerminal@@IAE?AVUnicodeString@@ABV2@_N@Z
52310 38 ??1TCopyParamRuleData@@UAE@XZ
523D0 65 ?DecryptFileName@TTerminal@@IAE?AVUnicodeString@@ABV2@_N1@Z
525C0 65 ?IsValidFile@TTerminal@@IBE_NPAVTRemoteFile@@@Z
52780 65 ?CutFeature@TTerminal@@QAE?AVUnicodeString@@AAV2@@Z
52A90 65 ?ProcessFeatures@TTerminal@@IAEPAVTStrings@@PAV2@@Z
52EA0 65 ?CreateLocalFile@TTerminal@@QAEPAXABVUnicodeString@@KKKK@Z
52F80 65 ?GetLocalFileAttributes@TTerminal@@QBEKABVUnicodeString@@@Z
53040 65 ?SetLocalFileAttributes@TTerminal@@QAE_NABVUnicodeString@@K@Z
53100 65 ?Init@TSecondaryTerminal@@QAEXV?$not_null@PAVTTerminal@@@gsl@@V?$not_null@PAVTSessionData@@@3@V?$not_null@PAVTConfiguration@@@3@ABVUnicodeString@@PAVTActionLog@@@Z
53300 65 ?DirectoryLoaded@TSecondaryTerminal@@MAEXPAVTRemoteFileList@@@Z
53310 65 ?DirectoryModified@TSecondaryTerminal@@MAEXABVUnicodeString@@_N@Z
53320 65 ??1TLocalFileHandle@@QAE@XZ
53380 65 ?GetSessionUrl@@YA?AVUnicodeString@@PBVTTerminal@@_N@Z
53560 65 ??1?$unique_ptr@VTChecklistItem@@U?$default_delete@VTChecklistItem@@@std@@@std@@QAE@XZ
535A0 65 ??1?$unique_ptr@VTSynchronizeChecklist@@U?$default_delete@VTSynchronizeChecklist@@@std@@@std@@QAE@XZ
535C0 65 ??1?$unique_ptr@VTSCPFileSystem@@U?$default_delete@VTSCPFileSystem@@@std@@@std@@QAE@XZ
536A0 65 ??1?$unique_ptr@VTS3FileSystem@@U?$default_delete@VTS3FileSystem@@@std@@@std@@QAE@XZ
537E0 65 ?find@?$_Tree@V?$_Tmap_traits@VUnicodeString@@UTDirectoryData@TParallelOperation@@U?$less@VUnicodeString@@@std@@U?$custom_nballocator_t@U?$pair@$$CBVUnicodeString@@UTDirectoryData@TParallelOperation@@@std@@@nb@@$0A@@std@@@std@@QAE?AV?$_Tree_iterator@V?$_Tree_val@U?$_Tree_simple_types@U?$pair@$$CBVUnicodeString@@UTDirectoryData@TParallelOperation@@@std@@@std@@@std@@@2@ABVUnicodeString@@@Z
53840 65 ?erase@?$_Tree@V?$_Tmap_traits@VUnicodeString@@UTDirectoryData@TParallelOperation@@U?$less@VUnicodeString@@@std@@U?$custom_nballocator_t@U?$pair@$$CBVUnicodeString@@UTDirectoryData@TParallelOperation@@@std@@@nb@@$0A@@std@@@std@@QAEIABVUnicodeString@@@Z
539D0 65 ??A?$map@VUnicodeString@@V1@U?$less@VUnicodeString@@@std@@U?$custom_nballocator_t@U?$pair@$$CBVUnicodeString@@V1@@std@@@nb@@@std@@QAEAAVUnicodeString@@ABV2@@Z
53AA0 65 ?erase@?$_Tree@V?$_Tmap_traits@VUnicodeString@@V1@U?$less@VUnicodeString@@@std@@U?$custom_nballocator_t@U?$pair@$$CBVUnicodeString@@V1@@std@@@nb@@$0A@@std@@@std@@QAEIABVUnicodeString@@@Z
53C60 65 ??1?$unique_ptr@VTTunnelThread@@U?$default_delete@VTTunnelThread@@@std@@@std@@QAE@XZ
53C70 65 ?reset@?$unique_ptr@VTRemoteDirectoryChangesCache@@U?$default_delete@VTRemoteDirectoryChangesCache@@@std@@@std@@QAEXPAVTRemoteDirectoryChangesCache@@@Z
53CC0 75 ??1?$unique_ptr@VTFarMenuItems@@U?$default_delete@VTFarMenuItems@@@std@@@std@@QAE@XZ
53D10 65 ??1?$unique_ptr@VTRemoteDirectoryCache@@U?$default_delete@VTRemoteDirectoryCache@@@std@@@std@@QAE@XZ
53D20 65 ??1?$unique_ptr@VTRemoteDirectory@@U?$default_delete@VTRemoteDirectory@@@std@@@std@@QAE@XZ
53D50 65 ??1?$unique_ptr@VTActionLog@@U?$default_delete@VTActionLog@@@std@@@std@@QAE@XZ
53D70 65 ?push_back@?$vector@_JU?$custom_nballocator_t@_J@nb@@@std@@QAEXAB_J@Z
53DA0 65 ?empty@?$FastDelegate3@IPAVTObject@@PAEI@fastdelegate@@QBE_NXZ
53DC0 65 ??1?$unique_ptr@VTSessionData@@U?$default_delete@VTSessionData@@@std@@@std@@QAE@XZ
53DE0 57 ??B?$RWPropertySimple@VUnicodeString@@@@QBE?AVUnicodeString@@XZ
53E00 65 ??4?$RWProperty@_N@@QAEAAV0@_N@Z
53E20 65 ??4?$RWProperty@VUnicodeString@@@@QAEAAV0@ABV0@@Z
53EC0 65 ??B?$FastDelegate1@XPAVTObject@@@fastdelegate@@QBEPQSafeBoolStruct@01@P6AXPAVTObject@@@ZXZ
53EF0 65 ??9?$ROProperty@VUnicodeString@@@@QAE_NABVUnicodeString@@@Z
53F80 65 ?_Xrange@?$vector@HU?$custom_nballocator_t@H@nb@@@std@@CAXXZ
53F90 65 ?end@?$vector@_NU?$custom_nballocator_t@_N@nb@@@std@@QAE?AV?$_Vb_iterator@U?$_Wrap_alloc@U?$custom_nballocator_t@I@nb@@@std@@@2@XZ
53FF0 65 ??R?$default_delete@VTTunnelThread@@@std@@QBEXPAVTTunnelThread@@@Z
540A0 65 ??R?$default_delete@VTRemoteDirectoryCache@@@std@@QBEXPAVTRemoteDirectoryCache@@@Z
54170 0 ??_ETSFTPFileSystem@@UAEPAXI@Z
541B0 0 ??_ETSCPFileSystem@@UAEPAXI@Z
542A0 0 ??_ETS3FileSystem@@UAEPAXI@Z
543F0 0 ??_ETWebDAVFileSystem@@UAEPAXI@Z
54430 0 ??_ETFTPFileSystem@@UAEPAXI@Z
54470 0 ??_ETActionLog@@UAEPAXI@Z
544B0 0 ??_ETSessionData@@UAEPAXI@Z
544F0 65 ??H?$_Vb_iterator@U?$_Wrap_alloc@U?$custom_nballocator_t@I@nb@@@std@@@std@@QBE?AV01@H@Z
54550 65 ?_Insert_n@?$vector@_NU?$custom_nballocator_t@_N@nb@@@std@@QAE?AV?$_Vb_iterator@U?$_Wrap_alloc@U?$custom_nballocator_t@I@nb@@@std@@@2@V?$_Vb_const_iterator@U?$_Wrap_alloc@U?$custom_nballocator_t@I@nb@@@std@@@2@IAB_N@Z
547F0 65 ?InvokeStaticFunction@?$FastDelegate1@XPAVTObject@@@fastdelegate@@ABEXPAVTObject@@@Z
54800 61 ??E?$_Tree_unchecked_const_iterator@V?$_Tree_val@U?$_Tree_simple_types@I@std@@@std@@U_Iterator_base0@2@@std@@QAEAAV01@XZ
54860 65 ?_Xlen@?$vector@_NU?$custom_nballocator_t@_N@nb@@@std@@SAXXZ
54870 61 ?_Extract@?$_Tree_val@U?$_Tree_simple_types@I@std@@@std@@QAEPAU?$_Tree_node@IPAX@2@V?$_Tree_unchecked_const_iterator@V?$_Tree_val@U?$_Tree_simple_types@I@std@@@std@@U_Iterator_base0@2@@2@@Z
54B30 61 ?_Lrotate@?$_Tree_val@U?$_Tree_simple_types@I@std@@@std@@QAEXPAU?$_Tree_node@IPAX@2@@Z
54B80 65 ??$destroy_at@VException@@@std@@YAXQAVException@@@Z
54B90 65 ??$Sprintf@HVUnicodeString@@V1@@nb@@YA?AVUnicodeString@@ABV1@ABH00@Z
54C20 65 ??$Sprintf@VUnicodeString@@HV1@@nb@@YA?AVUnicodeString@@ABV1@0ABH0@Z
54CB0 65 ??$Sprintf@VUnicodeString@@HV1@V1@@nb@@YA?AVUnicodeString@@ABV1@0ABH00@Z
54D50 65 ??$make_unique@VTSessionData@@AAY00$$CBD$0A@@std@@YA?AV?$unique_ptr@VTSessionData@@U?$default_delete@VTSessionData@@@std@@@0@AAY00$$CBD@Z
54E00 61 ??$?9VTChmodSessionAction@@U?$default_delete@VTChmodSessionAction@@@std@@@std@@YA_NABV?$unique_ptr@VTChmodSessionAction@@U?$default_delete@VTChmodSessionAction@@@std@@@0@$$T@Z
54E10 65 ??$make_unique@VTFTPFileSystem@@PAVTTerminal@@$0A@@std@@YA?AV?$unique_ptr@VTFTPFileSystem@@U?$default_delete@VTFTPFileSystem@@@std@@@0@$$QAPAVTTerminal@@@Z
54E60 65 ??$make_unique@VTSFTPFileSystem@@ABQAVTTerminal@@$0A@@std@@YA?AV?$unique_ptr@VTSFTPFileSystem@@U?$default_delete@VTSFTPFileSystem@@@std@@@0@ABQAVTTerminal@@@Z
55060 65 ??$FmtLoadStr@HH@nb@@YA?AVUnicodeString@@HABH0@Z
550D0 65 ??$FmtLoadStr@VUnicodeString@@V1@@nb@@YA?AVUnicodeString@@HABV1@0@Z
55140 65 ??$FmtLoadStr@VUnicodeString@@V1@V1@V1@V1@@nb@@YA?AVUnicodeString@@HABV1@0000@Z
551F0 65 ??$Sprintf@VUnicodeString@@V1@V1@@nb@@YA?AVUnicodeString@@ABV1@000@Z
55280 65 ??$Sprintf@VUnicodeString@@_W_JV1@HV1@V1@V1@H@nb@@YA?AVUnicodeString@@ABV1@0AB_WAB_J0ABH0003@Z
55380 65 ??$Sprintf@V?$RWProperty@VUnicodeString@@@@@nb@@YA?AVUnicodeString@@ABV1@ABV?$RWProperty@VUnicodeString@@@@@Z
553E0 65 ??$insert@$0A@$0A@@?$_Tree@V?$_Tset_traits@VUnicodeString@@U?$less@VUnicodeString@@@std@@U?$custom_nballocator_t@VUnicodeString@@@nb@@$0A@@std@@@std@@QAE?AU?$pair@V?$_Tree_const_iterator@V?$_Tree_val@U?$_Tree_simple_types@VUnicodeString@@@std@@@std@@@std@@_N@1@$$QAVUnicodeString@@@Z
554E0 65 ??$insert@$0A@$0A@@?$_Tree@V?$_Tset_traits@VUnicodeString@@U?$less@VUnicodeString@@@std@@U?$custom_nballocator_t@VUnicodeString@@@nb@@$0A@@std@@@std@@QAE?AU?$pair@V?$_Tree_const_iterator@V?$_Tree_val@U?$_Tree_simple_types@VUnicodeString@@@std@@@std@@@std@@_N@1@ABVUnicodeString@@@Z
555C0 65 ??$TryReplaceAndThrow@VEFatal@@VEAbort@@@@YAXAAVException@@@Z
55630 65 ??$Sprintf@GGGGGG@nb@@YA?AVUnicodeString@@ABV1@ABG11111@Z
55700 65 ??$Sprintf@V?$ROProperty@H@@VUnicodeString@@@nb@@YA?AVUnicodeString@@ABV1@ABV?$ROProperty@H@@0@Z
55780 65 ??$GetAs@UTSynchronizeFileData@@@TObjectList@@QAEPAUTSynchronizeFileData@@H@Z
557B0 65 ??$Sprintf@VUnicodeString@@V1@V1@HV1@V1@@nb@@YA?AVUnicodeString@@ABV1@000ABH00@Z
55870 65 ??$make_unique@VTChecklistItem@@$$V$0A@@std@@YA?AV?$unique_ptr@VTChecklistItem@@U?$default_delete@VTChecklistItem@@@std@@@0@XZ
55940 65 ??$Sprintf@VUnicodeString@@V1@HV1@@nb@@YA?AVUnicodeString@@ABV1@00ABH0@Z
559E0 65 ??$max@_J@std@@YAAB_JAB_J0@Z
55A00 65 ??$Sprintf@PBD@nb@@YA?AVUnicodeString@@ABV1@ABQBD@Z
55A60 65 ??$Sprintf@VUnicodeString@@V1@V1@H@nb@@YA?AVUnicodeString@@ABV1@000ABH@Z
55B00 65 ??$Sprintf@VUnicodeString@@V1@H@nb@@YA?AVUnicodeString@@ABV1@00ABH@Z
55B90 65 ??$_Erase_tree@U?$custom_nballocator_t@U?$_Tree_node@U?$pair@$$CBVUnicodeString@@UTDirectoryData@TParallelOperation@@@std@@PAX@std@@@nb@@@?$_Tree_val@U?$_Tree_simple_types@U?$pair@$$CBVUnicodeString@@UTDirectoryData@TParallelOperation@@@std@@@std@@@std@@QAEXAAU?$custom_nballocator_t@U?$_Tree_node@U?$pair@$$CBVUnicodeString@@UTDirectoryData@TParallelOperation@@@std@@PAX@std@@@nb@@PAU?$_Tree_node@U?$pair@$$CBVUnicodeString@@UTDirectoryData@TParallelOperation@@@std@@PAX@1@@Z
55BD0 65 ??$_Destroy_range@U?$custom_nballocator_t@UTFileData@TCollectedFileList@@@nb@@@std@@YAXPAUTFileData@TCollectedFileList@@QAU12@AAU?$custom_nballocator_t@UTFileData@TCollectedFileList@@@nb@@@Z
55C30 65 ??0?$scope_guard@V<lambda_565585ccb43d034e468ad58e4b09c3be>@@V<lambda_22a1fcca7e8d7cca31e325e208fe6c15>@@@detail@Sysutils@@QAE@$$QAV<lambda_565585ccb43d034e468ad58e4b09c3be>@@$$QAV<lambda_22a1fcca7e8d7cca31e325e208fe6c15>@@@Z
55CBA 65 __catch$??0?$scope_guard@V<lambda_565585ccb43d034e468ad58e4b09c3be>@@V<lambda_22a1fcca7e8d7cca31e325e208fe6c15>@@@detail@Sysutils@@QAE@$$QAV<lambda_565585ccb43d034e468ad58e4b09c3be>@@$$QAV<lambda_22a1fcca7e8d7cca31e325e208fe6c15>@@@Z$0
55CE0 65 ??0?$scope_guard@V<lambda_631d73e50f222bc9e23866de457e5215>@@V<lambda_6df7bec8c685d21a48e2da611e2a99d5>@@@detail@Sysutils@@QAE@$$QAV<lambda_631d73e50f222bc9e23866de457e5215>@@$$QAV<lambda_6df7bec8c685d21a48e2da611e2a99d5>@@@Z
55D7B 65 __catch$??0?$scope_guard@V<lambda_631d73e50f222bc9e23866de457e5215>@@V<lambda_6df7bec8c685d21a48e2da611e2a99d5>@@@detail@Sysutils@@QAE@$$QAV<lambda_631d73e50f222bc9e23866de457e5215>@@$$QAV<lambda_6df7bec8c685d21a48e2da611e2a99d5>@@@Z$0
55DA0 65 ??0?$scope_guard@V<lambda_22236de6d4263179090e60c45f46eb2b>@@V<lambda_4b180425e04c452afae5af38cc78f4ce>@@@detail@Sysutils@@QAE@$$QAV<lambda_22236de6d4263179090e60c45f46eb2b>@@$$QAV<lambda_4b180425e04c452afae5af38cc78f4ce>@@@Z
55E32 65 __catch$??0?$scope_guard@V<lambda_22236de6d4263179090e60c45f46eb2b>@@V<lambda_4b180425e04c452afae5af38cc78f4ce>@@@detail@Sysutils@@QAE@$$QAV<lambda_22236de6d4263179090e60c45f46eb2b>@@$$QAV<lambda_4b180425e04c452afae5af38cc78f4ce>@@@Z$0
55E50 65 ??0?$scope_guard@V<lambda_9c7352a759a4096d59b90223898be416>@@V<lambda_136a8b6399cdc870b8dee98294619d56>@@@detail@Sysutils@@QAE@$$QAV<lambda_9c7352a759a4096d59b90223898be416>@@$$QAV<lambda_136a8b6399cdc870b8dee98294619d56>@@@Z
55EFC 65 __catch$??0?$scope_guard@V<lambda_9c7352a759a4096d59b90223898be416>@@V<lambda_136a8b6399cdc870b8dee98294619d56>@@@detail@Sysutils@@QAE@$$QAV<lambda_9c7352a759a4096d59b90223898be416>@@$$QAV<lambda_136a8b6399cdc870b8dee98294619d56>@@@Z$0
55F20 65 ??0?$scope_guard@V<lambda_1b403db6246ef42bf8fd900f945b1957>@@V<lambda_6cd13290cdc4f9a969490c0059c55396>@@@detail@Sysutils@@QAE@$$QAV<lambda_1b403db6246ef42bf8fd900f945b1957>@@$$QAV<lambda_6cd13290cdc4f9a969490c0059c55396>@@@Z
55FD2 65 __catch$??0?$scope_guard@V<lambda_1b403db6246ef42bf8fd900f945b1957>@@V<lambda_6cd13290cdc4f9a969490c0059c55396>@@@detail@Sysutils@@QAE@$$QAV<lambda_1b403db6246ef42bf8fd900f945b1957>@@$$QAV<lambda_6cd13290cdc4f9a969490c0059c55396>@@@Z$0
55FF0 65 ??0?$scope_guard@V<lambda_a2ca45d7fd66d260b16c13b8ac5f6e7c>@@V<lambda_db1827406c9abec5a1f356887aacf5d7>@@@detail@Sysutils@@QAE@$$QAV<lambda_a2ca45d7fd66d260b16c13b8ac5f6e7c>@@$$QAV<lambda_db1827406c9abec5a1f356887aacf5d7>@@@Z
56158 65 __catch$??0?$scope_guard@V<lambda_a2ca45d7fd66d260b16c13b8ac5f6e7c>@@V<lambda_db1827406c9abec5a1f356887aacf5d7>@@@detail@Sysutils@@QAE@$$QAV<lambda_a2ca45d7fd66d260b16c13b8ac5f6e7c>@@$$QAV<lambda_db1827406c9abec5a1f356887aacf5d7>@@@Z$0
56170 65 ??0?$scope_guard@V<lambda_3464a0a5164a41ca1643836bdabe01f8>@@V<lambda_2ab4bfe723a9dd2bf780cb115150cd55>@@@detail@Sysutils@@QAE@$$QAV<lambda_3464a0a5164a41ca1643836bdabe01f8>@@$$QAV<lambda_2ab4bfe723a9dd2bf780cb115150cd55>@@@Z
56233 65 __catch$??0?$scope_guard@V<lambda_3464a0a5164a41ca1643836bdabe01f8>@@V<lambda_2ab4bfe723a9dd2bf780cb115150cd55>@@@detail@Sysutils@@QAE@$$QAV<lambda_3464a0a5164a41ca1643836bdabe01f8>@@$$QAV<lambda_2ab4bfe723a9dd2bf780cb115150cd55>@@@Z$0
56250 65 ??0?$scope_guard@V<lambda_433c911554c2dd83ae38060c1d13b0ff>@@V<lambda_9a49cb51a13b03b987d3d183566ed1ba>@@@detail@Sysutils@@QAE@$$QAV<lambda_433c911554c2dd83ae38060c1d13b0ff>@@$$QAV<lambda_9a49cb51a13b03b987d3d183566ed1ba>@@@Z
562F9 65 __catch$??0?$scope_guard@V<lambda_433c911554c2dd83ae38060c1d13b0ff>@@V<lambda_9a49cb51a13b03b987d3d183566ed1ba>@@@detail@Sysutils@@QAE@$$QAV<lambda_433c911554c2dd83ae38060c1d13b0ff>@@$$QAV<lambda_9a49cb51a13b03b987d3d183566ed1ba>@@@Z$0
56320 65 ??0?$scope_guard@V<lambda_357120f27485ab69c4ce222fef3c0745>@@V<lambda_85a47c60c36cc915396b8d5c5cda3e01>@@@detail@Sysutils@@QAE@$$QAV<lambda_357120f27485ab69c4ce222fef3c0745>@@$$QAV<lambda_85a47c60c36cc915396b8d5c5cda3e01>@@@Z
563E4 65 __catch$??0?$scope_guard@V<lambda_357120f27485ab69c4ce222fef3c0745>@@V<lambda_85a47c60c36cc915396b8d5c5cda3e01>@@@detail@Sysutils@@QAE@$$QAV<lambda_357120f27485ab69c4ce222fef3c0745>@@$$QAV<lambda_85a47c60c36cc915396b8d5c5cda3e01>@@@Z$0
56410 65 ??0?$scope_guard@V<lambda_b426b650116a03e4332ddaf3a3d14bd1>@@V<lambda_92919642265722fd1d58688fd139fade>@@@detail@Sysutils@@QAE@$$QAV<lambda_b426b650116a03e4332ddaf3a3d14bd1>@@$$QAV<lambda_92919642265722fd1d58688fd139fade>@@@Z
5650E 65 __catch$??0?$scope_guard@V<lambda_b426b650116a03e4332ddaf3a3d14bd1>@@V<lambda_92919642265722fd1d58688fd139fade>@@@detail@Sysutils@@QAE@$$QAV<lambda_b426b650116a03e4332ddaf3a3d14bd1>@@$$QAV<lambda_92919642265722fd1d58688fd139fade>@@@Z$0
56530 65 ??0?$scope_guard@V<lambda_58f33d7bf23c326399f5a872d27e7e02>@@V<lambda_05df852a7bc607e5003c4157d3e0d0c8>@@@detail@Sysutils@@QAE@$$QAV<lambda_58f33d7bf23c326399f5a872d27e7e02>@@$$QAV<lambda_05df852a7bc607e5003c4157d3e0d0c8>@@@Z
566B0 65 __catch$??0?$scope_guard@V<lambda_58f33d7bf23c326399f5a872d27e7e02>@@V<lambda_05df852a7bc607e5003c4157d3e0d0c8>@@@detail@Sysutils@@QAE@$$QAV<lambda_58f33d7bf23c326399f5a872d27e7e02>@@$$QAV<lambda_05df852a7bc607e5003c4157d3e0d0c8>@@@Z$0
566D0 65 ??0?$scope_guard@V<lambda_2e4b85a6ed8a833c6ad4bb2d4526035b>@@V<lambda_0b5105d60ec0b5e7246ed0cd3b9f794c>@@@detail@Sysutils@@QAE@$$QAV<lambda_2e4b85a6ed8a833c6ad4bb2d4526035b>@@$$QAV<lambda_0b5105d60ec0b5e7246ed0cd3b9f794c>@@@Z
5680E 65 __catch$??0?$scope_guard@V<lambda_2e4b85a6ed8a833c6ad4bb2d4526035b>@@V<lambda_0b5105d60ec0b5e7246ed0cd3b9f794c>@@@detail@Sysutils@@QAE@$$QAV<lambda_2e4b85a6ed8a833c6ad4bb2d4526035b>@@$$QAV<lambda_0b5105d60ec0b5e7246ed0cd3b9f794c>@@@Z$0
56830 65 ??0?$scope_guard@V<lambda_f5ce53928d867f1c298995814313751b>@@V<lambda_397ebbf82a48dbbf3e5b6c2ac083d8ff>@@@detail@Sysutils@@QAE@$$QAV<lambda_f5ce53928d867f1c298995814313751b>@@$$QAV<lambda_397ebbf82a48dbbf3e5b6c2ac083d8ff>@@@Z
568C2 65 __catch$??0?$scope_guard@V<lambda_f5ce53928d867f1c298995814313751b>@@V<lambda_397ebbf82a48dbbf3e5b6c2ac083d8ff>@@@detail@Sysutils@@QAE@$$QAV<lambda_f5ce53928d867f1c298995814313751b>@@$$QAV<lambda_397ebbf82a48dbbf3e5b6c2ac083d8ff>@@@Z$0
568E0 65 ??0?$scope_guard@V<lambda_be41b431f2f887175275140a0eb308c5>@@V<lambda_015372214a7d8ea0ec77d20f9eeff718>@@@detail@Sysutils@@QAE@$$QAV<lambda_be41b431f2f887175275140a0eb308c5>@@$$QAV<lambda_015372214a7d8ea0ec77d20f9eeff718>@@@Z
56940 65 __catch$??0?$scope_guard@V<lambda_be41b431f2f887175275140a0eb308c5>@@V<lambda_015372214a7d8ea0ec77d20f9eeff718>@@@detail@Sysutils@@QAE@$$QAV<lambda_be41b431f2f887175275140a0eb308c5>@@$$QAV<lambda_015372214a7d8ea0ec77d20f9eeff718>@@@Z$0
56950 65 ??0?$scope_guard@V<lambda_e7b77c3c61f523deb9f1dc42d13437c8>@@V<lambda_ac0177111ea047bc11fdcef25cdd0a3b>@@@detail@Sysutils@@QAE@$$QAV<lambda_e7b77c3c61f523deb9f1dc42d13437c8>@@$$QAV<lambda_ac0177111ea047bc11fdcef25cdd0a3b>@@@Z
569CA 65 __catch$??0?$scope_guard@V<lambda_e7b77c3c61f523deb9f1dc42d13437c8>@@V<lambda_ac0177111ea047bc11fdcef25cdd0a3b>@@@detail@Sysutils@@QAE@$$QAV<lambda_e7b77c3c61f523deb9f1dc42d13437c8>@@$$QAV<lambda_ac0177111ea047bc11fdcef25cdd0a3b>@@@Z$0
569F0 65 ??0?$scope_guard@V<lambda_b3f6805632609bf74c27d936efa09255>@@V<lambda_3ce522306099a13f7aa8c59821a9a3f2>@@@detail@Sysutils@@QAE@$$QAV<lambda_b3f6805632609bf74c27d936efa09255>@@$$QAV<lambda_3ce522306099a13f7aa8c59821a9a3f2>@@@Z
56A50 65 __catch$??0?$scope_guard@V<lambda_b3f6805632609bf74c27d936efa09255>@@V<lambda_3ce522306099a13f7aa8c59821a9a3f2>@@@detail@Sysutils@@QAE@$$QAV<lambda_b3f6805632609bf74c27d936efa09255>@@$$QAV<lambda_3ce522306099a13f7aa8c59821a9a3f2>@@@Z$0
56A60 65 ??0?$scope_guard@V<lambda_eeb60df13c9a0907e3a01e1f3bb226eb>@@V<lambda_341e45726e3a1de9a378a9fb8a5a9212>@@@detail@Sysutils@@QAE@$$QAV<lambda_eeb60df13c9a0907e3a01e1f3bb226eb>@@$$QAV<lambda_341e45726e3a1de9a378a9fb8a5a9212>@@@Z
56B43 65 __catch$??0?$scope_guard@V<lambda_eeb60df13c9a0907e3a01e1f3bb226eb>@@V<lambda_341e45726e3a1de9a378a9fb8a5a9212>@@@detail@Sysutils@@QAE@$$QAV<lambda_eeb60df13c9a0907e3a01e1f3bb226eb>@@$$QAV<lambda_341e45726e3a1de9a378a9fb8a5a9212>@@@Z$0
56B60 65 ??0?$scope_guard@V<lambda_c9da1d11861aae47e2cc3f40c3625791>@@V<lambda_5a37a9b01851dfb86db6b96380e36afd>@@@detail@Sysutils@@QAE@$$QAV<lambda_c9da1d11861aae47e2cc3f40c3625791>@@$$QAV<lambda_5a37a9b01851dfb86db6b96380e36afd>@@@Z
56C05 65 __catch$??0?$scope_guard@V<lambda_c9da1d11861aae47e2cc3f40c3625791>@@V<lambda_5a37a9b01851dfb86db6b96380e36afd>@@@detail@Sysutils@@QAE@$$QAV<lambda_c9da1d11861aae47e2cc3f40c3625791>@@$$QAV<lambda_5a37a9b01851dfb86db6b96380e36afd>@@@Z$0
56C30 65 ??0?$scope_guard@V<lambda_560d90d8a424fcf400f8b61d55fab874>@@V<lambda_3ab510d0b38e5b8fe1273ba12fbeebb9>@@@detail@Sysutils@@QAE@$$QAV<lambda_560d90d8a424fcf400f8b61d55fab874>@@$$QAV<lambda_3ab510d0b38e5b8fe1273ba12fbeebb9>@@@Z
56CC5 65 __catch$??0?$scope_guard@V<lambda_560d90d8a424fcf400f8b61d55fab874>@@V<lambda_3ab510d0b38e5b8fe1273ba12fbeebb9>@@@detail@Sysutils@@QAE@$$QAV<lambda_560d90d8a424fcf400f8b61d55fab874>@@$$QAV<lambda_3ab510d0b38e5b8fe1273ba12fbeebb9>@@@Z$0
56CE0 65 ??0?$scope_guard@V<lambda_4be279981b3c098dda45df2b750cf656>@@V<lambda_a3c7e2a1e5cdef48ff375dd4abcae7d5>@@@detail@Sysutils@@QAE@$$QAV<lambda_4be279981b3c098dda45df2b750cf656>@@$$QAV<lambda_a3c7e2a1e5cdef48ff375dd4abcae7d5>@@@Z
56D9E 65 __catch$??0?$scope_guard@V<lambda_4be279981b3c098dda45df2b750cf656>@@V<lambda_a3c7e2a1e5cdef48ff375dd4abcae7d5>@@@detail@Sysutils@@QAE@$$QAV<lambda_4be279981b3c098dda45df2b750cf656>@@$$QAV<lambda_a3c7e2a1e5cdef48ff375dd4abcae7d5>@@@Z$0
56DC0 65 ??0?$scope_guard@V<lambda_33e9cba5f04bb05be99239f63d85f427>@@V<lambda_ae3df31f94ebbf325511d1a847c5050a>@@@detail@Sysutils@@QAE@$$QAV<lambda_33e9cba5f04bb05be99239f63d85f427>@@$$QAV<lambda_ae3df31f94ebbf325511d1a847c5050a>@@@Z
56E5A 65 __catch$??0?$scope_guard@V<lambda_33e9cba5f04bb05be99239f63d85f427>@@V<lambda_ae3df31f94ebbf325511d1a847c5050a>@@@detail@Sysutils@@QAE@$$QAV<lambda_33e9cba5f04bb05be99239f63d85f427>@@$$QAV<lambda_ae3df31f94ebbf325511d1a847c5050a>@@@Z$0
56E80 65 ??0?$scope_guard@V<lambda_53b49dcbf704e5a188891d87d90ce432>@@V<lambda_45a2687a617969459d97274717a52aa7>@@@detail@Sysutils@@QAE@$$QAV<lambda_53b49dcbf704e5a188891d87d90ce432>@@$$QAV<lambda_45a2687a617969459d97274717a52aa7>@@@Z
56F99 65 __catch$??0?$scope_guard@V<lambda_53b49dcbf704e5a188891d87d90ce432>@@V<lambda_45a2687a617969459d97274717a52aa7>@@@detail@Sysutils@@QAE@$$QAV<lambda_53b49dcbf704e5a188891d87d90ce432>@@$$QAV<lambda_45a2687a617969459d97274717a52aa7>@@@Z$0
56FB0 65 ??0?$scope_guard@V<lambda_38c7d76c8bdbe1e80d2b842a742a6a5a>@@V<lambda_20626634ca0e93bb81eb9f08d2028ea6>@@@detail@Sysutils@@QAE@$$QAV<lambda_38c7d76c8bdbe1e80d2b842a742a6a5a>@@$$QAV<lambda_20626634ca0e93bb81eb9f08d2028ea6>@@@Z
57038 65 __catch$??0?$scope_guard@V<lambda_38c7d76c8bdbe1e80d2b842a742a6a5a>@@V<lambda_20626634ca0e93bb81eb9f08d2028ea6>@@@detail@Sysutils@@QAE@$$QAV<lambda_38c7d76c8bdbe1e80d2b842a742a6a5a>@@$$QAV<lambda_20626634ca0e93bb81eb9f08d2028ea6>@@@Z$0
57060 65 ??0?$scope_guard@V<lambda_e65cc36a2605558025ab5117cccb8f3e>@@V<lambda_c81de4669c5cf0174f34e0634c0c5704>@@@detail@Sysutils@@QAE@$$QAV<lambda_e65cc36a2605558025ab5117cccb8f3e>@@$$QAV<lambda_c81de4669c5cf0174f34e0634c0c5704>@@@Z
57101 65 __catch$??0?$scope_guard@V<lambda_e65cc36a2605558025ab5117cccb8f3e>@@V<lambda_c81de4669c5cf0174f34e0634c0c5704>@@@detail@Sysutils@@QAE@$$QAV<lambda_e65cc36a2605558025ab5117cccb8f3e>@@$$QAV<lambda_c81de4669c5cf0174f34e0634c0c5704>@@@Z$0
57120 65 ??0?$scope_guard@V<lambda_a7a81355ed49ff9a0312f4a997785b68>@@V<lambda_2055a480a879163ea21982b8d1f42634>@@@detail@Sysutils@@QAE@$$QAV<lambda_a7a81355ed49ff9a0312f4a997785b68>@@$$QAV<lambda_2055a480a879163ea21982b8d1f42634>@@@Z
571CA 65 __catch$??0?$scope_guard@V<lambda_a7a81355ed49ff9a0312f4a997785b68>@@V<lambda_2055a480a879163ea21982b8d1f42634>@@@detail@Sysutils@@QAE@$$QAV<lambda_a7a81355ed49ff9a0312f4a997785b68>@@$$QAV<lambda_2055a480a879163ea21982b8d1f42634>@@@Z$0
571F0 65 ??0?$scope_guard@V<lambda_b5dd58d5adb035633b53c9a7490af660>@@V<lambda_adea5f44322a42494b6be5c5463d15fd>@@@detail@Sysutils@@QAE@$$QAV<lambda_b5dd58d5adb035633b53c9a7490af660>@@$$QAV<lambda_adea5f44322a42494b6be5c5463d15fd>@@@Z
572AA 65 __catch$??0?$scope_guard@V<lambda_b5dd58d5adb035633b53c9a7490af660>@@V<lambda_adea5f44322a42494b6be5c5463d15fd>@@@detail@Sysutils@@QAE@$$QAV<lambda_b5dd58d5adb035633b53c9a7490af660>@@$$QAV<lambda_adea5f44322a42494b6be5c5463d15fd>@@@Z$0
572D0 65 ??0?$scope_guard@V<lambda_cbec67edd37f7e717f966f57091c82ff>@@V<lambda_426a8babf542a43c39899e95abbd801b>@@@detail@Sysutils@@QAE@$$QAV<lambda_cbec67edd37f7e717f966f57091c82ff>@@$$QAV<lambda_426a8babf542a43c39899e95abbd801b>@@@Z
573A3 65 __catch$??0?$scope_guard@V<lambda_cbec67edd37f7e717f966f57091c82ff>@@V<lambda_426a8babf542a43c39899e95abbd801b>@@@detail@Sysutils@@QAE@$$QAV<lambda_cbec67edd37f7e717f966f57091c82ff>@@$$QAV<lambda_426a8babf542a43c39899e95abbd801b>@@@Z$0
573C0 65 ??0?$scope_guard@V<lambda_cc948fc356f6abfb59852271014b8a80>@@V<lambda_eec88a39e14c43b405ba13ed350cead6>@@@detail@Sysutils@@QAE@$$QAV<lambda_cc948fc356f6abfb59852271014b8a80>@@$$QAV<lambda_eec88a39e14c43b405ba13ed350cead6>@@@Z
57416 65 __catch$??0?$scope_guard@V<lambda_cc948fc356f6abfb59852271014b8a80>@@V<lambda_eec88a39e14c43b405ba13ed350cead6>@@@detail@Sysutils@@QAE@$$QAV<lambda_cc948fc356f6abfb59852271014b8a80>@@$$QAV<lambda_eec88a39e14c43b405ba13ed350cead6>@@@Z$0
57430 65 ??0?$scope_guard@V<lambda_15ba5ba1922fd0f83ad9b6f339f9a440>@@V<lambda_811b9c99d65ecbc64131bcdc51e3a553>@@@detail@Sysutils@@QAE@$$QAV<lambda_15ba5ba1922fd0f83ad9b6f339f9a440>@@$$QAV<lambda_811b9c99d65ecbc64131bcdc51e3a553>@@@Z
574B8 65 __catch$??0?$scope_guard@V<lambda_15ba5ba1922fd0f83ad9b6f339f9a440>@@V<lambda_811b9c99d65ecbc64131bcdc51e3a553>@@@detail@Sysutils@@QAE@$$QAV<lambda_15ba5ba1922fd0f83ad9b6f339f9a440>@@$$QAV<lambda_811b9c99d65ecbc64131bcdc51e3a553>@@@Z$0
574E0 65 ??0?$scope_guard@V<lambda_59853c054af7384e67cfb82ea4024b6d>@@V<lambda_880bc9e2190f7aebf633eba493fe5d22>@@@detail@Sysutils@@QAE@$$QAV<lambda_59853c054af7384e67cfb82ea4024b6d>@@$$QAV<lambda_880bc9e2190f7aebf633eba493fe5d22>@@@Z
5754E 65 __catch$??0?$scope_guard@V<lambda_59853c054af7384e67cfb82ea4024b6d>@@V<lambda_880bc9e2190f7aebf633eba493fe5d22>@@@detail@Sysutils@@QAE@$$QAV<lambda_59853c054af7384e67cfb82ea4024b6d>@@$$QAV<lambda_880bc9e2190f7aebf633eba493fe5d22>@@@Z$0
57560 65 ??0?$scope_guard@V<lambda_e2444ed6983c7a8686a1a9f3d4583cd9>@@V<lambda_ff8adf32d85862a188ba4b6d90839d73>@@@detail@Sysutils@@QAE@$$QAV<lambda_e2444ed6983c7a8686a1a9f3d4583cd9>@@$$QAV<lambda_ff8adf32d85862a188ba4b6d90839d73>@@@Z
575D8 65 __catch$??0?$scope_guard@V<lambda_e2444ed6983c7a8686a1a9f3d4583cd9>@@V<lambda_ff8adf32d85862a188ba4b6d90839d73>@@@detail@Sysutils@@QAE@$$QAV<lambda_e2444ed6983c7a8686a1a9f3d4583cd9>@@$$QAV<lambda_ff8adf32d85862a188ba4b6d90839d73>@@@Z$0
57600 65 ??0?$scope_guard@V<lambda_2a2e4c4d29429eb92443dbdd12629104>@@V<lambda_c7fd7116c1011e70cb9e61c75e1ec33b>@@@detail@Sysutils@@QAE@$$QAV<lambda_2a2e4c4d29429eb92443dbdd12629104>@@$$QAV<lambda_c7fd7116c1011e70cb9e61c75e1ec33b>@@@Z
576D5 65 __catch$??0?$scope_guard@V<lambda_2a2e4c4d29429eb92443dbdd12629104>@@V<lambda_c7fd7116c1011e70cb9e61c75e1ec33b>@@@detail@Sysutils@@QAE@$$QAV<lambda_2a2e4c4d29429eb92443dbdd12629104>@@$$QAV<lambda_c7fd7116c1011e70cb9e61c75e1ec33b>@@@Z$0
576F0 65 ??0?$scope_guard@V<lambda_80663ceeb32e8824c9eede92cdb59acc>@@V<lambda_16d56232f4baff488e88cebe482972d3>@@@detail@Sysutils@@QAE@$$QAV<lambda_80663ceeb32e8824c9eede92cdb59acc>@@$$QAV<lambda_16d56232f4baff488e88cebe482972d3>@@@Z
57775 65 __catch$??0?$scope_guard@V<lambda_80663ceeb32e8824c9eede92cdb59acc>@@V<lambda_16d56232f4baff488e88cebe482972d3>@@@detail@Sysutils@@QAE@$$QAV<lambda_80663ceeb32e8824c9eede92cdb59acc>@@$$QAV<lambda_16d56232f4baff488e88cebe482972d3>@@@Z$0
57790 65 ??0?$scope_guard@V<lambda_081b6414fd570ef400029905a6cf341f>@@V<lambda_59268597ebe8cc926090b32952636e3c>@@@detail@Sysutils@@QAE@$$QAV<lambda_081b6414fd570ef400029905a6cf341f>@@$$QAV<lambda_59268597ebe8cc926090b32952636e3c>@@@Z
5786C 65 __catch$??0?$scope_guard@V<lambda_081b6414fd570ef400029905a6cf341f>@@V<lambda_59268597ebe8cc926090b32952636e3c>@@@detail@Sysutils@@QAE@$$QAV<lambda_081b6414fd570ef400029905a6cf341f>@@$$QAV<lambda_59268597ebe8cc926090b32952636e3c>@@@Z$0
57890 65 ??0?$scope_guard@V<lambda_4b809d5c6557f78ef470a7964c908bc1>@@V<lambda_12124123fca997d2314320a2b59f431f>@@@detail@Sysutils@@QAE@$$QAV<lambda_4b809d5c6557f78ef470a7964c908bc1>@@$$QAV<lambda_12124123fca997d2314320a2b59f431f>@@@Z
57902 65 __catch$??0?$scope_guard@V<lambda_4b809d5c6557f78ef470a7964c908bc1>@@V<lambda_12124123fca997d2314320a2b59f431f>@@@detail@Sysutils@@QAE@$$QAV<lambda_4b809d5c6557f78ef470a7964c908bc1>@@$$QAV<lambda_12124123fca997d2314320a2b59f431f>@@@Z$0
57920 65 ??0?$scope_guard@V<lambda_950dc155e07b0cb7b2fa45db281f129a>@@V<lambda_6e3762c40bfe100fa7bce035cb6d361c>@@@detail@Sysutils@@QAE@$$QAV<lambda_950dc155e07b0cb7b2fa45db281f129a>@@$$QAV<lambda_6e3762c40bfe100fa7bce035cb6d361c>@@@Z
579DF 65 __catch$??0?$scope_guard@V<lambda_950dc155e07b0cb7b2fa45db281f129a>@@V<lambda_6e3762c40bfe100fa7bce035cb6d361c>@@@detail@Sysutils@@QAE@$$QAV<lambda_950dc155e07b0cb7b2fa45db281f129a>@@$$QAV<lambda_6e3762c40bfe100fa7bce035cb6d361c>@@@Z$0
57A00 65 ??0?$scope_guard@V<lambda_ac3ca396c4f44297d9ea3de4d40936d4>@@V<lambda_473b5172ec0e5f0ce02834a87a69e446>@@@detail@Sysutils@@QAE@$$QAV<lambda_ac3ca396c4f44297d9ea3de4d40936d4>@@$$QAV<lambda_473b5172ec0e5f0ce02834a87a69e446>@@@Z
57ABA 65 __catch$??0?$scope_guard@V<lambda_ac3ca396c4f44297d9ea3de4d40936d4>@@V<lambda_473b5172ec0e5f0ce02834a87a69e446>@@@detail@Sysutils@@QAE@$$QAV<lambda_ac3ca396c4f44297d9ea3de4d40936d4>@@$$QAV<lambda_473b5172ec0e5f0ce02834a87a69e446>@@@Z$0
57AE0 65 ??0?$scope_guard@V<lambda_e1a93e6d8f334bb9df2487624dd90df1>@@V<lambda_490497f6dff7ecdaf91acd1998286b59>@@@detail@Sysutils@@QAE@$$QAV<lambda_e1a93e6d8f334bb9df2487624dd90df1>@@$$QAV<lambda_490497f6dff7ecdaf91acd1998286b59>@@@Z
57B3B 65 __catch$??0?$scope_guard@V<lambda_e1a93e6d8f334bb9df2487624dd90df1>@@V<lambda_490497f6dff7ecdaf91acd1998286b59>@@@detail@Sysutils@@QAE@$$QAV<lambda_e1a93e6d8f334bb9df2487624dd90df1>@@$$QAV<lambda_490497f6dff7ecdaf91acd1998286b59>@@@Z$0
57B50 65 ??0?$scope_guard@V<lambda_378e7de6a82e23e5a44f8cf33ccda170>@@V<lambda_5b8293990e2ce3467e89867be55b8121>@@@detail@Sysutils@@QAE@$$QAV<lambda_378e7de6a82e23e5a44f8cf33ccda170>@@$$QAV<lambda_5b8293990e2ce3467e89867be55b8121>@@@Z
57C53 65 __catch$??0?$scope_guard@V<lambda_378e7de6a82e23e5a44f8cf33ccda170>@@V<lambda_5b8293990e2ce3467e89867be55b8121>@@@detail@Sysutils@@QAE@$$QAV<lambda_378e7de6a82e23e5a44f8cf33ccda170>@@$$QAV<lambda_5b8293990e2ce3467e89867be55b8121>@@@Z$0
57C70 65 ??0?$scope_guard@V<lambda_cb012b7fb98bea3bc0b53c6cb558715e>@@V<lambda_fd28437e1c09825548e2e33c0326ee0e>@@@detail@Sysutils@@QAE@$$QAV<lambda_cb012b7fb98bea3bc0b53c6cb558715e>@@$$QAV<lambda_fd28437e1c09825548e2e33c0326ee0e>@@@Z
57CD4 65 __catch$??0?$scope_guard@V<lambda_cb012b7fb98bea3bc0b53c6cb558715e>@@V<lambda_fd28437e1c09825548e2e33c0326ee0e>@@@detail@Sysutils@@QAE@$$QAV<lambda_cb012b7fb98bea3bc0b53c6cb558715e>@@$$QAV<lambda_fd28437e1c09825548e2e33c0326ee0e>@@@Z$0
57CF0 65 ??0?$scope_guard@V<lambda_e2c081099a5fcc4640b7541d477049dc>@@V<lambda_6bf2bd332ece75c8abb0597733762b82>@@@detail@Sysutils@@QAE@$$QAV<lambda_e2c081099a5fcc4640b7541d477049dc>@@$$QAV<lambda_6bf2bd332ece75c8abb0597733762b82>@@@Z
57E13 65 __catch$??0?$scope_guard@V<lambda_e2c081099a5fcc4640b7541d477049dc>@@V<lambda_6bf2bd332ece75c8abb0597733762b82>@@@detail@Sysutils@@QAE@$$QAV<lambda_e2c081099a5fcc4640b7541d477049dc>@@$$QAV<lambda_6bf2bd332ece75c8abb0597733762b82>@@@Z$0
57E30 65 ??0?$scope_guard@V<lambda_02fb84d1dcdfcfa0b3b7f58da1fa4607>@@V<lambda_581da8cff99aa1f1848e76f74d5bfd82>@@@detail@Sysutils@@QAE@$$QAV<lambda_02fb84d1dcdfcfa0b3b7f58da1fa4607>@@$$QAV<lambda_581da8cff99aa1f1848e76f74d5bfd82>@@@Z
57FBD 65 __catch$??0?$scope_guard@V<lambda_02fb84d1dcdfcfa0b3b7f58da1fa4607>@@V<lambda_581da8cff99aa1f1848e76f74d5bfd82>@@@detail@Sysutils@@QAE@$$QAV<lambda_02fb84d1dcdfcfa0b3b7f58da1fa4607>@@$$QAV<lambda_581da8cff99aa1f1848e76f74d5bfd82>@@@Z$0
57FE0 65 ??0?$scope_guard@V<lambda_d2652b5aceee64d5955d62b1795835a2>@@V<lambda_e43cd5e81ea0629e9222b38a7d95519d>@@@detail@Sysutils@@QAE@$$QAV<lambda_d2652b5aceee64d5955d62b1795835a2>@@$$QAV<lambda_e43cd5e81ea0629e9222b38a7d95519d>@@@Z
58051 65 __catch$??0?$scope_guard@V<lambda_d2652b5aceee64d5955d62b1795835a2>@@V<lambda_e43cd5e81ea0629e9222b38a7d95519d>@@@detail@Sysutils@@QAE@$$QAV<lambda_d2652b5aceee64d5955d62b1795835a2>@@$$QAV<lambda_e43cd5e81ea0629e9222b38a7d95519d>@@@Z$0
58070 65 ??0?$scope_guard@V<lambda_6727bceec5d374205ae22676a13c79b9>@@V<lambda_f3e1c1b19f17d91b910335753891dfc4>@@@detail@Sysutils@@QAE@$$QAV<lambda_6727bceec5d374205ae22676a13c79b9>@@$$QAV<lambda_f3e1c1b19f17d91b910335753891dfc4>@@@Z
580F5 65 __catch$??0?$scope_guard@V<lambda_6727bceec5d374205ae22676a13c79b9>@@V<lambda_f3e1c1b19f17d91b910335753891dfc4>@@@detail@Sysutils@@QAE@$$QAV<lambda_6727bceec5d374205ae22676a13c79b9>@@$$QAV<lambda_f3e1c1b19f17d91b910335753891dfc4>@@@Z$0
58110 65 ??0?$scope_guard@V<lambda_76318655140b9aa979c01fff83bd7ab9>@@V<lambda_26b9b270ce3d3be4c19935c0607a43a6>@@@detail@Sysutils@@QAE@$$QAV<lambda_76318655140b9aa979c01fff83bd7ab9>@@$$QAV<lambda_26b9b270ce3d3be4c19935c0607a43a6>@@@Z
58180 65 __catch$??0?$scope_guard@V<lambda_76318655140b9aa979c01fff83bd7ab9>@@V<lambda_26b9b270ce3d3be4c19935c0607a43a6>@@@detail@Sysutils@@QAE@$$QAV<lambda_76318655140b9aa979c01fff83bd7ab9>@@$$QAV<lambda_26b9b270ce3d3be4c19935c0607a43a6>@@@Z$0
581A0 65 ??0?$scope_guard@V<lambda_ba2fd12d648da838a814dffa2d4b7552>@@V<lambda_34dac934d9cf936299c6ae1959f07027>@@@detail@Sysutils@@QAE@$$QAV<lambda_ba2fd12d648da838a814dffa2d4b7552>@@$$QAV<lambda_34dac934d9cf936299c6ae1959f07027>@@@Z
58219 65 __catch$??0?$scope_guard@V<lambda_ba2fd12d648da838a814dffa2d4b7552>@@V<lambda_34dac934d9cf936299c6ae1959f07027>@@@detail@Sysutils@@QAE@$$QAV<lambda_ba2fd12d648da838a814dffa2d4b7552>@@$$QAV<lambda_34dac934d9cf936299c6ae1959f07027>@@@Z$0
58240 65 ??0?$scope_guard@V<lambda_6bfb13fca0bca2841d05880c503beec8>@@V<lambda_e39dc48a0aec1462944f0b0d28dc1e47>@@@detail@Sysutils@@QAE@$$QAV<lambda_6bfb13fca0bca2841d05880c503beec8>@@$$QAV<lambda_e39dc48a0aec1462944f0b0d28dc1e47>@@@Z
5831C 65 __catch$??0?$scope_guard@V<lambda_6bfb13fca0bca2841d05880c503beec8>@@V<lambda_e39dc48a0aec1462944f0b0d28dc1e47>@@@detail@Sysutils@@QAE@$$QAV<lambda_6bfb13fca0bca2841d05880c503beec8>@@$$QAV<lambda_e39dc48a0aec1462944f0b0d28dc1e47>@@@Z$0
58340 65 ??$_Emplace_reallocate@VTDateTime@@@?$vector@VTDateTime@@U?$custom_nballocator_t@VTDateTime@@@nb@@@std@@AAEPAVTDateTime@@QAV2@$$QAV2@@Z
58430 65 ??$_Lower_bound_duplicate@VUnicodeString@@@?$_Tree@V?$_Tmap_traits@VUnicodeString@@UTDirectoryData@TParallelOperation@@U?$less@VUnicodeString@@@std@@U?$custom_nballocator_t@U?$pair@$$CBVUnicodeString@@UTDirectoryData@TParallelOperation@@@std@@@nb@@$0A@@std@@@std@@IBE_NQAU?$_Tree_node@U?$pair@$$CBVUnicodeString@@UTDirectoryData@TParallelOperation@@@std@@PAX@1@ABVUnicodeString@@@Z
58470 65 ??$_Emplace_reallocate@ABUTFileData@TCollectedFileList@@@?$vector@UTFileData@TCollectedFileList@@U?$custom_nballocator_t@UTFileData@TCollectedFileList@@@nb@@@std@@AAEPAUTFileData@TCollectedFileList@@QAU23@ABU23@@Z
585A0 65 ??$_Emplace_reallocate@AB_J@?$vector@_JU?$custom_nballocator_t@_J@nb@@@std@@AAEPA_JQA_JAB_J@Z
586D0 65 ??$_Resize_reallocate@I@?$vector@IU?$custom_nballocator_t@I@nb@@@std@@AAEXIABI@Z
587A0 65 ??$_Uninitialized_fill_n@U?$custom_nballocator_t@I@nb@@@std@@YAPAIPAIIABIAAU?$custom_nballocator_t@I@nb@@@Z
587C0 65 ??$_Uninitialized_move@PAVTDateTime@@U?$custom_nballocator_t@VTDateTime@@@nb@@@std@@YAPAVTDateTime@@QAV1@0PAV1@AAU?$custom_nballocator_t@VTDateTime@@@nb@@@Z
587F0 65 ??$_Uninitialized_move@PAUTFileData@TCollectedFileList@@U?$custom_nballocator_t@UTFileData@TCollectedFileList@@@nb@@@std@@YAPAUTFileData@TCollectedFileList@@QAU12@0PAU12@AAU?$custom_nballocator_t@UTFileData@TCollectedFileList@@@nb@@@Z
58860 59 ??$format_custom_arg@V?$ROProperty@VUnicodeString@@@@@?$MakeValue@V?$BasicFormatter@_WV?$ArgFormatter@_W@fmt@@@fmt@@@internal@fmt@@CAXPAXPBX0@Z
58880 59 ??$format_arg@_WV?$ArgFormatter@_W@fmt@@V?$ROProperty@VUnicodeString@@@@@fmt@@YAXAAV?$BasicFormatter@_WV?$ArgFormatter@_W@fmt@@@0@AAPB_WABV?$ROProperty@VUnicodeString@@@@@Z
58A49 65 ??_9TTerminal@@$BDI@AE
58A50 28 ?GetStartTime@TFileOperationProgressType@@QBE?AVTDateTime@@XZ
58A70 0 ??_ETFileOperationProgressType@@UAEPAXI@Z
58AB0 0 ??_ETFileOperationStatistics@@UAEPAXI@Z
58AE0 28 ??0TPersistence@TFileOperationProgressType@@QAE@XZ
58C30 0 ??_ETPersistence@TFileOperationProgressType@@UAEPAXI@Z
58CB0 28 ?Clear@TPersistence@TFileOperationProgressType@@AAEX_N0@Z
58D30 28 ??0TFileOperationProgressType@@QAE@XZ
591C0 28 ??0TFileOperationProgressType@@QAE@$$QAV?$FastDelegate1@XAAVTFileOperationProgressType@@@fastdelegate@@$$QAV?$FastDelegate6@XW4TFileOperation@@W4TOperationSide@@_NABVUnicodeString@@_NAAW4TOnceDoneOperation@@@2@PAV0@@Z
59650 28 ??1TFileOperationProgressType@@UAE@XZ
59720 28 ?Assign@TFileOperationProgressType@@QAEXABV1@@Z
59960 28 ?DoClear@TFileOperationProgressType@@IAEX_N0@Z
59C10 28 ?ClearTransfer@TFileOperationProgressType@@IAEXXZ
59D00 28 ?Start@TFileOperationProgressType@@QAEXW4TFileOperation@@W4TOperationSide@@H_NABVUnicodeString@@_KW4TOnceDoneOperation@@@Z
59E0A 28 __catch$?Start@TFileOperationProgressType@@QAEXW4TFileOperation@@W4TOperationSide@@H_NABVUnicodeString@@_KW4TOnceDoneOperation@@@Z$0
59E30 28 ?Suspend@TFileOperationProgressType@@QAEXXZ
59E80 28 ?Resume@TFileOperationProgressType@@QAEXXZ
59F10 28 ?TransferProgress@TFileOperationProgressType@@QBEHXZ
59F50 28 ?TotalTransferProgress@TFileOperationProgressType@@QBEHXZ
59FF0 28 ?OverallProgress@TFileOperationProgressType@@QBEHXZ
5A030 28 ?Finish@TFileOperationProgressType@@QAEXABVUnicodeString@@_NAAW4TOnceDoneOperation@@@Z
5A0B0 28 ?Succeeded@TFileOperationProgressType@@QAEXH@Z
5A170 28 ?SetFile@TFileOperationProgressType@@QAEXABVUnicodeString@@_N@Z
5A2B0 28 ?ThrottleToCPSLimit@TFileOperationProgressType@@QAEX_J@Z
5A410 28 ?AdjustToCPSLimit@TFileOperationProgressType@@QAE_J_J@Z
5A510 28 ?LocalBlockSize@TFileOperationProgressType@@QAE_JXZ
5A550 28 ?SetTotalSize@TFileOperationProgressType@@QAEX_J@Z
5A5D0 28 ?SetTransferringFile@TFileOperationProgressType@@QAEX_N@Z
5A5E0 28 ?SetCancel@TFileOperationProgressType@@QAEXW4TCancelStatus@@@Z
5A660 28 ?SetCancelAtLeast@TFileOperationProgressType@@QAEXW4TCancelStatus@@@Z
5A6E0 28 ?GetCancel@TFileOperationProgressType@@QBE?AW4TCancelStatus@@XZ
5A760 28 ?ClearCancelFile@TFileOperationProgressType@@QAE_NXZ
5A810 28 ?GetCPSLimit@TFileOperationProgressType@@QBE_KXZ
5A870 28 ?SetCPSLimit@TFileOperationProgressType@@QAEX_K@Z
5A8C0 28 ?GetBatchOverwrite@TFileOperationProgressType@@QBE?AW4TBatchOverwrite@@XZ
5A900 28 ?SetBatchOverwrite@TFileOperationProgressType@@QAEXW4TBatchOverwrite@@@Z
5A950 28 ?GetSkipToAll@TFileOperationProgressType@@QBE_NXZ
5A990 28 ?SetSkipToAll@TFileOperationProgressType@@QAEXXZ
5A9D0 28 ?ChangeTransferSize@TFileOperationProgressType@@QAEX_J@Z
5AA20 28 ?RollbackTransferFromTotals@TFileOperationProgressType@@IAEX_J0@Z
5AAE0 28 ?RollbackTransfer@TFileOperationProgressType@@QAEXXZ
5AB50 28 ?AddTransferredToTotals@TFileOperationProgressType@@IAEX_J@Z
5AD10 28 ?AddTotalSize@TFileOperationProgressType@@IAEX_J@Z
5ADA0 28 ?AddTransferred@TFileOperationProgressType@@QAEX_J_N@Z
5AE20 28 ?AddSkipped@TFileOperationProgressType@@IAEX_J@Z
5AEA0 28 ?AddResumed@TFileOperationProgressType@@QAEX_J@Z
5AFB0 28 ?AddSkippedFileSize@TFileOperationProgressType@@QAEX_J@Z
5B040 28 ?TransferBlockSize@TFileOperationProgressType@@QAE_KXZ
5B080 28 ?TimeElapsed@TFileOperationProgressType@@QBE?AVTDateTime@@XZ
5B0E0 28 ?CPS@TFileOperationProgressType@@QBE_KXZ
5B120 28 ?GetCPS@TFileOperationProgressType@@IBE_KXZ
5B1D0 28 ?TimeExpected@TFileOperationProgressType@@QBE?AVTDateTime@@XZ
5B280 28 ?TotalTimeLeft@TFileOperationProgressType@@QBE?AVTDateTime@@XZ
5B360 28 ?GetTotalTransferred@TFileOperationProgressType@@QBE_JXZ
5B3A0 28 ?GetOperationTransferred@TFileOperationProgressType@@QBE_JXZ
5B3F0 28 ?GetTotalSize@TFileOperationProgressType@@QBE_JXZ
5B430 28 ?LockUserSelections@TFileOperationProgressType@@QAEXXZ
5B460 28 ?UnlockUserSelections@TFileOperationProgressType@@QAEXXZ
5B490 28 ?GetLogStr@TFileOperationProgressType@@QBE?AVUnicodeString@@_N@Z
5B6F0 28 ??4TPersistence@TFileOperationProgressType@@QAEAAV01@ABV01@@Z
5B7C0 28 ??$Sprintf@VUnicodeString@@V1@V1@V1@@nb@@YA?AVUnicodeString@@ABV1@0000@Z
5B860 28 ??$_Assign_counted_range@PA_J@?$vector@_JU?$custom_nballocator_t@_J@nb@@@std@@AAEXPA_JI@Z
5B9A0 53 ?is@TSignalThread@@UBE_NG@Z
5B9D0 53 ?is@TQueueItem@@UBE_NG@Z
5B9F0 53 ?is@TQueueItemProxy@@UBE_NG@Z
5BA10 53 ?is@TLocatedQueueItem@@UBE_NG@Z
5BA40 53 ?is@TTransferQueueItem@@UBE_NG@Z
5BA70 53 ?is@TUploadQueueItem@@UBE_NG@Z
5BAA0 53 ?is@TDownloadQueueItem@@UBE_NG@Z
5BAD0 53 ?is@TParallelTransferQueueItem@@UBE_NG@Z
5BB00 53 ?Force@TUserAction@@UBE_NXZ
5BB10 53 ??0TQueryUserAction@@QAE@$$QAV?$FastDelegate8@XPAVTObject@@ABVUnicodeString@@PAVTStrings@@IPBUTQueryParams@@AAIW4TQueryType@@PAX@fastdelegate@@@Z
5BB70 53 ?Execute@TQueryUserAction@@UAEXPAX@Z
5BBB0 0 ??_ETQueryUserAction@@UAEPAXI@Z
5BC20 53 ??1TQueryUserAction@@UAE@XZ
5BC60 53 ??0TPromptUserAction@@QAE@$$QAV?$FastDelegate8@XPAVTTerminal@@W4TPromptKind@@ABVUnicodeString@@ABV3@PAVTStrings@@PAV4@AA_NPAX@fastdelegate@@@Z
5BCC0 53 ?Execute@TPromptUserAction@@UAEXPAX@Z
5BD00 0 ??_ETPromptUserAction@@UAEPAXI@Z
5BD40 53 ??1TPromptUserAction@@UAE@XZ
5BDC0 53 ?Execute@TShowExtendedExceptionAction@@UAEXPAX@Z
5BDE0 0 ??_ETShowExtendedExceptionAction@@UAEPAXI@Z
5BE10 53 ?is@TTerminalItem@@UBE_NG@Z
5BE40 53 ?ThreadProc@TSimpleThread@@SAHPAX@Z
5BE82 53 __catch$?ThreadProc@TSimpleThread@@SAHPAX@Z$0
5BED0 0 ??_ETSimpleThread@@UAEPAXI@Z
5BF70 53 ?InitSimpleThread@TSimpleThread@@QAEXABVUnicodeString@@@Z
5BFC0 53 ??1TSimpleThread@@UAE@XZ
5C040 53 ?Start@TSimpleThread@@UAEXXZ
5C060 53 ?Finished@TSimpleThread@@MAE_NXZ
5C070 53 ?Close@TSimpleThread@@UAEXXZ
5C090 0 ??_ETSignalThread@@MAEPAXI@Z
5C0D0 53 ?InitSignalThread@TSignalThread@@IAEX_NPAX@Z
5C1C0 53 ??1TSignalThread@@MAE@XZ
5C290 53 ?Start@TSignalThread@@UAEXXZ
5C2B0 53 ?TriggerEvent@TSignalThread@@QBEXXZ
5C2D0 53 ?WaitForEvent@TSignalThread@@MAE_NXZ
5C320 53 ?Execute@TSignalThread@@MAEXXZ
5C350 53 ?Terminate@TSignalThread@@UAEXXZ
5C370 0 ??_ETTerminalQueue@@UAEPAXI@Z
5C3B0 53 ?InitTerminalQueue@TTerminalQueue@@QAEXXZ
5C4C0 53 ??1TTerminalQueue@@UAE@XZ
5C630 53 ?FreeItemsList@TTerminalQueue@@IBEXPAVTList@@@Z
5C690 53 ?TerminalFree@TTerminalQueue@@IAE_NPAVTTerminalItem@@@Z
5C750 53 ?AddItem@TTerminalQueue@@QAEXPAVTQueueItem@@@Z
5C830 53 ?DeleteItem@TTerminalQueue@@IAEXPAVTQueueItem@@_N@Z
5C9C0 53 ?UpdateStatusForList@TTerminalQueue@@IAEXPAVTTerminalQueueStatus@@PAVTList@@0@Z
5CB10 53 ?CreateStatus@TTerminalQueue@@QAEPAVTTerminalQueueStatus@@AAPAV2@@Z
5CBF0 53 ??R<lambda_ecf6c313f1adfdeddb48c55a1ea2f72b>@@QBE@XZ
5CC30 53 ??R<lambda_b9f612d678e03b6c573868de52b948bf>@@QBE@XZ
5CC50 53 ?ItemGetData@TTerminalQueue@@IAE_NPAVTQueueItem@@PAVTQueueItemProxy@@PAVTQueueFileList@@@Z
5CE10 53 ?ItemExecuteNow@TTerminalQueue@@IAE_NPAVTQueueItem@@@Z
5CF70 53 ?ItemDelete@TTerminalQueue@@IAE_NPAVTQueueItem@@@Z
5D180 53 ?ItemPause@TTerminalQueue@@IAE_NPAVTQueueItem@@_N@Z
5D2C0 53 ?WaitForEvent@TTerminalQueue@@MAE_NXZ
5D310 53 ?ProcessEvent@TTerminalQueue@@MAEXXZ
5D750 53 ?is@TBackgroundTerminal@@UBE_NG@Z
5D790 0 ??_ETBackgroundTerminal@@UAEPAXI@Z
5D7D0 53 ?DoQueryReopen@TBackgroundTerminal@@MAE_NPAVException@@@Z
5D800 0 ??_ETTerminalItem@@UAEPAXI@Z
5D8B0 53 ??R<lambda_0f08f0fb51a9898aeb7f0127637651fb>@@QBE@XZ
5DAF0 53 ?ProcessEvent@TTerminalItem@@MAEXXZ
5DD3F 53 __catch$?ProcessEvent@TTerminalItem@@MAEXXZ$0
5DF80 53 ?Idle@TTerminalItem@@QAEXXZ
5DFFB 53 __catch$?Idle@TTerminalItem@@QAEXXZ$0
5E070 53 ?WaitForUserAction@TTerminalItem@@IAE_NW4TStatus@TQueueItem@@PAVTUserAction@@@Z
5E140 53 ??R<lambda_b9b4247a08c038e61e11802ccf0d73af>@@QBE@XZ
5E160 53 ?Finished@TTerminalItem@@MAE_NXZ
5E250 53 ?TerminalQueryUser@TTerminalItem@@IAEXPAVTObject@@ABVUnicodeString@@PAVTStrings@@IPBUTQueryParams@@AAIW4TQueryType@@PAX@Z
5E340 53 ?TerminalPromptUser@TTerminalItem@@IAEXPAVTTerminal@@W4TPromptKind@@ABVUnicodeString@@2PAVTStrings@@3AA_NPAX@Z
5E470 53 ?TerminalShowExtendedException@TTerminalItem@@IAEXPAVTTerminal@@PAVException@@PAX@Z
5E560 53 ?OperationFinished@TTerminalItem@@IAEXW4TFileOperation@@W4TOperationSide@@_NABVUnicodeString@@2AAW4TOnceDoneOperation@@@Z
5E570 53 ?OperationProgress@TTerminalItem@@IAEXAAVTFileOperationProgressType@@@Z
5E720 53 ??R<lambda_01c6b97081edbb5839f0d83d55d5ca84>@@QBE@XZ
5E740 53 ??0TQueueItem@@IAE@G@Z
5E7E0 0 ??_ETQueueItem@@MAEPAXI@Z
5E820 53 ??1TQueueItem@@MAE@XZ
5E890 53 ?Complete@TQueueItem@@MAE_NXZ
5E8E0 53 ?IsUserActionStatus@TQueueItem@@SA_NW4TStatus@1@@Z
5E900 53 ?GetStatus@TQueueItem@@QBE?AW4TStatus@1@XZ
5E930 53 ?SetStatus@TQueueItem@@QAEXW4TStatus@1@@Z
5E9D0 22 ?HandlesFunction@TCustomFarPlugin@@MBE_NW4THandlesFunction@@@Z
5E9E0 53 ??0TQueueItemProxy@@AAE@V?$not_null@PAVTTerminalQueue@@@gsl@@V?$not_null@PAVTQueueItem@@@2@@Z
5EAD0 0 ??_ETQueueItemProxy@@EAEPAXI@Z
5EB30 53 ?Move@TQueueItemProxy@@QAE_NPAV1@@Z
5EC80 53 ?ProcessUserAction@TQueueItemProxy@@QAE_NXZ
5ECC0 53 ??R<lambda_9fdc99f9955e44995136e0e97971e0ec>@@QBE@XZ
5ECD0 0 ??_ETTerminalQueueStatus@@UAEPAXI@Z
5EDB0 53 ?NeedStats@TTerminalQueueStatus@@IBEXXZ
5EEA0 53 ?Add@TTerminalQueueStatus@@IAEXV?$not_null@PAVTQueueItemProxy@@@gsl@@@Z
5EF50 53 ?FindByQueueItem@TTerminalQueueStatus@@QAEPAVTQueueItemProxy@@PBVTQueueItem@@@Z
5EFC0 53 ??0TLocatedQueueItem@@IAE@GV?$not_null@PAVTTerminal@@@gsl@@@Z
5F080 53 ??1TLocatedQueueItem@@MAE@XZ
5F0D0 0 ??_ETLocatedQueueItem@@MAEPAXI@Z
5F150 72 ?GetCurrentDirectory@TWebDAVFileSystem@@MBE?AVUnicodeString@@XZ
5F170 53 ?DoExecute@TLocatedQueueItem@@MAEXV?$not_null@PAVTTerminal@@@gsl@@@Z
5F190 53 ??0TTransferQueueItem@@QAE@GPAVTTerminal@@PBVTStrings@@ABVUnicodeString@@PBVTCopyParamType@@HW4TOperationSide@@_N5@Z
5F3B0 0 ??_ETDownloadQueueItem@@UAEPAXI@Z
5F3F0 53 ??1TTransferQueueItem@@UAE@XZ
5F468 53 __catch$??1TTransferQueueItem@@UAE@XZ$0
5F46E 53 __catch$??1TTransferQueueItem@@UAE@XZ$1
5F530 53 ?DefaultCPSLimit@TTransferQueueItem@@MBEHXZ
5F550 53 ?DoExecute@TTransferQueueItem@@MAEXV?$not_null@PAVTTerminal@@@gsl@@@Z
5F750 53 ??R<lambda_6c7488c018a43f3689cf64644903178c>@@QBE@XZ
5F760 53 ?ProgressUpdated@TTransferQueueItem@@MAEXXZ
5F980 53 ?CreateParallelOperation@TTransferQueueItem@@MAEPAVTQueueItem@@XZ
5FA80 53 ?UpdateFileList@TTransferQueueItem@@MAE_NPAVTQueueFileList@@@Z
5FB00 53 ??0TUploadQueueItem@@QAE@PAVTTerminal@@PBVTStrings@@ABVUnicodeString@@PBVTCopyParamType@@H_N4@Z
5FDC0 53 ?DoTransferExecute@TUploadQueueItem@@MAEXV?$not_null@PAVTTerminal@@@gsl@@PAVTParallelOperation@@@Z
5FDE0 0 ??_ETParallelTransferQueueItem@@UAEPAXI@Z
5FE60 53 ?DoExecute@TParallelTransferQueueItem@@MAEXV?$not_null@PAVTTerminal@@@gsl@@@Z
60080 53 ??R<lambda_f6f7bf42a53f0555c695723db75bcbdd>@@QBE@XZ
60130 53 ??R<lambda_d19fd5921e7c581b9aba118545db3b2d>@@QBE@XZ
60180 53 ?ExtractRemoteSourcePath@@YAXPBVTTerminal@@PBVTStrings@@AAVUnicodeString@@@Z
60220 53 ??0TDownloadQueueItem@@QAE@PAVTTerminal@@PBVTStrings@@ABVUnicodeString@@PBVTCopyParamType@@H_N4@Z
60500 53 ?DoTransferExecute@TDownloadQueueItem@@MAEXV?$not_null@PAVTTerminal@@@gsl@@PAVTParallelOperation@@@Z
60520 53 ??1?$unique_ptr@VTTerminalQueueStatus@@U?$default_delete@VTTerminalQueueStatus@@@std@@@std@@QAE@XZ
605E0 53 ??1?$unique_ptr@VTBackgroundTerminal@@U?$default_delete@VTBackgroundTerminal@@@std@@@std@@QAE@XZ
60600 53 ??1?$unique_ptr@VTParallelOperation@@U?$default_delete@VTParallelOperation@@@std@@@std@@QAE@XZ
60610 53 ??1?$unique_ptr@UTInfo@TQueueItem@@U?$default_delete@UTInfo@TQueueItem@@@std@@@std@@QAE@XZ
606E0 53 ??4?$FastDelegate2@XPAVTObject@@_N@fastdelegate@@QAEAAV01@ABV01@@Z
60700 53 ??R?$default_delete@VTParallelOperation@@@std@@QBEXPAVTParallelOperation@@@Z
60830 0 ??_ETInfo@TQueueItem@@UAEPAXI@Z
60920 53 ??$make_unique@VTSessionData@@AAY00$$CB_W$0A@@std@@YA?AV?$unique_ptr@VTSessionData@@U?$default_delete@VTSessionData@@@std@@@0@AAY00$$CB_W@Z
609F0 53 ??$make_unique@VTList@@$$V$0A@@std@@YA?AV?$unique_ptr@VTList@@U?$default_delete@VTList@@@std@@@0@XZ
60A40 53 ??$make_unique@UTInfo@TQueueItem@@$$V$0A@@std@@YA?AV?$unique_ptr@UTInfo@TQueueItem@@U?$default_delete@UTInfo@TQueueItem@@@std@@@0@XZ
60AE0 53 ??0?$scope_guard@V<lambda_f6f7bf42a53f0555c695723db75bcbdd>@@V<lambda_d19fd5921e7c581b9aba118545db3b2d>@@@detail@Sysutils@@QAE@$$QAV<lambda_f6f7bf42a53f0555c695723db75bcbdd>@@$$QAV<lambda_d19fd5921e7c581b9aba118545db3b2d>@@@Z
60B97 53 __catch$??0?$scope_guard@V<lambda_f6f7bf42a53f0555c695723db75bcbdd>@@V<lambda_d19fd5921e7c581b9aba118545db3b2d>@@@detail@Sysutils@@QAE@$$QAV<lambda_f6f7bf42a53f0555c695723db75bcbdd>@@$$QAV<lambda_d19fd5921e7c581b9aba118545db3b2d>@@@Z$0
60BC0 53 ??0?$scope_guard@V<lambda_99679e7bc7fd2f8b1b93269c38c464bb>@@V<lambda_6c7488c018a43f3689cf64644903178c>@@@detail@Sysutils@@QAE@$$QAV<lambda_99679e7bc7fd2f8b1b93269c38c464bb>@@$$QAV<lambda_6c7488c018a43f3689cf64644903178c>@@@Z
60C4E 53 __catch$??0?$scope_guard@V<lambda_99679e7bc7fd2f8b1b93269c38c464bb>@@V<lambda_6c7488c018a43f3689cf64644903178c>@@@detail@Sysutils@@QAE@$$QAV<lambda_99679e7bc7fd2f8b1b93269c38c464bb>@@$$QAV<lambda_6c7488c018a43f3689cf64644903178c>@@@Z$0
60C70 53 ??0?$scope_guard@V<lambda_6ed0ae01252fe4e6b6dfe0ba4e051fce>@@V<lambda_9fdc99f9955e44995136e0e97971e0ec>@@@detail@Sysutils@@QAE@$$QAV<lambda_6ed0ae01252fe4e6b6dfe0ba4e051fce>@@$$QAV<lambda_9fdc99f9955e44995136e0e97971e0ec>@@@Z
60D98 53 __catch$??0?$scope_guard@V<lambda_6ed0ae01252fe4e6b6dfe0ba4e051fce>@@V<lambda_9fdc99f9955e44995136e0e97971e0ec>@@@detail@Sysutils@@QAE@$$QAV<lambda_6ed0ae01252fe4e6b6dfe0ba4e051fce>@@$$QAV<lambda_9fdc99f9955e44995136e0e97971e0ec>@@@Z$0
60DC0 53 ??0?$scope_guard@V<lambda_ac8957a0fa8b02b79ac53643ec3d1866>@@V<lambda_01c6b97081edbb5839f0d83d55d5ca84>@@@detail@Sysutils@@QAE@$$QAV<lambda_ac8957a0fa8b02b79ac53643ec3d1866>@@$$QAV<lambda_01c6b97081edbb5839f0d83d55d5ca84>@@@Z
60EA0 53 __catch$??0?$scope_guard@V<lambda_ac8957a0fa8b02b79ac53643ec3d1866>@@V<lambda_01c6b97081edbb5839f0d83d55d5ca84>@@@detail@Sysutils@@QAE@$$QAV<lambda_ac8957a0fa8b02b79ac53643ec3d1866>@@$$QAV<lambda_01c6b97081edbb5839f0d83d55d5ca84>@@@Z$0
60EC0 53 ??0?$scope_guard@V<lambda_eebecf1a70b521b9ef09ad198c3925e1>@@V<lambda_b9b4247a08c038e61e11802ccf0d73af>@@@detail@Sysutils@@QAE@$$QAV<lambda_eebecf1a70b521b9ef09ad198c3925e1>@@$$QAV<lambda_b9b4247a08c038e61e11802ccf0d73af>@@@Z
60FB1 53 __catch$??0?$scope_guard@V<lambda_eebecf1a70b521b9ef09ad198c3925e1>@@V<lambda_b9b4247a08c038e61e11802ccf0d73af>@@@detail@Sysutils@@QAE@$$QAV<lambda_eebecf1a70b521b9ef09ad198c3925e1>@@$$QAV<lambda_b9b4247a08c038e61e11802ccf0d73af>@@@Z$0
60FD0 53 ??0?$scope_guard@V<lambda_0f08f0fb51a9898aeb7f0127637651fb>@@V<lambda_e50ce45f85bb11aa1ede7b52de286df0>@@@detail@Sysutils@@QAE@$$QAV<lambda_0f08f0fb51a9898aeb7f0127637651fb>@@$$QAV<lambda_e50ce45f85bb11aa1ede7b52de286df0>@@@Z
6102E 53 __catch$??0?$scope_guard@V<lambda_0f08f0fb51a9898aeb7f0127637651fb>@@V<lambda_e50ce45f85bb11aa1ede7b52de286df0>@@@detail@Sysutils@@QAE@$$QAV<lambda_0f08f0fb51a9898aeb7f0127637651fb>@@$$QAV<lambda_e50ce45f85bb11aa1ede7b52de286df0>@@@Z$0
61040 53 ??0?$scope_guard@V<lambda_ecf6c313f1adfdeddb48c55a1ea2f72b>@@V<lambda_cd0bd9df4f7439180e7cd75d2c24fd51>@@@detail@Sysutils@@QAE@$$QAV<lambda_ecf6c313f1adfdeddb48c55a1ea2f72b>@@$$QAV<lambda_cd0bd9df4f7439180e7cd75d2c24fd51>@@@Z
6109E 53 __catch$??0?$scope_guard@V<lambda_ecf6c313f1adfdeddb48c55a1ea2f72b>@@V<lambda_cd0bd9df4f7439180e7cd75d2c24fd51>@@@detail@Sysutils@@QAE@$$QAV<lambda_ecf6c313f1adfdeddb48c55a1ea2f72b>@@$$QAV<lambda_cd0bd9df4f7439180e7cd75d2c24fd51>@@@Z$0
610B0 53 ??0?$scope_guard@V<lambda_e64b26d80d569d49ef6565ba31949a8e>@@V<lambda_b9f612d678e03b6c573868de52b948bf>@@@detail@Sysutils@@QAE@$$QAV<lambda_e64b26d80d569d49ef6565ba31949a8e>@@$$QAV<lambda_b9f612d678e03b6c573868de52b948bf>@@@Z
6119B 53 __catch$??0?$scope_guard@V<lambda_e64b26d80d569d49ef6565ba31949a8e>@@V<lambda_b9f612d678e03b6c573868de52b948bf>@@@detail@Sysutils@@QAE@$$QAV<lambda_e64b26d80d569d49ef6565ba31949a8e>@@$$QAV<lambda_b9f612d678e03b6c573868de52b948bf>@@@Z$0
611B0 57 ?GetGssLibCustom@TSessionData@@QBE?AVUnicodeString@@XZ
611D0 57 ?GetTryAgent@TSessionData@@QBE_NXZ
611E0 57 ?GetAgentFwd@TSessionData@@QBE_NXZ
611F0 57 ?GetCompression@TSessionData@@QBE_NXZ
61200 57 ?GetShell@TSessionData@@QBE?AVUnicodeString@@XZ
61220 57 ?GetSftpServer@TSessionData@@QBE?AVUnicodeString@@XZ
61240 57 ?GetTcpNoDelay@TSessionData@@QBE_NXZ
61250 57 ?GetSshSimple@TSessionData@@QBE_NXZ
61260 57 ?GetProxyTelnetCommand@TSessionData@@QBE?AVUnicodeString@@XZ
61280 57 ?GetProxyLocalCommand@TSessionData@@QBE?AVUnicodeString@@XZ
612A0 57 ?GetAddressFamily@TSessionData@@QBE?AW4TAddressFamily@@XZ
612B0 57 ?GetRekeyData@TSessionData@@QBE?AVUnicodeString@@XZ
612D0 57 ?GetRekeyTime@TSessionData@@QBEIXZ
612E0 57 ?GetLogicalHostName@TSessionData@@QBE?AVUnicodeString@@XZ
61300 57 ?is@TSecureShell@@UBE_NG@Z
61320 57 ??0TSecureShell@@QAE@PAVTSessionUI@@PAVTSessionData@@PAVTSessionLog@@PAVTConfiguration@@@Z
61B00 0 ??_ETSecureShell@@UAEPAXI@Z
61B40 57 ??1TSessionInfo@@QAE@XZ
61C50 57 ??1TSecureShell@@UAE@XZ
61CCC 57 __catch$??1TSecureShell@@UAE@XZ$0
61DB0 57 ?ResetConnection@TSecureShell@@QAEXXZ
61EF0 57 ?UpdateSessionInfo@TSecureShell@@QBEXXZ
62170 57 ?GetHostKeyFingerprint@TSecureShell@@QBEXAAVUnicodeString@@0@Z
621A0 57 ?StoreToConfig@TSecureShell@@KAPAUconf_tag@@PAVTSessionData@@_N@Z
62E68 57 $LN1990
62E88 57 $LN1991
62EC0 57 ?eventlog@@YAXPAULogPolicy@@PBD@Z
62EE0 57 ?Open@TSecureShell@@QAEXXZ
63186 57 __catch$?Open@TSecureShell@@QAEXXZ$0
63410 57 ??R<lambda_b9051f9d0f92ac49bcb267386d0dd6e9>@@QBE@XZ
635A0 52 ??R<lambda_8a10e094e8d0d00caa3bd1e7d60ac5d3>@@QBE@XZ
635B0 57 ?TryFtp@TSecureShell@@QAE_NXZ
63830 57 ?Init@TSecureShell@@QAEXXZ
63919 57 __catch$?Init@TSecureShell@@QAEXXZ$0
639A3 57 __catch$?Init@TSecureShell@@QAEXXZ$2
63A20 57 ?ConvertFromPutty@TSecureShell@@QBE?AVUnicodeString@@PBDH@Z
63B00 57 ?PuttyLogEvent@TSecureShell@@QAEXPBD@Z
63FD0 57 ?IdentifyPromptKind@TSecureShell@@QBE?AW4TPromptKind@@AAVUnicodeString@@@Z
64210 57 ?PromptUser@TSecureShell@@QAE_N_NABVUnicodeString@@010PAVTStrings@@2@Z
653F0 57 ?CWrite@TSecureShell@@QAEXPBDI@Z
65830 57 ?FromBackend@TSecureShell@@QAEXPBEI@Z
65B10 57 ??R<lambda_decf6dad205a97dbd28e19daebb7f210>@@QBE@XZ
65B20 57 ?Receive@TSecureShell@@QAEHPAEI@Z
65C70 57 ??R<lambda_c6bbe1e010dff29e803157b6978bc099>@@QBE@XZ
65E30 57 ??R<lambda_759af36297791f16909f979e6c5633b2>@@QBE@XZ
65E40 57 ?ReceiveLine@TSecureShell@@QAE?AVUnicodeString@@XZ
65FE0 57 ?ConvertInput@TSecureShell@@QBE?AVUnicodeString@@ABVRawByteString@@I@Z
66150 57 ?SendSpecial@TSecureShell@@QAEXH@Z
662B0 57 ?TimeoutPrompt@TSecureShell@@QAEI$$QAV?$FastDelegate1@XAAI@fastdelegate@@@Z
66300 57 ??R<lambda_5cc4795cd05248c7b5623766246d094e>@@QBE@XZ
66530 57 ??R<lambda_e6ecb3aa94dd29d9cb8295d42a3d3a29>@@QBE@XZ
66540 57 ?SendBuffer@TSecureShell@@QAEXAAI@Z
66580 57 ?TimeoutAbort@TSecureShell@@QAEXI_N@Z
66780 57 ?DispatchSendBuffer@TSecureShell@@QAEXH@Z
66A3C 57 $LN1445
66A4C 57 $LN1444
66B50 57 ?Send@TSecureShell@@QAEXPBEI@Z
66D50 57 ?SendNull@TSecureShell@@QAEXXZ
66E10 57 ?SendLine@TSecureShell@@QAEXABVUnicodeString@@@Z
67040 57 ?TranslatePuttyMessage@TSecureShell@@IBEHPBUTPuttyTranslation@@HAAVUnicodeString@@PAV3@@Z
67300 57 ?AddStdError@TSecureShell@@QAEXPBEI@Z
675D0 57 ?ClearStdError@TSecureShell@@QAEXXZ
67680 57 ?TranslateErrorMessage@TSecureShell@@IAEHAAVUnicodeString@@PAV2@@Z
67900 57 ?PuttyFatalError@TSecureShell@@QAEXABVUnicodeString@@@Z
67AC0 57 ?LogEvent@TSecureShell@@IAEXABVUnicodeString@@@Z
67AE0 57 ?SocketEventSelect@TSecureShell@@QAEXIPAX_N@Z
67CF0 57 ?UpdatePortFwdSocket@TSecureShell@@QAEXI_N@Z
67E30 57 ?FreeBackend@TSecureShell@@QAEXXZ
67FE0 57 ?Close@TSecureShell@@QAEXXZ
68150 57 ?CheckConnection@TSecureShell@@QAEXH@Z
68410 57 ?PoolForData@TSecureShell@@QAEXAAU_WSANETWORKEVENTS@@AAI@Z
68509 57 __catch$?PoolForData@TSecureShell@@QAEXAAU_WSANETWORKEVENTS@@AAI@Z$0
68520 57 ?PoolForData@TPoolForDataEvent@@QAEXAAI@Z
68540 57 ?WaitForData@TSecureShell@@QAEXXZ
68778 57 $LN975
68788 57 $LN974
68890 57 ?EnumNetworkEvents@TSecureShell@@QAE_NIAAU_WSANETWORKEVENTS@@@Z
68B70 57 ?HandleNetworkEvents@TSecureShell@@QAEXIABU_WSANETWORKEVENTS@@@Z
68CF0 57 ?ProcessNetworkEvents@TSecureShell@@QAE_NI@Z
68D50 57 ?EventSelectLoop@TSecureShell@@QAE_NI_NPAU_WSANETWORKEVENTS@@@Z
68F70 57 ??R<lambda_cceaced01bb36f00921c55a85756ea64>@@QBE@XZ
69330 57 ??R<lambda_8425942f9ec41c1554103b9ec447f321>@@QBE@XZ
69350 57 ?Idle@TSecureShell@@QAEXI@Z
693A0 57 ?KeepAlive@TSecureShell@@QAEXXZ
69460 57 ?FormatKeyStr@TSecureShell@@IBE?AVUnicodeString@@ABV2@@Z
69540 57 ?HaveAcceptNewHostKeyPolicy@TSecureShell@@QBE_NXZ
69670 57 ?GetHostKeyStorage@TSecureShell@@QAEPAVTHierarchicalStorage@@XZ
696D0 57 ?RetrieveHostKey@TSecureShell@@QAE?AVUnicodeString@@ABV2@H0@Z
698F0 57 ?DoVerifyFingerprint@@YA_NABVUnicodeString@@0_N@Z
69AD0 57 ?Paste@TPasteKeyHandler@@QAEXPAVTObject@@AAI@Z
69C23 57 __catch$?Paste@TPasteKeyHandler@@QAEXPAVTObject@@AAI@Z$0
69C90 57 ?VerifyCachedHostKey@TSecureShell@@QAE_NABVUnicodeString@@000@Z
6A070 57 ?StoreHostKey@TSecureShell@@QAE?AVUnicodeString@@ABV2@H00@Z
6A230 57 ?ParseFingerprint@TSecureShell@@IAEXABVUnicodeString@@AAV2@1@Z
6A3A0 57 ?VerifyHostKey@TSecureShell@@QAEXABVUnicodeString@@H0000_NH1@Z
6AB99 57 __catch$?VerifyHostKey@TSecureShell@@QAEXABVUnicodeString@@H0000_NH1@Z$0
6BD60 57 ??1TPasteKeyHandler@@QAE@XZ
6BE20 57 ?HaveHostKey@TSecureShell@@QAE_NABVUnicodeString@@H0@Z
6C0D0 57 ?AskAlg@TSecureShell@@QAEXABVUnicodeString@@0H@Z
6C520 57 ?GetStoredCredentialsTried@TSecureShell@@QBE_NXZ
6C550 57 ?CollectUsage@TSecureShell@@QAEXXZ
6CD5C 57 $LN1687
6CD80 57 ?CanChangePassword@TSecureShell@@QBE_NXZ
6CDA0 57 ??1?$vector@UTQueryButtonAlias@@U?$custom_nballocator_t@UTQueryButtonAlias@@@nb@@@std@@QAE@XZ
6CDB0 57 ??1?$unique_ptr@UScpLogPolicy@@U?$default_delete@UScpLogPolicy@@@std@@@std@@QAE@XZ
6CDC0 57 ??1?$unique_ptr@Ucallback_set@@U?$default_delete@Ucallback_set@@@std@@@std@@QAE@XZ
6CDE0 57 ?_Tidy@?$vector@UTQueryButtonAlias@@U?$custom_nballocator_t@UTQueryButtonAlias@@@nb@@@std@@AAEXXZ
6CE20 57 ??$Sprintf@I@nb@@YA?AVUnicodeString@@ABV1@ABI@Z
6CE80 57 ??$Sprintf@PB_WHH@nb@@YA?AVUnicodeString@@ABV1@ABQB_WABH2@Z
6CF30 57 ??$Sprintf@VUnicodeString@@V1@V1@V1@V1@@nb@@YA?AVUnicodeString@@ABV1@00000@Z
6CFE0 57 ??$FmtLoadStr@VUnicodeString@@H@nb@@YA?AVUnicodeString@@HABV1@ABH@Z
6D050 57 ??0?$scope_guard@V<lambda_119389ef5ac9ea73ded31b343aa5f5ee>@@V<lambda_fe19fc13987d7ba653ae0d625dc4d9e9>@@@detail@Sysutils@@QAE@$$QAV<lambda_119389ef5ac9ea73ded31b343aa5f5ee>@@$$QAV<lambda_fe19fc13987d7ba653ae0d625dc4d9e9>@@@Z
6D160 57 __catch$??0?$scope_guard@V<lambda_119389ef5ac9ea73ded31b343aa5f5ee>@@V<lambda_fe19fc13987d7ba653ae0d625dc4d9e9>@@@detail@Sysutils@@QAE@$$QAV<lambda_119389ef5ac9ea73ded31b343aa5f5ee>@@$$QAV<lambda_fe19fc13987d7ba653ae0d625dc4d9e9>@@@Z$0
6D170 57 ??0?$scope_guard@V<lambda_cceaced01bb36f00921c55a85756ea64>@@V<lambda_8425942f9ec41c1554103b9ec447f321>@@@detail@Sysutils@@QAE@$$QAV<lambda_cceaced01bb36f00921c55a85756ea64>@@$$QAV<lambda_8425942f9ec41c1554103b9ec447f321>@@@Z
6D208 57 __catch$??0?$scope_guard@V<lambda_cceaced01bb36f00921c55a85756ea64>@@V<lambda_8425942f9ec41c1554103b9ec447f321>@@@detail@Sysutils@@QAE@$$QAV<lambda_cceaced01bb36f00921c55a85756ea64>@@$$QAV<lambda_8425942f9ec41c1554103b9ec447f321>@@@Z$0
6D230 57 ??0?$scope_guard@V<lambda_5cc4795cd05248c7b5623766246d094e>@@V<lambda_e6ecb3aa94dd29d9cb8295d42a3d3a29>@@@detail@Sysutils@@QAE@$$QAV<lambda_5cc4795cd05248c7b5623766246d094e>@@$$QAV<lambda_e6ecb3aa94dd29d9cb8295d42a3d3a29>@@@Z
6D2A4 57 __catch$??0?$scope_guard@V<lambda_5cc4795cd05248c7b5623766246d094e>@@V<lambda_e6ecb3aa94dd29d9cb8295d42a3d3a29>@@@detail@Sysutils@@QAE@$$QAV<lambda_5cc4795cd05248c7b5623766246d094e>@@$$QAV<lambda_e6ecb3aa94dd29d9cb8295d42a3d3a29>@@@Z$0
6D2C0 57 ??0?$scope_guard@V<lambda_c6bbe1e010dff29e803157b6978bc099>@@V<lambda_759af36297791f16909f979e6c5633b2>@@@detail@Sysutils@@QAE@$$QAV<lambda_c6bbe1e010dff29e803157b6978bc099>@@$$QAV<lambda_759af36297791f16909f979e6c5633b2>@@@Z
6D32E 57 __catch$??0?$scope_guard@V<lambda_c6bbe1e010dff29e803157b6978bc099>@@V<lambda_759af36297791f16909f979e6c5633b2>@@@detail@Sysutils@@QAE@$$QAV<lambda_c6bbe1e010dff29e803157b6978bc099>@@$$QAV<lambda_759af36297791f16909f979e6c5633b2>@@@Z$0
6D350 57 ??0?$scope_guard@V<lambda_a74cefa7f3d34e8bf384260ad2a842e1>@@V<lambda_decf6dad205a97dbd28e19daebb7f210>@@@detail@Sysutils@@QAE@$$QAV<lambda_a74cefa7f3d34e8bf384260ad2a842e1>@@$$QAV<lambda_decf6dad205a97dbd28e19daebb7f210>@@@Z
6D3E4 57 __catch$??0?$scope_guard@V<lambda_a74cefa7f3d34e8bf384260ad2a842e1>@@V<lambda_decf6dad205a97dbd28e19daebb7f210>@@@detail@Sysutils@@QAE@$$QAV<lambda_a74cefa7f3d34e8bf384260ad2a842e1>@@$$QAV<lambda_decf6dad205a97dbd28e19daebb7f210>@@@Z$0
6D400 57 ??0?$scope_guard@V<lambda_b9051f9d0f92ac49bcb267386d0dd6e9>@@V<lambda_323985b3859df403f0537c5475c74e0f>@@@detail@Sysutils@@QAE@$$QAV<lambda_b9051f9d0f92ac49bcb267386d0dd6e9>@@$$QAV<lambda_323985b3859df403f0537c5475c74e0f>@@@Z
6D474 57 __catch$??0?$scope_guard@V<lambda_b9051f9d0f92ac49bcb267386d0dd6e9>@@V<lambda_323985b3859df403f0537c5475c74e0f>@@@detail@Sysutils@@QAE@$$QAV<lambda_b9051f9d0f92ac49bcb267386d0dd6e9>@@$$QAV<lambda_323985b3859df403f0537c5475c74e0f>@@@Z$0
6D490 57 ??$_Emplace_reallocate@ABUTQueryButtonAlias@@@?$vector@UTQueryButtonAlias@@U?$custom_nballocator_t@UTQueryButtonAlias@@@nb@@@std@@AAEPAUTQueryButtonAlias@@QAU2@ABU2@@Z
6D5D0 57 ?_Change_array@?$vector@UTQueryButtonAlias@@U?$custom_nballocator_t@UTQueryButtonAlias@@@nb@@@std@@AAEXQAUTQueryButtonAlias@@II@Z
6D620 0 ??_ETQueryButtonAlias@@UAEPAXI@Z
6D660 57 ?construct@?$custom_nballocator_t@UTQueryButtonAlias@@@nb@@QAEXPAUTQueryButtonAlias@@ABU3@@Z
6D6F0 60 ?GetTimeDifference@TSessionData@@QBE?AVTDateTime@@XZ
6D710 60 ?GetUpdateDirectories@TSessionData@@QBE_NXZ
6D720 60 ?GetEOLType@TSessionData@@QBE?AW4TEOLType@@XZ
6D730 60 ?GetFtpListAll@TSessionData@@QBE?AW4TAutoSwitch@@XZ
6D740 60 ?GetFtpHost@TSessionData@@QBE?AW4TAutoSwitch@@XZ
6D750 60 ?GetOverwrittenToRecycleBin@TSessionData@@QBE_NXZ
6D760 60 ?GetTunnelHostName@TSessionData@@QBE?AVUnicodeString@@XZ
6D780 60 ?GetTunnelPortNumber@TSessionData@@QBEHXZ
6D790 60 ?GetFtpPasvMode@TSessionData@@QBE_NXZ
6D7A0 60 ?GetFtpForcePasvIp@TSessionData@@QBE?AW4TAutoSwitch@@XZ
6D7B0 60 ?GetFtpUseMlsd@TSessionData@@QBE?AW4TAutoSwitch@@XZ
6D7C0 60 ?GetFtpPingInterval@TSessionData@@QBEHXZ
6D7D0 60 ?GetFtpPingType@TSessionData@@QBE?AW4TFtpPingType@@XZ
6D7E0 60 ?GetFtpTransferActiveImmediately@TSessionData@@QBE?AW4TAutoSwitch@@XZ
6D7F0 60 ?GetNotUtf@TSessionData@@QBE?AW4TAutoSwitch@@XZ
6D800 60 ?GetEnabled@TActionLog@@QBE_NXZ
6D810 60 ?is@TSessionActionRecord@@UBE_NG@Z
6D830 60 ?Destination@TSessionActionRecord@@QAEXABVUnicodeString@@@Z
6D930 60 ?AddOutput@TSessionActionRecord@@QAEXABVUnicodeString@@_N@Z
6DB10 60 ?Checksum@TSessionActionRecord@@QAEXABVUnicodeString@@0@Z
6DCD0 60 ?Close@TSessionActionRecord@@IAEXW4TState@1@@Z
6DD30 60 ?Parameter@TSessionActionRecord@@IAEXABVUnicodeString@@0@Z
6DD70 0 ??_ETSessionActionRecord@@UAEPAXI@Z
6DE00 60 ??0TSessionAction@@QAE@PAVTActionLog@@W4TLogAction@@@Z
6DF60 0 ??_ETCallSessionAction@@UAEPAXI@Z
6DFA0 60 ??1TSessionAction@@UAE@XZ
6DFFF 60 __catch$??1TSessionAction@@UAE@XZ$0
6E010 60 ?Restart@TSessionAction@@QAEXXZ
6E080 60 ?Rollback@TSessionAction@@QAEXPAVException@@@Z
6E0B0 60 ?Cancel@TSessionAction@@QAEXXZ
6E0D0 60 ?SetFileName@TFileSessionAction@@QAEXABVUnicodeString@@@Z
6E1E0 60 ?Size@TTransferSessionAction@@QAEX_J@Z
6E340 60 ??0TChmodSessionAction@@QAE@PAVTActionLog@@ABVUnicodeString@@ABVTRights@@@Z
6E3C0 60 ?Rights@TChmodSessionAction@@QAEXABVTRights@@@Z
6E510 60 ??0TTouchSessionAction@@QAE@PAVTActionLog@@ABVUnicodeString@@ABVTDateTime@@@Z
6E690 60 ??0TSessionInfo@@QAE@XZ
6E770 60 ?OpenLogFile@@YAPAU_iobuf@@ABVUnicodeString@@ABVTDateTime@@PAVTSessionData@@_NAAV2@@Z
6E900 60 ??0ECRTExtException@@QAE@ABV0@@Z
6E980 60 ??0TSessionLog@@QAE@V?$not_null@PAVTSessionUI@@@gsl@@ABVTDateTime@@V?$not_null@PAVTSessionData@@@2@PAVTConfiguration@@@Z
6EA20 0 ??_ETSessionLog@@UAEPAXI@Z
6EA60 60 ??1TSessionLog@@UAE@XZ
6EB06 60 __catch$??1TSessionLog@@UAE@XZ$0
6EBF0 60 ?DoAddToParent@TSessionLog@@AAEXW4TLogLineType@@ABVUnicodeString@@@Z
6EC00 60 ?DoAddToSelf@TSessionLog@@AAEXW4TLogLineType@@ABVUnicodeString@@@Z
6ED76 60 __catch$?DoAddToSelf@TSessionLog@@AAEXW4TLogLineType@@ABVUnicodeString@@@Z$0
6ED80 60 ?LogPartFileName@TSessionLog@@AAE?AVUnicodeString@@ABV2@H@Z
6EEA0 60 ?CheckSize@TSessionLog@@AAEX_J@Z
6F0E0 60 ?DoAdd@TSessionLog@@AAEXW4TLogLineType@@ABVUnicodeString@@$$QAV?$FastDelegate2@XW4TLogLineType@@ABVUnicodeString@@@fastdelegate@@@Z
6F2C0 60 ?Add@TSessionLog@@QAEXW4TLogLineType@@ABVUnicodeString@@@Z
6F389 60 __catch$?Add@TSessionLog@@QAEXW4TLogLineType@@ABVUnicodeString@@@Z$1
6F3AF 60 __catch$?Add@TSessionLog@@QAEXW4TLogLineType@@ABVUnicodeString@@@Z$0
6F420 60 ?AddException@TSessionLog@@QAEXPAVException@@@Z
6F4C0 60 ?ReflectSettings@TSessionLog@@QAEXXZ
6F6D0 60 ?OpenLogFile@TSessionLog@@AAEXXZ
6F84A 60 __catch$?OpenLogFile@TSessionLog@@AAEXXZ$1
6F8D1 60 __catch$?OpenLogFile@TSessionLog@@AAEXXZ$0
6F960 60 ?LogSensitive@TSessionLog@@AAE?AVUnicodeString@@ABV2@@Z
6F9C0 60 ?DoAddStartupInfo@TSessionLog@@IAEX$$QAV?$FastDelegate1@XABVUnicodeString@@@fastdelegate@@PAVTConfiguration@@_N@Z
701D0 60 ??R<lambda_e128b463cb7707073b0b279c3e5bd42c>@@QBE@XZ
70350 60 ?DoAddStartupInfoEntry@TSessionLog@@AAEXABVUnicodeString@@@Z
70380 60 ?DoAddStartupInfo@TSessionLog@@AAEXPAVTSessionData@@@Z
730B0 60 ?AddSeparator@TSessionLog@@QAEXXZ
73190 60 ??0TActionLog@@QAE@PAVTSessionUI@@ABVTDateTime@@PAVTSessionData@@PAVTConfiguration@@@Z
73320 60 ??1TActionLog@@UAE@XZ
7337B 60 __catch$??1TActionLog@@UAE@XZ$0
73480 60 ?Add@TActionLog@@IAEXABVUnicodeString@@@Z
73555 60 __catch$?Add@TActionLog@@IAEXABVUnicodeString@@@Z$0
73581 60 __catch$?Add@TActionLog@@IAEXABVUnicodeString@@@Z$1
736A0 60 ?AddIndented@TActionLog@@IAEXABVUnicodeString@@@Z
73730 60 ?ReflectSettings@TActionLog@@QAEXXZ
73890 60 ?OpenLogFile@TActionLog@@QAEXXZ
739B6 60 __catch$?OpenLogFile@TActionLog@@QAEXXZ$0
739E1 60 __catch$?OpenLogFile@TActionLog@@QAEXXZ$1
73AA0 60 ?SetEnabled@TActionLog@@QAEX_N@Z
73AC0 60 ?Log@TApplicationLog@@QAEXABVUnicodeString@@@Z
73E80 60 ??1?$unique_ptr@VTinyLog@tinylog@@U?$default_delete@VTinyLog@tinylog@@@std@@@std@@QAE@XZ
73EA0 60 ??$make_unique@VTinyLog@tinylog@@$$V$0A@@std@@YA?AV?$unique_ptr@VTinyLog@tinylog@@U?$default_delete@VTinyLog@tinylog@@@std@@@0@XZ
73F10 60 ??$Sprintf@$$BY0BAB@_W@nb@@YA?AVUnicodeString@@ABV1@AAY0BAB@$$CB_W@Z
73F80 60 ??$Sprintf@VUnicodeString@@HH@nb@@YA?AVUnicodeString@@ABV1@0ABH1@Z
74020 60 ??$EnumName@W4TAutoSwitch@@@@YA?AVUnicodeString@@W4TAutoSwitch@@ABV0@@Z
741B0 60 ??0?$scope_guard@V<lambda_e128b463cb7707073b0b279c3e5bd42c>@@V<lambda_dd6e46a87f67939d35c63a719a90d618>@@@detail@Sysutils@@QAE@$$QAV<lambda_e128b463cb7707073b0b279c3e5bd42c>@@$$QAV<lambda_dd6e46a87f67939d35c63a719a90d618>@@@Z
7420A 60 __catch$??0?$scope_guard@V<lambda_e128b463cb7707073b0b279c3e5bd42c>@@V<lambda_dd6e46a87f67939d35c63a719a90d618>@@@detail@Sysutils@@QAE@$$QAV<lambda_e128b463cb7707073b0b279c3e5bd42c>@@$$QAV<lambda_dd6e46a87f67939d35c63a719a90d618>@@@Z$0
74220 14 ??0TQueryButtonAlias@@QAE@XZ
74280 14 ?CreateAllAsYesToNewerGroupedWithYes@TQueryButtonAlias@@SA?AU1@XZ
74350 14 ?CreateIgnoreAsRenameGroupedWithNo@TQueryButtonAlias@@SA?AU1@XZ
74420 14 ??0TQueryParams@@QAE@IABVUnicodeString@@@Z
744E0 0 ??_ETQueryParams@@UAEPAXI@Z
74520 14 ?Assign@TQueryParams@@QAEXABU1@@Z
74590 14 ?GetConfiguration@@YAPAVTConfiguration@@XZ
74600 14 ?GetStoredSessions@@YAPAVTStoredSessionList@@PA_N@Z
7473D 14 __catch$?GetStoredSessions@@YAPAVTStoredSessionList@@PA_N@Z$0
74790 14 ?DeleteStoredSessions@@YAXXZ
747C0 14 ?CoreLoad@@YAXXZ
74863 14 __catch$?CoreLoad@@YAXXZ$0
74910 14 ?CoreInitialize@@YAXXZ
74A40 14 ?CoreFinalize@@YAXXZ
74BA0 14 ??1TInstantOperationVisualizer@@QAE@XZ
74C10 27 ?GetUserName@TSessionData@@QBE?AVUnicodeString@@XZ
74C30 27 ?GetSessionData@TCustomCommandData@@QBEPAVTSessionData@@XZ
74C40 27 ??0EFileMasksException@@QAE@ABVUnicodeString@@HH@Z
74C80 0 ??_EEFileMasksException@@UAEPAXI@Z
74CF0 27 ?MaskFilePart@@YA?AVUnicodeString@@ABV1@0AA_N@Z
74EF0 27 ?MaskFileName@@YA?AVUnicodeString@@ABV1@0@Z
751F0 27 ?IsEffectiveFileNameMask@@YA_NABVUnicodeString@@@Z
75270 27 ??0TParams@TFileMasks@@QAE@XZ
752B0 0 ??_ETParams@TFileMasks@@UAEPAXI@Z
752E0 27 ?EscapeMask@TFileMasks@@SA?AVUnicodeString@@ABV2@@Z
753D0 27 ??0TFileMasks@@QAE@XZ
754B0 0 ??_ETFileMasks@@UAEPAXI@Z
754F0 27 ??0TFileMasks@@QAE@H@Z
755D0 27 ??0TFileMasks@@QAE@ABVUnicodeString@@@Z
756C0 27 ??1TFileMasks@@UAE@XZ
757D0 27 ?DoCopy@TFileMasks@@AAEXABV1@@Z
758B0 27 ?Clear@TFileMasks@@AAEXXZ
75950 27 ?MatchesMasks@TFileMasks@@CA_NABVUnicodeString@@_N10PBUTParams@1@ABV?$vector@UTMask@TFileMasks@@U?$custom_nballocator_t@UTMask@TFileMasks@@@nb@@@std@@1@Z
75BE0 27 ?DoMatches@TFileMasks@@ABE_NABVUnicodeString@@_N10PBUTParams@1@1AA_N@Z
75CC0 27 ?Matches@TFileMasks@@QBE_NABVUnicodeString@@_N1PBUTParams@1@1AA_N@Z
75EC0 27 ??8TFileMasks@@QBE_NABV0@@Z
75FA0 27 ??4TFileMasks@@QAEAAV0@ABV0@@Z
75FF0 27 ?ThrowError@TFileMasks@@ABEXHH@Z
76080 27 ??0EFileMasksException@@QAE@ABV0@@Z
760C0 27 ?DoCreateMaskMask@TFileMasks@@CAPAVTMask@Masks@@ABVUnicodeString@@@Z
76110 27 ?CreateMaskMask@TFileMasks@@AAEXABVUnicodeString@@HH_NAAW4TKind@TMask@1@AAPAV4Masks@@@Z
761A0 27 ?CreateMask@TFileMasks@@AAEXABVUnicodeString@@HH_N@Z
76940 0 ??_ETMask@TFileMasks@@UAEPAXI@Z
76980 27 ??1TMask@TFileMasks@@UAE@XZ
76A00 27 ?TrimEx@TFileMasks@@CAXAAVUnicodeString@@AAH1@Z
76B00 27 ?MatchesMaskMask@TFileMasks@@CA_NW4TKind@TMask@1@PBV3Masks@@ABVUnicodeString@@@Z
76BF0 27 ?SetMasks@TFileMasks@@AAEXABVUnicodeString@@@Z
76C40 27 ?SetStr@TFileMasks@@AAEXABVUnicodeString@@_N@Z
76E3C 27 __catch$?SetStr@TFileMasks@@AAEXABVUnicodeString@@_N@Z$0
76E60 27 ?SetRoots@TFileMasks@@QAEXABVUnicodeString@@0@Z
76FE0 27 ?Escape@TCustomCommand@@SA?AVUnicodeString@@ABV2@@Z
77110 27 ?GetToken@TCustomCommand@@IBEXABVUnicodeString@@HAAHAA_W@Z
77250 27 ?Complete@TCustomCommand@@QAE?AVUnicodeString@@ABV2@_N@Z
77690 27 ?DelimitReplacement@TCustomCommand@@MAEXAAVUnicodeString@@_W@Z
776F0 27 ?Validate@TCustomCommand@@UAEXABVUnicodeString@@@Z
77700 27 ?CustomValidate@TCustomCommand@@IAEXABVUnicodeString@@PAX@Z
77870 27 ?FindPattern@TCustomCommand@@IBE_NABVUnicodeString@@_W@Z
77910 55 ?CalculateFilesChecksum@TS3FileSystem@@UAEXABVUnicodeString@@PAVTStrings@@$$QAV?$FastDelegate3@XABVUnicodeString@@ABV1@ABV1@@fastdelegate@@PAVTFileOperationProgressType@@_N@Z
77920 0 ??_ETConsoleTitleParam@@UAEPAXI@Z
77950 27 ?Prompt@TInteractiveCustomCommand@@MBEXHABVUnicodeString@@AAV2@@Z
77960 27 ?Execute@TInteractiveCustomCommand@@MBEXABVUnicodeString@@AAV2@@Z
77970 27 ?PatternLen@TInteractiveCustomCommand@@MBEHABVUnicodeString@@H@Z
77AC0 27 ?ParsePromptPattern@TInteractiveCustomCommand@@IBEXABVUnicodeString@@AAV2@1AA_N@Z
77C70 27 ?PatternReplacement@TInteractiveCustomCommand@@MBE_NHABVUnicodeString@@AAV2@AA_N@Z
77DE0 0 ??_ETCustomCommandData@@UAEPAXI@Z
77E30 27 ??0TCustomCommandData@@QAE@PBVTTerminal@@@Z
78000 27 ??0TCustomCommandData@@QAE@PAVTSessionData@@ABVUnicodeString@@1@Z
78190 27 ??0TFileCustomCommand@@QAE@XZ
78270 0 ??_ETFileCustomCommand@@UAEPAXI@Z
782B0 27 ??0TFileCustomCommand@@QAE@ABUTCustomCommandData@@ABVUnicodeString@@11@Z
78410 27 ?PatternLen@TFileCustomCommand@@MBEHABVUnicodeString@@H@Z
7846C 27 $LN31
78474 27 $LN30
784D0 27 ?PatternReplacement@TFileCustomCommand@@MBE_NHABVUnicodeString@@AAV2@AA_N@Z
78970 27 ?Validate@TFileCustomCommand@@UAEXABVUnicodeString@@@Z
78A10 27 ?ValidatePattern@TFileCustomCommand@@UAEXABVUnicodeString@@HH_WPAX@Z
78A60 27 ?IsFileCommand@TFileCustomCommand@@UBE_NABVUnicodeString@@@Z
78A90 27 ?IsSiteCommand@TFileCustomCommand@@QBE_NABVUnicodeString@@@Z
78AD0 27 ??1?$vector@UTMask@TFileMasks@@U?$custom_nballocator_t@UTMask@TFileMasks@@@nb@@@std@@QAE@XZ
78B10 27 ??0?$vector@UTMask@TFileMasks@@U?$custom_nballocator_t@UTMask@TFileMasks@@@nb@@@std@@QAE@XZ
78B30 27 ??$FmtLoadStr@_WH@nb@@YA?AVUnicodeString@@HAB_WABH@Z
78BA0 27 ??$_Emplace_reallocate@ABUTMask@TFileMasks@@@?$vector@UTMask@TFileMasks@@U?$custom_nballocator_t@UTMask@TFileMasks@@@nb@@@std@@AAEPAUTMask@TFileMasks@@QAU23@ABU23@@Z
78D10 27 ?construct@?$custom_nballocator_t@UTMask@TFileMasks@@@nb@@QAEXPAUTMask@TFileMasks@@ABU34@@Z
78DC0 13 ?is@TCopyParamType@@UBE_NG@Z
78DE0 13 ?SetRights@TCopyParamType@@QAEXABVTRights@@@Z
78E30 13 ?GetLocalInvalidChars@TCopyParamType@@QBE?AVUnicodeString@@XZ
78E50 13 ??0TCopyParamType@@QAE@G@Z
79290 0 ??_ETCopyParamType@@UAEPAXI@Z
792D0 13 ??0TCopyParamType@@QAE@ABV0@@Z
79330 13 ??1TCopyParamType@@UAE@XZ
79430 13 ?Default@TCopyParamType@@UAEXXZ
79780 13 ?GetInfoStr@TCopyParamType@@QBE?AVUnicodeString@@ABV2@I@Z
79890 13 ?DoGetInfoStr@TCopyParamType@@QBEXABVUnicodeString@@IAAV2@AA_N01@Z
7AAF0 13 ?Assign@TCopyParamType@@UAEXPBV1@@Z
7AE20 13 ??4TCopyParamType@@QAEAAV0@ABV0@@Z
7AE40 13 ?SetLocalInvalidChars@TCopyParamType@@QAEXABVUnicodeString@@@Z
7AF00 13 ?GetReplaceInvalidChars@TCopyParamType@@QBE_NXZ
7AF10 13 ?SetReplaceInvalidChars@TCopyParamType@@QAEX_N@Z
7AF30 13 ?ValidLocalFileName@TCopyParamType@@QBE?AVUnicodeString@@ABV2@@Z
7AFF0 13 ?RestoreChars@TCopyParamType@@QBE?AVUnicodeString@@ABV2@@Z
7B3D0 13 ?ChangeFileName@TCopyParamType@@QBE?AVUnicodeString@@ABV2@W4TOperationSide@@_N@Z
7B658 13 $LN1464
7B670 13 ?UseAsciiTransfer@TCopyParamType@@QBE_NABVUnicodeString@@W4TOperationSide@@ABUTParams@TFileMasks@@@Z
7B6C0 13 ?RemoteFileRights@TCopyParamType@@QBE?AVTRights@@I@Z
7B700 13 ?GetLogStr@TCopyParamType@@QBE?AVUnicodeString@@XZ
7BC00 13 ?AllowResume@TCopyParamType@@QBE_N_JABVUnicodeString@@@Z
7BCD0 13 ?AllowAnyTransfer@TCopyParamType@@QBE_NXZ
7BDC0 13 ?AllowTransfer@TCopyParamType@@QBE_NABVUnicodeString@@W4TOperationSide@@_NABUTParams@TFileMasks@@2@Z
7BE80 13 ?ResumeTransfer@TCopyParamType@@QBE_NABVUnicodeString@@@Z
7BED0 13 ?GetTransferSkipList@TCopyParamType@@QBEPBVTStrings@@XZ
7BEE0 13 ?SetTransferSkipList@TCopyParamType@@QAEXPBVTStrings@@@Z
7BFC0 13 ?Load@TCopyParamType@@UAEXPAVTHierarchicalStorage@@@Z
7CAB0 13 ?Save@TCopyParamType@@UBEXPAVTHierarchicalStorage@@PBV1@@Z
7DD70 13 ?TryGetSpeedLimit@@YA_NABVUnicodeString@@AAI@Z
7DE40 13 ?GetSpeedLimit@@YAIABVUnicodeString@@@Z
7DEC0 13 ??8?$ROProperty@VUnicodeString@@@@QBE_NABVUnicodeString@@@Z
7DF50 13 ??$Sprintf@V?$RWPropertySimple@VUnicodeString@@@@@nb@@YA?AVUnicodeString@@ABV1@ABV?$RWPropertySimple@VUnicodeString@@@@@Z
7DFB0 13 ??$Sprintf@VUnicodeString@@V1@V1@V1@V1@V1@_WV1@_WHV1@V1@@nb@@YA?AVUnicodeString@@ABV1@000000AB_W01ABH00@Z
7E0F0 13 ??$Sprintf@_WVUnicodeString@@V1@V1@HV1@V1@V1@V1@V?$RWPropertySimple@VUnicodeString@@@@HV2@@nb@@YA?AVUnicodeString@@ABV1@AB_W000ABH0000ABV?$RWPropertySimple@VUnicodeString@@@@23@Z
7E230 13 ??$format_custom_arg@V?$RWPropertySimple@VUnicodeString@@@@@?$MakeValue@V?$BasicFormatter@_WV?$ArgFormatter@_W@fmt@@@fmt@@@internal@fmt@@CAXPAXPBX0@Z
7E250 13 ??$format_arg@_WV?$ArgFormatter@_W@fmt@@V?$RWPropertySimple@VUnicodeString@@@@@fmt@@YAXAAV?$BasicFormatter@_WV?$ArgFormatter@_W@fmt@@@0@AAPB_WABV?$RWPropertySimple@VUnicodeString@@@@@Z
7E420 59 ??0TObjectList@@QAE@XZ
7E470 59 ?GetCurrentVersionNumber@Sysutils@@YAIXZ
7E510 59 ?is@TNamedObject@@UBE_NG@Z
7E540 59 ?GetName@TNamedObject@@QBE?AVUnicodeString@@XZ
7E560 59 ?is@TNamedObjectList@@UBE_NG@Z
7E5A0 59 ?GetAccessMode@THierarchicalStorage@@QBE?AW4TStorageAccessMode@@XZ
7E5B0 59 ?is@TSessionData@@UBE_NG@Z
7E5E0 59 ?GetWinTitle@TSessionData@@QBE?AVUnicodeString@@XZ
7E600 59 ?GetTimeDifferenceAuto@TSessionData@@QBE_NXZ
7E610 59 ?GetPingInterval@TSessionData@@QBEHXZ
7E620 59 ?GetListingCommand@TSessionData@@QBE?AVUnicodeString@@XZ
7E640 59 ?GetAuthGSSAPI@TSessionData@@QBE_NXZ
7E650 59 ?GetGSSAPIFwdTGT@TSessionData@@QBE_NXZ
7E660 59 ?GetPublicKeyFile@TSessionData@@QBE?AVUnicodeString@@XZ
7E680 59 ?GetPuttyProtocol@TSessionData@@QBE?AVUnicodeString@@XZ
7E6A0 59 ?GetClearAliases@TSessionData@@QBE_NXZ
7E6B0 59 ?GetLocalDirectory@TSessionData@@QBE?AVUnicodeString@@XZ
7E6D0 59 ?GetSynchronizeBrowsing@TSessionData@@QBE_NXZ
7E6E0 59 ?GetReturnVar@TSessionData@@QBE?AVUnicodeString@@XZ
7E700 59 ?GetExitCode1IsError@TSessionData@@QBE_NXZ
7E710 59 ?GetScp1Compatibility@TSessionData@@QBE_NXZ
7E720 59 ?GetUnsetNationalVars@TSessionData@@QBE_NXZ
7E730 59 ?GetIgnoreLsWarnings@TSessionData@@QBE_NXZ
7E740 59 ?GetCustomParam1@TSessionData@@QBE?AVUnicodeString@@XZ
7E760 59 ?GetCustomParam2@TSessionData@@QBE?AVUnicodeString@@XZ
7E780 59 ?GetSFTPDownloadQueue@TSessionData@@QBEHXZ
7E790 59 ?GetSFTPUploadQueue@TSessionData@@QBEHXZ
7E7A0 59 ?GetSFTPListingQueue@TSessionData@@QBEHXZ
7E7B0 59 ?GetSFTPMaxVersion@TSessionData@@QBEIXZ
7E7C0 59 ?GetSFTPMinPacketSize@TSessionData@@QBEHXZ
7E7D0 59 ?GetSFTPMaxPacketSize@TSessionData@@QBEHXZ
7E7E0 59 ?GetSCPLsFullTime@TSessionData@@QBE?AW4TAutoSwitch@@XZ
7E7F0 59 ?GetFtpDupFF@TSessionData@@QBE_NXZ
7E800 59 ?GetFtpUndupFF@TSessionData@@QBE_NXZ
7E810 59 ?GetSslSessionReuse@TSessionData@@QBE_NXZ
7E820 59 ?GetPostLoginCommands@TSessionData@@QBE?AVUnicodeString@@XZ
7E840 59 ?GetCodePage@TSessionData@@QBE?AVUnicodeString@@XZ
7E860 59 ?GetColor@TSessionData@@QBEHXZ
7E870 59 ?GetFtpAllowEmptyPassword@TSessionData@@QBE_NXZ
7E880 59 ?GetFtpAccount@TSessionData@@QBE?AVUnicodeString@@XZ
7E8A0 59 ?GetMinTlsVersion@TSessionData@@QBE?AW4TTlsVersion@@XZ
7E8B0 59 ?GetMaxTlsVersion@TSessionData@@QBE?AW4TTlsVersion@@XZ
7E8C0 59 ?GetInternalEditorEncoding@TSessionData@@QBEHXZ
7E8D0 59 ?GetS3DefaultRegion@TSessionData@@QBE?AVUnicodeString@@XZ
7E8F0 59 ?GetNameOverride@TSessionData@@QBE?AVUnicodeString@@XZ
7E910 59 ?GetDefaultSettingsConst@TStoredSessionList@@QBEPBVTSessionData@@XZ
7E920 59 ?SecToDateTime@@YA?AVTDateTime@@H@Z
7E950 59 ??0TSessionData@@QAE@ABVUnicodeString@@@Z
80340 59 ??1TSessionData@@UAE@XZ
80620 46 ?Compare@TNamedObject@@UBEHPBV1@@Z
80710 59 ?Clone@TSessionData@@QBEPAV1@XZ
807C0 59 ?DefaultSettings@TSessionData@@QAEXXZ
820D0 59 ?Assign@TSessionData@@UAEXPBVTPersistent@@@Z
82130 59 ?DoCopyData@TSessionData@@QAEXPBV1@_N@Z
836E0 59 ?DoLoad@TSessionData@@QAEXPAVTHierarchicalStorage@@_NAA_N11@Z
87490 59 ?Load@TSessionData@@QAEXPAVTHierarchicalStorage@@_N@Z
878BB 59 __catch$?Load@TSessionData@@QAEXPAVTHierarchicalStorage@@_N@Z$0
87920 59 ?DoSave@TSessionData@@QAEXPAVTHierarchicalStorage@@_NPBV1@1@Z
8E410 59 ?Save@TSessionData@@QAEXPAVTHierarchicalStorage@@_NPBV1@@Z
8E4D0 59 ?SavePasswords@TSessionData@@QAEXPAVTHierarchicalStorage@@_N11@Z
8EA50 59 ?RecryptPasswords@TSessionData@@QAEXXZ
8EC10 59 ?ReadPasswordFromFile@@YA?AVUnicodeString@@ABV1@@Z
8ED80 59 ?ReadPasswordsFromFiles@TSessionData@@QAEXXZ
8F070 59 ?GetSourceName@TSessionData@@QBE?AVUnicodeString@@XZ
8F1D0 59 ??R<lambda_353b82f2f9c4a038a7e1b84be47f47cd>@@QBE@XZ
8F1E0 59 ?Remove@TSessionData@@QAEXXZ
8F260 59 ?MoveStr@@YAXAAVUnicodeString@@PAV1@H@Z
8F320 59 ?DoIsProtocolUrl@TSessionData@@SA_NABVUnicodeString@@0AAH@Z
8F410 59 ?IsProtocolUrl@TSessionData@@SA_NABVUnicodeString@@0AAH@Z
8F4C0 59 ?ParseUrl@TSessionData@@QAE_NABVUnicodeString@@PAVTOptions@@PAVTStoredSessionList@@AA_NPAV2@PA_N4H@Z
910B0 59 ?CreateTunnelData@TSessionData@@QAEPAV1@H@Z
914A0 59 ?ExpandEnvironmentVariables@TSessionData@@QAEXXZ
91650 59 ?DecryptPassword@TSessionData@@SA?AVUnicodeString@@ABVRawByteString@@ABV2@@Z
91708 59 __catch$?DecryptPassword@TSessionData@@SA?AVUnicodeString@@ABVRawByteString@@ABV2@@Z$0
91730 59 ?GetSessionPasswordEncryptionKey@TSessionData@@QBE?AVUnicodeString@@XZ
91820 59 ?GetIsLocalBrowser@TSessionData@@QBE_NXZ
91900 59 ?GetCanOpen@TSessionData@@QBE_NXZ
91920 59 ?GetDefaultPort@TSessionData@@QBEHXZ
919A0 59 ?GetSessionKey@TSessionData@@QBE?AVUnicodeString@@XZ
91B50 59 ?GetInternalStorageKey@TSessionData@@QBE?AVUnicodeString@@XZ
91BE0 59 ?GetStorageKey@TSessionData@@QBE?AVUnicodeString@@XZ
91C00 59 ?FormatSiteKey@TSessionData@@SA?AVUnicodeString@@ABV2@H@Z
91CB0 59 ?GetSiteKey@TSessionData@@QBE?AVUnicodeString@@XZ
91D50 59 ?SetHostName@TSessionData@@QAEXABVUnicodeString@@@Z
92050 59 ?GetHostNameExpanded@TSessionData@@QBE?AVUnicodeString@@XZ
920C0 59 ?GetHostNameSource@TSessionData@@QBE?AVUnicodeString@@XZ
92270 59 ?SetPortNumber@TSessionData@@QAEXH@Z
922A0 59 ?SetShell@TSessionData@@QAEXABVUnicodeString@@@Z
92320 59 ?SetSftpServer@TSessionData@@QAEXABVUnicodeString@@@Z
923A0 59 ?SetClearAliases@TSessionData@@QAEX_N@Z
923D0 59 ?SetListingCommand@TSessionData@@QAEXABVUnicodeString@@@Z
92440 59 ?SetUserName@TSessionData@@QAEXABVUnicodeString@@@Z
92670 59 ?GetUserNameExpanded@TSessionData@@QBE?AVUnicodeString@@XZ
926E0 59 ?GetUserNameSource@TSessionData@@QBE?AVUnicodeString@@XZ
928E0 59 ?SetPassword@TSessionData@@QAEXABVUnicodeString@@@Z
92A00 59 ?GetPassword@TSessionData@@QBE?AVUnicodeString@@XZ
92AA0 59 ?SetNewPassword@TSessionData@@QAEXABVUnicodeString@@@Z
92C40 59 ?GetNewPassword@TSessionData@@QBE?AVUnicodeString@@XZ
92D30 59 ?SetChangePassword@TSessionData@@QAEX_N@Z
92D60 59 ?SetPingInterval@TSessionData@@QAEXH@Z
92D90 59 ?SetTryAgent@TSessionData@@QAEX_N@Z
92DC0 59 ?SetAgentFwd@TSessionData@@QAEX_N@Z
92DF0 59 ?SetAuthKI@TSessionData@@QAEX_N@Z
92E20 59 ?SetAuthGSSAPI@TSessionData@@QAEX_N@Z
92E50 59 ?SetAuthGSSAPIKEX@TSessionData@@QAEX_N@Z
92E80 59 ?SetChangeUsername@TSessionData@@QAEX_N@Z
92EB0 59 ?SetCompression@TSessionData@@QAEX_N@Z
92EE0 59 ?SetSsh2DES@TSessionData@@QAEX_N@Z
92F10 59 ?SetSshNoUserAuth@TSessionData@@QAEX_N@Z
92F40 59 ?SetCipherList@TSessionData@@QAEXABVUnicodeString@@@Z
92F60 59 ?GetCipherList@TSessionData@@QBE?AVUnicodeString@@XZ
930D0 59 ?SetKexList@TSessionData@@QAEXABVUnicodeString@@@Z
930F0 59 ?GetKexList@TSessionData@@QBE?AVUnicodeString@@XZ
93260 59 ?SetHostKeyList@TSessionData@@QAEXABVUnicodeString@@@Z
93280 59 ?GetHostKeyList@TSessionData@@QBE?AVUnicodeString@@XZ
933F0 59 ?SetGssLibList@TSessionData@@QAEXABVUnicodeString@@@Z
93410 59 ?GetGssLibList@TSessionData@@QBE?AVUnicodeString@@XZ
93590 59 ?SetGssLibCustom@TSessionData@@QAEXABVUnicodeString@@@Z
93610 59 ?SetPublicKeyFile@TSessionData@@QAEXABVUnicodeString@@@Z
93790 59 ?SetDetachedCertificate@TSessionData@@QAEXABVUnicodeString@@@Z
93810 59 ?ResolvePublicKeyFile@TSessionData@@QAE?AVUnicodeString@@XZ
93980 59 ?SetPassphrase@TSessionData@@QAEXABVUnicodeString@@@Z
93B20 59 ?GetPassphrase@TSessionData@@QBE?AVUnicodeString@@XZ
93C20 59 ?SetReturnVar@TSessionData@@QAEXABVUnicodeString@@@Z
93CA0 59 ?SetExitCode1IsError@TSessionData@@QAEX_N@Z
93CD0 59 ?SetLookupUserGroups@TSessionData@@QAEXW4TAutoSwitch@@@Z
93D00 59 ?SetEOLType@TSessionData@@QAEXW4TEOLType@@@Z
93D30 59 ?SetTrimVMSVersions@TSessionData@@QAEX_N@Z
93D60 59 ?SetVMSAllRevisions@TSessionData@@QAEX_N@Z
93D90 59 ?SetTimeout@TSessionData@@QAEXH@Z
93DC0 59 ?SetFSProtocol@TSessionData@@QAEXW4TFSProtocol@@@Z
93DF0 59 ?GetFSProtocolStr@TSessionData@@QBE?AVUnicodeString@@XZ
93EC0 59 ?GetDetectReturnVar@TSessionData@@QBE_NXZ
93F20 59 ?GetDefaultShell@TSessionData@@QBE_NXZ
93F80 59 ?SetPuttyProtocol@TSessionData@@QAEXABVUnicodeString@@@Z
94000 59 ?GetNormalizedPuttyProtocol@TSessionData@@QBE?AVUnicodeString@@XZ
940F0 59 ?SetPingType@TSessionData@@QAEXW4TPingType@@@Z
94120 59 ?SetAddressFamily@TSessionData@@QAEXW4TAddressFamily@@@Z
94150 59 ?SetRekeyData@TSessionData@@QAEXABVUnicodeString@@@Z
941D0 59 ?SetRekeyTime@TSessionData@@QAEXI@Z
94200 59 ?GetDefaultSessionName@TSessionData@@QBE?AVUnicodeString@@XZ
94480 59 ?GetNameWithoutHiddenPrefix@TSessionData@@QBE?AVUnicodeString@@XZ
94600 59 ?HasSessionName@TSessionData@@QBE_NXZ
94750 59 ?GetSessionName@TSessionData@@QBE?AVUnicodeString@@XZ
94850 59 ?GetProtocolUrl@TSessionData@@QBE?AVUnicodeString@@_N@Z
949C8 59 $LN132
949F0 59 ?StripIP6LiteralBrackets@@YA?AVUnicodeString@@ABV1@@Z
94AD0 59 ?IsIPv6Literal@@YA_NABVUnicodeString@@@Z
94C60 59 ?EscapeIPv6Literal@@YA?AVUnicodeString@@ABV1@@Z
94D90 59 ?GenerateSessionUrl@TSessionData@@QBE?AVUnicodeString@@I@Z
95320 59 ?SetLocalDirectory@TSessionData@@QAEXABVUnicodeString@@@Z
953A0 59 ?SetOtherLocalDirectory@TSessionData@@QAEXABVUnicodeString@@@Z
95420 59 ?SetRemoteDirectory@TSessionData@@QAEXABVUnicodeString@@@Z
954A0 59 ?SetUpdateDirectories@TSessionData@@QAEX_N@Z
954D0 59 ?SetCacheDirectories@TSessionData@@QAEX_N@Z
95500 59 ?SetCacheDirectoryChanges@TSessionData@@QAEX_N@Z
95530 59 ?SetPreserveDirectoryChanges@TSessionData@@QAEX_N@Z
95560 59 ?SetResolveSymlinks@TSessionData@@QAEX_N@Z
95590 59 ?SetFollowDirectorySymlinks@TSessionData@@QAEX_N@Z
955C0 59 ?SetDSTMode@TSessionData@@QAEXW4TDSTMode@@@Z
955F0 59 ?SetRecycleBinPath@TSessionData@@QAEXABVUnicodeString@@@Z
95670 59 ?SetPostLoginCommands@TSessionData@@QAEXABVUnicodeString@@@Z
956F0 59 ?SetSpecial@TSessionData@@QAEX_N@Z
95720 59 ?SetScp1Compatibility@TSessionData@@QAEX_N@Z
95750 59 ?SetTcpNoDelay@TSessionData@@QAEX_N@Z
95780 59 ?SetSourceAddress@TSessionData@@QAEXABVUnicodeString@@@Z
95800 59 ?SetProtocolFeatures@TSessionData@@QAEXABVUnicodeString@@@Z
95880 59 ?SetProxyHost@TSessionData@@QAEXABVUnicodeString@@@Z
95900 59 ?SetProxyUsername@TSessionData@@QAEXABVUnicodeString@@@Z
95980 59 ?SetProxyPassword@TSessionData@@QAEXABVUnicodeString@@@Z
95B10 59 ?GetProxyPort@TSessionData@@QBEHXZ
95B20 59 ?GetProxyUsername@TSessionData@@QBE?AVUnicodeString@@XZ
95B40 59 ?GetProxyPassword@TSessionData@@QBE?AVUnicodeString@@XZ
95C80 59 ?SetProxyTelnetCommand@TSessionData@@QAEXABVUnicodeString@@@Z
95D00 59 ?SetProxyLocalCommand@TSessionData@@QAEXABVUnicodeString@@@Z
95D80 59 ?SetBug@TSessionData@@QAEXW4TSshBug@@W4TAutoSwitch@@@Z
95DC0 59 ?SetCustomParam1@TSessionData@@QAEXABVUnicodeString@@@Z
95E40 59 ?SetCustomParam2@TSessionData@@QAEXABVUnicodeString@@@Z
95EC0 59 ?SetUsePosixRename@TSessionData@@QAEX_N@Z
95EF0 59 ?GetSFTPBug@TSessionData@@QBE?AW4TAutoSwitch@@W4TSftpBug@@@Z
95F10 59 ?SetTunnel@TSessionData@@QAEX_N@Z
95F40 59 ?SetTunnelHostName@TSessionData@@QAEXABVUnicodeString@@@Z
961B0 59 ?SetTunnelPortNumber@TSessionData@@QAEXH@Z
961E0 59 ?SetTunnelUserName@TSessionData@@QAEXABVUnicodeString@@@Z
96350 59 ?SetTunnelPassword@TSessionData@@QAEXABVUnicodeString@@@Z
964E0 59 ?GetTunnelPassword@TSessionData@@QBE?AVUnicodeString@@XZ
96620 59 ?SetTunnelPassphrase@TSessionData@@QAEXABVUnicodeString@@@Z
966D0 59 ?GetTunnelPassphrase@TSessionData@@QBE?AVUnicodeString@@XZ
96700 59 ?SetTunnelPublicKeyFile@TSessionData@@QAEXABVUnicodeString@@@Z
96880 59 ?SetTunnelPortFwd@TSessionData@@QAEXABVUnicodeString@@@Z
96900 59 ?SetTunnelHostKey@TSessionData@@QAEXABVUnicodeString@@@Z
96980 59 ?SetFtpAccount@TSessionData@@QAEXABVUnicodeString@@@Z
96A00 59 ?SetFtps@TSessionData@@QAEXW4TFtps@@@Z
96A30 59 ?SetMinTlsVersion@TSessionData@@QAEXW4TTlsVersion@@@Z
96A60 59 ?SetMaxTlsVersion@TSessionData@@QAEXW4TTlsVersion@@@Z
96A90 59 ?SetLogicalHostName@TSessionData@@QAEXABVUnicodeString@@@Z
96B10 59 ?SetCompleteTlsShutdown@TSessionData@@QAEXW4TAutoSwitch@@@Z
96B40 59 ?SetTlsCertificateFile@TSessionData@@QAEXABVUnicodeString@@@Z
96BC0 59 ?SetInternalEditorEncoding@TSessionData@@QAEXH@Z
96BF0 59 ?SetS3DefaultRegion@TSessionData@@QAEXABVUnicodeString@@@Z
96C70 59 ?SetS3SessionToken@TSessionData@@QAEXABVUnicodeString@@@Z
96CF0 59 ?SetS3Profile@TSessionData@@QAEXABVUnicodeString@@@Z
96D70 59 ?SetS3UrlStyle@TSessionData@@QAEXW4TS3UrlStyle@@@Z
96DA0 59 ?SetS3CredentialsEnv@TSessionData@@QAEX_N@Z
96DD0 59 ?SetS3RequesterPays@TSessionData@@QAEX_N@Z
96E00 59 ?SetLink@TSessionData@@QAEXABVUnicodeString@@@Z
96E80 59 ?SetNameOverride@TSessionData@@QAEXABVUnicodeString@@@Z
96F00 59 ?SetHostKey@TSessionData@@QAEXABVUnicodeString@@@Z
96F80 59 ?SetNote@TSessionData@@QAEXABVUnicodeString@@@Z
97000 59 ?SetWinTitle@TSessionData@@QAEXABVUnicodeString@@@Z
97080 59 ?SetFtpAllowEmptyPassword@TSessionData@@QAEX_N@Z
970B0 59 ?GetEncryptKey@TSessionData@@QBE?AVUnicodeString@@XZ
97150 59 ?SetEncryptKey@TSessionData@@QAEXABVUnicodeString@@@Z
97270 59 ?SetWebDavLiberalEscaping@TSessionData@@QAEX_N@Z
972A0 59 ?SetWebDavAuthLegacy@TSessionData@@QAEX_N@Z
972D0 59 ?GetLocalName@TSessionData@@QBE?AVUnicodeString@@XZ
97530 59 ?GetFolderName@TSessionData@@QBE?AVUnicodeString@@XZ
97710 59 ?GetLoginType@TSessionData@@QBE?AW4TLoginType@@XZ
97860 59 ?SetLoginType@TSessionData@@QAEXW4TLoginType@@@Z
979F0 59 ?GetCodePageAsNumber@TSessionData@@QBEIXZ
97A80 59 ?SetCodePage@TSessionData@@QAEXABVUnicodeString@@@Z
97B10 59 ?AdjustHostName@TSessionData@@ABEXAAVUnicodeString@@ABV2@@Z
97C90 59 ?RemoveProtocolPrefix@TSessionData@@QBEXAAVUnicodeString@@@Z
97ED0 59 ??0TStoredSessionList@@QAE@_N@Z
98070 0 ??_ETStoredSessionList@@UAEPAXI@Z
980D0 59 ?Load@TStoredSessionList@@QAEXPAVTHierarchicalStorage@@_N11@Z
98200 59 ??R<lambda_853fbeb86fd8b6c9df0c5d17b3706a6c>@@QBE@XZ
98580 59 ??R<lambda_2bf1b026ded09e96ecde709b39801284>@@QBE@XZ
98590 59 ?DoSave@TStoredSessionList@@AAEXPAVTHierarchicalStorage@@PAVTSessionData@@_N21@Z
986A0 59 ?DoSave@TStoredSessionList@@AAEXPAVTHierarchicalStorage@@_N1PAVTStrings@@@Z
98730 59 ??R<lambda_2f7ba1db9b5b55e66ef906589a327d72>@@QBE@XZ
988A1 59 __catch$??R<lambda_2f7ba1db9b5b55e66ef906589a327d72>@@QBE@XZ$0
98970 59 ?DoSave@TStoredSessionList@@AAEX_N00PAVTStrings@@@Z
98A60 59 ?NewSession@TStoredSessionList@@QAEPAVTSessionData@@ABVUnicodeString@@PAV2@@Z
98C20 59 ?SetDefaultSettings@TStoredSessionList@@QAEXPBVTSessionData@@@Z
98D40 59 ?OpenHostKeysSubKey@TStoredSessionList@@SA_NPAVTHierarchicalStorage@@_N@Z
98E10 59 ?ImportHostKeys@TStoredSessionList@@SAHPAVTHierarchicalStorage@@0PAV1@_N@Z
990E0 59 ?ParseUrl@TStoredSessionList@@QAEPAVTSessionData@@ABVUnicodeString@@PAVTOptions@@AA_NPAV3@PA_N3H@Z
99190 59 ?GetExpandedLogFileName@@YA?AVUnicodeString@@ABV1@ABVTDateTime@@PAVTSessionData@@@Z
99670 59 $LN1609
99698 59 $LN1608
99700 59 ?GetTlsVersionName@@YA?AVUnicodeString@@W4TTlsVersion@@@Z
9975C 59 $LN33
99770 59 $LN32
99780 59 ?GetCodePageAsString@@YA?AVUnicodeString@@I@Z
99880 59 ??8@YA_NABV?$RWPropertySimple@W4TAutoSwitch@@@@W4TAutoSwitch@@@Z
99890 59 ??B?$RWPropertySimple@W4TAutoSwitch@@@@QBE?AW4TAutoSwitch@@XZ
998A0 59 ??8@YA_NABV?$RWPropertySimple@W4TPingType@@@@W4TPingType@@@Z
998B0 59 ??4?$RWPropertySimple@VUnicodeString@@@@QAEAAV0@ABV0@@Z
99950 59 ??$ReadEnum@W4TAutoSwitch@@@THierarchicalStorage@@QAE?AW4TAutoSwitch@@ABVUnicodeString@@W41@ABV?$map@VUnicodeString@@HU?$less@VUnicodeString@@@std@@U?$custom_nballocator_t@U?$pair@$$CBVUnicodeString@@H@std@@@nb@@@std@@@Z
999A0 59 ??$ReadEnum@W4TProxyMethod@@@THierarchicalStorage@@QAE?AW4TProxyMethod@@ABVUnicodeString@@W41@ABV?$map@VUnicodeString@@HU?$less@VUnicodeString@@@std@@U?$custom_nballocator_t@U?$pair@$$CBVUnicodeString@@H@std@@@nb@@@std@@@Z
999F0 59 ??$FmtLoadStr@V?$ROProperty@VUnicodeString@@@@@nb@@YA?AVUnicodeString@@HABV?$ROProperty@VUnicodeString@@@@@Z
99A50 59 ??$Sprintf@HVUnicodeString@@V?$RWProperty@H@@@nb@@YA?AVUnicodeString@@ABV1@ABH0ABV?$RWProperty@H@@@Z
99B00 59 ??$FmtLoadStr@VUnicodeString@@$$BY01_W@nb@@YA?AVUnicodeString@@HABV1@AAY01$$CB_W@Z
99B70 59 ??$SetAlgoList@W4TCipher@@@TSessionData@@QAEXPAW4TCipher@@PBW41@PBQB_WHW41@ABVUnicodeString@@@Z
99F80 59 ??$SetAlgoList@W4TKex@@@TSessionData@@QAEXPAW4TKex@@PBW41@PBQB_WHW41@ABVUnicodeString@@@Z
9A350 59 ??$SetAlgoList@W4THostKey@@@TSessionData@@QAEXPAW4THostKey@@PBW41@PBQB_WHW41@ABVUnicodeString@@@Z
9A760 59 ??$SetAlgoList@W4TGssLib@@@TSessionData@@QAEXPAW4TGssLib@@PBW41@PBQB_WHW41@ABVUnicodeString@@@Z
9AAC0 59 ??$FmtLoadStr@VUnicodeString@@V1@V1@V1@@nb@@YA?AVUnicodeString@@HABV1@000@Z
9AB70 59 ??$make_unique@VTRegistryStorage@@VUnicodeString@@$0A@@std@@YA?AV?$unique_ptr@VTRegistryStorage@@U?$default_delete@VTRegistryStorage@@@std@@@0@$$QAVUnicodeString@@@Z
9ABD0 59 ??$Sprintf@V?$RWProperty@H@@V?$ROProperty@VUnicodeString@@@@@nb@@YA?AVUnicodeString@@ABV1@ABV?$RWProperty@H@@ABV?$ROProperty@VUnicodeString@@@@@Z
9AC50 59 ??$make_unique@VTObjectList@@$$V$0A@@std@@YA?AV?$unique_ptr@VTObjectList@@U?$default_delete@VTObjectList@@@std@@@0@XZ
9ACD0 59 ??$Sprintf@G@nb@@YA?AVUnicodeString@@ABV1@ABG@Z
9AD30 59 ??0?$vector@_NU?$custom_nballocator_t@_N@nb@@@std@@QAE@IABU?$custom_nballocator_t@_N@nb@@@Z
9AE50 59 ??0?$scope_guard@V<lambda_e682b7c4894904bd9084700786600a63>@@V<lambda_18b7aa109f2dc9806f80f6d18084c882>@@@detail@Sysutils@@QAE@$$QAV<lambda_e682b7c4894904bd9084700786600a63>@@$$QAV<lambda_18b7aa109f2dc9806f80f6d18084c882>@@@Z
9AEEF 59 __catch$??0?$scope_guard@V<lambda_e682b7c4894904bd9084700786600a63>@@V<lambda_18b7aa109f2dc9806f80f6d18084c882>@@@detail@Sysutils@@QAE@$$QAV<lambda_e682b7c4894904bd9084700786600a63>@@$$QAV<lambda_18b7aa109f2dc9806f80f6d18084c882>@@@Z$0
9AF00 59 ??0?$scope_guard@V<lambda_860a67d21830b5c5aedd90812b7a50a9>@@V<lambda_ec8e85b0060b67202e99fb0a72eae757>@@@detail@Sysutils@@QAE@$$QAV<lambda_860a67d21830b5c5aedd90812b7a50a9>@@$$QAV<lambda_ec8e85b0060b67202e99fb0a72eae757>@@@Z
9B01F 59 __catch$??0?$scope_guard@V<lambda_860a67d21830b5c5aedd90812b7a50a9>@@V<lambda_ec8e85b0060b67202e99fb0a72eae757>@@@detail@Sysutils@@QAE@$$QAV<lambda_860a67d21830b5c5aedd90812b7a50a9>@@$$QAV<lambda_ec8e85b0060b67202e99fb0a72eae757>@@@Z$0
9B030 59 ??0?$scope_guard@V<lambda_2f7ba1db9b5b55e66ef906589a327d72>@@V<lambda_feb161bc5bac5113c69aab0c614caf1e>@@@detail@Sysutils@@QAE@$$QAV<lambda_2f7ba1db9b5b55e66ef906589a327d72>@@$$QAV<lambda_feb161bc5bac5113c69aab0c614caf1e>@@@Z
9B0A8 59 __catch$??0?$scope_guard@V<lambda_2f7ba1db9b5b55e66ef906589a327d72>@@V<lambda_feb161bc5bac5113c69aab0c614caf1e>@@@detail@Sysutils@@QAE@$$QAV<lambda_2f7ba1db9b5b55e66ef906589a327d72>@@$$QAV<lambda_feb161bc5bac5113c69aab0c614caf1e>@@@Z$0
9B0C0 59 ??0?$scope_guard@V<lambda_853fbeb86fd8b6c9df0c5d17b3706a6c>@@V<lambda_2bf1b026ded09e96ecde709b39801284>@@@detail@Sysutils@@QAE@$$QAV<lambda_853fbeb86fd8b6c9df0c5d17b3706a6c>@@$$QAV<lambda_2bf1b026ded09e96ecde709b39801284>@@@Z
9B158 59 __catch$??0?$scope_guard@V<lambda_853fbeb86fd8b6c9df0c5d17b3706a6c>@@V<lambda_2bf1b026ded09e96ecde709b39801284>@@@detail@Sysutils@@QAE@$$QAV<lambda_853fbeb86fd8b6c9df0c5d17b3706a6c>@@$$QAV<lambda_2bf1b026ded09e96ecde709b39801284>@@@Z$0
9B180 59 ??0?$scope_guard@V<lambda_0500eff04310b0f81e2f22f1454c0bce>@@V<lambda_0dc30db92d9da8316bd17cad3ba2c416>@@@detail@Sysutils@@QAE@$$QAV<lambda_0500eff04310b0f81e2f22f1454c0bce>@@$$QAV<lambda_0dc30db92d9da8316bd17cad3ba2c416>@@@Z
9B2A4 59 __catch$??0?$scope_guard@V<lambda_0500eff04310b0f81e2f22f1454c0bce>@@V<lambda_0dc30db92d9da8316bd17cad3ba2c416>@@@detail@Sysutils@@QAE@$$QAV<lambda_0500eff04310b0f81e2f22f1454c0bce>@@$$QAV<lambda_0dc30db92d9da8316bd17cad3ba2c416>@@@Z$0
9B2B0 59 ??0?$scope_guard@V<lambda_abda6daec95d96dc6ed0f6fb0664cf5b>@@V<lambda_353b82f2f9c4a038a7e1b84be47f47cd>@@@detail@Sysutils@@QAE@$$QAV<lambda_abda6daec95d96dc6ed0f6fb0664cf5b>@@$$QAV<lambda_353b82f2f9c4a038a7e1b84be47f47cd>@@@Z
9B339 59 __catch$??0?$scope_guard@V<lambda_abda6daec95d96dc6ed0f6fb0664cf5b>@@V<lambda_353b82f2f9c4a038a7e1b84be47f47cd>@@@detail@Sysutils@@QAE@$$QAV<lambda_abda6daec95d96dc6ed0f6fb0664cf5b>@@$$QAV<lambda_353b82f2f9c4a038a7e1b84be47f47cd>@@@Z$0
9B360 69 ?GetCollect@TUsage@@QBE_NXZ
9B370 0 ??_ETUsage@@UAEPAXI@Z
9B400 69 ?Default@TUsage@@QAEXXZ
9B640 69 ?Load@TUsage@@QAEXPAVTHierarchicalStorage@@@Z
9B830 69 ??R<lambda_bcfa152625a880cadfcc2b952a602956>@@QBE@XZ
9B9F0 69 ?Load@TUsage@@QAEXPAVTHierarchicalStorage@@ABVUnicodeString@@AAV?$map@VUnicodeString@@HU?$less@VUnicodeString@@@std@@U?$custom_nballocator_t@U?$pair@$$CBVUnicodeString@@H@std@@@nb@@@std@@@Z
9BA90 69 ?Save@TUsage@@QBEXPAVTHierarchicalStorage@@@Z
9BC40 69 ?Save@TUsage@@QBEXPAVTHierarchicalStorage@@ABVUnicodeString@@ABV?$map@VUnicodeString@@HU?$less@VUnicodeString@@@std@@U?$custom_nballocator_t@U?$pair@$$CBVUnicodeString@@H@std@@@nb@@@std@@@Z
9BCC0 69 ?Set@TUsage@@QAEXABVUnicodeString@@H@Z
9BD80 69 ?UpdateLastReport@TUsage@@QAEXXZ
9BE90 69 ?Inc@TUsage@@QAEHABVUnicodeString@@H@Z
9BF30 69 ?Inc@TUsage@@QAEHABVUnicodeString@@AAV?$map@VUnicodeString@@HU?$less@VUnicodeString@@@std@@U?$custom_nballocator_t@U?$pair@$$CBVUnicodeString@@H@std@@@nb@@@std@@H@Z
9BFA0 69 ?SetMax@TUsage@@QAEXABVUnicodeString@@H@Z
9C030 69 ?SetMax@TUsage@@QAEXABVUnicodeString@@HAAV?$map@VUnicodeString@@HU?$less@VUnicodeString@@@std@@U?$custom_nballocator_t@U?$pair@$$CBVUnicodeString@@H@std@@@nb@@@std@@@Z
9C0A0 69 ?SetCollect@TUsage@@QAEX_N@Z
9C170 69 ??A?$map@VUnicodeString@@HU?$less@VUnicodeString@@@std@@U?$custom_nballocator_t@U?$pair@$$CBVUnicodeString@@H@std@@@nb@@@std@@QAEAAHABVUnicodeString@@@Z
9C230 69 ??0?$scope_guard@V<lambda_8df25a7e93b52273e27184a342fac311>@@V<lambda_1118974e61cb400c6574b7d14777d43f>@@@detail@Sysutils@@QAE@$$QAV<lambda_8df25a7e93b52273e27184a342fac311>@@$$QAV<lambda_1118974e61cb400c6574b7d14777d43f>@@@Z
9C34A 69 __catch$??0?$scope_guard@V<lambda_8df25a7e93b52273e27184a342fac311>@@V<lambda_1118974e61cb400c6574b7d14777d43f>@@@detail@Sysutils@@QAE@$$QAV<lambda_8df25a7e93b52273e27184a342fac311>@@$$QAV<lambda_1118974e61cb400c6574b7d14777d43f>@@@Z$0
9C360 69 ??0?$scope_guard@V<lambda_bcfa152625a880cadfcc2b952a602956>@@V<lambda_97c05fbfb8ea0015bc6acdc115c073b3>@@@detail@Sysutils@@QAE@$$QAV<lambda_bcfa152625a880cadfcc2b952a602956>@@$$QAV<lambda_97c05fbfb8ea0015bc6acdc115c073b3>@@@Z
9C3BE 69 __catch$??0?$scope_guard@V<lambda_bcfa152625a880cadfcc2b952a602956>@@V<lambda_97c05fbfb8ea0015bc6acdc115c073b3>@@@detail@Sysutils@@QAE@$$QAV<lambda_bcfa152625a880cadfcc2b952a602956>@@$$QAV<lambda_97c05fbfb8ea0015bc6acdc115c073b3>@@@Z$0
9C3D0 12 ?is@TConfiguration@@UBE_NG@Z
9C3F0 12 ?GetUsage@TConfiguration@@QAEPAVTUsage@@XZ
9C400 12 ?GetPuttyRegistryStorageKey@TConfiguration@@QBE?AVUnicodeString@@XZ
9C420 12 ?Load@TSshHostCA@@QAE_NPAVTHierarchicalStorage@@@Z
9C490 12 ?Save@TSshHostCA@@QBEXPAVTHierarchicalStorage@@@Z
9C4D0 12 ?Load@TSshHostCAList@@QAEXPAVTHierarchicalStorage@@@Z
9C6E0 12 ??0TConfiguration@@QAE@G@Z
9D010 0 ??_ETConfiguration@@UAEPAXI@Z
9D050 12 ?Default@TConfiguration@@UAEXXZ
9D4B0 12 ??1TConfiguration@@UAE@XZ
9D670 12 ?ConfigurationInit@TConfiguration@@UAEXXZ
9D7F0 12 ?UpdateStaticUsage@TConfiguration@@UAEXXZ
9D800 12 ?CreateConfigRegistryStorage@TConfiguration@@QBEPAVTHierarchicalStorage@@XZ
9D8F0 12 ?CreateScpStorage@TConfiguration@@UAEPAVTHierarchicalStorage@@AA_N@Z
9D990 12 ?PropertyToKey@TConfiguration@@SA?AVUnicodeString@@ABV2@@Z
9DBD0 12 ?SaveData@TConfiguration@@UAEXPAVTHierarchicalStorage@@_N@Z
9DDC0 12 ??R<lambda_27c28278e92d7161f9375766873f84f7>@@QBE@XZ
9FE60 12 ??R<lambda_37d935112868287931eb1c4e9a05481e>@@QBE@XZ
9FE70 12 ??R<lambda_702f470ea8983e7c03371d0c2b8958cf>@@QBE@XZ
A0950 12 ?DoSave@TConfiguration@@QAEXPAVTHierarchicalStorage@@_N@Z
A0AC0 12 ?DoSave@TConfiguration@@UAEX_N0@Z
A0B80 12 ?LoadData@TConfiguration@@UAEXPAVTHierarchicalStorage@@@Z
A0D90 12 ??R<lambda_d1a2cc34be3237b500b67926cf045c1f>@@QBE@XZ
A30B0 12 ??R<lambda_3e11034d9832fe3b21d5278442f204b3>@@QBE@XZ
A3CF0 12 ?LoadAdmin@TConfiguration@@UAEXPAVTHierarchicalStorage@@@Z
A3F20 12 ?LoadSshHostCAList@TConfiguration@@QAEXPAVTSshHostCAList@@PAVTHierarchicalStorage@@@Z
A3FE0 12 ?LoadFrom@TConfiguration@@UAEXPAVTHierarchicalStorage@@@Z
A40B0 12 ?LoadCustomIniFileStorageName@TConfiguration@@QAE?AVUnicodeString@@XZ
A42E0 12 ?Load@TConfiguration@@QAEXPAVTHierarchicalStorage@@@Z
A4370 12 ??R<lambda_2ef0a56a9158ea7628d087363e79cd98>@@QBE@XZ
A4390 12 ?CopySubKey@TConfiguration@@QAE_NPAVTHierarchicalStorage@@0ABVUnicodeString@@@Z
A43D0 12 ?CopyAllStringsInSubKey@TConfiguration@@QAEXPAVTHierarchicalStorage@@0ABVUnicodeString@@@Z
A4600 12 ?CopyData@TConfiguration@@UAEXPAVTHierarchicalStorage@@0@Z
A4950 12 ??R<lambda_1e3991e49a59cd1049111e3bc6279b73>@@QBE@XZ
A4BD0 12 ??R<lambda_2ff6a9a55754b17bace206bdfb6cadac>@@QBE@XZ
A4E60 12 ?BannerHash@TConfiguration@@QBE?AVUnicodeString@@ABV2@@Z
A4F40 12 ?GetBannerData@TConfiguration@@QAEXABVUnicodeString@@AAV2@AAI@Z
A51D0 12 ?SetBannerData@TConfiguration@@QAEXABVUnicodeString@@0I@Z
A5410 12 ?FormatFingerprintKey@TConfiguration@@QBE?AVUnicodeString@@ABV2@0@Z
A54C0 12 ?RememberLastFingerprint@TConfiguration@@QAEXABVUnicodeString@@00@Z
A5690 12 ?Changed@TConfiguration@@UAEXXZ
A5700 12 ?EncryptPassword@TConfiguration@@UAE?AVRawByteString@@ABVUnicodeString@@0@Z
A5740 12 ?DecryptPassword@TConfiguration@@UAE?AVUnicodeString@@ABVRawByteString@@ABV2@@Z
A5780 12 ?StronglyRecryptPassword@TConfiguration@@UAE?AVRawByteString@@ABV2@ABVUnicodeString@@@Z
A57E0 12 ?GetFixedApplicationInfo@TConfiguration@@QBEPAUtagVS_FIXEDFILEINFO@@XZ
A584F 12 __catch$?GetFixedApplicationInfo@TConfiguration@@QBEPAUtagVS_FIXEDFILEINFO@@XZ$0
A58A0 12 ?GetCompoundVersion@TConfiguration@@QBEHXZ
A58D0 12 ?ModuleFileName@TConfiguration@@UBE?AVUnicodeString@@XZ
A58E0 12 ?GetFileApplicationInfo@TConfiguration@@QBEPAXABVUnicodeString@@@Z
A5970 12 ?GetApplicationInfo@TConfiguration@@QBEPAXXZ
A5A10 12 ?GetFullVersion@TConfiguration@@QBE?AVUnicodeString@@XZ
A5C60 12 ?GetVersionStr@TConfiguration@@UBE?AVUnicodeString@@XZ
A5C80 12 ?GetProductVersionStr@TConfiguration@@UBE?AVUnicodeString@@XZ
A5E64 12 __catch$?GetProductVersionStr@TConfiguration@@UBE?AVUnicodeString@@XZ$0
A5EB0 12 ?GetFileVersion@TConfiguration@@QBE?AVUnicodeString@@PBUtagVS_FIXEDFILEINFO@@@Z
A5F93 12 __catch$?GetFileVersion@TConfiguration@@QBE?AVUnicodeString@@PBUtagVS_FIXEDFILEINFO@@@Z$0
A5FE0 12 ?GetVersion@TConfiguration@@UBE?AVUnicodeString@@XZ
A6000 12 ?GetFileFileInfoString@TConfiguration@@QBE?AVUnicodeString@@ABV2@0_N@Z
A60C0 12 ??R<lambda_2b9cc94c730dc8ddd11a8f740d67e143>@@QBE@XZ
A614E 12 __catch$??R<lambda_2b9cc94c730dc8ddd11a8f740d67e143>@@QBE@XZ$0
A615F 12 __catch$??R<lambda_2b9cc94c730dc8ddd11a8f740d67e143>@@QBE@XZ$1
A6170 12 __catch$??R<lambda_2b9cc94c730dc8ddd11a8f740d67e143>@@QBE@XZ$2
A6190 12 ??R<lambda_c070650919ddca9992deb3e52d09f01c>@@QBE@XZ
A61B0 12 ?GetFileInfoString@TConfiguration@@QBE?AVUnicodeString@@ABV2@@Z
A6260 12 ?GetFileMimeType@TConfiguration@@QBE?AVUnicodeString@@ABV2@@Z
A6500 12 ?GetRegistryStorageKey@TConfiguration@@QBE?AVUnicodeString@@XZ
A6520 12 ?SetOptionsStorage@TConfiguration@@QAEXPBVTStrings@@@Z
A65F0 20 ?GetDialogGuid@TFarDialog@@MBEPBU_GUID@@XZ
A6600 12 ?GetPuttySessionsKey@TConfiguration@@QBE?AVUnicodeString@@ABV2@@Z
A66C0 12 ?DoGetPuttySessionsKey@TConfiguration@@QBE?AVUnicodeString@@XZ
A6730 12 ?GetStoredSessionsSubKey@TConfiguration@@QBE?AVUnicodeString@@XZ
A6750 12 ?GetSshHostKeysSubKey@TConfiguration@@QBE?AVUnicodeString@@XZ
A6770 12 ?GetConfigurationSubKey@TConfiguration@@QBE?AVUnicodeString@@XZ
A6790 12 ?GetRootKeyStr@TConfiguration@@QBE?AVUnicodeString@@XZ
A67E0 12 ?GetStorage@TConfiguration@@UBE?AW4TStorage@@XZ
A6820 12 ?SetRandomSeedFile@TConfiguration@@QAEXABVUnicodeString@@@Z
A6A20 12 ?GetRandomSeedFileName@TConfiguration@@QBE?AVUnicodeString@@XZ
A6B00 12 ?HasLocalPortNumberLimits@TConfiguration@@QBE_NXZ
A6B20 12 ?GetCertificateStorageExpanded@TConfiguration@@QBE?AVUnicodeString@@XZ
A6D00 12 ?SetPuttyRegistryStorageKey@TConfiguration@@QAEXABVUnicodeString@@@Z
A6DE0 12 ?GetLocalEOLType@TConfiguration@@QBE?AW4TEOLType@@XZ
A6DF0 12 ?GetCollectUsage@TConfiguration@@QBE_NXZ
A6E00 12 ?SetCollectUsage@TConfiguration@@QAEX_N@Z
A6E10 12 ?SetLogging@TConfiguration@@QAEX_N@Z
A6EC0 12 ?GetLogging@TConfiguration@@QBE_NXZ
A6EF0 12 ?SetLogFileName@TConfiguration@@QAEXABVUnicodeString@@@Z
A7020 12 ?GetLogFileName@TConfiguration@@QBE?AVUnicodeString@@XZ
A7060 12 ?GetActionsLogFileName@TConfiguration@@QBE?AVUnicodeString@@XZ
A70A0 12 ?GetLogToFile@TConfiguration@@QBE_NXZ
A7120 12 ?SetLogProtocol@TConfiguration@@QAEXH@Z
A71B0 12 ?SetLogActions@TConfiguration@@QAEX_N@Z
A7250 12 ?GetLogActions@TConfiguration@@QBE_NXZ
A7280 12 ?SetConfirmOverwriting@TConfiguration@@UAEX_N@Z
A7300 12 ?GetConfirmOverwriting@TConfiguration@@UBE_NXZ
A7330 12 ?SetConfirmResume@TConfiguration@@QAEX_N@Z
A73C0 12 ?SetAutoReadDirectoryAfterOp@TConfiguration@@QAEX_N@Z
A7450 12 ?GetAutoReadDirectoryAfterOp@TConfiguration@@QBE_NXZ
A7480 12 ?GetConfigurationTimeFormat@TConfiguration@@QBE?AVUnicodeString@@XZ
A74A0 12 ?GetDefaultKeyFile@TConfiguration@@UBE?AVUnicodeString@@XZ
A74C0 12 ?SetQueueTransfersLimit@TConfiguration@@QAEXH@Z
A74E0 12 ?GetActiveSshHostCAList@TConfiguration@@QAEPBVTSshHostCAList@@XZ
A7670 12 ?GetPersistent@TConfiguration@@QBE_NXZ
A7690 12 ?GetProductVersion@TConfiguration@@UBE?AVUnicodeString@@XZ
A777B 12 __catch$?GetProductVersion@TConfiguration@@UBE?AVUnicodeString@@XZ$0
A77C0 12 ??1?$unique_ptr@VTStoredSessionList@@U?$default_delete@VTStoredSessionList@@@std@@@std@@QAE@XZ
A7810 12 ??R?$default_delete@VTUsage@@@std@@QBEXPAVTUsage@@@Z
A7880 12 ?_Tidy@?$vector@VTSshHostCA@@U?$custom_nballocator_t@VTSshHostCA@@@nb@@@std@@AAEXXZ
A78C0 12 ??$make_unique@VTRegistryStorage@@VUnicodeString@@PAUHKEY__@@$0A@@std@@YA?AV?$unique_ptr@VTRegistryStorage@@U?$default_delete@VTRegistryStorage@@@std@@@0@$$QAVUnicodeString@@$$QAPAUHKEY__@@@Z
A7910 12 ??0?$scope_guard@V<lambda_2b9cc94c730dc8ddd11a8f740d67e143>@@V<lambda_c070650919ddca9992deb3e52d09f01c>@@@detail@Sysutils@@QAE@$$QAV<lambda_2b9cc94c730dc8ddd11a8f740d67e143>@@$$QAV<lambda_c070650919ddca9992deb3e52d09f01c>@@@Z
A7992 12 __catch$??0?$scope_guard@V<lambda_2b9cc94c730dc8ddd11a8f740d67e143>@@V<lambda_c070650919ddca9992deb3e52d09f01c>@@@detail@Sysutils@@QAE@$$QAV<lambda_2b9cc94c730dc8ddd11a8f740d67e143>@@$$QAV<lambda_c070650919ddca9992deb3e52d09f01c>@@@Z$0
A79B0 12 ??0?$scope_guard@V<lambda_2ff6a9a55754b17bace206bdfb6cadac>@@V<lambda_e0cc785effdc0a1096c6126ab06211d9>@@@detail@Sysutils@@QAE@$$QAV<lambda_2ff6a9a55754b17bace206bdfb6cadac>@@$$QAV<lambda_e0cc785effdc0a1096c6126ab06211d9>@@@Z
A7A1E 12 __catch$??0?$scope_guard@V<lambda_2ff6a9a55754b17bace206bdfb6cadac>@@V<lambda_e0cc785effdc0a1096c6126ab06211d9>@@@detail@Sysutils@@QAE@$$QAV<lambda_2ff6a9a55754b17bace206bdfb6cadac>@@$$QAV<lambda_e0cc785effdc0a1096c6126ab06211d9>@@@Z$0
A7A30 12 ??0?$scope_guard@V<lambda_1e3991e49a59cd1049111e3bc6279b73>@@V<lambda_d9ce615e3cab49e46d73b7081c2162fa>@@@detail@Sysutils@@QAE@$$QAV<lambda_1e3991e49a59cd1049111e3bc6279b73>@@$$QAV<lambda_d9ce615e3cab49e46d73b7081c2162fa>@@@Z
A7A86 12 __catch$??0?$scope_guard@V<lambda_1e3991e49a59cd1049111e3bc6279b73>@@V<lambda_d9ce615e3cab49e46d73b7081c2162fa>@@@detail@Sysutils@@QAE@$$QAV<lambda_1e3991e49a59cd1049111e3bc6279b73>@@$$QAV<lambda_d9ce615e3cab49e46d73b7081c2162fa>@@@Z$0
A7AA0 12 ??0?$scope_guard@V<lambda_96328b4bbdb97191a8d46e43df477df7>@@V<lambda_2ef0a56a9158ea7628d087363e79cd98>@@@detail@Sysutils@@QAE@$$QAV<lambda_96328b4bbdb97191a8d46e43df477df7>@@$$QAV<lambda_2ef0a56a9158ea7628d087363e79cd98>@@@Z
A7B35 12 __catch$??0?$scope_guard@V<lambda_96328b4bbdb97191a8d46e43df477df7>@@V<lambda_2ef0a56a9158ea7628d087363e79cd98>@@@detail@Sysutils@@QAE@$$QAV<lambda_96328b4bbdb97191a8d46e43df477df7>@@$$QAV<lambda_2ef0a56a9158ea7628d087363e79cd98>@@@Z$0
A7B50 12 ??0?$scope_guard@V<lambda_3e11034d9832fe3b21d5278442f204b3>@@V<lambda_37d935112868287931eb1c4e9a05481e>@@@detail@Sysutils@@QAE@$$QAV<lambda_3e11034d9832fe3b21d5278442f204b3>@@$$QAV<lambda_37d935112868287931eb1c4e9a05481e>@@@Z
A7BC8 12 __catch$??0?$scope_guard@V<lambda_3e11034d9832fe3b21d5278442f204b3>@@V<lambda_37d935112868287931eb1c4e9a05481e>@@@detail@Sysutils@@QAE@$$QAV<lambda_3e11034d9832fe3b21d5278442f204b3>@@$$QAV<lambda_37d935112868287931eb1c4e9a05481e>@@@Z$0
A7BF0 12 ??0?$scope_guard@V<lambda_d1a2cc34be3237b500b67926cf045c1f>@@V<lambda_efac4d054c0598b2cecd37fa186e2fbd>@@@detail@Sysutils@@QAE@$$QAV<lambda_d1a2cc34be3237b500b67926cf045c1f>@@$$QAV<lambda_efac4d054c0598b2cecd37fa186e2fbd>@@@Z
A7C68 12 __catch$??0?$scope_guard@V<lambda_d1a2cc34be3237b500b67926cf045c1f>@@V<lambda_efac4d054c0598b2cecd37fa186e2fbd>@@@detail@Sysutils@@QAE@$$QAV<lambda_d1a2cc34be3237b500b67926cf045c1f>@@$$QAV<lambda_efac4d054c0598b2cecd37fa186e2fbd>@@@Z$0
A7C90 12 ??0?$scope_guard@V<lambda_7d94b5409289f54d3300272e9646b79f>@@V<lambda_b28632efbc62a32d01528f713393554c>@@@detail@Sysutils@@QAE@$$QAV<lambda_7d94b5409289f54d3300272e9646b79f>@@$$QAV<lambda_b28632efbc62a32d01528f713393554c>@@@Z
A7D4E 12 __catch$??0?$scope_guard@V<lambda_7d94b5409289f54d3300272e9646b79f>@@V<lambda_b28632efbc62a32d01528f713393554c>@@@detail@Sysutils@@QAE@$$QAV<lambda_7d94b5409289f54d3300272e9646b79f>@@$$QAV<lambda_b28632efbc62a32d01528f713393554c>@@@Z$0
A7D60 12 ??0?$scope_guard@V<lambda_702f470ea8983e7c03371d0c2b8958cf>@@V<lambda_f435b875060e1c5ea67ba69801cd8f04>@@@detail@Sysutils@@QAE@$$QAV<lambda_702f470ea8983e7c03371d0c2b8958cf>@@$$QAV<lambda_f435b875060e1c5ea67ba69801cd8f04>@@@Z
A7DD8 12 __catch$??0?$scope_guard@V<lambda_702f470ea8983e7c03371d0c2b8958cf>@@V<lambda_f435b875060e1c5ea67ba69801cd8f04>@@@detail@Sysutils@@QAE@$$QAV<lambda_702f470ea8983e7c03371d0c2b8958cf>@@$$QAV<lambda_f435b875060e1c5ea67ba69801cd8f04>@@@Z$0
A7E00 12 ??0?$scope_guard@V<lambda_27c28278e92d7161f9375766873f84f7>@@V<lambda_d3915f62a85b31ddcb6e5388a04e294f>@@@detail@Sysutils@@QAE@$$QAV<lambda_27c28278e92d7161f9375766873f84f7>@@$$QAV<lambda_d3915f62a85b31ddcb6e5388a04e294f>@@@Z
A7E78 12 __catch$??0?$scope_guard@V<lambda_27c28278e92d7161f9375766873f84f7>@@V<lambda_d3915f62a85b31ddcb6e5388a04e294f>@@@detail@Sysutils@@QAE@$$QAV<lambda_27c28278e92d7161f9375766873f84f7>@@$$QAV<lambda_d3915f62a85b31ddcb6e5388a04e294f>@@@Z$0
A7EA0 12 ??0?$scope_guard@V<lambda_6f233f60432c34e677f04ffe422000dd>@@V<lambda_4873c857fa07dc279502edd3b6b0ed16>@@@detail@Sysutils@@QAE@$$QAV<lambda_6f233f60432c34e677f04ffe422000dd>@@$$QAV<lambda_4873c857fa07dc279502edd3b6b0ed16>@@@Z
A7F19 12 __catch$??0?$scope_guard@V<lambda_6f233f60432c34e677f04ffe422000dd>@@V<lambda_4873c857fa07dc279502edd3b6b0ed16>@@@detail@Sysutils@@QAE@$$QAV<lambda_6f233f60432c34e677f04ffe422000dd>@@$$QAV<lambda_4873c857fa07dc279502edd3b6b0ed16>@@@Z$0
A7F28 12 ??_9TConfiguration@@$BBA@AE
A7F2D 12 ??_9TConfiguration@@$BDE@AE
A7F32 12 ??_9TConfiguration@@$BBI@AE
A7F40 12 ??_9TConfiguration@@$BM@AE
A7F45 12 ??_9TConfiguration@@$BBM@AE
A7F50 56 ??0ETerminal@@QAE@ABVUnicodeString@@0@Z
A7FF0 56 ?is@EScp@@UBE_NG@Z
A8020 56 ??1EScp@@UAE@XZ
A8030 56 ?Clone@EScp@@UBEPAVExtException@@XZ
A80C0 56 ?Rethrow@EScp@@UAEXXZ
A80E0 0 ??_EEScp@@UAEPAXI@Z
A8120 56 ??0EScp@@QAE@GPBVException@@@Z
A8140 56 ??0EScp@@QAE@ABV0@@Z
A81C0 56 ?is@TCustomFileSystem@@UBE_NG@Z
A81E0 55 ?CreateLink@TS3FileSystem@@UAEXABVUnicodeString@@0_N@Z
A81F0 56 ?is@TSCPFileSystem@@UBE_NG@Z
A8220 72 ?ChangeFileProperties@TWebDAVFileSystem@@UAEXABVUnicodeString@@PBVTRemoteFile@@PBVTRemoteProperties@@AAVTChmodSessionAction@@@Z
A8230 20 ?GetModalResult@TFarButton@@UBEHXZ
A8240 56 ?GetFileName@TFileOperationProgressType@@QBE?AVUnicodeString@@XZ
A8260 56 ?is@EScpFileSkipped@@UBE_NG@Z
A8290 56 ?Clone@EScpFileSkipped@@UBEPAVExtException@@XZ
A8320 56 ?Rethrow@EScpFileSkipped@@UAEXXZ
A8340 56 ??0EScpFileSkipped@@QAE@GPBVException@@@Z
A8360 56 ??0EScpFileSkipped@@QAE@ABV0@@Z
A83E0 0 ??_ETCommandSet@@UAEPAXI@Z
A8450 56 ?GetCommands@TCommandSet@@QBE?AVUnicodeString@@W4TFSCommand@@@Z
A84C0 56 ?Command@TCommandSet@@QAE?AVUnicodeString@@W4TFSCommand@@VArgList@fmt@@@Z
A8580 56 ?FullCommand@TCommandSet@@QAE?AVUnicodeString@@W4TFSCommand@@VArgList@fmt@@@Z
A8850 56 ?GetFirstLine@TCommandSet@@QBE?AVUnicodeString@@XZ
A88B0 56 ?GetLastLine@TCommandSet@@QBE?AVUnicodeString@@XZ
A8910 56 ?GetReturnVar@TCommandSet@@QBE?AVUnicodeString@@XZ
A8A10 56 ?ExtractCommand@TCommandSet@@SA?AVUnicodeString@@ABV2@@Z
A8AD0 56 ?CreateCommandList@TCommandSet@@QBEPAVTStrings@@XZ
A8CB0 56 ??0TSCPFileSystem@@QAE@PAVTTerminal@@@Z
A8DC0 56 ??1TFileSystemInfo@@QAE@XZ
A8E80 56 ?Init@TSCPFileSystem@@UAEXPAX@Z
A90C0 56 ?Open@TSCPFileSystem@@UAEXXZ
A90D0 56 ?Close@TSCPFileSystem@@UAEXXZ
A90E0 56 ?GetActive@TSCPFileSystem@@UBE_NXZ
A90F0 56 ?CollectUsage@TSCPFileSystem@@UAEXXZ
A9100 56 ?GetSessionInfo@TSCPFileSystem@@UBEABUTSessionInfo@@XZ
A9120 56 ?GetFileSystemInfo@TSCPFileSystem@@UAEABUTFileSystemInfo@@_N@Z
A91D0 56 ??R<lambda_c8d2a55a97fd0c921ed44ed8b242e6a9>@@QBE@XZ
A938E 56 __catch$??R<lambda_c8d2a55a97fd0c921ed44ed8b242e6a9>@@QBE@XZ$0
A93D0 56 ??R<lambda_4693e5a53ba25e7c0dc043616a428424>@@QBE@XZ
A9450 56 ?GetStoredCredentialsTried@TSCPFileSystem@@UBE_NXZ
A9480 56 ?GetUserName@TSCPFileSystem@@UBE?AVUnicodeString@@XZ
A94A0 56 ?Idle@TSCPFileSystem@@UAEXXZ
A95B0 56 ?AbsolutePath@TSCPFileSystem@@UAE?AVUnicodeString@@ABV2@_N@Z
A9650 56 ?IsCapable@TSCPFileSystem@@UBE_NH@Z
A9690 56 $LN45
A96A4 56 $LN44
A96D0 56 ?EnsureLocation@TSCPFileSystem@@AAEXXZ
A9839 56 __catch$?EnsureLocation@TSCPFileSystem@@AAEXXZ$0
A9860 56 ?SendCommand@TSCPFileSystem@@AAEXABVUnicodeString@@_N@Z
A99D0 56 ?IsTotalListingLine@TSCPFileSystem@@CA_NABVUnicodeString@@@Z
A9AC0 56 ?RemoveLastLine@TSCPFileSystem@@CA_NAAVUnicodeString@@AAHABV2@@Z
A9C30 56 ?IsLastLine@TSCPFileSystem@@AAE_NAAVUnicodeString@@@Z
A9CD0 56 ?SkipFirstLine@TSCPFileSystem@@AAEXXZ
A9E10 56 ?ReadCommandOutput@TSCPFileSystem@@AAEXHPBVUnicodeString@@@Z
A9E50 56 ??R<lambda_f5c6bd3626049fab13b735800c407129>@@QBE@XZ
AA270 56 ??R<lambda_8e156c0136049830c183bc15890336d0>@@QBE@XZ
AA280 56 ?InvalidOutputError@TSCPFileSystem@@AAEXABVUnicodeString@@@Z
AA2D0 56 ?ExecCommand@TSCPFileSystem@@AAEXW4TFSCommand@@HVArgList@fmt@@@Z
AA470 56 ?GetCurrentDirectory@TSCPFileSystem@@MBE?AVUnicodeString@@XZ
AA490 56 ?DoStartup@TSCPFileSystem@@UAEXXZ
AA52C 56 __catch$?DoStartup@TSCPFileSystem@@UAEXXZ$0
AA5F0 56 ?DetectUtf@TSCPFileSystem@@AAEXXZ
AA714 56 __catch$?DetectUtf@TSCPFileSystem@@AAEXXZ$0
AA7E0 56 ?SkipStartupMessage@TSCPFileSystem@@AAEXXZ
AA89C 56 __catch$?SkipStartupMessage@TSCPFileSystem@@AAEXXZ$0
AA900 56 ?LookupUsersGroups@TSCPFileSystem@@UAEXXZ
AAB40 56 ?DetectReturnVar@TSCPFileSystem@@AAEXXZ
AAD9B 56 __catch$?DetectReturnVar@TSCPFileSystem@@AAEXXZ$1
AAE8E 56 __catch$?DetectReturnVar@TSCPFileSystem@@AAEXXZ$3
AAF0F 56 __catch$?DetectReturnVar@TSCPFileSystem@@AAEXXZ$0
AAF20 56 ?ClearAliases@TSCPFileSystem@@AAEXXZ
AB0AF 56 __catch$?ClearAliases@TSCPFileSystem@@AAEXXZ$0
AB0F0 56 ?UnsetNationalVars@TSCPFileSystem@@AAEXXZ
AB224 56 __catch$?UnsetNationalVars@TSCPFileSystem@@AAEXXZ$0
AB270 56 ?ReadCurrentDirectory@TSCPFileSystem@@UAEXXZ
AB380 56 ?HomeDirectory@TSCPFileSystem@@UAEXXZ
AB3C0 56 ?ChangeDirectory@TSCPFileSystem@@UAEXABVUnicodeString@@@Z
AB42E 56 __catch$?ChangeDirectory@TSCPFileSystem@@UAEXABVUnicodeString@@@Z$0
AB6D0 56 ?CachedChangeDirectory@TSCPFileSystem@@UAEXABVUnicodeString@@@Z
AB730 56 ?ReadDirectory@TSCPFileSystem@@UAEXPAVTRemoteFileList@@@Z
ABB9F 56 __catch$?ReadDirectory@TSCPFileSystem@@UAEXPAVTRemoteFileList@@@Z$0
ABCB0 56 ??R<lambda_bd20c1898cfc43d5f4c5f9ee8f1bef61>@@QBE@XZ
ABEC0 56 ?ReadSymlink@TSCPFileSystem@@UAEXPAVTRemoteFile@@AAPAV2@@Z
ABF60 56 ?ReadFile@TSCPFileSystem@@UAEXABVUnicodeString@@AAPAVTRemoteFile@@@Z
ABF80 56 ?CreateRemoteFile@TSCPFileSystem@@AAEPAVTRemoteFile@@ABVUnicodeString@@PAV2@@Z
AC020 56 ??R<lambda_e19e85522e7fad0c9452bb1764c1d08f>@@QBE@XZ
AC0E0 56 ?CustomReadFile@TSCPFileSystem@@AAEXABVUnicodeString@@AAPAVTRemoteFile@@PAV3@@Z
AC380 56 ?DeleteFileW@TSCPFileSystem@@UAEXABVUnicodeString@@PBVTRemoteFile@@HAAVTRmSessionAction@@@Z
AC430 56 ?RenameFile@TSCPFileSystem@@UAEXABVUnicodeString@@PBVTRemoteFile@@0_N@Z
AC520 56 ?CopyFileW@TSCPFileSystem@@UAEXABVUnicodeString@@PBVTRemoteFile@@0_N@Z
AC697 56 __catch$?CopyFileW@TSCPFileSystem@@UAEXABVUnicodeString@@PBVTRemoteFile@@0_N@Z$0
AC720 56 ?CreateDirectoryW@TSCPFileSystem@@UAEXABVUnicodeString@@_N@Z
AC7C0 56 ?CreateLink@TSCPFileSystem@@UAEXABVUnicodeString@@0_N@Z
AC8C0 56 ?ChangeFileToken@TSCPFileSystem@@AAEXABVUnicodeString@@ABVTRemoteToken@@W4TFSCommand@@0@Z
AC9F0 56 ?ChangeFileProperties@TSCPFileSystem@@UAEXABVUnicodeString@@PBVTRemoteFile@@PBVTRemoteProperties@@AAVTChmodSessionAction@@@Z
ACCC0 56 ?CalculateFilesChecksumInitialize@TSCPFileSystem@@UAE?AVUnicodeString@@ABV2@@Z
ACD70 56 ?ParseFileChecksum@TSCPFileSystem@@AAE?AVUnicodeString@@ABV2@00@Z
ACF00 56 ?ProcessFileChecksum@TSCPFileSystem@@AAEX$$QAV?$FastDelegate3@XABVUnicodeString@@ABV1@ABV1@@fastdelegate@@AAVTChecksumSessionAction@@PAVTFileOperationProgressType@@_NABVUnicodeString@@44@Z
ACFB0 56 ?CalculateFilesChecksum@TSCPFileSystem@@UAEXABVUnicodeString@@PAVTStrings@@$$QAV?$FastDelegate3@XABVUnicodeString@@ABV1@ABV1@@fastdelegate@@PAVTFileOperationProgressType@@_N@Z
AD510 56 __catch$?CalculateFilesChecksum@TSCPFileSystem@@UAEXABVUnicodeString@@PAVTStrings@@$$QAV?$FastDelegate3@XABVUnicodeString@@ABV1@ABV1@@fastdelegate@@PAVTFileOperationProgressType@@_N@Z$0
AD6AA 56 __catch$?CalculateFilesChecksum@TSCPFileSystem@@UAEXABVUnicodeString@@PAVTStrings@@$$QAV?$FastDelegate3@XABVUnicodeString@@ABV1@ABV1@@fastdelegate@@PAVTFileOperationProgressType@@_N@Z$2
AD7D0 56 ??R<lambda_f4cbc68d7bd9641432b682d4e07a7cf2>@@QBE@XZ
AD9D0 56 ??R<lambda_b71b48bf4bab5eeecdb9ccac87b28d5c>@@QBE@XZ
ADA00 56 ?CustomCommandOnFile@TSCPFileSystem@@UAEXABVUnicodeString@@PBVTRemoteFile@@0H$$QAV?$FastDelegate2@XABVUnicodeString@@W4TCaptureOutputType@@@fastdelegate@@@Z
ADC80 56 ?CaptureOutput@TSCPFileSystem@@AAEXABVUnicodeString@@W4TCaptureOutputType@@@Z
ADDC0 56 ?AnyCommand@TSCPFileSystem@@UAEXABVUnicodeString@@$$QAV?$FastDelegate2@XABVUnicodeString@@W4TCaptureOutputType@@@fastdelegate@@@Z
ADE40 56 ??R<lambda_f222398d53ead24ac1f02afe81af1b8a>@@QBE@XZ
ADE70 56 ?ConfirmOverwrite@TSCPFileSystem@@AAEIABVUnicodeString@@0W4TOperationSide@@PBUTOverwriteFileParams@@PBVTCopyParamType@@HPAVTFileOperationProgressType@@@Z
AE100 56 ??4TQueryButtonAlias@@QAEAAU0@$$QAU0@@Z
AE170 56 ?SCPResponse@TSCPFileSystem@@AAEXPA_N@Z
AE4F9 56 __catch$?SCPResponse@TSCPFileSystem@@AAEXPA_N@Z$0
AE5B0 56 ??0EScpFileSkipped@@QAE@PBVException@@ABVUnicodeString@@1@Z
AE5E0 56 ??0EScp@@QAE@PBVException@@ABVUnicodeString@@1@Z
AE610 56 ?CopyToRemote@TSCPFileSystem@@UAEXPAVTStrings@@ABVUnicodeString@@PBVTCopyParamType@@HPAVTFileOperationProgressType@@AAW4TOnceDoneOperation@@@Z
AE920 56 ??R<lambda_b6b1edb6e5490cf39b4e116ec3a2c6df>@@QBE@XZ
AEE40 56 __catch$??R<lambda_b6b1edb6e5490cf39b4e116ec3a2c6df>@@QBE@XZ$2
AEF2B 56 __catch$??R<lambda_b6b1edb6e5490cf39b4e116ec3a2c6df>@@QBE@XZ$3
AF039 56 __catch$??R<lambda_b6b1edb6e5490cf39b4e116ec3a2c6df>@@QBE@XZ$0
AF0C2 56 __catch$??R<lambda_b6b1edb6e5490cf39b4e116ec3a2c6df>@@QBE@XZ$4
AF0F0 56 ??R<lambda_5f54b635453a2b4dc5ab237d932daf09>@@QBE@XZ
AF1FE 56 __catch$??R<lambda_5f54b635453a2b4dc5ab237d932daf09>@@QBE@XZ$0
AF220 56 ?Source@TSCPFileSystem@@UAEXAAUTLocalFileHandle@@ABVUnicodeString@@AAV3@PBVTCopyParamType@@HPAVTFileOperationProgressType@@IAAVTUploadSessionAction@@AA_N@Z
AF230 56 ?SCPSource@TSCPFileSystem@@AAEXABVUnicodeString@@0PBVTCopyParamType@@HPAVTFileOperationProgressType@@H@Z
AFC77 56 __catch$?SCPSource@TSCPFileSystem@@AAEXABVUnicodeString@@0PBVTCopyParamType@@HPAVTFileOperationProgressType@@H@Z$0
AFD0E 56 __catch$?SCPSource@TSCPFileSystem@@AAEXABVUnicodeString@@0PBVTCopyParamType@@HPAVTFileOperationProgressType@@H@Z$5
AFF54 56 __catch$?SCPSource@TSCPFileSystem@@AAEXABVUnicodeString@@0PBVTCopyParamType@@HPAVTFileOperationProgressType@@H@Z$2
AFFB0 56 ?SCPDirectorySource@TSCPFileSystem@@AAEXABVUnicodeString@@0PBVTCopyParamType@@HPAVTFileOperationProgressType@@H@Z
B029F 56 __catch$?SCPDirectorySource@TSCPFileSystem@@AAEXABVUnicodeString@@0PBVTCopyParamType@@HPAVTFileOperationProgressType@@H@Z$0
B0330 56 ??R<lambda_b85840620dd92e953488e9c158b65bff>@@QBE@XZ
B04F5 56 __catch$??R<lambda_b85840620dd92e953488e9c158b65bff>@@QBE@XZ$0
B05EB 56 __catch$??R<lambda_b85840620dd92e953488e9c158b65bff>@@QBE@XZ$1
B0770 56 __catch$??R<lambda_b85840620dd92e953488e9c158b65bff>@@QBE@XZ$3
B0820 56 ??R<lambda_09b8687e8d8f0c18602017c485a2a193>@@QBE@XZ
B09E0 56 ?CopyToLocal@TSCPFileSystem@@UAEXPAVTStrings@@ABVUnicodeString@@PBVTCopyParamType@@HPAVTFileOperationProgressType@@AAW4TOnceDoneOperation@@@Z
B0C00 56 ??R<lambda_fc661cc0f2982e852cb5b3ce1f220804>@@QBE@XZ
B0EFA 56 __catch$??R<lambda_fc661cc0f2982e852cb5b3ce1f220804>@@QBE@XZ$1
B0F98 56 __catch$??R<lambda_fc661cc0f2982e852cb5b3ce1f220804>@@QBE@XZ$3
B0FC4 56 __catch$??R<lambda_fc661cc0f2982e852cb5b3ce1f220804>@@QBE@XZ$0
B0FD0 56 ??R<lambda_7e3ce903caa329e2fedb26550163e102>@@QBE@XZ
B102F 56 __catch$??R<lambda_7e3ce903caa329e2fedb26550163e102>@@QBE@XZ$0
B10B0 56 ??R<lambda_88a0007f24dc57d8f6bdf9b62dbd6ea4>@@QBE@XZ
B1210 56 ?Sink@TSCPFileSystem@@UAEXABVUnicodeString@@PBVTRemoteFile@@0AAV2@HPBVTCopyParamType@@HPAVTFileOperationProgressType@@IAAVTDownloadSessionAction@@@Z
B1220 56 ?SCPError@TSCPFileSystem@@AAEXABVUnicodeString@@_N@Z
B1290 56 ?SCPSendError@TSCPFileSystem@@AAEXABVUnicodeString@@_N@Z
B1420 56 ?SCPSink@TSCPFileSystem@@AAEXABVUnicodeString@@00PBVTCopyParamType@@AA_NPAVTFileOperationProgressType@@HH@Z
B1631 56 __catch$?SCPSink@TSCPFileSystem@@AAEXABVUnicodeString@@00PBVTCopyParamType@@AA_NPAVTFileOperationProgressType@@HH@Z$0
B1D23 56 __catch$?SCPSink@TSCPFileSystem@@AAEXABVUnicodeString@@00PBVTCopyParamType@@AA_NPAVTFileOperationProgressType@@HH@Z$4
B1FDF 56 __catch$?SCPSink@TSCPFileSystem@@AAEXABVUnicodeString@@00PBVTCopyParamType@@AA_NPAVTFileOperationProgressType@@HH@Z$8
B206F 56 __catch$?SCPSink@TSCPFileSystem@@AAEXABVUnicodeString@@00PBVTCopyParamType@@AA_NPAVTFileOperationProgressType@@HH@Z$10
B2189 56 __catch$?SCPSink@TSCPFileSystem@@AAEXABVUnicodeString@@00PBVTCopyParamType@@AA_NPAVTFileOperationProgressType@@HH@Z$11
B2415 56 __catch$?SCPSink@TSCPFileSystem@@AAEXABVUnicodeString@@00PBVTCopyParamType@@AA_NPAVTFileOperationProgressType@@HH@Z$6
B2440 56 __catch$?SCPSink@TSCPFileSystem@@AAEXABVUnicodeString@@00PBVTCopyParamType@@AA_NPAVTFileOperationProgressType@@HH@Z$2
B24A4 56 $LN1653
B24BC 56 $LN1652
B2510 56 ??R<lambda_7de8c65c38b694b449d2070d29141d13>@@QBE@XZ
B2A09 56 __catch$??R<lambda_7de8c65c38b694b449d2070d29141d13>@@QBE@XZ$2
B2A8D 56 __catch$??R<lambda_7de8c65c38b694b449d2070d29141d13>@@QBE@XZ$4
B2B66 56 __catch$??R<lambda_7de8c65c38b694b449d2070d29141d13>@@QBE@XZ$0
B2BDB 56 __catch$??R<lambda_7de8c65c38b694b449d2070d29141d13>@@QBE@XZ$6
B2C00 56 ??R<lambda_f1e2a624a43d622ebcbf8dda3c582c2b>@@QBE@XZ
B2C40 56 ??1TFileData@?1??SCPSink@TSCPFileSystem@@AAEXABVUnicodeString@@00PBVTCopyParamType@@AA_NPAVTFileOperationProgressType@@HH@Z@QAE@XZ
B2C80 56 ?GetSupportedChecksumAlgs@TSCPFileSystem@@UAEXPAVTStrings@@@Z
B2C90 56 ?InitOptionsStr@TSCPFileSystem@@IBE?AVUnicodeString@@PBVTCopyParamType@@@Z
B2D30 56 ??1?$unique_ptr@VTSafeHandleStream@@U?$default_delete@VTSafeHandleStream@@@std@@@std@@QAE@XZ
B2D60 56 ??1?$unique_ptr@VTCommandSet@@U?$default_delete@VTCommandSet@@@std@@@std@@QAE@XZ
B2DB0 0 ??_ETSafeHandleStream@@UAEPAXI@Z
B2E00 29 ??$bind@VTCustomFileSystem@@V1@VUnicodeString@@@fastdelegate@@YA?AV?$FastDelegate@$$A6A?AVUnicodeString@@XZ@0@P8TCustomFileSystem@@BE?AVUnicodeString@@XZPAV2@ZZ
B2E20 56 ??$ExecCommand@$$V@TSCPFileSystem@@AAEXW4TFSCommand@@H@Z
B2E60 56 ??$FmtLoadStr@VUnicodeString@@V?$ROProperty@VUnicodeString@@@@@nb@@YA?AVUnicodeString@@HABV1@ABV?$ROProperty@VUnicodeString@@@@@Z
B2ED0 56 ??$ExecCommand@VUnicodeString@@@TSCPFileSystem@@AAEXW4TFSCommand@@HABVUnicodeString@@@Z
B2F20 56 ??$ExecCommand@VUnicodeString@@_N@TSCPFileSystem@@AAEXW4TFSCommand@@HABVUnicodeString@@AB_N@Z
B2F80 56 ??$ExecCommand@VUnicodeString@@H@TSCPFileSystem@@AAEXW4TFSCommand@@HABVUnicodeString@@ABH@Z
B2FF0 56 ??$ExecCommand@VUnicodeString@@V1@@TSCPFileSystem@@AAEXW4TFSCommand@@HABVUnicodeString@@1@Z
B3050 56 ??$ExecCommand@VUnicodeString@@V1@V1@@TSCPFileSystem@@AAEXW4TFSCommand@@HABVUnicodeString@@11@Z
B30E0 56 ??$ExecCommand@$$BY00_WVUnicodeString@@V1@@TSCPFileSystem@@AAEXW4TFSCommand@@HAAY00$$CB_WABVUnicodeString@@2@Z
B3170 56 ??$ExecCommand@PB_WVUnicodeString@@V1@@TSCPFileSystem@@AAEXW4TFSCommand@@HABQB_WABVUnicodeString@@2@Z
B3210 56 ??$FmtLoadStr@V?$RWProperty@VUnicodeString@@@@@nb@@YA?AVUnicodeString@@HABV?$RWProperty@VUnicodeString@@@@@Z
B3270 56 ??$FullCommand@VUnicodeString@@V1@@TCommandSet@@QAE?AVUnicodeString@@W4TFSCommand@@ABV1@1@Z
B32D0 56 ??$make_unique@VTSafeHandleStream@@AAPAX$0A@@std@@YA?AV?$unique_ptr@VTSafeHandleStream@@U?$default_delete@VTSafeHandleStream@@@std@@@0@AAPAX@Z
B3320 56 ??$Sprintf@II@nb@@YA?AVUnicodeString@@ABV1@ABI1@Z
B3390 56 ??$Sprintf@VUnicodeString@@_JV1@@nb@@YA?AVUnicodeString@@ABV1@0AB_J0@Z
B3420 56 ??$Sprintf@_J@nb@@YA?AVUnicodeString@@ABV1@AB_J@Z
B3480 56 ??$Sprintf@HVUnicodeString@@@nb@@YA?AVUnicodeString@@ABV1@ABH0@Z
B34F0 56 ??$FmtLoadStr@_WVUnicodeString@@@nb@@YA?AVUnicodeString@@HAB_WABV1@@Z
B3560 56 ??0?$scope_guard@V<lambda_7de8c65c38b694b449d2070d29141d13>@@V<lambda_f1e2a624a43d622ebcbf8dda3c582c2b>@@@detail@Sysutils@@QAE@$$QAV<lambda_7de8c65c38b694b449d2070d29141d13>@@$$QAV<lambda_f1e2a624a43d622ebcbf8dda3c582c2b>@@@Z
B3612 56 __catch$??0?$scope_guard@V<lambda_7de8c65c38b694b449d2070d29141d13>@@V<lambda_f1e2a624a43d622ebcbf8dda3c582c2b>@@@detail@Sysutils@@QAE@$$QAV<lambda_7de8c65c38b694b449d2070d29141d13>@@$$QAV<lambda_f1e2a624a43d622ebcbf8dda3c582c2b>@@@Z$0
B3630 56 ??0?$scope_guard@V<lambda_fc661cc0f2982e852cb5b3ce1f220804>@@V<lambda_88a0007f24dc57d8f6bdf9b62dbd6ea4>@@@detail@Sysutils@@QAE@$$QAV<lambda_fc661cc0f2982e852cb5b3ce1f220804>@@$$QAV<lambda_88a0007f24dc57d8f6bdf9b62dbd6ea4>@@@Z
B36BA 56 __catch$??0?$scope_guard@V<lambda_fc661cc0f2982e852cb5b3ce1f220804>@@V<lambda_88a0007f24dc57d8f6bdf9b62dbd6ea4>@@@detail@Sysutils@@QAE@$$QAV<lambda_fc661cc0f2982e852cb5b3ce1f220804>@@$$QAV<lambda_88a0007f24dc57d8f6bdf9b62dbd6ea4>@@@Z$0
B36E0 56 ??0?$scope_guard@V<lambda_7e3ce903caa329e2fedb26550163e102>@@V<lambda_4693e5a53ba25e7c0dc043616a428424>@@@detail@Sysutils@@QAE@$$QAV<lambda_7e3ce903caa329e2fedb26550163e102>@@$$QAV<lambda_4693e5a53ba25e7c0dc043616a428424>@@@Z
B3752 56 __catch$??0?$scope_guard@V<lambda_7e3ce903caa329e2fedb26550163e102>@@V<lambda_4693e5a53ba25e7c0dc043616a428424>@@@detail@Sysutils@@QAE@$$QAV<lambda_7e3ce903caa329e2fedb26550163e102>@@$$QAV<lambda_4693e5a53ba25e7c0dc043616a428424>@@@Z$0
B3770 56 ??0?$scope_guard@V<lambda_b85840620dd92e953488e9c158b65bff>@@V<lambda_09b8687e8d8f0c18602017c485a2a193>@@@detail@Sysutils@@QAE@$$QAV<lambda_b85840620dd92e953488e9c158b65bff>@@$$QAV<lambda_09b8687e8d8f0c18602017c485a2a193>@@@Z
B37F2 56 __catch$??0?$scope_guard@V<lambda_b85840620dd92e953488e9c158b65bff>@@V<lambda_09b8687e8d8f0c18602017c485a2a193>@@@detail@Sysutils@@QAE@$$QAV<lambda_b85840620dd92e953488e9c158b65bff>@@$$QAV<lambda_09b8687e8d8f0c18602017c485a2a193>@@@Z$0
B3810 56 ??0?$scope_guard@V<lambda_b6b1edb6e5490cf39b4e116ec3a2c6df>@@V<lambda_5f54b635453a2b4dc5ab237d932daf09>@@@detail@Sysutils@@QAE@$$QAV<lambda_b6b1edb6e5490cf39b4e116ec3a2c6df>@@$$QAV<lambda_5f54b635453a2b4dc5ab237d932daf09>@@@Z
B389A 56 __catch$??0?$scope_guard@V<lambda_b6b1edb6e5490cf39b4e116ec3a2c6df>@@V<lambda_5f54b635453a2b4dc5ab237d932daf09>@@@detail@Sysutils@@QAE@$$QAV<lambda_b6b1edb6e5490cf39b4e116ec3a2c6df>@@$$QAV<lambda_5f54b635453a2b4dc5ab237d932daf09>@@@Z$0
B38C0 56 ??0?$scope_guard@V<lambda_fffc137b2ff4b666bd1b15a4ccb131fc>@@V<lambda_f222398d53ead24ac1f02afe81af1b8a>@@@detail@Sysutils@@QAE@$$QAV<lambda_fffc137b2ff4b666bd1b15a4ccb131fc>@@$$QAV<lambda_f222398d53ead24ac1f02afe81af1b8a>@@@Z
B3982 56 __catch$??0?$scope_guard@V<lambda_fffc137b2ff4b666bd1b15a4ccb131fc>@@V<lambda_f222398d53ead24ac1f02afe81af1b8a>@@@detail@Sysutils@@QAE@$$QAV<lambda_fffc137b2ff4b666bd1b15a4ccb131fc>@@$$QAV<lambda_f222398d53ead24ac1f02afe81af1b8a>@@@Z$0
B39A0 56 ??0?$scope_guard@V<lambda_f4cbc68d7bd9641432b682d4e07a7cf2>@@V<lambda_b71b48bf4bab5eeecdb9ccac87b28d5c>@@@detail@Sysutils@@QAE@$$QAV<lambda_f4cbc68d7bd9641432b682d4e07a7cf2>@@$$QAV<lambda_b71b48bf4bab5eeecdb9ccac87b28d5c>@@@Z
B3A34 56 __catch$??0?$scope_guard@V<lambda_f4cbc68d7bd9641432b682d4e07a7cf2>@@V<lambda_b71b48bf4bab5eeecdb9ccac87b28d5c>@@@detail@Sysutils@@QAE@$$QAV<lambda_f4cbc68d7bd9641432b682d4e07a7cf2>@@$$QAV<lambda_b71b48bf4bab5eeecdb9ccac87b28d5c>@@@Z$0
B3A50 56 ??0?$scope_guard@V<lambda_e19e85522e7fad0c9452bb1764c1d08f>@@V<lambda_9c7413ec4ae394398270f97191f4ce11>@@@detail@Sysutils@@QAE@$$QAV<lambda_e19e85522e7fad0c9452bb1764c1d08f>@@$$QAV<lambda_9c7413ec4ae394398270f97191f4ce11>@@@Z
B3AAE 56 __catch$??0?$scope_guard@V<lambda_e19e85522e7fad0c9452bb1764c1d08f>@@V<lambda_9c7413ec4ae394398270f97191f4ce11>@@@detail@Sysutils@@QAE@$$QAV<lambda_e19e85522e7fad0c9452bb1764c1d08f>@@$$QAV<lambda_9c7413ec4ae394398270f97191f4ce11>@@@Z$0
B3AC0 56 ??0?$scope_guard@V<lambda_bd20c1898cfc43d5f4c5f9ee8f1bef61>@@V<lambda_79602b525fa9c8cfcbc223de4ca6f7b0>@@@detail@Sysutils@@QAE@$$QAV<lambda_bd20c1898cfc43d5f4c5f9ee8f1bef61>@@$$QAV<lambda_79602b525fa9c8cfcbc223de4ca6f7b0>@@@Z
B3B1E 56 __catch$??0?$scope_guard@V<lambda_bd20c1898cfc43d5f4c5f9ee8f1bef61>@@V<lambda_79602b525fa9c8cfcbc223de4ca6f7b0>@@@detail@Sysutils@@QAE@$$QAV<lambda_bd20c1898cfc43d5f4c5f9ee8f1bef61>@@$$QAV<lambda_79602b525fa9c8cfcbc223de4ca6f7b0>@@@Z$0
B3B30 56 ??0?$scope_guard@V<lambda_89b661588f2a2f8876f3fc07cc487195>@@V<lambda_d7a91beab0161c0cb39dc01adcd469e0>@@@detail@Sysutils@@QAE@$$QAV<lambda_89b661588f2a2f8876f3fc07cc487195>@@$$QAV<lambda_d7a91beab0161c0cb39dc01adcd469e0>@@@Z
B3C01 56 __catch$??0?$scope_guard@V<lambda_89b661588f2a2f8876f3fc07cc487195>@@V<lambda_d7a91beab0161c0cb39dc01adcd469e0>@@@detail@Sysutils@@QAE@$$QAV<lambda_89b661588f2a2f8876f3fc07cc487195>@@$$QAV<lambda_d7a91beab0161c0cb39dc01adcd469e0>@@@Z$0
B3C10 56 ??0?$scope_guard@V<lambda_f5c6bd3626049fab13b735800c407129>@@V<lambda_8e156c0136049830c183bc15890336d0>@@@detail@Sysutils@@QAE@$$QAV<lambda_f5c6bd3626049fab13b735800c407129>@@$$QAV<lambda_8e156c0136049830c183bc15890336d0>@@@Z
B3C82 56 __catch$??0?$scope_guard@V<lambda_f5c6bd3626049fab13b735800c407129>@@V<lambda_8e156c0136049830c183bc15890336d0>@@@detail@Sysutils@@QAE@$$QAV<lambda_f5c6bd3626049fab13b735800c407129>@@$$QAV<lambda_8e156c0136049830c183bc15890336d0>@@@Z$0
B3CA0 56 ??0?$scope_guard@V<lambda_c8d2a55a97fd0c921ed44ed8b242e6a9>@@V<lambda_c3b64ea7b5c742489e0297e9d8bbd4c2>@@@detail@Sysutils@@QAE@$$QAV<lambda_c8d2a55a97fd0c921ed44ed8b242e6a9>@@$$QAV<lambda_c3b64ea7b5c742489e0297e9d8bbd4c2>@@@Z
B3D16 56 __catch$??0?$scope_guard@V<lambda_c8d2a55a97fd0c921ed44ed8b242e6a9>@@V<lambda_c3b64ea7b5c742489e0297e9d8bbd4c2>@@@detail@Sysutils@@QAE@$$QAV<lambda_c8d2a55a97fd0c921ed44ed8b242e6a9>@@$$QAV<lambda_c3b64ea7b5c742489e0297e9d8bbd4c2>@@@Z$0
B3D30 56 ??_ETSCPFileSystem@@W7AEPAXI@Z
B3D40 35 ?is@TFileTransferData@@UBE_NG@Z
B3D60 35 ??0TFileTransferData@@QAE@XZ
B3DC0 0 ??_ETFileTransferData@@UAEPAXI@Z
B3E30 35 ?is@TFTPFileSystem@@UBE_NG@Z
B3E60 35 ?Assign@TFTPServerCapabilities@@QAEXPAV1@@Z
B3FF0 0 ??_ETFileZillaImpl@@UAEPAXI@Z
B4060 35 ?Option@TFileZillaImpl@@UBEPB_WH@Z
B4070 35 ?OptionVal@TFileZillaImpl@@UBEHH@Z
B4080 35 ?DoPostMessage@TFileZillaImpl@@MAE_NW4TMessageType@TFileZillaIntf@@IJ@Z
B4170 35 ?HandleStatus@TFileZillaImpl@@MAE_NPB_WH@Z
B4180 35 ?HandleAsyncRequestOverwrite@TFileZillaImpl@@MAE_NPA_WIPB_W11_J22_NABUTRemoteFileTime@@PAXAAPAXAAH@Z
B41C0 35 ?HandleAsyncRequestVerifyCertificate@TFileZillaImpl@@MAE_NABUTFtpsCertificateData@@AAH@Z
B41D0 35 ?HandleAsyncRequestNeedPass@TFileZillaImpl@@MAE_NAAUTNeedPassRequestData@@AAH@Z
B41E0 35 ?HandleListData@TFileZillaImpl@@MAE_NPB_WPBUTListDataEntry@@I@Z
B41F0 35 ?HandleTransferStatus@TFileZillaImpl@@MAE_N_N_J10@Z
B42F0 35 ?HandleReply@TFileZillaImpl@@MAE_NH_J@Z
B43E0 35 ?HandleCapabilities@TFileZillaImpl@@MAE_NPAVTFTPServerCapabilities@@@Z
B4400 35 ?CheckError@TFileZillaImpl@@MAE_NHPB_W@Z
B4410 35 ?PreserveDownloadFileTime@TFileZillaImpl@@MAEXPAX0@Z
B4430 35 ?GetFileModificationTimeInUtc@TFileZillaImpl@@MAE_NPB_WAAUtm@@@Z
B4440 35 ?LastSysErrorMessage@TFileZillaImpl@@MBEPA_WXZ
B44F0 35 ?GetClientString@TFileZillaImpl@@MBE?AV?$basic_string@_WU?$char_traits@_W@std@@V?$allocator@_W@2@@std@@XZ
B4650 35 ?SetupSsl@TFileZillaImpl@@MAEXPAUssl_st@@@Z
B4680 35 ?CustomReason@TFileZillaImpl@@MAE?AV?$basic_string@_WU?$char_traits@_W@std@@V?$allocator@_W@2@@std@@H@Z
B49A0 35 ??1TFTPFileListHelper@@UAE@XZ
B49C0 0 ??_ETFTPFileListHelper@@UAEPAXI@Z
B4A10 35 ??0TFTPFileSystem@@QAE@PAVTTerminal@@@Z
B4EF0 35 ?Init@TFTPFileSystem@@UAEXPAX@Z
B53B0 35 ??1TFTPFileSystem@@UAE@XZ
B5660 35 ?Open@TFTPFileSystem@@UAEXXZ
B5F90 35 __catch$?Open@TFTPFileSystem@@UAEXXZ$0
B61B0 35 ??R<lambda_5d628e4ec9c34e1c55041cb7f0c73445>@@QBE@XZ
B62F8 35 $LN77
B6310 35 ?Close@TFTPFileSystem@@UAEXXZ
B6450 35 ?GetActive@TFTPFileSystem@@UBE_NXZ
B6460 35 ?CollectUsage@TFTPFileSystem@@UAEXXZ
B7250 35 ?DummyReadDirectory@TFTPFileSystem@@IAEXABVUnicodeString@@@Z
B72E0 35 __catch$?DummyReadDirectory@TFTPFileSystem@@IAEXABVUnicodeString@@@Z$0
B7340 35 ?Idle@TFTPFileSystem@@UAEXXZ
B7470 35 ?Discard@TFTPFileSystem@@IAEXXZ
B7520 35 ?AbsolutePath@TFTPFileSystem@@UAE?AVUnicodeString@@ABV2@_N@Z
B75C0 35 ?GetActualCurrentDirectory@TFTPFileSystem@@IBE?AVUnicodeString@@XZ
B7800 35 ?EnsureLocation@TFTPFileSystem@@IAEXABVUnicodeString@@_N@Z
B7960 35 ?AnyCommand@TFTPFileSystem@@UAEXABVUnicodeString@@$$QAV?$FastDelegate2@XABVUnicodeString@@W4TCaptureOutputType@@@fastdelegate@@@Z
B79D0 35 ??R<lambda_e5ebe4fda190dd1b7e6c21a063ca2992>@@QBE@XZ
B79F0 35 ?AnnounceFileListOperation@TFTPFileSystem@@UAEXXZ
B7A10 35 ?SendCwd@TFTPFileSystem@@IAEXABVUnicodeString@@@Z
B7BB0 35 ?DoChangeDirectory@TFTPFileSystem@@IAEXABVUnicodeString@@@Z
B7EC0 35 ?ChangeDirectory@TFTPFileSystem@@UAEXABVUnicodeString@@@Z
B7F8B 35 __catch$?ChangeDirectory@TFTPFileSystem@@UAEXABVUnicodeString@@@Z$0
B7FE0 35 ?CachedChangeDirectory@TFTPFileSystem@@UAEXABVUnicodeString@@@Z
B8050 35 ?ChangeFileProperties@TFTPFileSystem@@UAEXABVUnicodeString@@PBVTRemoteFile@@PBVTRemoteProperties@@AAVTChmodSessionAction@@@Z
B8110 35 ??R<lambda_01a11ec739da884e833481a4e87e4d02>@@QBE@XZ
B8409 35 __catch$??R<lambda_01a11ec739da884e833481a4e87e4d02>@@QBE@XZ$0
B8420 35 ?DoCalculateFileChecksum@TFTPFileSystem@@IAE?AVUnicodeString@@ABV2@PBVTRemoteFile@@@Z
B8880 35 ?CalculateFilesChecksum@TFTPFileSystem@@UAEXABVUnicodeString@@PAVTStrings@@$$QAV?$FastDelegate3@XABVUnicodeString@@ABV1@ABV1@@fastdelegate@@PAVTFileOperationProgressType@@_N@Z
B8ADF 35 __catch$?CalculateFilesChecksum@TFTPFileSystem@@UAEXABVUnicodeString@@PAVTStrings@@$$QAV?$FastDelegate3@XABVUnicodeString@@ABV1@ABV1@@fastdelegate@@PAVTFileOperationProgressType@@_N@Z$0
B8BD0 35 ?CalculateFilesChecksumInitialize@TFTPFileSystem@@UAE?AVUnicodeString@@ABV2@@Z
B8E30 35 ?ConfirmOverwrite@TFTPFileSystem@@IAE_NABVUnicodeString@@AAV2@AAW4TOverwriteMode@@PAVTFileOperationProgressType@@PBUTOverwriteFileParams@@PBVTCopyParamType@@H_N@Z
B9430 35 ?DoFileTransferProgress@TFTPFileSystem@@IAEX_J0@Z
B9660 35 ?SetCPSLimit@TFTPFileSystem@@IAEXPAVTFileOperationProgressType@@@Z
B96B0 35 ?FileTransferProgress@TFTPFileSystem@@MAEX_J0@Z
B9720 35 ?FileTransfer@TFTPFileSystem@@IAEXABVUnicodeString@@000_N_JHAAUTFileTransferData@@PAVTFileOperationProgressType@@@Z
B98FD 35 __catch$?FileTransfer@TFTPFileSystem@@IAEXABVUnicodeString@@000_N_JHAAUTFileTransferData@@PAVTFileOperationProgressType@@@Z$0
B99B0 35 ?CopyToLocal@TFTPFileSystem@@UAEXPAVTStrings@@ABVUnicodeString@@PBVTCopyParamType@@HPAVTFileOperationProgressType@@AAW4TOnceDoneOperation@@@Z
B99E0 35 ?RemoteExtractFilePath@TFTPFileSystem@@IAE?AVUnicodeString@@ABV2@@Z
B9AE0 35 ?Sink@TFTPFileSystem@@UAEXABVUnicodeString@@PBVTRemoteFile@@0AAV2@HPBVTCopyParamType@@HPAVTFileOperationProgressType@@IAAVTDownloadSessionAction@@@Z
B9E50 35 ?TransferOnDirectory@TFTPFileSystem@@UAEXABVUnicodeString@@PBVTCopyParamType@@H@Z
B9E60 35 ?CopyToRemote@TFTPFileSystem@@UAEXPAVTStrings@@ABVUnicodeString@@PBVTCopyParamType@@HPAVTFileOperationProgressType@@AAW4TOnceDoneOperation@@@Z
B9E90 35 ?CanTransferSkipList@TFTPFileSystem@@IBE_NHIPBVTCopyParamType@@@Z
B9ED0 35 ?Source@TFTPFileSystem@@UAEXAAUTLocalFileHandle@@ABVUnicodeString@@AAV3@PBVTCopyParamType@@HPAVTFileOperationProgressType@@IAAVTUploadSessionAction@@AA_N@Z
BA290 35 ?CreateDirectoryW@TFTPFileSystem@@UAEXABVUnicodeString@@_N@Z
BA420 35 ?CreateLink@TFTPFileSystem@@UAEXABVUnicodeString@@0_N@Z
BA620 35 ?DeleteFileW@TFTPFileSystem@@UAEXABVUnicodeString@@PBVTRemoteFile@@HAAVTRmSessionAction@@@Z
BA880 35 ?DoStartup@TFTPFileSystem@@UAEXXZ
BAC78 35 __catch$?DoStartup@TFTPFileSystem@@UAEXXZ$0
BAD60 35 ??R<lambda_da99a7f185a87b4ca053e65af6589988>@@QBE@XZ
BAF30 35 ?HomeDirectory@TFTPFileSystem@@UAEXXZ
BAF70 35 ?IsCapable@TFTPFileSystem@@UBE_NH@Z
BB264 35 $LN143
BB288 35 $LN142
BB2B0 35 ?ReadCurrentDirectory@TFTPFileSystem@@UAEXXZ
BB460 35 ??R<lambda_9c9a8113005a5e7293026b3d3394ce9c>@@QBE@XZ
BB860 35 ?DoReadDirectory@TFTPFileSystem@@IAEXPAVTRemoteFileList@@@Z
BBC50 35 ?CheckTimeDifference@TFTPFileSystem@@IAEXXZ
BBD10 35 ?ApplyTimeDifference@TFTPFileSystem@@IAEXABVUnicodeString@@AAVTDateTime@@AAW4TModificationFmt@@@Z
BBD90 35 ?LookupUploadModificationTime@TFTPFileSystem@@IAE_NABVUnicodeString@@AAVTDateTime@@W4TModificationFmt@@@Z
BC000 35 ?IsEmptyFileList@TFTPFileSystem@@IBE_NPBVTRemoteFileList@@@Z
BC080 35 ?AutoDetectTimeDifference@TFTPFileSystem@@IAEXPBVTRemoteFileList@@@Z
BC61D 35 __catch$?AutoDetectTimeDifference@TFTPFileSystem@@IAEXPBVTRemoteFileList@@@Z$0
BC6B0 35 ?AutoDetectTimeDifference@TFTPFileSystem@@IAEXABVUnicodeString@@PBVTCopyParamType@@H@Z
BC820 35 ?ReadDirectory@TFTPFileSystem@@UAEXPAVTRemoteFileList@@@Z
BC998 35 __catch$?ReadDirectory@TFTPFileSystem@@UAEXPAVTRemoteFileList@@@Z$0
BCA30 35 ?DoReadFile@TFTPFileSystem@@IAEXABVUnicodeString@@AAPAVTRemoteFile@@@Z
BCC50 35 ??R<lambda_ff9ec404be40a2dcdb659bb92a5d6e57>@@QBE@XZ
BCE70 35 ?SupportsReadingFile@TFTPFileSystem@@IBE_NXZ
BD050 35 ?ReadFile@TFTPFileSystem@@UAEXABVUnicodeString@@AAPAVTRemoteFile@@@Z
BD6E0 35 ?ReadSymlink@TFTPFileSystem@@UAEXPAVTRemoteFile@@AAPAV2@@Z
BD880 35 ?RenameFile@TFTPFileSystem@@UAEXABVUnicodeString@@PBVTRemoteFile@@0_N@Z
BDAA0 35 ?CopyFileW@TFTPFileSystem@@UAEXABVUnicodeString@@PBVTRemoteFile@@0_N@Z
BDD50 35 ?SpaceAvailable@TFTPFileSystem@@UAEXABVUnicodeString@@AAUTSpaceAvailable@@@Z
BE270 35 ?GetSessionInfo@TFTPFileSystem@@UBEABUTSessionInfo@@XZ
BE280 35 ?GetFileSystemInfo@TFTPFileSystem@@UAEABUTFileSystemInfo@@_N@Z
BE520 35 ?GetStoredCredentialsTried@TFTPFileSystem@@UBE_NXZ
BE530 35 ?GetUserName@TFTPFileSystem@@UBE?AVUnicodeString@@XZ
BE550 35 ?GetCurrentDirectory@TFTPFileSystem@@MBE?AVUnicodeString@@XZ
BE570 35 ?GetOption@TFTPFileSystem@@IBEPB_WH@Z
BE65C 35 $LN108
BE66C 35 $LN107
BE680 35 ?GetOptionVal@TFTPFileSystem@@IBEHH@Z
BEA64 35 $LN134
BEAAC 35 $LN133
BEB20 35 $LN135
BEB38 35 $LN136
BEB80 35 ?ProcessMessage@TFTPFileSystem@@IAE_NXZ
BEC10 35 ?DiscardMessages@TFTPFileSystem@@IAEXXZ
BEC40 35 ??R<lambda_015d72cd81ffc231da0d5b64d87d96c8>@@QBE@XZ
BEC60 35 ?WaitForMessages@TFTPFileSystem@@IAEXXZ
BEE10 35 ?PoolForFatalNonCommandReply@TFTPFileSystem@@IAEXXZ
BEE70 35 ??R<lambda_5e89509349c45cfd52c813258f87253a>@@QBE@XZ
BEE90 35 ?NoFinalLastCode@TFTPFileSystem@@IBE_NXZ
BEEB0 35 ?DoWaitForReply@TFTPFileSystem@@IAEXAAI_N@Z
BEF8C 35 __catch$?DoWaitForReply@TFTPFileSystem@@IAEXAAI_N@Z$0
BEFC0 35 ?WaitForReply@TFTPFileSystem@@IAEI_N0@Z
BF050 35 ?WaitForCommandReply@TFTPFileSystem@@IAEI_N@Z
BF070 35 ?GotNonCommandReply@TFTPFileSystem@@IAEXI@Z
BF150 35 ?GotReply@TFTPFileSystem@@IAE?AVUnicodeString@@IIABV2@PAIPAPAVTStrings@@@Z
BF230 35 ??R<lambda_d86522e47e5bedbe9586faba329aee3d>@@QBE@XZ
BF8A0 35 ??R<lambda_14f7dcc33afe96c00c6f6d5c3bbd0c68>@@QBE@XZ
BFDD0 35 ??R<lambda_1188852536cc512ef289529f6246952c>@@QBE@XZ
BFE10 35 ?SendCommand@TFTPFileSystem@@IAEXABVUnicodeString@@@Z
BFF40 35 ?SetLastCode@TFTPFileSystem@@IAEXH@Z
BFF70 35 ?StoreLastResponse@TFTPFileSystem@@IAEXABVUnicodeString@@@Z
BFFC0 35 ?HandleReplyStatus@TFTPFileSystem@@IAEXABVUnicodeString@@@Z
C0AB0 35 ?ProcessFeatures@TFTPFileSystem@@IAEXXZ
C0E10 35 ?HandleFeatReply@TFTPFileSystem@@IAEXXZ
C0FC0 35 ?HandleStatus@TFTPFileSystem@@IAE_NPB_WH@Z
C12D0 35 $LN517
C1300 35 ?ConvertLocalTimestamp@TFTPFileSystem@@IAE?AVTDateTime@@_J@Z
C1590 35 ?HandleAsyncRequestOverwrite@TFTPFileSystem@@IAE_NPA_WIPB_W11_J22_NABUTRemoteFileTime@@PAXAAPAXAAH@Z
C1A70 35 ?FormatContactList@@YA?AVUnicodeString@@ABV1@0@Z
C1B10 35 ?FormatContact@@YA?AVUnicodeString@@ABUTContact@TFtpsCertificateData@@@Z
C1F20 35 ?FormatValidityTime@@YA?AVUnicodeString@@ABUTValidityTime@TFtpsCertificateData@@@Z
C2060 35 ?VerifyNameMask@@YA_NABVUnicodeString@@0@Z
C22B0 35 ?VerifyCertificateHostName@TFTPFileSystem@@IAE_NABUTFtpsCertificateData@@@Z
C2670 35 ?HandleAsyncRequestVerifyCertificate@TFTPFileSystem@@IAE_NABUTFtpsCertificateData@@AAH@Z
C2FF4 35 $LN1467
C3048 35 $LN1466
C30A0 35 ?HandleAsyncRequestNeedPass@TFTPFileSystem@@IBE_NAAUTNeedPassRequestData@@AAH@Z
C32E0 35 ?RemoteFileTimeToDateTimeAndPrecision@TFTPFileSystem@@IBEXABUTRemoteFileTime@@AAVTDateTime@@AAW4TModificationFmt@@@Z
C33E0 35 ?HandleListData@TFTPFileSystem@@IAE_NPB_WPBUTListDataEntry@@I@Z
C36AF 35 __catch$?HandleListData@TFTPFileSystem@@IAE_NPB_WPBUTListDataEntry@@I@Z$0
C3A47 35 __catch$?HandleListData@TFTPFileSystem@@IAE_NPB_WPBUTListDataEntry@@I@Z$2
C3BB0 35 ?CheckError@TFTPFileSystem@@IAE_NHPB_W@Z
C3D50 35 ?Unquote@TFTPFileSystem@@KA_NAAVUnicodeString@@@Z
C4020 35 ?GetFileModificationTimeInUtc@TFTPFileSystem@@IAE_NPB_WAAUtm@@@Z
C41CF 35 __catch$?GetFileModificationTimeInUtc@TFTPFileSystem@@IAE_NPB_WAAUtm@@@Z$0
C4200 35 ?RegisterChecksumAlgCommand@TFTPFileSystem@@IAEXABVUnicodeString@@0@Z
C4240 35 ?GetSupportedChecksumAlgs@TFTPFileSystem@@UAEXPAVTStrings@@@Z
C4440 35 ??1?$unique_ptr@VTFileZillaImpl@@U?$default_delete@VTFileZillaImpl@@@std@@@std@@QAE@XZ
C4490 35 ??A?$map@VUnicodeString@@VTDateTime@@U?$less@VUnicodeString@@@std@@U?$custom_nballocator_t@U?$pair@$$CBVUnicodeString@@VTDateTime@@@std@@@nb@@@std@@QAEAAVTDateTime@@ABVUnicodeString@@@Z
C4570 35 ?erase@?$_Tree@V?$_Tmap_traits@VUnicodeString@@VTDateTime@@U?$less@VUnicodeString@@@std@@U?$custom_nballocator_t@U?$pair@$$CBVUnicodeString@@VTDateTime@@@std@@@nb@@$0A@@std@@@std@@QAEIABVUnicodeString@@@Z
C4760 35 ??1?$unique_ptr@VTMessageQueue@@U?$default_delete@VTMessageQueue@@@std@@@std@@QAE@XZ
C47A0 35 ??1?$basic_string@_WU?$char_traits@_W@std@@V?$allocator@_W@2@@std@@QAE@XZ
C4800 0 ??_ETMessageQueue@@UAEPAXI@Z
C4860 35 ??1TFTPServerCapabilities@@QAE@XZ
C4880 35 ??$Sprintf@PB_WVUnicodeString@@@nb@@YA?AVUnicodeString@@ABV1@ABQB_W0@Z
C4900 35 ??$Sprintf@PB_WPB_WVUnicodeString@@V1@@nb@@YA?AVUnicodeString@@ABV1@ABQB_W100@Z
C49D0 35 ??$Sprintf@PB_WVUnicodeString@@V1@V1@V?$ROProperty@VUnicodeString@@@@@nb@@YA?AVUnicodeString@@ABV1@ABQB_W000ABV?$ROProperty@VUnicodeString@@@@@Z
C4AA0 35 ??$FmtLoadStr@$$BY05DVUnicodeString@@@nb@@YA?AVUnicodeString@@HAAY05$$CBDABV1@@Z
C4B10 35 ??$FmtLoadStr@VUnicodeString@@V1@V1@V1@V1@V1@V1@@nb@@YA?AVUnicodeString@@HABV1@000000@Z
C4BE0 35 ??$Sprintf@HHHH@nb@@YA?AVUnicodeString@@ABV1@ABH111@Z
C4C90 35 ??$Sprintf@PB_WPB_WPB_WPB_WPB_WPB_WVUnicodeString@@HHGGGGGV1@@nb@@YA?AVUnicodeString@@ABV1@ABQB_W111110ABH2ABG33330@Z
C4EA0 35 ??$_Erase_tree@U?$custom_nballocator_t@U?$_Tree_node@U?$pair@$$CBW4ftp_capability_names_t@@Ut_cap@TFTPServerCapabilities@@@std@@PAX@std@@@nb@@@?$_Tree_val@U?$_Tree_simple_types@U?$pair@$$CBW4ftp_capability_names_t@@Ut_cap@TFTPServerCapabilities@@@std@@@std@@@std@@QAEXAAU?$custom_nballocator_t@U?$_Tree_node@U?$pair@$$CBW4ftp_capability_names_t@@Ut_cap@TFTPServerCapabilities@@@std@@PAX@std@@@nb@@PAU?$_Tree_node@U?$pair@$$CBW4ftp_capability_names_t@@Ut_cap@TFTPServerCapabilities@@@std@@PAX@1@@Z
C4EE0 35 ??0TFTPServerCapabilities@@QAE@XZ
C4F60 35 ??0?$scope_guard@V<lambda_d86522e47e5bedbe9586faba329aee3d>@@V<lambda_1188852536cc512ef289529f6246952c>@@@detail@Sysutils@@QAE@$$QAV<lambda_d86522e47e5bedbe9586faba329aee3d>@@$$QAV<lambda_1188852536cc512ef289529f6246952c>@@@Z
C5019 35 __catch$??0?$scope_guard@V<lambda_d86522e47e5bedbe9586faba329aee3d>@@V<lambda_1188852536cc512ef289529f6246952c>@@@detail@Sysutils@@QAE@$$QAV<lambda_d86522e47e5bedbe9586faba329aee3d>@@$$QAV<lambda_1188852536cc512ef289529f6246952c>@@@Z$0
C5040 35 ??0?$scope_guard@V<lambda_f698e9d958eec3d52358008b34c7e7b5>@@V<lambda_f69f46e089133fa02c53f89b5b2aae5b>@@@detail@Sysutils@@QAE@$$QAV<lambda_f698e9d958eec3d52358008b34c7e7b5>@@$$QAV<lambda_f69f46e089133fa02c53f89b5b2aae5b>@@@Z
C5174 35 __catch$??0?$scope_guard@V<lambda_f698e9d958eec3d52358008b34c7e7b5>@@V<lambda_f69f46e089133fa02c53f89b5b2aae5b>@@@detail@Sysutils@@QAE@$$QAV<lambda_f698e9d958eec3d52358008b34c7e7b5>@@$$QAV<lambda_f69f46e089133fa02c53f89b5b2aae5b>@@@Z$0
C5180 35 ??0?$scope_guard@V<lambda_14f7dcc33afe96c00c6f6d5c3bbd0c68>@@V<lambda_e035352999fcf118654e411f4763cf42>@@@detail@Sysutils@@QAE@$$QAV<lambda_14f7dcc33afe96c00c6f6d5c3bbd0c68>@@$$QAV<lambda_e035352999fcf118654e411f4763cf42>@@@Z
C51E6 35 __catch$??0?$scope_guard@V<lambda_14f7dcc33afe96c00c6f6d5c3bbd0c68>@@V<lambda_e035352999fcf118654e411f4763cf42>@@@detail@Sysutils@@QAE@$$QAV<lambda_14f7dcc33afe96c00c6f6d5c3bbd0c68>@@$$QAV<lambda_e035352999fcf118654e411f4763cf42>@@@Z$0
C5200 35 ??0?$scope_guard@V<lambda_18c79b813758ed6f9c44a122a0291050>@@V<lambda_5e89509349c45cfd52c813258f87253a>@@@detail@Sysutils@@QAE@$$QAV<lambda_18c79b813758ed6f9c44a122a0291050>@@$$QAV<lambda_5e89509349c45cfd52c813258f87253a>@@@Z
C52C9 35 __catch$??0?$scope_guard@V<lambda_18c79b813758ed6f9c44a122a0291050>@@V<lambda_5e89509349c45cfd52c813258f87253a>@@@detail@Sysutils@@QAE@$$QAV<lambda_18c79b813758ed6f9c44a122a0291050>@@$$QAV<lambda_5e89509349c45cfd52c813258f87253a>@@@Z$0
C52F0 35 ??0?$scope_guard@V<lambda_47cdcf65799a5fed38aa24af06a1f2c8>@@V<lambda_75013192f9a4a68589b58570508d3928>@@@detail@Sysutils@@QAE@$$QAV<lambda_47cdcf65799a5fed38aa24af06a1f2c8>@@$$QAV<lambda_75013192f9a4a68589b58570508d3928>@@@Z
C539B 35 __catch$??0?$scope_guard@V<lambda_47cdcf65799a5fed38aa24af06a1f2c8>@@V<lambda_75013192f9a4a68589b58570508d3928>@@@detail@Sysutils@@QAE@$$QAV<lambda_47cdcf65799a5fed38aa24af06a1f2c8>@@$$QAV<lambda_75013192f9a4a68589b58570508d3928>@@@Z$0
C53C0 35 ??0?$scope_guard@V<lambda_d602ad75e4ba454fdc516cb90d79a2b8>@@V<lambda_015d72cd81ffc231da0d5b64d87d96c8>@@@detail@Sysutils@@QAE@$$QAV<lambda_d602ad75e4ba454fdc516cb90d79a2b8>@@$$QAV<lambda_015d72cd81ffc231da0d5b64d87d96c8>@@@Z
C5441 35 __catch$??0?$scope_guard@V<lambda_d602ad75e4ba454fdc516cb90d79a2b8>@@V<lambda_015d72cd81ffc231da0d5b64d87d96c8>@@@detail@Sysutils@@QAE@$$QAV<lambda_d602ad75e4ba454fdc516cb90d79a2b8>@@$$QAV<lambda_015d72cd81ffc231da0d5b64d87d96c8>@@@Z$0
C5460 35 ??0?$scope_guard@V<lambda_207e4a0b1355df5d3367aeb4ece4a9ca>@@V<lambda_0fe3c4dc11a1e7b3420ccaef8f71bc1d>@@@detail@Sysutils@@QAE@$$QAV<lambda_207e4a0b1355df5d3367aeb4ece4a9ca>@@$$QAV<lambda_0fe3c4dc11a1e7b3420ccaef8f71bc1d>@@@Z
C54BC 35 __catch$??0?$scope_guard@V<lambda_207e4a0b1355df5d3367aeb4ece4a9ca>@@V<lambda_0fe3c4dc11a1e7b3420ccaef8f71bc1d>@@@detail@Sysutils@@QAE@$$QAV<lambda_207e4a0b1355df5d3367aeb4ece4a9ca>@@$$QAV<lambda_0fe3c4dc11a1e7b3420ccaef8f71bc1d>@@@Z$0
C54D0 35 ??0?$scope_guard@V<lambda_ff9ec404be40a2dcdb659bb92a5d6e57>@@V<lambda_5c3e0f4abd43c409066b3a222ccbdf4c>@@@detail@Sysutils@@QAE@$$QAV<lambda_ff9ec404be40a2dcdb659bb92a5d6e57>@@$$QAV<lambda_5c3e0f4abd43c409066b3a222ccbdf4c>@@@Z
C552C 35 __catch$??0?$scope_guard@V<lambda_ff9ec404be40a2dcdb659bb92a5d6e57>@@V<lambda_5c3e0f4abd43c409066b3a222ccbdf4c>@@@detail@Sysutils@@QAE@$$QAV<lambda_ff9ec404be40a2dcdb659bb92a5d6e57>@@$$QAV<lambda_5c3e0f4abd43c409066b3a222ccbdf4c>@@@Z$0
C5540 35 ??0?$scope_guard@V<lambda_9c9a8113005a5e7293026b3d3394ce9c>@@V<lambda_cbf1ef9a9c910175b32b18d6b2b6cfd1>@@@detail@Sysutils@@QAE@$$QAV<lambda_9c9a8113005a5e7293026b3d3394ce9c>@@$$QAV<lambda_cbf1ef9a9c910175b32b18d6b2b6cfd1>@@@Z
C559C 35 __catch$??0?$scope_guard@V<lambda_9c9a8113005a5e7293026b3d3394ce9c>@@V<lambda_cbf1ef9a9c910175b32b18d6b2b6cfd1>@@@detail@Sysutils@@QAE@$$QAV<lambda_9c9a8113005a5e7293026b3d3394ce9c>@@$$QAV<lambda_cbf1ef9a9c910175b32b18d6b2b6cfd1>@@@Z$0
C55B0 35 ??0?$scope_guard@V<lambda_da99a7f185a87b4ca053e65af6589988>@@V<lambda_cd0a42acdb10f989673683d7e9b38cd9>@@@detail@Sysutils@@QAE@$$QAV<lambda_da99a7f185a87b4ca053e65af6589988>@@$$QAV<lambda_cd0a42acdb10f989673683d7e9b38cd9>@@@Z
C560A 35 __catch$??0?$scope_guard@V<lambda_da99a7f185a87b4ca053e65af6589988>@@V<lambda_cd0a42acdb10f989673683d7e9b38cd9>@@@detail@Sysutils@@QAE@$$QAV<lambda_da99a7f185a87b4ca053e65af6589988>@@$$QAV<lambda_cd0a42acdb10f989673683d7e9b38cd9>@@@Z$0
C5620 35 ??0?$scope_guard@V<lambda_e0814fe30c0a7a33276d9944fb3b2160>@@V<lambda_0a89d704a7c762602a402a27637df15b>@@@detail@Sysutils@@QAE@$$QAV<lambda_e0814fe30c0a7a33276d9944fb3b2160>@@$$QAV<lambda_0a89d704a7c762602a402a27637df15b>@@@Z
C5799 35 __catch$??0?$scope_guard@V<lambda_e0814fe30c0a7a33276d9944fb3b2160>@@V<lambda_0a89d704a7c762602a402a27637df15b>@@@detail@Sysutils@@QAE@$$QAV<lambda_e0814fe30c0a7a33276d9944fb3b2160>@@$$QAV<lambda_0a89d704a7c762602a402a27637df15b>@@@Z$0
C57B0 35 ??0?$scope_guard@V<lambda_01a11ec739da884e833481a4e87e4d02>@@V<lambda_ae68965079f8381cf33e21ac1918eda6>@@@detail@Sysutils@@QAE@$$QAV<lambda_01a11ec739da884e833481a4e87e4d02>@@$$QAV<lambda_ae68965079f8381cf33e21ac1918eda6>@@@Z
C5810 35 __catch$??0?$scope_guard@V<lambda_01a11ec739da884e833481a4e87e4d02>@@V<lambda_ae68965079f8381cf33e21ac1918eda6>@@@detail@Sysutils@@QAE@$$QAV<lambda_01a11ec739da884e833481a4e87e4d02>@@$$QAV<lambda_ae68965079f8381cf33e21ac1918eda6>@@@Z$0
C5820 35 ??0?$scope_guard@V<lambda_c6e52190b5eee69560a5f20c0ab4302c>@@V<lambda_e5ebe4fda190dd1b7e6c21a063ca2992>@@@detail@Sysutils@@QAE@$$QAV<lambda_c6e52190b5eee69560a5f20c0ab4302c>@@$$QAV<lambda_e5ebe4fda190dd1b7e6c21a063ca2992>@@@Z
C5946 35 __catch$??0?$scope_guard@V<lambda_c6e52190b5eee69560a5f20c0ab4302c>@@V<lambda_e5ebe4fda190dd1b7e6c21a063ca2992>@@@detail@Sysutils@@QAE@$$QAV<lambda_c6e52190b5eee69560a5f20c0ab4302c>@@$$QAV<lambda_e5ebe4fda190dd1b7e6c21a063ca2992>@@@Z$0
C5960 35 ??0?$scope_guard@V<lambda_5d628e4ec9c34e1c55041cb7f0c73445>@@V<lambda_18f570ba5fa0aa434131a2771ccd5fcd>@@@detail@Sysutils@@QAE@$$QAV<lambda_5d628e4ec9c34e1c55041cb7f0c73445>@@$$QAV<lambda_18f570ba5fa0aa434131a2771ccd5fcd>@@@Z
C59BA 35 __catch$??0?$scope_guard@V<lambda_5d628e4ec9c34e1c55041cb7f0c73445>@@V<lambda_18f570ba5fa0aa434131a2771ccd5fcd>@@@detail@Sysutils@@QAE@$$QAV<lambda_5d628e4ec9c34e1c55041cb7f0c73445>@@$$QAV<lambda_18f570ba5fa0aa434131a2771ccd5fcd>@@@Z$0
C59D0 35 ??1t_cap@TFTPServerCapabilities@@QAE@XZ
C59E0 34 ??1?$_Alloc_construct_ptr@U?$custom_nballocator_t@U?$_List_node@V?$CStringT@DV?$StrTraitMFC@DV?$ChTraitsCRT@D@ATL@@@@@ATL@@PAX@std@@@nb@@@std@@QAE@XZ
C59EC 35 ??_ETFTPFileSystem@@W7AEPAXI@Z
C5A00 61 ??2TSessionAction@@SAPAXI@Z
C5A30 61 ?is@TOpenRemoteFileParams@@UBE_NG@Z
C5A50 0 ??_ETOpenRemoteFileParams@@UAEPAXI@Z
C5A90 61 ??1TOpenRemoteFileParams@@UAE@XZ
C5B60 61 ?is@TSFTPFileSystem@@UBE_NG@Z
C5B90 61 ?Reset@TSFTPSupport@@QAEXXZ
C5BE0 0 ??_ETSFTPSupport@@UAEPAXI@Z
C5C20 61 ?is@TSFTPPacket@@UBE_NG@Z
C5C40 61 ??0TSFTPPacket@@QAE@GI@Z
C5CC0 61 ??0TSFTPPacket@@QAE@HI@Z
C5CF0 61 ??0TSFTPPacket@@QAE@ABVRawByteString@@I@Z
C5D40 61 ??1TSFTPPacket@@UAE@XZ
C5DA6 61 __catch$??1TSFTPPacket@@UAE@XZ$0
C5DC0 61 ?ChangeType@TSFTPPacket@@QAEXH@Z
C5EE0 61 ?AddBool@TSFTPPacket@@QAEX_N@Z
C5F10 61 ?AddCardinal@TSFTPPacket@@QAEXI@Z
C5F70 61 ?AddInt64@TSFTPPacket@@QAEX_J@Z
C6020 61 ?AddString@TSFTPPacket@@QAEXABVRawByteString@@@Z
C60B0 61 ?AddString@TSFTPPacket@@QAEXABVUnicodeString@@W4TAutoSwitch@@@Z
C61C0 61 ?AddProperties@TSFTPPacket@@QAEXPBGPBVTRemoteToken@@1PB_J22_NHW4TAutoSwitch@@@Z
C6450 61 ?AddProperties@TSFTPPacket@@QAEXPBVTRemoteProperties@@G_NHW4TAutoSwitch@@PAVTChmodSessionAction@@@Z
C66B0 61 ?GetCardinal@TSFTPPacket@@QBEIXZ
C66F0 61 ?GetSmallCardinal@TSFTPPacket@@QBEIXZ
C6720 61 ?GetInt64@TSFTPPacket@@QBE_JXZ
C6810 61 ?GetRawByteString@TSFTPPacket@@QBE?AVRawByteString@@XZ
C68E0 61 ?GetAnsiString@TSFTPPacket@@QBE?AVUnicodeString@@XZ
C6950 61 ?GetString@TSFTPPacket@@QBE?AVUnicodeString@@W4TAutoSwitch@@@Z
C69D0 61 ?GetFile@TSFTPPacket@@QAEXPAVTRemoteFile@@HW4TDSTMode@@AAW4TAutoSwitch@@_N3@Z
C7056 61 __catch$?GetFile@TSFTPPacket@@QAEXPAVTRemoteFile@@HW4TDSTMode@@AAW4TAutoSwitch@@_N3@Z$0
C70C0 61 ?GetNextData@TSFTPPacket@@QAEPAEI@Z
C70F0 61 ?DataUpdated@TSFTPPacket@@QAEXI@Z
C7180 61 ?Dump@TSFTPPacket@@QBE?AVUnicodeString@@XZ
C7340 61 ??4TSFTPPacket@@QAEAAV0@ABV0@@Z
C7470 61 ?GetMessageNumber@TSFTPPacket@@QBEIXZ
C7480 61 ?Add@TSFTPPacket@@QAEXPBXI@Z
C74C0 61 ?SetCapacity@TSFTPPacket@@QAEXI@Z
C7550 61 ?GetTypeName@TSFTPPacket@@QBE?AVUnicodeString@@XZ
C7A28 61 $LN972
C7A9C 61 $LN971
C7B70 61 ?GetRemainingLength@TSFTPPacket@@QBEIXZ
C7B80 61 ?Need@TSFTPPacket@@ABEXI@Z
C7C20 0 ??_ETSFTPPacket@@UAEPAXI@Z
C7C60 61 ?is@TSFTPQueuePacket@@UBE_NG@Z
C7C90 0 ??_ETSFTPQueuePacket@@UAEPAXI@Z
C7CD0 61 ?is@TSFTPQueue@@UBE_NG@Z
C7CF0 61 ??1TSFTPQueue@@UAE@XZ
C7E00 61 ?DisposeUntil@TSFTPQueue@@QAEXHH@Z
C7EE6 61 __catch$?DisposeUntil@TSFTPQueue@@QAEXHH@Z$0
C7FF0 61 ?Dispose@TSFTPQueue@@UAEXH@Z
C8000 61 ?ReceivePacket@TSFTPQueue@@QAE_NPAVTSFTPPacket@@HHPAPAX_N@Z
C80D0 61 ??R<lambda_d0b2826a62ae4cceee036678e1d510bf>@@QBE@XZ
C8210 61 ?SendPacket@TSFTPQueue@@MAEXPAVTSFTPQueuePacket@@@Z
C8220 61 ?ReceiveResponse@TSFTPQueue@@MAEXPBVTSFTPPacket@@PAV2@HH_N@Z
C8300 61 ?SendRequest@TSFTPQueue@@MAE_NXZ
C8520 0 ??_ETSFTPQueue@@UAEPAXI@Z
C8560 61 ??0TSFTPFixedLenQueue@@QAE@PAVTSFTPFileSystem@@I@Z
C85B0 61 ?SendRequests@TSFTPFixedLenQueue@@MAE_NXZ
C85E0 0 ??_ETSFTPFixedLenQueue@@UAEPAXI@Z
C8620 61 ??1TSFTPAsynchronousQueue@@UAE@XZ
C8680 61 ?Dispose@TSFTPAsynchronousQueue@@UAEXH@Z
C86E0 61 ?ReceiveHandler@TSFTPAsynchronousQueue@@IAEXPAVTObject@@@Z
C8775 61 __catch$?ReceiveHandler@TSFTPAsynchronousQueue@@IAEXPAVTObject@@@Z$0
C8780 20 ?CloseQuery@TFarListBox@@MAE_NXZ
C8790 0 ??_ETSFTPAsynchronousQueue@@UAEPAXI@Z
C87D0 61 ?InitFillGapRequest@TSFTPDownloadQueue@@QAEX_JIPAVTSFTPPacket@@@Z
C87F0 61 ?InitRequest@TSFTPDownloadQueue@@MAE_NPAVTSFTPQueuePacket@@@Z
C88A0 61 ?InitRequest@TSFTPDownloadQueue@@IBEXPAVTSFTPPacket@@_JI@Z
C8920 61 ?End@TSFTPDownloadQueue@@MAE_NPAVTSFTPPacket@@@Z
C8930 0 ??_ETSFTPDownloadQueue@@UAEPAXI@Z
C89B0 61 ??1TSFTPDownloadQueue@@UAE@XZ
C8A00 61 ?InitRequest@TSFTPUploadQueue@@MAE_NPAVTSFTPQueuePacket@@@Z
C8AF9 61 __catch$?InitRequest@TSFTPUploadQueue@@MAE_NPAVTSFTPQueuePacket@@@Z$0
C8DC0 61 ?SendPacket@TSFTPUploadQueue@@MAEXPAVTSFTPQueuePacket@@@Z
C8E40 61 ?ReceiveResponse@TSFTPUploadQueue@@MAEXPBVTSFTPPacket@@PAV2@HH_N@Z
C8F90 61 ?ReceivePacketAsynchronously@TSFTPUploadQueue@@MAE_NXZ
C8FC0 61 ?End@TSFTPUploadQueue@@MAE_NPAVTSFTPPacket@@@Z
C8FD0 61 ?SendRequest@TSFTPUploadQueue@@MAE_NXZ
C9130 61 ??R<lambda_e36f582b9cfcf9a1924ce12ed30e8322>@@QBE@XZ
C9170 0 ??_ETSFTPUploadQueue@@UAEPAXI@Z
C91B0 61 ??1TSFTPUploadQueue@@UAE@XZ
C9240 61 ?InitRequest@TSFTPLoadFilesPropertiesQueue@@MAE_NPAVTSFTPQueuePacket@@@Z
C9510 61 ?SendRequest@TSFTPLoadFilesPropertiesQueue@@MAE_NXZ
C9540 61 ?End@TSFTPCalculateFilesChecksumQueue@@MAE_NPAVTSFTPPacket@@@Z
C9550 0 ??_ETSFTPLoadFilesPropertiesQueue@@UAEPAXI@Z
C9590 61 ??1TSFTPLoadFilesPropertiesQueue@@UAE@XZ
C95A0 61 ?ReceivePacket@TSFTPCalculateFilesChecksumQueue@@QAE_NPAVTSFTPPacket@@AAPAVTRemoteFile@@@Z
C9600 61 ??R<lambda_70cca99b1a349871fc684b16364a2498>@@QBE@XZ
C9610 61 ?InitRequest@TSFTPCalculateFilesChecksumQueue@@MAE_NPAVTSFTPQueuePacket@@@Z
C9880 61 ?SendRequest@TSFTPCalculateFilesChecksumQueue@@MAE_NXZ
C98B0 0 ??_ETSFTPCalculateFilesChecksumQueue@@UAEPAXI@Z
C9930 61 ??1TSFTPCalculateFilesChecksumQueue@@UAE@XZ
C9980 61 ??0TSFTPBusy@@QAE@PAVTSFTPFileSystem@@@Z
C99D0 61 ??1TSFTPBusy@@UAE@XZ
C9A10 0 ??_ETSFTPBusy@@UAEPAXI@Z
C9A50 61 ?Init@TSFTPFileSystem@@UAEXPAX@Z
C9F30 61 ??1TSFTPFileSystem@@UAE@XZ
CA0D0 61 ?Open@TSFTPFileSystem@@UAEXXZ
CA0F0 61 ?Close@TSFTPFileSystem@@UAEXXZ
CA130 61 ?GetActive@TSFTPFileSystem@@UBE_NXZ
CA140 61 ?CollectUsage@TSFTPFileSystem@@UAEXXZ
CA24C 61 $LN721
CA270 61 ?GetSessionInfo@TSFTPFileSystem@@UBEABUTSessionInfo@@XZ
CA290 61 ?GetFileSystemInfo@TSFTPFileSystem@@UAEABUTFileSystemInfo@@_N@Z
CA490 61 ?TemporaryTransferFile@TSFTPFileSystem@@UAE_NABVUnicodeString@@@Z
CA4B0 61 ?GetStoredCredentialsTried@TSFTPFileSystem@@UBE_NXZ
CA4E0 61 ?GetUserName@TSFTPFileSystem@@UBE?AVUnicodeString@@XZ
CA500 61 ?Idle@TSFTPFileSystem@@UAEXXZ
CA6C0 61 ?ResetConnection@TSFTPFileSystem@@IAEXXZ
CA720 61 ?IsCapable@TSFTPFileSystem@@UBE_NH@Z
CABC0 61 $LN203
CAC08 61 $LN202
CAC30 61 ?TransferBlockSize@TSFTPFileSystem@@IBEIIPAVTFileOperationProgressType@@II@Z
CAD50 61 ?LogPacket@TSFTPFileSystem@@IAEXPBVTSFTPPacket@@W4TLogLineType@@@Z
CB350 61 ?SendPacket@TSFTPFileSystem@@IAEXPBVTSFTPPacket@@@Z
CB430 61 ??R<lambda_5f21b3ec7ea1931679849af28126c85d>@@QBE@XZ
CB5C0 61 ??R<lambda_0f86f68d6688eacc0eb3423fe3caa41a>@@QBE@XZ
CB5F0 61 ?GotStatusPacket@TSFTPFileSystem@@IAEHPAVTSFTPPacket@@H_N@Z
CBA20 61 ?RemoveReservation@TSFTPFileSystem@@IAEXH@Z
CBAA0 61 ?PacketLength@TSFTPFileSystem@@IBEHPAEH@Z
CBC30 61 ?ReceivePacket@TSFTPFileSystem@@IAEHPAVTSFTPPacket@@HH_N@Z
CC320 61 ?ReserveResponse@TSFTPFileSystem@@IAEXPBVTSFTPPacket@@PAV2@@Z
CC3F0 61 ?UnreserveResponse@TSFTPFileSystem@@IAEXPAVTSFTPPacket@@@Z
CC470 61 ?ReceiveResponse@TSFTPFileSystem@@IAEHPBVTSFTPPacket@@PAV2@HH_N@Z
CC550 61 ??R<lambda_1d5127a7c1e114080cd266f77a0a5348>@@QBE@XZ
CC570 61 ?SendPacketAndReceiveResponse@TSFTPFileSystem@@IAEHPBVTSFTPPacket@@PAV2@HH@Z
CC620 61 ?GetRealPath@TSFTPFileSystem@@IAE?AVUnicodeString@@ABV2@@Z
CC935 61 __catch$?GetRealPath@TSFTPFileSystem@@IAE?AVUnicodeString@@ABV2@@Z$0
CC9A0 61 ?GetRealPath@TSFTPFileSystem@@IAE?AVUnicodeString@@ABV2@0@Z
CCB50 61 ?LocalCanonify@TSFTPFileSystem@@IBE?AVUnicodeString@@ABV2@@Z
CCC10 61 ?Canonify@TSFTPFileSystem@@IAE?AVUnicodeString@@ABV2@@Z
CCD8E 61 __catch$?Canonify@TSFTPFileSystem@@IAE?AVUnicodeString@@ABV2@@Z$0
CCE4F 61 __catch$?Canonify@TSFTPFileSystem@@IAE?AVUnicodeString@@ABV2@@Z$2
CCF10 61 ?AbsolutePath@TSFTPFileSystem@@UBE?AVUnicodeString@@ABV2@_N@Z
CCFD0 61 ?AbsolutePath@TSFTPFileSystem@@UAE?AVUnicodeString@@ABV2@_N@Z
CD0A0 61 ?GetHomeDirectory@TSFTPFileSystem@@UAE?AVUnicodeString@@XZ
CD200 61 ?LoadFile@TSFTPFileSystem@@IAEPAVTRemoteFile@@PAVTSFTPPacket@@PAV2@ABVUnicodeString@@PAVTRemoteFileList@@_N@Z
CD2B0 61 ?GetCurrentDirectory@TSFTPFileSystem@@MBE?AVUnicodeString@@XZ
CD2D0 61 ?DoStartup@TSFTPFileSystem@@UAEXXZ
CD45C 61 __catch$?DoStartup@TSFTPFileSystem@@UAEXXZ$0
CE2A6 61 __catch$?DoStartup@TSFTPFileSystem@@UAEXXZ$2
CF370 61 ?GetEOL@TSFTPFileSystem@@IBEPADXZ
CF3B0 61 ?LookupUsersGroups@TSFTPFileSystem@@UAEXXZ
CF810 61 ?ReadCurrentDirectory@TSFTPFileSystem@@UAEXXZ
CF860 61 ?HomeDirectory@TSFTPFileSystem@@UAEXXZ
CF9B0 61 ?TryOpenDirectory@TSFTPFileSystem@@IAEXABVUnicodeString@@@Z
CFBD0 61 ?ChangeDirectory@TSFTPFileSystem@@UAEXABVUnicodeString@@@Z
CFCD0 61 ?CachedChangeDirectory@TSFTPFileSystem@@UAEXABVUnicodeString@@@Z
CFD30 61 ?ReadDirectory@TSFTPFileSystem@@UAEXPAVTRemoteFileList@@@Z
CFFD7 61 __catch$?ReadDirectory@TSFTPFileSystem@@UAEXPAVTRemoteFileList@@@Z$0
D0020 61 ??R<lambda_267a6de5458f047a641e6949d31715f4>@@QBE@XZ
D0761 61 __catch$??R<lambda_267a6de5458f047a641e6949d31715f4>@@QBE@XZ$0
D08B0 61 ??R<lambda_04e0f2a8a4c0d02dc850de47e87f577a>@@QBE@XZ
D0A40 61 ??R<lambda_a1e84cd0730af22e36e765f30295fa9c>@@QBE@XZ
D0A90 61 ?ReadSymlink@TSFTPFileSystem@@UAEXPAVTRemoteFile@@AAPAV2@@Z
D0E90 61 ?ReadFile@TSFTPFileSystem@@UAEXABVUnicodeString@@AAPAVTRemoteFile@@@Z
D0EB0 61 ?RemoteFileExists@TSFTPFileSystem@@IAE_NABVUnicodeString@@PAPAVTRemoteFile@@@Z
D0F1D 61 __catch$?RemoteFileExists@TSFTPFileSystem@@IAE_NABVUnicodeString@@PAPAVTRemoteFile@@@Z$0
D0F60 61 ?SendCustomReadFile@TSFTPFileSystem@@IAEXPAVTSFTPPacket@@0I@Z
D0FE0 61 ?CustomReadFile@TSFTPFileSystem@@IAEXABVUnicodeString@@AAPAVTRemoteFile@@HPAV3@H@Z
D1170 61 ?DoDeleteFile@TSFTPFileSystem@@IAEXABVUnicodeString@@H@Z
D1250 61 ?DeleteFileW@TSFTPFileSystem@@UAEXABVUnicodeString@@PBVTRemoteFile@@HAAVTRmSessionAction@@@Z
D1290 61 ?RenameFile@TSFTPFileSystem@@UAEXABVUnicodeString@@PBVTRemoteFile@@0_N@Z
D14E0 61 ?DoCloseRemoteIfOpened@TSFTPFileSystem@@IAEXABVRawByteString@@@Z
D1570 61 ?CopyFileW@TSFTPFileSystem@@UAEXABVUnicodeString@@PBVTRemoteFile@@0_N@Z
D1880 61 ??R<lambda_6582aeeb8d644ad9cbeddde7eb4758cf>@@QBE@XZ
D1B90 61 ??R<lambda_be39cddc8a753f034524dba21de2709a>@@QBE@XZ
D1BD0 61 ?CreateDirectoryW@TSFTPFileSystem@@UAEXABVUnicodeString@@_N@Z
D1CC0 61 ?CreateLink@TSFTPFileSystem@@UAEXABVUnicodeString@@0_N@Z
D2040 61 ?ChangeFileProperties@TSFTPFileSystem@@UAEXABVUnicodeString@@PBVTRemoteFile@@PBVTRemoteProperties@@AAVTChmodSessionAction@@@Z
D2120 61 ??R<lambda_bfafc6c0ce4ef1bc327546ed7af1b230>@@QBE@XZ
D2350 61 __catch$??R<lambda_bfafc6c0ce4ef1bc327546ed7af1b230>@@QBE@XZ$0
D2370 61 ?LoadFilesProperties@TSFTPFileSystem@@UAE_NPAVTStrings@@@Z
D24E0 61 ??R<lambda_c733d1cf3d0f2c3646b9b3b2d17eab13>@@QBE@XZ
D2760 61 ??R<lambda_358769e7a6fb7366e1166f702dcaad05>@@QBE@XZ
D27A0 61 ?CalculateFilesChecksum@TSFTPFileSystem@@UAEXABVUnicodeString@@PAVTStrings@@$$QAV?$FastDelegate3@XABVUnicodeString@@ABV1@ABV1@@fastdelegate@@PAVTFileOperationProgressType@@_N@Z
D28D0 61 ??R<lambda_9088db756ef9d04dbc8c0198ed51924a>@@QBE@XZ
D2B20 61 ??R<lambda_34caaeb5e7f2f183bcd41a37d6b3884f>@@QBE@XZ
D2D79 61 __catch$??R<lambda_34caaeb5e7f2f183bcd41a37d6b3884f>@@QBE@XZ$0
D2E30 61 ??R<lambda_914c291a8e84077c350bd805bc71a563>@@QBE@XZ
D2EB0 61 ??R<lambda_205abe70f3c14dc2fe4a812746462366>@@QBE@XZ
D2EE0 61 ?CalculateFilesChecksumInitialize@TSFTPFileSystem@@UAE?AVUnicodeString@@ABV2@@Z
D2F00 61 ?GetFixedPaths@TSFTPFileSystem@@UBEPAVTStrings@@XZ
D2F10 61 ?SpaceAvailable@TSFTPFileSystem@@UAEXABVUnicodeString@@AAUTSpaceAvailable@@@Z
D3930 61 ?CopyToRemote@TSFTPFileSystem@@UAEXPAVTStrings@@ABVUnicodeString@@PBVTCopyParamType@@HPAVTFileOperationProgressType@@AAW4TOnceDoneOperation@@@Z
D39B0 61 ?SFTPConfirmOverwrite@TSFTPFileSystem@@IAEXABVUnicodeString@@AAV2@PBVTCopyParamType@@HPAVTFileOperationProgressType@@AAW4TOverwriteMode@@PBUTOverwriteFileParams@@@Z
D3EE0 61 ??R<lambda_f6e027ba61b6912de830ef93d524b80b>@@QBE@XZ
D4128 61 $LN55
D413C 61 $LN54
D4180 61 ?SFTPConfirmResume@TSFTPFileSystem@@IAE_NABVUnicodeString@@_NPAVTFileOperationProgressType@@@Z
D4470 61 ?DoesFileLookLikeSymLink@TSFTPFileSystem@@IBE_NPAVTRemoteFile@@@Z
D45A0 61 ?Source@TSFTPFileSystem@@UAEXAAUTLocalFileHandle@@ABVUnicodeString@@AAV3@PBVTCopyParamType@@HPAVTFileOperationProgressType@@IAAVTUploadSessionAction@@AA_N@Z
D528B 61 __catch$?Source@TSFTPFileSystem@@UAEXAAUTLocalFileHandle@@ABVUnicodeString@@AAV3@PBVTCopyParamType@@HPAVTFileOperationProgressType@@IAAVTUploadSessionAction@@AA_N@Z$0
D532F 61 __catch$?Source@TSFTPFileSystem@@UAEXAAUTLocalFileHandle@@ABVUnicodeString@@AAV3@PBVTCopyParamType@@HPAVTFileOperationProgressType@@IAAVTUploadSessionAction@@AA_N@Z$2
D559D 61 __catch$?Source@TSFTPFileSystem@@UAEXAAUTLocalFileHandle@@ABVUnicodeString@@AAV3@PBVTCopyParamType@@HPAVTFileOperationProgressType@@IAAVTUploadSessionAction@@AA_N@Z$4
D568A 61 __catch$?Source@TSFTPFileSystem@@UAEXAAUTLocalFileHandle@@ABVUnicodeString@@AAV3@PBVTCopyParamType@@HPAVTFileOperationProgressType@@IAAVTUploadSessionAction@@AA_N@Z$6
D5713 61 __catch$?Source@TSFTPFileSystem@@UAEXAAUTLocalFileHandle@@ABVUnicodeString@@AAV3@PBVTCopyParamType@@HPAVTFileOperationProgressType@@IAAVTUploadSessionAction@@AA_N@Z$8
D5760 61 ??R<lambda_d64b6d8325af27c1db1f8bb3f5bc668c>@@QBE@XZ
D5BC0 61 ??R<lambda_f8850c954a51d7289fa8cef7ca279efa>@@QBE@XZ
D5E30 61 ??R<lambda_c6b5ef4b11eaf5d66997f1643ee82103>@@QBE@XZ
D5E70 61 ??R<lambda_bbdb5ec457c42a472a998efff100e23f>@@QBE@XZ
D5F10 61 ?SFTPOpenRemoteFile@TSFTPFileSystem@@IAE?AVRawByteString@@ABVUnicodeString@@I_N_J@Z
D6160 61 ?SFTPOpenRemote@TSFTPFileSystem@@IAEHPAX0@Z
D6338 61 __catch$?SFTPOpenRemote@TSFTPFileSystem@@IAEHPAX0@Z$0
D6A0D 61 __catch$?SFTPOpenRemote@TSFTPFileSystem@@IAEHPAX0@Z$3
D6A9A 61 __catch$?SFTPOpenRemote@TSFTPFileSystem@@IAEHPAX0@Z$1
D6BD2 61 __catch$?SFTPOpenRemote@TSFTPFileSystem@@IAEHPAX0@Z$5
D6C40 61 ?SFTPCloseRemote@TSFTPFileSystem@@IAEXABVRawByteString@@ABVUnicodeString@@PAVTFileOperationProgressType@@_N3PAVTSFTPPacket@@@Z
D6E26 61 __catch$?SFTPCloseRemote@TSFTPFileSystem@@IAEXABVRawByteString@@ABVUnicodeString@@PAVTFileOperationProgressType@@_N3PAVTSFTPPacket@@@Z$0
D6E45 61 __catch$?SFTPCloseRemote@TSFTPFileSystem@@IAEXABVRawByteString@@ABVUnicodeString@@PAVTFileOperationProgressType@@_N3PAVTSFTPPacket@@@Z$2
D6ED0 61 ?CopyToLocal@TSFTPFileSystem@@UAEXPAVTStrings@@ABVUnicodeString@@PBVTCopyParamType@@HPAVTFileOperationProgressType@@AAW4TOnceDoneOperation@@@Z
D6F50 61 ?DirectorySunk@TSFTPFileSystem@@UAEXABVUnicodeString@@PBVTRemoteFile@@PBVTCopyParamType@@@Z
D7080 61 ?WriteLocalFile@TSFTPFileSystem@@IAEXPBVTCopyParamType@@PAVTStream@@AAVTFileBuffer@@ABVUnicodeString@@PAVTFileOperationProgressType@@@Z
D70FC 61 __catch$?WriteLocalFile@TSFTPFileSystem@@IAEXPBVTCopyParamType@@PAVTStream@@AAVTFileBuffer@@ABVUnicodeString@@PAVTFileOperationProgressType@@@Z$0
D71E0 61 ?Sink@TSFTPFileSystem@@UAEXABVUnicodeString@@PBVTRemoteFile@@0AAV2@HPBVTCopyParamType@@HPAVTFileOperationProgressType@@IAAVTDownloadSessionAction@@@Z
D7440 61 ??R<lambda_1f4f2a534e01de69f172553df91520ca>@@QBE@XZ
D7EAF 61 __catch$??R<lambda_1f4f2a534e01de69f172553df91520ca>@@QBE@XZ$2
D7F4D 61 __catch$??R<lambda_1f4f2a534e01de69f172553df91520ca>@@QBE@XZ$0
D8000 61 ??R<lambda_14f96909d251b9fd8abfcdb04daf77cf>@@QBE@XZ
D87B0 61 ??R<lambda_3455e27abe8265a3d332c7f547522a9d>@@QBE@XZ
D8860 61 ?GetSupportedChecksumAlgs@TSFTPFileSystem@@UAEXPAVTStrings@@@Z
D88B0 61 ?AddPathString@TSFTPFileSystem@@IAEXAAVTSFTPPacket@@ABVUnicodeString@@_N@Z
D8920 61 ??1?$unique_ptr@VTChmodSessionAction@@U?$default_delete@VTChmodSessionAction@@@std@@@std@@QAE@XZ
D8940 61 ??1?$unique_ptr@VTSFTPQueuePacket@@U?$default_delete@VTSFTPQueuePacket@@@std@@@std@@QAE@XZ
D8960 61 ?clear@?$_Tree@V?$_Tset_traits@IU?$less@I@std@@U?$custom_nballocator_t@I@nb@@$0A@@std@@@std@@QAEXXZ
D89A0 61 ??4?$CMSimpleStringT@D@@QAEAAV0@ABV0@@Z
D8A20 61 ??$calloc@PAE@nb@@YAPAEII@Z
D8A50 61 ??$FmtLoadStr@HHH@nb@@YA?AVUnicodeString@@HABH00@Z
D8AF0 61 ??$Sprintf@V?$ROProperty@H@@@nb@@YA?AVUnicodeString@@ABV1@ABV?$ROProperty@H@@@Z
D8B60 61 ??$Sprintf@HHVUnicodeString@@V1@@nb@@YA?AVUnicodeString@@ABV1@ABH100@Z
D8C00 61 ??$FmtLoadStr@VUnicodeString@@HV1@V1@@nb@@YA?AVUnicodeString@@HABV1@ABH00@Z
D8CB0 61 ??$FmtLoadStr@IHH@nb@@YA?AVUnicodeString@@HABIABH1@Z
D8D50 61 ??$Sprintf@DH@nb@@YA?AVUnicodeString@@ABV1@ABDABH@Z
D8DC0 61 ??$Sprintf@D@nb@@YA?AVUnicodeString@@ABV1@ABD@Z
D8E20 61 ??0?$scope_guard@V<lambda_1f4f2a534e01de69f172553df91520ca>@@V<lambda_3455e27abe8265a3d332c7f547522a9d>@@@detail@Sysutils@@QAE@$$QAV<lambda_1f4f2a534e01de69f172553df91520ca>@@$$QAV<lambda_3455e27abe8265a3d332c7f547522a9d>@@@Z
D8EC8 61 __catch$??0?$scope_guard@V<lambda_1f4f2a534e01de69f172553df91520ca>@@V<lambda_3455e27abe8265a3d332c7f547522a9d>@@@detail@Sysutils@@QAE@$$QAV<lambda_1f4f2a534e01de69f172553df91520ca>@@$$QAV<lambda_3455e27abe8265a3d332c7f547522a9d>@@@Z$0
D8EF0 61 ??0?$scope_guard@V<lambda_14f96909d251b9fd8abfcdb04daf77cf>@@V<lambda_2f42ea1579ca579525f58933b3c3e967>@@@detail@Sysutils@@QAE@$$QAV<lambda_14f96909d251b9fd8abfcdb04daf77cf>@@$$QAV<lambda_2f42ea1579ca579525f58933b3c3e967>@@@Z
D8F99 61 __catch$??0?$scope_guard@V<lambda_14f96909d251b9fd8abfcdb04daf77cf>@@V<lambda_2f42ea1579ca579525f58933b3c3e967>@@@detail@Sysutils@@QAE@$$QAV<lambda_14f96909d251b9fd8abfcdb04daf77cf>@@$$QAV<lambda_2f42ea1579ca579525f58933b3c3e967>@@@Z$0
D8FC0 61 ??0?$scope_guard@V<lambda_d64b6d8325af27c1db1f8bb3f5bc668c>@@V<lambda_bbdb5ec457c42a472a998efff100e23f>@@@detail@Sysutils@@QAE@$$QAV<lambda_d64b6d8325af27c1db1f8bb3f5bc668c>@@$$QAV<lambda_bbdb5ec457c42a472a998efff100e23f>@@@Z
D9064 61 __catch$??0?$scope_guard@V<lambda_d64b6d8325af27c1db1f8bb3f5bc668c>@@V<lambda_bbdb5ec457c42a472a998efff100e23f>@@@detail@Sysutils@@QAE@$$QAV<lambda_d64b6d8325af27c1db1f8bb3f5bc668c>@@$$QAV<lambda_bbdb5ec457c42a472a998efff100e23f>@@@Z$0
D9080 61 ??0?$scope_guard@V<lambda_f8850c954a51d7289fa8cef7ca279efa>@@V<lambda_c6b5ef4b11eaf5d66997f1643ee82103>@@@detail@Sysutils@@QAE@$$QAV<lambda_f8850c954a51d7289fa8cef7ca279efa>@@$$QAV<lambda_c6b5ef4b11eaf5d66997f1643ee82103>@@@Z
D9137 61 __catch$??0?$scope_guard@V<lambda_f8850c954a51d7289fa8cef7ca279efa>@@V<lambda_c6b5ef4b11eaf5d66997f1643ee82103>@@@detail@Sysutils@@QAE@$$QAV<lambda_f8850c954a51d7289fa8cef7ca279efa>@@$$QAV<lambda_c6b5ef4b11eaf5d66997f1643ee82103>@@@Z$0
D9160 61 ??0?$scope_guard@V<lambda_f6e027ba61b6912de830ef93d524b80b>@@V<lambda_6982e59c31cdf0957e6060b569ff60bb>@@@detail@Sysutils@@QAE@$$QAV<lambda_f6e027ba61b6912de830ef93d524b80b>@@$$QAV<lambda_6982e59c31cdf0957e6060b569ff60bb>@@@Z
D91F7 61 __catch$??0?$scope_guard@V<lambda_f6e027ba61b6912de830ef93d524b80b>@@V<lambda_6982e59c31cdf0957e6060b569ff60bb>@@@detail@Sysutils@@QAE@$$QAV<lambda_f6e027ba61b6912de830ef93d524b80b>@@$$QAV<lambda_6982e59c31cdf0957e6060b569ff60bb>@@@Z$0
D9220 61 ??0?$scope_guard@V<lambda_9088db756ef9d04dbc8c0198ed51924a>@@V<lambda_205abe70f3c14dc2fe4a812746462366>@@@detail@Sysutils@@QAE@$$QAV<lambda_9088db756ef9d04dbc8c0198ed51924a>@@$$QAV<lambda_205abe70f3c14dc2fe4a812746462366>@@@Z
D92B9 61 __catch$??0?$scope_guard@V<lambda_9088db756ef9d04dbc8c0198ed51924a>@@V<lambda_205abe70f3c14dc2fe4a812746462366>@@@detail@Sysutils@@QAE@$$QAV<lambda_9088db756ef9d04dbc8c0198ed51924a>@@$$QAV<lambda_205abe70f3c14dc2fe4a812746462366>@@@Z$0
D92E0 61 ??0?$scope_guard@V<lambda_34caaeb5e7f2f183bcd41a37d6b3884f>@@V<lambda_914c291a8e84077c350bd805bc71a563>@@@detail@Sysutils@@QAE@$$QAV<lambda_34caaeb5e7f2f183bcd41a37d6b3884f>@@$$QAV<lambda_914c291a8e84077c350bd805bc71a563>@@@Z
D9368 61 __catch$??0?$scope_guard@V<lambda_34caaeb5e7f2f183bcd41a37d6b3884f>@@V<lambda_914c291a8e84077c350bd805bc71a563>@@@detail@Sysutils@@QAE@$$QAV<lambda_34caaeb5e7f2f183bcd41a37d6b3884f>@@$$QAV<lambda_914c291a8e84077c350bd805bc71a563>@@@Z$0
D9390 61 ??0?$scope_guard@V<lambda_c733d1cf3d0f2c3646b9b3b2d17eab13>@@V<lambda_358769e7a6fb7366e1166f702dcaad05>@@@detail@Sysutils@@QAE@$$QAV<lambda_c733d1cf3d0f2c3646b9b3b2d17eab13>@@$$QAV<lambda_358769e7a6fb7366e1166f702dcaad05>@@@Z
D9443 61 __catch$??0?$scope_guard@V<lambda_c733d1cf3d0f2c3646b9b3b2d17eab13>@@V<lambda_358769e7a6fb7366e1166f702dcaad05>@@@detail@Sysutils@@QAE@$$QAV<lambda_c733d1cf3d0f2c3646b9b3b2d17eab13>@@$$QAV<lambda_358769e7a6fb7366e1166f702dcaad05>@@@Z$0
D9460 61 ??0?$scope_guard@V<lambda_bfafc6c0ce4ef1bc327546ed7af1b230>@@V<lambda_fc13d3df0f701092172d48f92f1ce716>@@@detail@Sysutils@@QAE@$$QAV<lambda_bfafc6c0ce4ef1bc327546ed7af1b230>@@$$QAV<lambda_fc13d3df0f701092172d48f92f1ce716>@@@Z
D94C0 61 __catch$??0?$scope_guard@V<lambda_bfafc6c0ce4ef1bc327546ed7af1b230>@@V<lambda_fc13d3df0f701092172d48f92f1ce716>@@@detail@Sysutils@@QAE@$$QAV<lambda_bfafc6c0ce4ef1bc327546ed7af1b230>@@$$QAV<lambda_fc13d3df0f701092172d48f92f1ce716>@@@Z$0
D94D0 61 ??0?$scope_guard@V<lambda_6582aeeb8d644ad9cbeddde7eb4758cf>@@V<lambda_be39cddc8a753f034524dba21de2709a>@@@detail@Sysutils@@QAE@$$QAV<lambda_6582aeeb8d644ad9cbeddde7eb4758cf>@@$$QAV<lambda_be39cddc8a753f034524dba21de2709a>@@@Z
D9554 61 __catch$??0?$scope_guard@V<lambda_6582aeeb8d644ad9cbeddde7eb4758cf>@@V<lambda_be39cddc8a753f034524dba21de2709a>@@@detail@Sysutils@@QAE@$$QAV<lambda_6582aeeb8d644ad9cbeddde7eb4758cf>@@$$QAV<lambda_be39cddc8a753f034524dba21de2709a>@@@Z$0
D9570 61 ??0?$scope_guard@V<lambda_267a6de5458f047a641e6949d31715f4>@@V<lambda_a1e84cd0730af22e36e765f30295fa9c>@@@detail@Sysutils@@QAE@$$QAV<lambda_267a6de5458f047a641e6949d31715f4>@@$$QAV<lambda_a1e84cd0730af22e36e765f30295fa9c>@@@Z
D9632 61 __catch$??0?$scope_guard@V<lambda_267a6de5458f047a641e6949d31715f4>@@V<lambda_a1e84cd0730af22e36e765f30295fa9c>@@@detail@Sysutils@@QAE@$$QAV<lambda_267a6de5458f047a641e6949d31715f4>@@$$QAV<lambda_a1e84cd0730af22e36e765f30295fa9c>@@@Z$0
D9650 61 ??0?$scope_guard@V<lambda_04e0f2a8a4c0d02dc850de47e87f577a>@@V<lambda_966ba3e6bd7fcc47abb8bb5118215d6e>@@@detail@Sysutils@@QAE@$$QAV<lambda_04e0f2a8a4c0d02dc850de47e87f577a>@@$$QAV<lambda_966ba3e6bd7fcc47abb8bb5118215d6e>@@@Z
D96CA 61 __catch$??0?$scope_guard@V<lambda_04e0f2a8a4c0d02dc850de47e87f577a>@@V<lambda_966ba3e6bd7fcc47abb8bb5118215d6e>@@@detail@Sysutils@@QAE@$$QAV<lambda_04e0f2a8a4c0d02dc850de47e87f577a>@@$$QAV<lambda_966ba3e6bd7fcc47abb8bb5118215d6e>@@@Z$0
D96F0 61 ??0?$scope_guard@V<lambda_8f7a6539226f2126b4c5b1cf4b68af08>@@V<lambda_e95b629798d8ab5df49454c7f630d981>@@@detail@Sysutils@@QAE@$$QAV<lambda_8f7a6539226f2126b4c5b1cf4b68af08>@@$$QAV<lambda_e95b629798d8ab5df49454c7f630d981>@@@Z
D97EE 61 __catch$??0?$scope_guard@V<lambda_8f7a6539226f2126b4c5b1cf4b68af08>@@V<lambda_e95b629798d8ab5df49454c7f630d981>@@@detail@Sysutils@@QAE@$$QAV<lambda_8f7a6539226f2126b4c5b1cf4b68af08>@@$$QAV<lambda_e95b629798d8ab5df49454c7f630d981>@@@Z$0
D9800 61 ??0?$scope_guard@V<lambda_cc88a17acf857ff0f9d666fbc7b6f033>@@V<lambda_1d5127a7c1e114080cd266f77a0a5348>@@@detail@Sysutils@@QAE@$$QAV<lambda_cc88a17acf857ff0f9d666fbc7b6f033>@@$$QAV<lambda_1d5127a7c1e114080cd266f77a0a5348>@@@Z
D99A9 61 __catch$??0?$scope_guard@V<lambda_cc88a17acf857ff0f9d666fbc7b6f033>@@V<lambda_1d5127a7c1e114080cd266f77a0a5348>@@@detail@Sysutils@@QAE@$$QAV<lambda_cc88a17acf857ff0f9d666fbc7b6f033>@@$$QAV<lambda_1d5127a7c1e114080cd266f77a0a5348>@@@Z$0
D99D0 61 ??0?$scope_guard@V<lambda_5f21b3ec7ea1931679849af28126c85d>@@V<lambda_0f86f68d6688eacc0eb3423fe3caa41a>@@@detail@Sysutils@@QAE@$$QAV<lambda_5f21b3ec7ea1931679849af28126c85d>@@$$QAV<lambda_0f86f68d6688eacc0eb3423fe3caa41a>@@@Z
D9A62 61 __catch$??0?$scope_guard@V<lambda_5f21b3ec7ea1931679849af28126c85d>@@V<lambda_0f86f68d6688eacc0eb3423fe3caa41a>@@@detail@Sysutils@@QAE@$$QAV<lambda_5f21b3ec7ea1931679849af28126c85d>@@$$QAV<lambda_0f86f68d6688eacc0eb3423fe3caa41a>@@@Z$0
D9A80 61 ??0?$scope_guard@V<lambda_5e94a006d161262531fe8ca427d204f7>@@V<lambda_70cca99b1a349871fc684b16364a2498>@@@detail@Sysutils@@QAE@$$QAV<lambda_5e94a006d161262531fe8ca427d204f7>@@$$QAV<lambda_70cca99b1a349871fc684b16364a2498>@@@Z
D9B21 61 __catch$??0?$scope_guard@V<lambda_5e94a006d161262531fe8ca427d204f7>@@V<lambda_70cca99b1a349871fc684b16364a2498>@@@detail@Sysutils@@QAE@$$QAV<lambda_5e94a006d161262531fe8ca427d204f7>@@$$QAV<lambda_70cca99b1a349871fc684b16364a2498>@@@Z$0
D9B40 61 ??0?$scope_guard@V<lambda_2105b819cf8b35c77599903880ab333b>@@V<lambda_e36f582b9cfcf9a1924ce12ed30e8322>@@@detail@Sysutils@@QAE@$$QAV<lambda_2105b819cf8b35c77599903880ab333b>@@$$QAV<lambda_e36f582b9cfcf9a1924ce12ed30e8322>@@@Z
D9BD8 61 __catch$??0?$scope_guard@V<lambda_2105b819cf8b35c77599903880ab333b>@@V<lambda_e36f582b9cfcf9a1924ce12ed30e8322>@@@detail@Sysutils@@QAE@$$QAV<lambda_2105b819cf8b35c77599903880ab333b>@@$$QAV<lambda_e36f582b9cfcf9a1924ce12ed30e8322>@@@Z$0
D9C00 61 ??0?$scope_guard@V<lambda_79dd1002ab0dc2cc907d245e7124eacd>@@V<lambda_875301a82c48395666fd5f6ef3f5bffe>@@@detail@Sysutils@@QAE@$$QAV<lambda_79dd1002ab0dc2cc907d245e7124eacd>@@$$QAV<lambda_875301a82c48395666fd5f6ef3f5bffe>@@@Z
D9C81 61 __catch$??0?$scope_guard@V<lambda_79dd1002ab0dc2cc907d245e7124eacd>@@V<lambda_875301a82c48395666fd5f6ef3f5bffe>@@@detail@Sysutils@@QAE@$$QAV<lambda_79dd1002ab0dc2cc907d245e7124eacd>@@$$QAV<lambda_875301a82c48395666fd5f6ef3f5bffe>@@@Z$0
D9C90 61 ??0?$scope_guard@V<lambda_d0b2826a62ae4cceee036678e1d510bf>@@V<lambda_d873cc00b432388da5027aa5fb412535>@@@detail@Sysutils@@QAE@$$QAV<lambda_d0b2826a62ae4cceee036678e1d510bf>@@$$QAV<lambda_d873cc00b432388da5027aa5fb412535>@@@Z
D9D06 61 __catch$??0?$scope_guard@V<lambda_d0b2826a62ae4cceee036678e1d510bf>@@V<lambda_d873cc00b432388da5027aa5fb412535>@@@detail@Sysutils@@QAE@$$QAV<lambda_d0b2826a62ae4cceee036678e1d510bf>@@$$QAV<lambda_d873cc00b432388da5027aa5fb412535>@@@Z$0
D9D20 61 ?SetString@?$CMSimpleStringT@D@@QAEXPBDH@Z
D9D80 85 ??$_Emplace_reallocate@ABVUnicodeString@@@?$vector@VUnicodeString@@U?$custom_nballocator_t@VUnicodeString@@@nb@@@std@@AAEPAVUnicodeString@@QAV2@ABV2@@Z
D9E80 61 ??$_Find_lower_bound@I@?$_Tree@V?$_Tset_traits@IU?$less@I@std@@U?$custom_nballocator_t@I@nb@@$0A@@std@@@std@@IBE?AU?$_Tree_find_result@PAU?$_Tree_node@IPAX@std@@@1@ABI@Z
D9ED0 61 ?_Change_array@?$vector@VUnicodeString@@U?$custom_nballocator_t@VUnicodeString@@@nb@@@std@@AAEXQAVUnicodeString@@II@Z
D9F10 61 ?Empty@?$CMSimpleStringT@D@@QAEXXZ
D9F70 61 ??$_Uninitialized_move@PAVUnicodeString@@U?$custom_nballocator_t@VUnicodeString@@@nb@@@std@@YAPAVUnicodeString@@QAV1@0PAV1@AAU?$custom_nballocator_t@VUnicodeString@@@nb@@@Z
D9FB0 61 ??_ETSFTPFileSystem@@W7AEPAXI@Z
D9FC0 72 __vsscanf_l
D9FF0 72 _sscanf
DA010 72 ?is@TWebDAVFileSystem@@UBE_NG@Z
DA040 72 ?ThrowSkipFile@@YAXPBVException@@ABVUnicodeString@@@Z
DA0A0 72 ?ThrowSkipFileNull@@YAXXZ
DA0E0 72 ?PathEscape@@YA?AVAnsiString@@PBD@Z
DA170 72 ?PathUnescape@@YA?AVUnicodeString@@PBD@Z
DA320 72 ?RequireNeon@@YAXPAVTTerminal@@@Z
DA3D0 72 ?Init@TWebDAVFileSystem@@UAEXPAX@Z
DA400 72 ??1TWebDAVFileSystem@@UAE@XZ
DA590 72 ?Open@TWebDAVFileSystem@@UAEXXZ
DA8DD 72 __catch$?Open@TWebDAVFileSystem@@UAEXXZ$0
DA9C0 72 ?ParsePathFromUrl@TWebDAVFileSystem@@ABE?AVUnicodeString@@ABV2@@Z
DAAF0 72 ?NeonClientOpenSessionInternal@TWebDAVFileSystem@@IAEXAAVUnicodeString@@ABV2@@Z
DAEC0 72 ?SetSessionTls@TWebDAVFileSystem@@AAEXPAUTSessionContext@1@PAUne_session_s@@_N@Z
DAF20 72 ?InitSession@TWebDAVFileSystem@@AAEXPAUTSessionContext@1@PAUne_session_s@@@Z
DB110 72 ?NeonOpen@TWebDAVFileSystem@@IAEPAUTSessionContext@1@ABVUnicodeString@@AAVUTF8String@@1@Z
DB440 72 ?IsTlsSession@TWebDAVFileSystem@@ABE_NPAUne_session_s@@@Z
DB4A0 72 ?NeonAuxRequestInit@TWebDAVFileSystem@@CAXPAUne_session_s@@PAUne_request_s@@PAX@Z
DB500 72 ?NeonAddAuthentication@TWebDAVFileSystem@@IAEXPAUTSessionContext@1@_N@Z
DB560 72 ?GetRedirectUrl@TWebDAVFileSystem@@ABE?AVUnicodeString@@XZ
DB6B0 72 ?ExchangeCapabilities@TWebDAVFileSystem@@IAEXPBDAAVUnicodeString@@@Z
DBA20 72 ?CloseNeonSession@TWebDAVFileSystem@@IAEXXZ
DBA40 72 ?Close@TWebDAVFileSystem@@UAEXXZ
DBA80 72 ?GetActive@TWebDAVFileSystem@@UBE_NXZ
DBA90 72 ?CollectUsage@TWebDAVFileSystem@@UAEXXZ
DBED0 72 ?GetSessionInfo@TWebDAVFileSystem@@UBEABUTSessionInfo@@XZ
DBEE0 72 ?GetFileSystemInfo@TWebDAVFileSystem@@UAEABUTFileSystemInfo@@_N@Z
DBEF0 72 ?GetStoredCredentialsTried@TWebDAVFileSystem@@UBE_NXZ
DBF00 72 ?AbsolutePath@TWebDAVFileSystem@@UAE?AVUnicodeString@@ABV2@_N@Z
DBF20 72 ?AbsolutePath@TWebDAVFileSystem@@UBE?AVUnicodeString@@ABV2@_N@Z
DC090 72 ?IsCapable@TWebDAVFileSystem@@UBE_NH@Z
DC0C0 72 $LN45
DC0D0 72 $LN44
DC100 72 ?CheckStatus@TWebDAVFileSystem@@IAEXPBUTSessionContext@1@H@Z
DC240 72 ?ReadCurrentDirectory@TWebDAVFileSystem@@UAEXXZ
DC310 72 ?HomeDirectory@TWebDAVFileSystem@@UAEXXZ
DC440 72 ?DirectoryPath@TWebDAVFileSystem@@ABE?AVUnicodeString@@ABV2@@Z
DC500 72 ?FilePath@TWebDAVFileSystem@@ABE?AVUnicodeString@@PBVTRemoteFile@@@Z
DC5D0 72 ?TryOpenDirectory@TWebDAVFileSystem@@IAEXABVUnicodeString@@@Z
DC780 72 ?ChangeDirectory@TWebDAVFileSystem@@UAEXABVUnicodeString@@@Z
DC830 72 ?CachedChangeDirectory@TWebDAVFileSystem@@UAEXABVUnicodeString@@@Z
DC890 72 ?ReadDirectoryInternal@TWebDAVFileSystem@@AAEHABVUnicodeString@@PAVTRemoteFileList@@@Z
DCAC0 72 ??R<lambda_f08fbe20967cb2027ecc09c157f8faf8>@@QBE@XZ
DCAF0 72 ?IsValidRedirect@TWebDAVFileSystem@@ABE_NHAAVUnicodeString@@@Z
DCC80 72 ?ReadDirectory@TWebDAVFileSystem@@UAEXPAVTRemoteFileList@@@Z
DCDA0 72 ?ReadFile@TWebDAVFileSystem@@UAEXABVUnicodeString@@AAPAVTRemoteFile@@@Z
DCE70 72 ?NeonPropsResult@TWebDAVFileSystem@@KAXPAXPBUne_uri@@PBUne_prop_result_set_s@@@Z
DD4A0 72 ?ParsePropResultSet@TWebDAVFileSystem@@IAEXPAVTRemoteFile@@ABVUnicodeString@@PBUne_prop_result_set_s@@@Z
DDE50 72 ?CustomReadFileInternal@TWebDAVFileSystem@@AAEHABVUnicodeString@@AAPAVTRemoteFile@@PAV3@@Z
DE050 72 ?DeleteFileW@TWebDAVFileSystem@@UAEXABVUnicodeString@@PBVTRemoteFile@@HAAVTRmSessionAction@@@Z
DE280 72 ?RenameFileInternal@TWebDAVFileSystem@@AAEHABVUnicodeString@@0_N@Z
DE420 72 ?RenameFile@TWebDAVFileSystem@@UAEXABVUnicodeString@@PBVTRemoteFile@@0_N@Z
DE640 72 ?CopyFileInternal@TWebDAVFileSystem@@AAEHABVUnicodeString@@0_N@Z
DE890 72 ?CopyFileW@TWebDAVFileSystem@@UAEXABVUnicodeString@@PBVTRemoteFile@@0_N@Z
DE990 72 ?CreateDirectoryW@TWebDAVFileSystem@@UAEXABVUnicodeString@@_N@Z
DEB70 72 ?ConfirmOverwrite@TWebDAVFileSystem@@IAEXABVUnicodeString@@0PAVTFileOperationProgressType@@PBUTOverwriteFileParams@@PBVTCopyParamType@@H@Z
DEEB0 72 ?NeonQuotaResult@TWebDAVFileSystem@@KAXPAXPBUne_uri@@PBUne_prop_result_set_s@@@Z
DF030 72 ?SpaceAvailable@TWebDAVFileSystem@@UAEXABVUnicodeString@@AAUTSpaceAvailable@@@Z
DF1E0 72 ?CopyToRemote@TWebDAVFileSystem@@UAEXPAVTStrings@@ABVUnicodeString@@PBVTCopyParamType@@HPAVTFileOperationProgressType@@AAW4TOnceDoneOperation@@@Z
DF210 72 ?Source@TWebDAVFileSystem@@UAEXAAUTLocalFileHandle@@ABVUnicodeString@@AAV3@PBVTCopyParamType@@HPAVTFileOperationProgressType@@IAAVTUploadSessionAction@@AA_N@Z
DF290 72 ??R<lambda_f4296bf71aeb74d3f715e08f9c1de685>@@QBE@XZ
DF4E9 72 __catch$??R<lambda_f4296bf71aeb74d3f715e08f9c1de685>@@QBE@XZ$0
DFB9E 72 __catch$??R<lambda_f4296bf71aeb74d3f715e08f9c1de685>@@QBE@XZ$2
DFC7B 72 __catch$??R<lambda_f4296bf71aeb74d3f715e08f9c1de685>@@QBE@XZ$4
DFCB0 72 ??R<lambda_7cf11893c57f9437880fcd2138a76dc2>@@QBE@XZ
DFCE0 55 ?CopyToLocal@TS3FileSystem@@UAEXPAVTStrings@@ABVUnicodeString@@PBVTCopyParamType@@HPAVTFileOperationProgressType@@AAW4TOnceDoneOperation@@@Z
DFD10 72 ?NeonCreateRequest@TWebDAVFileSystem@@KAXPAUne_request_s@@PAXPBD2@Z
DFD70 72 ?NeonPreSend@TWebDAVFileSystem@@KAXPAUne_request_s@@PAXPAUne_buffer@@@Z
E0190 72 ?NeonPostSend@TWebDAVFileSystem@@KAHPAUne_request_s@@PAXPBUne_status@@@Z
E01C0 72 ?IsNtlmAuthentication@TWebDAVFileSystem@@ABE_NPAUTSessionContext@1@@Z
E0320 72 ?NeonPostHeaders@TWebDAVFileSystem@@KAXPAUne_request_s@@PAXPBUne_status@@@Z
E0490 72 ?NeonUploadBodyProvider@TWebDAVFileSystem@@KAHPAXPADI@Z
E04B0 72 ?AddHeaderValueToList@@YAXAAVUnicodeString@@PAUne_request_s@@PBD@Z
E05E0 72 ?NeonBodyAccepter@TWebDAVFileSystem@@KAHPAXPAUne_request_s@@PBUne_status@@@Z
E0850 72 ?CancelTransfer@TWebDAVFileSystem@@IAE_NXZ
E08B0 72 ?NeonBodyReader@TWebDAVFileSystem@@KAHPAXPBDI@Z
E0A10 72 ?Sink@TWebDAVFileSystem@@MAEXABVUnicodeString@@PBVTRemoteFile@@0AAV2@HPBVTCopyParamType@@HPAVTFileOperationProgressType@@IAAVTDownloadSessionAction@@@Z
E0CB1 72 __catch$?Sink@TWebDAVFileSystem@@MAEXABVUnicodeString@@PBVTRemoteFile@@0AAV2@HPBVTCopyParamType@@HPAVTFileOperationProgressType@@IAAVTDownloadSessionAction@@@Z$0
E0D40 72 ??R<lambda_f722d58a1ae3d54f1b1fea0f5099ec3a>@@QBE@XZ
E1090 72 ??R<lambda_bd319e4716c22cacc3bcd18176d8f278>@@QBE@XZ
E10E0 72 ?DoNeonServerSSLCallback@TWebDAVFileSystem@@KAHPAXHPBUne_ssl_certificate_s@@_N@Z
E11F0 72 ??0TNeonCertificateData@@QAE@XZ
E1250 72 ?NeonServerSSLCallbackMain@TWebDAVFileSystem@@KAHPAXHPBUne_ssl_certificate_s@@@Z
E1270 72 ?NeonServerSSLCallbackAux@TWebDAVFileSystem@@KAHPAXHPBUne_ssl_certificate_s@@@Z
E1300 72 ?NeonProvideClientCert@TWebDAVFileSystem@@KAXPAXPAUne_session_s@@PBQBUne_ssl_dname_s@@H@Z
E1600 72 ?NeonRequestAuth@TWebDAVFileSystem@@KAHPAXPBDHPAD2@Z
E1A40 72 ?NeonNotifier@TWebDAVFileSystem@@KAXPAXW4ne_session_status@@PBTne_session_status_info_u@@@Z
E1B20 55 ?InitSslSession@TS3FileSystem@@KAXPAUssl_st@@PAUne_session_s@@@Z
E1B90 72 ?LockFile@TWebDAVFileSystem@@UAEXABVUnicodeString@@PBVTRemoteFile@@@Z
E1C00 72 ??R<lambda_ce03d42af89a32b138b32f3f294f7e72>@@QBE@XZ
E1E30 72 ??R<lambda_d32d31a4d87e3a0a8e518f29c2a7a0ff>@@QBE@XZ
E1E80 72 ?RequireLockStore@TWebDAVFileSystem@@IAEXXZ
E1F10 72 ?LockResult@TWebDAVFileSystem@@KAXPAXPBUne_lock@@PBUne_uri@@PBUne_status@@@Z
E1F50 72 ?DiscardLock@TWebDAVFileSystem@@AAEXABVRawByteString@@@Z
E1FC0 72 ?UnlockFile@TWebDAVFileSystem@@UAEXABVUnicodeString@@PBVTRemoteFile@@@Z
E2030 72 ??R<lambda_18d3c670abd9ddcae9da264a67381b34>@@QBE@XZ
E23E0 72 ??R<lambda_8591bb32ca60556b0b8d5f0addc30989>@@QBE@XZ
E2430 72 ?UpdateFromMain@TWebDAVFileSystem@@UAEXPAVTCustomFileSystem@@@Z
E2650 72 ??1?$unique_ptr@UTSessionContext@TWebDAVFileSystem@@U?$default_delete@UTSessionContext@TWebDAVFileSystem@@@std@@@std@@QAE@XZ
E2660 72 ??R?$default_delete@UTSessionContext@TWebDAVFileSystem@@@std@@QBEXPAUTSessionContext@TWebDAVFileSystem@@@Z
E2740 72 ??$Sprintf@VUnicodeString@@V?$RWProperty@VUnicodeString@@@@V1@@nb@@YA?AVUnicodeString@@ABV1@0ABV?$RWProperty@VUnicodeString@@@@0@Z
E27D0 72 ??0?$scope_guard@V<lambda_18d3c670abd9ddcae9da264a67381b34>@@V<lambda_8591bb32ca60556b0b8d5f0addc30989>@@@detail@Sysutils@@QAE@$$QAV<lambda_18d3c670abd9ddcae9da264a67381b34>@@$$QAV<lambda_8591bb32ca60556b0b8d5f0addc30989>@@@Z
E287E 72 __catch$??0?$scope_guard@V<lambda_18d3c670abd9ddcae9da264a67381b34>@@V<lambda_8591bb32ca60556b0b8d5f0addc30989>@@@detail@Sysutils@@QAE@$$QAV<lambda_18d3c670abd9ddcae9da264a67381b34>@@$$QAV<lambda_8591bb32ca60556b0b8d5f0addc30989>@@@Z$0
E28A0 72 ??0?$scope_guard@V<lambda_ce03d42af89a32b138b32f3f294f7e72>@@V<lambda_d32d31a4d87e3a0a8e518f29c2a7a0ff>@@@detail@Sysutils@@QAE@$$QAV<lambda_ce03d42af89a32b138b32f3f294f7e72>@@$$QAV<lambda_d32d31a4d87e3a0a8e518f29c2a7a0ff>@@@Z
E2952 72 __catch$??0?$scope_guard@V<lambda_ce03d42af89a32b138b32f3f294f7e72>@@V<lambda_d32d31a4d87e3a0a8e518f29c2a7a0ff>@@@detail@Sysutils@@QAE@$$QAV<lambda_ce03d42af89a32b138b32f3f294f7e72>@@$$QAV<lambda_d32d31a4d87e3a0a8e518f29c2a7a0ff>@@@Z$0
E2970 72 ??0?$scope_guard@V<lambda_f722d58a1ae3d54f1b1fea0f5099ec3a>@@V<lambda_bd319e4716c22cacc3bcd18176d8f278>@@@detail@Sysutils@@QAE@$$QAV<lambda_f722d58a1ae3d54f1b1fea0f5099ec3a>@@$$QAV<lambda_bd319e4716c22cacc3bcd18176d8f278>@@@Z
E2A37 72 __catch$??0?$scope_guard@V<lambda_f722d58a1ae3d54f1b1fea0f5099ec3a>@@V<lambda_bd319e4716c22cacc3bcd18176d8f278>@@@detail@Sysutils@@QAE@$$QAV<lambda_f722d58a1ae3d54f1b1fea0f5099ec3a>@@$$QAV<lambda_bd319e4716c22cacc3bcd18176d8f278>@@@Z$0
E2A60 72 ??0?$scope_guard@V<lambda_f4296bf71aeb74d3f715e08f9c1de685>@@V<lambda_7cf11893c57f9437880fcd2138a76dc2>@@@detail@Sysutils@@QAE@$$QAV<lambda_f4296bf71aeb74d3f715e08f9c1de685>@@$$QAV<lambda_7cf11893c57f9437880fcd2138a76dc2>@@@Z
E2B1B 72 __catch$??0?$scope_guard@V<lambda_f4296bf71aeb74d3f715e08f9c1de685>@@V<lambda_7cf11893c57f9437880fcd2138a76dc2>@@@detail@Sysutils@@QAE@$$QAV<lambda_f4296bf71aeb74d3f715e08f9c1de685>@@$$QAV<lambda_7cf11893c57f9437880fcd2138a76dc2>@@@Z$0
E2B40 72 ??0?$scope_guard@V<lambda_58fdd73a7cb163eb2022a039a7bc50a8>@@V<lambda_f08fbe20967cb2027ecc09c157f8faf8>@@@detail@Sysutils@@QAE@$$QAV<lambda_58fdd73a7cb163eb2022a039a7bc50a8>@@$$QAV<lambda_f08fbe20967cb2027ecc09c157f8faf8>@@@Z
E2C09 72 __catch$??0?$scope_guard@V<lambda_58fdd73a7cb163eb2022a039a7bc50a8>@@V<lambda_f08fbe20967cb2027ecc09c157f8faf8>@@@detail@Sysutils@@QAE@$$QAV<lambda_58fdd73a7cb163eb2022a039a7bc50a8>@@$$QAV<lambda_f08fbe20967cb2027ecc09c157f8faf8>@@@Z$0
E2C23 72 ??_ETWebDAVFileSystem@@W7AEPAXI@Z
E2C30 55 ?is@TS3FileSystem@@UBE_NG@Z
E2C60 55 ?S3LibDefaultRegion@@YA?AVUnicodeString@@XZ
E2C90 55 ??0TS3FileSystem@@QAE@PAVTTerminal@@@Z
E2E70 55 ?Open@TS3FileSystem@@UAEXXZ
E36D1 55 __catch$?Open@TS3FileSystem@@UAEXXZ$0
E3780 55 ??0TLibS3CallbackData@@QAE@XZ
E37D0 55 ?LibS3SessionCallback@TS3FileSystem@@KAXPAUne_session_s@@PAX@Z
E3990 55 ?LibS3SslCallback@TS3FileSystem@@KAHHPBUne_ssl_certificate_s@@PAX@Z
E3B10 55 ?LibS3ResponseDataCallback@TS3FileSystem@@KAXPBDIPAX@Z
E3BC0 55 ?LibS3ResponseCompleteCallback@TS3FileSystem@@KAXW4S3Status@@PBUS3ErrorDetails@@PAX@Z
E4110 55 ?RequestInit@TS3FileSystem@@IAEXAAUTLibS3CallbackData@@@Z
E4130 55 ?CheckLibS3Error@TS3FileSystem@@IAEXABUTLibS3CallbackData@@_N@Z
E447C 55 $LN722
E4498 55 $LN721
E44F0 55 ?LibS3Deinitialize@TS3FileSystem@@IAEXXZ
E4510 55 ?ParsePath@TS3FileSystem@@IAEXABVUnicodeString@@AAV2@1@Z
E4710 55 ?GetBucketContext@TS3FileSystem@@IAE?AUTLibS3BucketContext@@ABVUnicodeString@@0@Z
E4F40 55 ??1TLibS3BucketContext@@QAE@XZ
E5000 55 ??1TLibS3ListBucketCallbackData@@QAE@XZ
E5050 55 ?Close@TS3FileSystem@@UAEXXZ
E5090 55 ?GetActive@TS3FileSystem@@UBE_NXZ
E50A0 55 ?CollectUsage@TS3FileSystem@@UAEXXZ
E52F0 55 ?GetFileSystemInfo@TS3FileSystem@@UAEABUTFileSystemInfo@@_N@Z
E5300 55 ?GetStoredCredentialsTried@TS3FileSystem@@UBE_NXZ
E5360 55 ?GetUserName@TS3FileSystem@@UBE?AVUnicodeString@@XZ
E5380 55 ?AbsolutePath@TS3FileSystem@@UAE?AVUnicodeString@@ABV2@_N@Z
E5420 55 ?IsCapable@TS3FileSystem@@UBE_NH@Z
E5444 55 $LN45
E5450 55 $LN44
E5480 55 ?GetCurrentDirectory@TS3FileSystem@@MBE?AVUnicodeString@@XZ
E54A0 55 ?DoStartup@TS3FileSystem@@UAEXXZ
E54B0 55 ?ReadCurrentDirectory@TS3FileSystem@@UAEXXZ
E5580 55 ?HomeDirectory@TS3FileSystem@@UAEXXZ
E56F0 55 ?TryOpenDirectory@TS3FileSystem@@IAEXABVUnicodeString@@@Z
E5890 55 ?ChangeDirectory@TS3FileSystem@@UAEXABVUnicodeString@@@Z
E5930 55 ?CachedChangeDirectory@TS3FileSystem@@UAEXABVUnicodeString@@@Z
E5990 55 ?MakeRemoteToken@TS3FileSystem@@IAE?AVTRemoteToken@@PBD0@Z
E5AE0 55 ?LibS3ListServiceCallback@TS3FileSystem@@KA?AW4S3Status@@PBD00_JPAX@Z
E5D10 55 ?LibS3ListBucketCallback@TS3FileSystem@@KA?AW4S3Status@@HPBDHPBUS3ListBucketContent@@HPAPBDPAX@Z
E61A0 55 ?DoListBucket@TS3FileSystem@@IAEXABVUnicodeString@@PAVTRemoteFileList@@HABUTLibS3BucketContext@@AAUTLibS3ListBucketCallbackData@@@Z
E6330 55 ?HandleNonBucketStatus@TS3FileSystem@@IAEXAAUTLibS3CallbackData@@AA_N@Z
E6430 55 ?IsGoogleCloud@TS3FileSystem@@IBE_NXZ
E6530 55 ?ReadDirectoryInternal@TS3FileSystem@@IAEXABVUnicodeString@@PAVTRemoteFileList@@H0@Z
E6A50 55 ??1TLibS3ListServiceCallbackData@@QAE@XZ
E6AA0 55 ?ReadDirectory@TS3FileSystem@@UAEXPAVTRemoteFileList@@@Z
E6B90 55 ?DoReadFile@TS3FileSystem@@IAEXABVUnicodeString@@AAPAVTRemoteFile@@@Z
E6CE0 55 ?ReadFile@TS3FileSystem@@UAEXABVUnicodeString@@AAPAVTRemoteFile@@@Z
E6D60 55 ?DeleteFileW@TS3FileSystem@@UAEXABVUnicodeString@@PBVTRemoteFile@@HAAVTRmSessionAction@@@Z
E6F24 55 __catch$?DeleteFileW@TS3FileSystem@@UAEXABVUnicodeString@@PBVTRemoteFile@@HAAVTRmSessionAction@@@Z$0
E7070 55 ?RenameFile@TS3FileSystem@@UAEXABVUnicodeString@@PBVTRemoteFile@@0_N@Z
E7150 55 ?CopyFileW@TS3FileSystem@@UAEXABVUnicodeString@@PBVTRemoteFile@@0_N@Z
E7450 55 ?CreateDirectoryW@TS3FileSystem@@UAEXABVUnicodeString@@_N@Z
E78C0 55 ?S3PermissionToRightLevel@@YA?AW4TRightLevel@TRights@@W4S3Permission@@@Z
E78E8 55 $LN10
E7900 55 ?ParsePathForPropertiesRequests@TS3FileSystem@@IAE_NABVUnicodeString@@PBVTRemoteFile@@AAV2@2@Z
E79F0 55 ?DoLoadFileProperties@TS3FileSystem@@IAE_NABVUnicodeString@@PBVTRemoteFile@@AAUTS3FileProperties@@@Z
E7C10 55 ?AddAclGrant@@YAXW4TRightGroup@TRights@@AAGAAV?$vector@US3AclGrant@@U?$custom_nballocator_t@US3AclGrant@@@nb@@@std@@ABUS3AclGrant@@W4S3Permission@@@Z
E7CF4 55 $LN33
E7D10 55 ?ChangeFileProperties@TS3FileSystem@@UAEXABVUnicodeString@@PBVTRemoteFile@@PBVTRemoteProperties@@AAVTChmodSessionAction@@@Z
E81C0 55 ?AclGrantToPermissions@TS3FileSystem@@IAEGAAUS3AclGrant@@ABUTS3FileProperties@@@Z
E83A0 55 ?LoadFileProperties@TS3FileSystem@@IAEXABVUnicodeString@@PBVTRemoteFile@@PAX@Z
E8880 55 ?LoadFilesProperties@TS3FileSystem@@UAE_NPAVTStrings@@@Z
E88F0 55 ??R<lambda_0e4f8f00f188e681cb2018d5ea81081f>@@QBE@XZ
E8900 55 ?CopyToRemote@TS3FileSystem@@UAEXPAVTStrings@@ABVUnicodeString@@PBVTCopyParamType@@HPAVTFileOperationProgressType@@AAW4TOnceDoneOperation@@@Z
E8930 55 ?ConfirmOverwrite@TS3FileSystem@@IAEXABVUnicodeString@@AAV2@PAVTFileOperationProgressType@@PBUTOverwriteFileParams@@PBVTCopyParamType@@H@Z
E8C40 55 ?LibS3PutObjectDataCallback@TS3FileSystem@@KAHHPADPAX@Z
E8C60 55 ?ShouldCancelTransfer@TS3FileSystem@@IAE_NAAUTLibS3TransferObjectDataCallbackData@@@Z
E8E50 55 ?PutObjectData@TS3FileSystem@@IAE_JHPADAAUTLibS3PutObjectDataCallbackData@@@Z
E8EDD 55 __catch$?PutObjectData@TS3FileSystem@@IAE_JHPADAAUTLibS3PutObjectDataCallbackData@@@Z$0
E8F61 55 __catch$?PutObjectData@TS3FileSystem@@IAE_JHPADAAUTLibS3PutObjectDataCallbackData@@@Z$2
E8FB0 55 ?LibS3MultipartInitialCallback@TS3FileSystem@@KA?AW4S3Status@@PBDPAX@Z
E8FF0 55 ?LibS3MultipartResponsePropertiesCallback@TS3FileSystem@@KA?AW4S3Status@@PBUS3ResponseProperties@@PAX@Z
E9030 55 ?LibS3MultipartCommitPutObjectDataCallback@TS3FileSystem@@KAHHPADPAX@Z
E9070 55 ?Source@TS3FileSystem@@UAEXAAUTLocalFileHandle@@ABVUnicodeString@@AAV3@PBVTCopyParamType@@HPAVTFileOperationProgressType@@IAAVTUploadSessionAction@@AA_N@Z
E90E4 55 __catch$?Source@TS3FileSystem@@UAEXAAUTLocalFileHandle@@ABVUnicodeString@@AAV3@PBVTCopyParamType@@HPAVTFileOperationProgressType@@IAAVTUploadSessionAction@@AA_N@Z$0
E94F0 55 __catch$?Source@TS3FileSystem@@UAEXAAUTLocalFileHandle@@ABVUnicodeString@@AAV3@PBVTCopyParamType@@HPAVTFileOperationProgressType@@IAAVTUploadSessionAction@@AA_N@Z$2
E99E8 55 __catch$?Source@TS3FileSystem@@UAEXAAUTLocalFileHandle@@ABVUnicodeString@@AAV3@PBVTCopyParamType@@HPAVTFileOperationProgressType@@IAAVTUploadSessionAction@@AA_N@Z$4
E9CDE 55 __catch$?Source@TS3FileSystem@@UAEXAAUTLocalFileHandle@@ABVUnicodeString@@AAV3@PBVTCopyParamType@@HPAVTFileOperationProgressType@@IAAVTUploadSessionAction@@AA_N@Z$6
E9D6B 55 __catch$?Source@TS3FileSystem@@UAEXAAUTLocalFileHandle@@ABVUnicodeString@@AAV3@PBVTCopyParamType@@HPAVTFileOperationProgressType@@IAAVTUploadSessionAction@@AA_N@Z$9
E9DAC 55 __catch$?Source@TS3FileSystem@@UAEXAAUTLocalFileHandle@@ABVUnicodeString@@AAV3@PBVTCopyParamType@@HPAVTFileOperationProgressType@@IAAVTUploadSessionAction@@AA_N@Z$8
E9EB0 55 ??1TLibS3MultipartCommitPutObjectDataCallbackData@@QAE@XZ
E9F00 55 ??1TLibS3TransferObjectDataCallbackData@@QAE@XZ
E9F60 55 ??1TLibS3PutObjectDataCallbackData@@QAE@XZ
E9FB0 55 ?LibS3GetObjectDataCallback@TS3FileSystem@@KA?AW4S3Status@@HPBDPAX@Z
E9FD0 55 ?GetObjectData@TS3FileSystem@@IAE?AW4S3Status@@HPBDAAUTLibS3GetObjectDataCallbackData@@@Z
EA079 55 __catch$?GetObjectData@TS3FileSystem@@IAE?AW4S3Status@@HPBDAAUTLibS3GetObjectDataCallbackData@@@Z$0
EA0FD 55 __catch$?GetObjectData@TS3FileSystem@@IAE?AW4S3Status@@HPBDAAUTLibS3GetObjectDataCallbackData@@@Z$2
EA120 55 ?Sink@TS3FileSystem@@UAEXABVUnicodeString@@PBVTRemoteFile@@0AAV2@HPBVTCopyParamType@@HPAVTFileOperationProgressType@@IAAVTDownloadSessionAction@@@Z
EA443 55 __catch$?Sink@TS3FileSystem@@UAEXABVUnicodeString@@PBVTRemoteFile@@0AAV2@HPBVTCopyParamType@@HPAVTFileOperationProgressType@@IAAVTDownloadSessionAction@@@Z$0
EA4F0 55 ??R<lambda_cce9503907feed1345124f28d992eb11>@@QBE@XZ
EA792 55 __catch$??R<lambda_cce9503907feed1345124f28d992eb11>@@QBE@XZ$0
EA820 55 ??R<lambda_cd21b05580e053343e91c188547eb3e1>@@QBE@XZ
EA860 55 ??1TLibS3GetObjectDataCallbackData@@QAE@XZ
EA870 55 ?ClearCaches@TS3FileSystem@@UAEXXZ
EA8D0 55 ??$make_unique@VException@@AAVUnicodeString@@$0A@@std@@YA?AV?$unique_ptr@VException@@U?$default_delete@VException@@@std@@@0@AAVUnicodeString@@@Z
EA940 55 ??$emplace@U?$pair@$$CBVUnicodeString@@V1@@std@@@?$_Tree@V?$_Tmap_traits@VUnicodeString@@V1@U?$less@VUnicodeString@@@std@@U?$custom_nballocator_t@U?$pair@$$CBVUnicodeString@@V1@@std@@@nb@@$0A@@std@@@std@@QAE?AU?$pair@V?$_Tree_iterator@V?$_Tree_val@U?$_Tree_simple_types@U?$pair@$$CBVUnicodeString@@V1@@std@@@std@@@std@@@std@@_N@1@$$QAU?$pair@$$CBVUnicodeString@@V1@@1@@Z
EAA40 55 ??$Sprintf@HPBD@nb@@YA?AVUnicodeString@@ABV1@ABHABQBD@Z
EAAB0 55 ??0?$scope_guard@V<lambda_cce9503907feed1345124f28d992eb11>@@V<lambda_cd21b05580e053343e91c188547eb3e1>@@@detail@Sysutils@@QAE@$$QAV<lambda_cce9503907feed1345124f28d992eb11>@@$$QAV<lambda_cd21b05580e053343e91c188547eb3e1>@@@Z
EAB5F 55 __catch$??0?$scope_guard@V<lambda_cce9503907feed1345124f28d992eb11>@@V<lambda_cd21b05580e053343e91c188547eb3e1>@@@detail@Sysutils@@QAE@$$QAV<lambda_cce9503907feed1345124f28d992eb11>@@$$QAV<lambda_cd21b05580e053343e91c188547eb3e1>@@@Z$0
EAB80 55 ??0?$scope_guard@V<lambda_a9ade594a67921d9c490133a374571bb>@@V<lambda_0e4f8f00f188e681cb2018d5ea81081f>@@@detail@Sysutils@@QAE@$$QAV<lambda_a9ade594a67921d9c490133a374571bb>@@$$QAV<lambda_0e4f8f00f188e681cb2018d5ea81081f>@@@Z
EAC41 55 __catch$??0?$scope_guard@V<lambda_a9ade594a67921d9c490133a374571bb>@@V<lambda_0e4f8f00f188e681cb2018d5ea81081f>@@@detail@Sysutils@@QAE@$$QAV<lambda_a9ade594a67921d9c490133a374571bb>@@$$QAV<lambda_0e4f8f00f188e681cb2018d5ea81081f>@@@Z$0
EAC60 55 ??$_Emplace_reallocate@ABUS3AclGrant@@@?$vector@US3AclGrant@@U?$custom_nballocator_t@US3AclGrant@@@nb@@@std@@AAEPAUS3AclGrant@@QAU2@ABU2@@Z
EAD90 55 ??$_Uninitialized_move@PAUS3AclGrant@@U?$custom_nballocator_t@US3AclGrant@@@nb@@@std@@YAPAUS3AclGrant@@QAU1@0PAU1@AAU?$custom_nballocator_t@US3AclGrant@@@nb@@@Z
EADC0 55 ??_ETS3FileSystem@@W7AEPAXI@Z
EADD0 52 ___local_stdio_printf_options
EADE0 52 _vsnprintf
EAE20 52 ?PuttyInitialize@@YAXXZ
EB050 52 ?PuttyFinalize@@YAXXZ
EB3A0 52 ?GetSecureShell@@YAPAVTSecureShell@@PAUPlug@@AA_N@Z
EB420 52 _get_seat_callback_set
EB440 52 _do_select
EB5B0 52 ?output@@YAIPAUSeat@@W4SeatOutputType@@PBXI@Z
EB5F0 52 ?get_userpass_input@@YA?AUSeatPromptResult@@PAUSeat@@PAUprompts_t@@@Z
EB700 52 ??R<lambda_05eddfa86a5f71a65a09bd2f148297d7>@@QBE@XZ
EBB00 52 ?connection_fatal@@YAXPAUSeat@@PBD@Z
EBC30 52 ?confirm_ssh_host_key@@YA?AUSeatPromptResult@@PAUSeat@@PBDH1PADPAUSeatDialogText@@1P6AXPAXU1@@Z4PAPAD_NH8@Z
EBE40 52 _have_ssh_host_key
EBF30 52 ?confirm_weak_crypto_primitive@@YA?AUSeatPromptResult@@PAUSeat@@PAUSeatDialogText@@P6AXPAXU1@@Z2PBD5H@Z
EC070 52 ?confirm_weak_cached_hostkey@@YA?AUSeatPromptResult@@PAUSeat@@PAUSeatDialogText@@P6AXPAXU1@@Z2@Z
EC0A0 52 ?prompt_descriptions@@YAPBUSeatDialogPromptDescriptions@@PAUSeat@@@Z
EC0B0 52 ?banner@@YAIPAUSeat@@PBXI@Z
EC210 52 ?SSHFatalError@@YAXPBDPAD@Z
EC2B0 52 _modalfatalbox
EC2C0 52 _get_remote_username
EC320 52 _open_regkey_fn_winscp
EC5C0 52 _get_reg_sz_winscp
EC7C0 52 _put_reg_dword_winscp
EC8E0 52 _put_reg_sz_winscp
ECAC0 52 ?HasGSSAPI@@YA_NABVUnicodeString@@@Z
ECB70 52 ??R<lambda_bbe71e420db9eeaccfd860acb1027890>@@QBE@XZ
ECB90 52 ?DoNormalizeFingerprint@@YAXAAVUnicodeString@@00@Z
ECBF0 52 ??R<lambda_bf3f937b62365e57bdf4a5ced2b44096>@@QBE@XZ
ED010 52 ??R<lambda_d070fc961ec0ce2964a9a95df1a57c96>@@QBE@XZ
ED020 52 ?NormalizeFingerprint@@YAXAAVUnicodeString@@0@Z
ED0C0 52 ?KeyTypeFromFingerprint@@YA?AVUnicodeString@@ABV1@@Z
ED1C0 52 ?CalculateFileChecksum@@YA?AVUnicodeString@@PAVTStream@@ABV1@@Z
ED3A0 52 ??R<lambda_646e8b4aa4c8b8d0672f5e29569c3cc8>@@QBE@XZ
ED4B0 52 ?ParseOpenSshPubLine@@YA?AVUnicodeString@@ABV1@AAPBUssh_keyalg@@@Z
ED5F0 52 ??R<lambda_50cb3b1e1f09a20c2e4e908cfbee9811>@@QBE@XZ
ED740 52 ??R<lambda_c8558b4632fe63168806c1201fd3bcd2>@@QBE@XZ
ED7C0 52 ?IsOpenSSH@@YA_NABVUnicodeString@@@Z
ED940 52 ?HostKeyToPutty@@YAHW4THostKey@@@Z
ED974 52 $LN12
ED990 52 ?GetCipherName@@YA?AVUnicodeString@@PBUssh_cipher@@@Z
EDA30 52 ?WritePuttySettings@@YAXPAVTHierarchicalStorage@@ABVUnicodeString@@@Z
EDD50 52 ?PuttyDefaults@@YAXPAUconf_tag@@@Z
EDDF0 52 _enum_host_ca_next
EDEA0 52 _host_ca_load
EE130 52 ??A?$map@VUnicodeString@@IU?$less@VUnicodeString@@@std@@U?$custom_nballocator_t@U?$pair@$$CBVUnicodeString@@I@std@@@nb@@@std@@QAEAAIABVUnicodeString@@@Z
EE200 52 ??$FmtLoadStr@PAD@nb@@YA?AVUnicodeString@@HABQAD@Z
EE260 52 ??0?$scope_guard@V<lambda_fc31dd9a8e355f02833e39e2926ea65d>@@V<lambda_8a10e094e8d0d00caa3bd1e7d60ac5d3>@@@detail@Sysutils@@QAE@$$QAV<lambda_fc31dd9a8e355f02833e39e2926ea65d>@@$$QAV<lambda_8a10e094e8d0d00caa3bd1e7d60ac5d3>@@@Z
EE2DD 52 __catch$??0?$scope_guard@V<lambda_fc31dd9a8e355f02833e39e2926ea65d>@@V<lambda_8a10e094e8d0d00caa3bd1e7d60ac5d3>@@@detail@Sysutils@@QAE@$$QAV<lambda_fc31dd9a8e355f02833e39e2926ea65d>@@$$QAV<lambda_8a10e094e8d0d00caa3bd1e7d60ac5d3>@@@Z$0
EE300 52 ??0?$scope_guard@V<lambda_50cb3b1e1f09a20c2e4e908cfbee9811>@@V<lambda_c8558b4632fe63168806c1201fd3bcd2>@@@detail@Sysutils@@QAE@$$QAV<lambda_50cb3b1e1f09a20c2e4e908cfbee9811>@@$$QAV<lambda_c8558b4632fe63168806c1201fd3bcd2>@@@Z
EE38C 52 __catch$??0?$scope_guard@V<lambda_50cb3b1e1f09a20c2e4e908cfbee9811>@@V<lambda_c8558b4632fe63168806c1201fd3bcd2>@@@detail@Sysutils@@QAE@$$QAV<lambda_50cb3b1e1f09a20c2e4e908cfbee9811>@@$$QAV<lambda_c8558b4632fe63168806c1201fd3bcd2>@@@Z$0
EE3B0 52 ??0?$scope_guard@V<lambda_1499ed3d507505de9e37c2416b882ab4>@@V<lambda_646e8b4aa4c8b8d0672f5e29569c3cc8>@@@detail@Sysutils@@QAE@$$QAV<lambda_1499ed3d507505de9e37c2416b882ab4>@@$$QAV<lambda_646e8b4aa4c8b8d0672f5e29569c3cc8>@@@Z
EE47C 52 __catch$??0?$scope_guard@V<lambda_1499ed3d507505de9e37c2416b882ab4>@@V<lambda_646e8b4aa4c8b8d0672f5e29569c3cc8>@@@detail@Sysutils@@QAE@$$QAV<lambda_1499ed3d507505de9e37c2416b882ab4>@@$$QAV<lambda_646e8b4aa4c8b8d0672f5e29569c3cc8>@@@Z$0
EE4A0 52 ??0?$scope_guard@V<lambda_bf3f937b62365e57bdf4a5ced2b44096>@@V<lambda_d070fc961ec0ce2964a9a95df1a57c96>@@@detail@Sysutils@@QAE@$$QAV<lambda_bf3f937b62365e57bdf4a5ced2b44096>@@$$QAV<lambda_d070fc961ec0ce2964a9a95df1a57c96>@@@Z
EE51B 52 __catch$??0?$scope_guard@V<lambda_bf3f937b62365e57bdf4a5ced2b44096>@@V<lambda_d070fc961ec0ce2964a9a95df1a57c96>@@@detail@Sysutils@@QAE@$$QAV<lambda_bf3f937b62365e57bdf4a5ced2b44096>@@$$QAV<lambda_d070fc961ec0ce2964a9a95df1a57c96>@@@Z$0
EE540 52 ??0?$scope_guard@V<lambda_81fbef9c2c7de8e77853c50f92741fa5>@@V<lambda_bbe71e420db9eeaccfd860acb1027890>@@@detail@Sysutils@@QAE@$$QAV<lambda_81fbef9c2c7de8e77853c50f92741fa5>@@$$QAV<lambda_bbe71e420db9eeaccfd860acb1027890>@@@Z
EE6C6 52 __catch$??0?$scope_guard@V<lambda_81fbef9c2c7de8e77853c50f92741fa5>@@V<lambda_bbe71e420db9eeaccfd860acb1027890>@@@detail@Sysutils@@QAE@$$QAV<lambda_81fbef9c2c7de8e77853c50f92741fa5>@@$$QAV<lambda_bbe71e420db9eeaccfd860acb1027890>@@@Z$0
EE6E0 52 ??0?$scope_guard@V<lambda_05eddfa86a5f71a65a09bd2f148297d7>@@V<lambda_e3cdd5fb70f87faf428626fad214b402>@@@detail@Sysutils@@QAE@$$QAV<lambda_05eddfa86a5f71a65a09bd2f148297d7>@@$$QAV<lambda_e3cdd5fb70f87faf428626fad214b402>@@@Z
EE73C 52 __catch$??0?$scope_guard@V<lambda_05eddfa86a5f71a65a09bd2f148297d7>@@V<lambda_e3cdd5fb70f87faf428626fad214b402>@@@detail@Sysutils@@QAE@$$QAV<lambda_05eddfa86a5f71a65a09bd2f148297d7>@@$$QAV<lambda_e3cdd5fb70f87faf428626fad214b402>@@@Z$0
EE750 16 ?AES256Salt@@YAXAAVRawByteString@@@Z
EE790 16 ?InitOpenssl@@YA_NXZ
EE7C0 16 ?CryptographyInitialize@@YAXXZ
EEBE0 16 ?RequireTls@@YAXXZ
EEC90 16 ??0TEncryption@@QAE@ABVRawByteString@@@Z
EED50 0 ??_ETEncryption@@UAEPAXI@Z
EED90 16 ?Finalize@TEncryption@@QAEXXZ
EEE60 16 ?SetSalt@TEncryption@@AAEXXZ
EEEC0 16 ?NeedSalt@TEncryption@@AAEXXZ
EEEE0 16 ?Aes@TEncryption@@AAEXAAVTFileBuffer@@_N@Z
EF060 16 ?Encrypt@TEncryption@@QAEXAAVTFileBuffer@@_N@Z
EF230 16 ?Decrypt@TEncryption@@QAEXAAVTFileBuffer@@@Z
EF4D0 16 ?Aes@TEncryption@@AAEXAAVRawByteString@@@Z
EF560 16 ?EncryptFileName@TEncryption@@QAE?AVUnicodeString@@ABV2@@Z
EF5F0 16 ?DecryptFileName@TEncryption@@QAE?AVUnicodeString@@ABV2@@Z
EF6F0 16 ?IsEncryptedFileName@TEncryption@@SA_NABVUnicodeString@@@Z
EF7A0 16 ?GetOverhead@TEncryption@@SAHXZ
EF820 16 ??$FmtLoadStr@$$BY07_WHH@nb@@YA?AVUnicodeString@@HAAY07$$CB_WABH1@Z
EF8C0 0 ??_ETNamedObject@@UAEPAXI@Z
EF930 46 ??0TNamedObject@@QAE@GABVUnicodeString@@@Z
EF9B0 46 ?SetName@TNamedObject@@QAEXABVUnicodeString@@@Z
EFAD0 46 ?AtObject@TNamedObjectList@@UAEPAVTNamedObject@@H@Z
EFB10 46 ?Recount@TNamedObjectList@@IAEXXZ
EFB70 46 ?Add@TNamedObjectList@@UAEHPAVTObject@@@Z
EFCA0 46 ?Notify@TNamedObjectList@@UAEXPAVTObject@@W4TListNotification@@@Z
EFD10 46 ?FindByName@TNamedObjectList@@QAEPAVTNamedObject@@ABVUnicodeString@@@Z
EFE10 46 ?SetCount@TNamedObjectList@@UAEXH@Z
EFE20 46 ?GetCount@TNamedObjectList@@UBEHXZ
EFE30 46 ?GetSortObject@TNamedObjectList@@QAEPAVTNamedObject@@ABVUnicodeString@@AAH@Z
EFF60 18 ?GetSource@TFar3Storage@@UBE?AVUnicodeString@@XZ
EFF80 41 ?GetSourceConst@THierarchicalStorage@@QBE?AVUnicodeString@@XZ
EFFA0 41 ?PuttyEscape@@YA?AVUnicodeString@@ABVRawByteString@@_N@Z
F00E0 41 ?MungeStr@@YA?AVUnicodeString@@ABV1@_N1@Z
F03A0 41 ?UnMungeStr@@YA?AVUnicodeString@@ABV1@@Z
F0740 41 ??0THierarchicalStorage@@QAE@ABVUnicodeString@@@Z
F08F0 0 ??_ETHierarchicalStorage@@UAEPAXI@Z
F0930 41 ??1THierarchicalStorage@@UAE@XZ
F09F0 41 ?SetAccessModeProtected@THierarchicalStorage@@MAEXW4TStorageAccessMode@@@Z
F0A00 41 ?GetCurrentSubKeyMunged@THierarchicalStorage@@IBE?AVUnicodeString@@XZ
F0A40 41 ?GetCurrentSubKey@THierarchicalStorage@@IBE?AVUnicodeString@@XZ
F0AF0 41 ?OpenRootKey@THierarchicalStorage@@QAE_N_N@Z
F0BE0 41 ?MungingKeyName@THierarchicalStorage@@IBE_NABVUnicodeString@@@Z
F0D60 41 ?MungeKeyName@THierarchicalStorage@@IAE?AVUnicodeString@@ABV2@@Z
F0EC0 41 ?DoReadRootAccessString@THierarchicalStorage@@MAE?AVUnicodeString@@XZ
F0FB0 41 ?ReadAccessString@THierarchicalStorage@@IAE?AVUnicodeString@@XZ
F10C0 41 ?ReadAccess@THierarchicalStorage@@IAEII@Z
F12C0 41 ?GetCurrentAccess@THierarchicalStorage@@MAEIXZ
F12F0 41 ?OpenSubKeyPath@THierarchicalStorage@@QAE_NABVUnicodeString@@_N@Z
F1460 41 ?OpenSubKey@THierarchicalStorage@@UAE_NABVUnicodeString@@_N@Z
F1720 41 ?CloseSubKeyPath@THierarchicalStorage@@QAEXXZ
F17B0 41 ?CloseSubKey@THierarchicalStorage@@UAEXXZ
F1890 41 ?ClearSubKeys@THierarchicalStorage@@UAEXXZ
F19C0 41 ?DeleteSubKey@THierarchicalStorage@@QAE_NABVUnicodeString@@_N@Z
F1AC0 41 ?HasSubKeys@THierarchicalStorage@@QAE_NXZ
F1B80 41 ?DeleteValue@THierarchicalStorage@@QAE_NABVUnicodeString@@@Z
F1BB0 41 ?KeyExists@THierarchicalStorage@@QAE_NABVUnicodeString@@@Z
F1BF0 41 ?ValueExists@THierarchicalStorage@@QAE_NABVUnicodeString@@@Z
F1C30 41 ?ReadValues@THierarchicalStorage@@UAEXPAVTStrings@@_N@Z
F1ED0 41 ?ClearValues@THierarchicalStorage@@UAEXXZ
F2000 41 ?WriteValues@THierarchicalStorage@@UAEXPAVTStrings@@_N@Z
F2220 41 ?HasAccess@THierarchicalStorage@@MAE_NI@Z
F2250 41 ?GetValueNames@THierarchicalStorage@@QAEXPAVTStrings@@@Z
F2330 41 ?ReadBool@THierarchicalStorage@@QAE_NABVUnicodeString@@_N@Z
F2360 41 ?ReadInteger@THierarchicalStorage@@QAEHABVUnicodeString@@H@Z
F2390 41 ?ReadIntegerWithMapping@THierarchicalStorage@@IAEHABVUnicodeString@@HPBV?$map@VUnicodeString@@HU?$less@VUnicodeString@@@std@@U?$custom_nballocator_t@U?$pair@$$CBVUnicodeString@@H@std@@@nb@@@std@@@Z
F23D0 41 ?ReadInt64@THierarchicalStorage@@QAE_JABVUnicodeString@@_J@Z
F2410 41 ?ReadFloat@THierarchicalStorage@@QAENABVUnicodeString@@N@Z
F2470 41 ?ReadStringRaw@THierarchicalStorage@@QAE?AVUnicodeString@@ABV2@0@Z
F24C0 41 ?ReadString@THierarchicalStorage@@UAE?AVUnicodeString@@ABV2@0@Z
F25D0 41 ?ReadBinaryData@THierarchicalStorage@@QAE?AVRawByteString@@ABVUnicodeString@@@Z
F26A0 41 ?ReadStringAsBinaryData@THierarchicalStorage@@QAE?AVRawByteString@@ABVUnicodeString@@ABV2@@Z
F2810 41 ?WriteBool@THierarchicalStorage@@QAEXABVUnicodeString@@_N@Z
F2840 41 ?WriteStringRaw@THierarchicalStorage@@QAEXABVUnicodeString@@0@Z
F2870 41 ?WriteInteger@THierarchicalStorage@@QAEXABVUnicodeString@@H@Z
F28A0 41 ?WriteFloat@THierarchicalStorage@@QAEXABVUnicodeString@@N@Z
F28E0 41 ?WriteString@THierarchicalStorage@@QAEXABVUnicodeString@@0@Z
F29D0 41 ?WriteBinaryDataAsString@THierarchicalStorage@@QAEXABVUnicodeString@@ABVRawByteString@@@Z
F2A60 41 ??0TRegistryStorage@@QAE@ABVUnicodeString@@PAUHKEY__@@K@Z
F2B40 0 ??_ETRegistryStorage@@UAEPAXI@Z
F2B90 41 ?Copy@TRegistryStorage@@QAE_NPAV1@@Z
F2E10 41 ?GetSource@TRegistryStorage@@MBE?AVUnicodeString@@XZ
F2F50 41 ?SetAccessModeProtected@TRegistryStorage@@MAEXW4TStorageAccessMode@@@Z
F2F90 41 ?DoOpenSubKey@TRegistryStorage@@MAE_NABVUnicodeString@@_N@Z
F31E0 41 ?DoCloseSubKey@TRegistryStorage@@MAEXXZ
F3320 41 ?DoDeleteSubKey@TRegistryStorage@@MAE_NABVUnicodeString@@@Z
F34A0 41 ?DoGetSubKeyNames@TRegistryStorage@@MAEXPAVTStrings@@@Z
F3710 41 ?DoGetValueNames@TRegistryStorage@@MAEXPAVTStrings@@@Z
F3720 41 ?DoDeleteValue@TRegistryStorage@@MAE_NABVUnicodeString@@@Z
F3740 41 ?DoKeyExists@TRegistryStorage@@MAE_NABVUnicodeString@@_N@Z
F38C0 41 ?DoValueExists@TRegistryStorage@@MAE_NABVUnicodeString@@_N@Z
F38F0 41 ?DoBinaryDataSize@TRegistryStorage@@MAEHABVUnicodeString@@@Z
F3930 41 ?DoReadBool@TRegistryStorage@@MAE_NABVUnicodeString@@_N@Z
F39A9 41 __catch$?DoReadBool@TRegistryStorage@@MAE_NABVUnicodeString@@_N@Z$0
F39D0 41 ?DoReadDateTime@TRegistryStorage@@MAE?AVTDateTime@@ABVUnicodeString@@ABV2@@Z
F3A49 41 __catch$?DoReadDateTime@TRegistryStorage@@MAE?AVTDateTime@@ABVUnicodeString@@ABV2@@Z$0
F3AA0 41 ?DoReadFloat@TRegistryStorage@@MAENABVUnicodeString@@N@Z
F3B1C 41 __catch$?DoReadFloat@TRegistryStorage@@MAENABVUnicodeString@@N@Z$0
F3B40 41 ?DoReadInteger@TRegistryStorage@@MAEHABVUnicodeString@@HPBV?$map@VUnicodeString@@HU?$less@VUnicodeString@@@std@@U?$custom_nballocator_t@U?$pair@$$CBVUnicodeString@@H@std@@@nb@@@std@@@Z
F3BB4 41 __catch$?DoReadInteger@TRegistryStorage@@MAEHABVUnicodeString@@HPBV?$map@VUnicodeString@@HU?$less@VUnicodeString@@@std@@U?$custom_nballocator_t@U?$pair@$$CBVUnicodeString@@H@std@@@nb@@@std@@@Z$0
F3BE0 41 ?DoReadInt64@TRegistryStorage@@MAE_JABVUnicodeString@@_J@Z
F3C20 41 ?DoReadStringRaw@TRegistryStorage@@MAE?AVUnicodeString@@ABV2@0@Z
F3C99 41 __catch$?DoReadStringRaw@TRegistryStorage@@MAE?AVUnicodeString@@ABV2@0@Z$0
F3CE0 41 ?DoReadBinaryData@TRegistryStorage@@MAEHABVUnicodeString@@PAXH@Z
F3D5A 41 __catch$?DoReadBinaryData@TRegistryStorage@@MAEHABVUnicodeString@@PAXH@Z$0
F3DA0 41 ?DoWriteBool@TRegistryStorage@@MAEXABVUnicodeString@@_N@Z
F3DF4 41 __catch$?DoWriteBool@TRegistryStorage@@MAEXABVUnicodeString@@_N@Z$0
F3E00 41 ?DoWriteStringRaw@TRegistryStorage@@MAEXABVUnicodeString@@0@Z
F3E5D 41 __catch$?DoWriteStringRaw@TRegistryStorage@@MAEXABVUnicodeString@@0@Z$0
F3E70 41 ?DoWriteInteger@TRegistryStorage@@MAEXABVUnicodeString@@H@Z
F3EC9 41 __catch$?DoWriteInteger@TRegistryStorage@@MAEXABVUnicodeString@@H@Z$0
F3F10 41 ?DoWriteInt64@TRegistryStorage@@MAEXABVUnicodeString@@_J@Z
F3F40 41 ?DoWriteBinaryData@TRegistryStorage@@MAEXABVUnicodeString@@PBEH@Z
F3F95 41 __catch$?DoWriteBinaryData@TRegistryStorage@@MAEXABVUnicodeString@@PBEH@Z$0
F3FA0 41 ??$?0V?$_Tree_iterator@V?$_Tree_val@U?$_Tree_simple_types@U?$pair@$$CBVUnicodeString@@H@std@@@std@@@std@@@std@@@?$map@VUnicodeString@@HU?$less@VUnicodeString@@@std@@U?$custom_nballocator_t@U?$pair@$$CBVUnicodeString@@H@std@@@nb@@@std@@QAE@V?$_Tree_iterator@V?$_Tree_val@U?$_Tree_simple_types@U?$pair@$$CBVUnicodeString@@H@std@@@std@@@std@@@1@0@Z
F4040 41 ??$CreateIntMapping@W4TAutoSwitch@@@@YA?AV?$map@VUnicodeString@@HU?$less@VUnicodeString@@@std@@U?$custom_nballocator_t@U?$pair@$$CBVUnicodeString@@H@std@@@nb@@@std@@PB_WABW4TAutoSwitch@@0101@Z
F4130 41 ??$_Destroy_range@U?$custom_nballocator_t@UTKeyEntry@THierarchicalStorage@@@nb@@@std@@YAXPAUTKeyEntry@THierarchicalStorage@@QAU12@AAU?$custom_nballocator_t@UTKeyEntry@THierarchicalStorage@@@nb@@@Z
F4190 41 ??$AddIntMapping@W4TAutoSwitch@@@@YAXAAV?$map@VUnicodeString@@HU?$less@VUnicodeString@@@std@@U?$custom_nballocator_t@U?$pair@$$CBVUnicodeString@@H@std@@@nb@@@std@@PB_WABW4TAutoSwitch@@@Z
F4240 41 ??$_Emplace_reallocate@ABUTKeyEntry@THierarchicalStorage@@@?$vector@UTKeyEntry@THierarchicalStorage@@U?$custom_nballocator_t@UTKeyEntry@THierarchicalStorage@@@nb@@@std@@AAEPAUTKeyEntry@THierarchicalStorage@@QAU23@ABU23@@Z
F4380 41 ??A?$map@VUnicodeString@@HU?$less@VUnicodeString@@@std@@U?$custom_nballocator_t@U?$pair@$$CBVUnicodeString@@H@std@@@nb@@@std@@QAEAAH$$QAVUnicodeString@@@Z
F4450 41 ??$_Insert_range_unchecked@V?$_Tree_unchecked_iterator@V?$_Tree_val@U?$_Tree_simple_types@U?$pair@$$CBVUnicodeString@@H@std@@@std@@@std@@@std@@V12@@?$_Tree@V?$_Tmap_traits@VUnicodeString@@HU?$less@VUnicodeString@@@std@@U?$custom_nballocator_t@U?$pair@$$CBVUnicodeString@@H@std@@@nb@@$0A@@std@@@std@@IAEXV?$_Tree_unchecked_iterator@V?$_Tree_val@U?$_Tree_simple_types@U?$pair@$$CBVUnicodeString@@H@std@@@std@@@std@@@1@V21@@Z
F4540 41 ??$_Uninitialized_move@PAUTKeyEntry@THierarchicalStorage@@U?$custom_nballocator_t@UTKeyEntry@THierarchicalStorage@@@nb@@@std@@YAPAUTKeyEntry@THierarchicalStorage@@QAU12@0PAU12@AAU?$custom_nballocator_t@UTKeyEntry@THierarchicalStorage@@@nb@@@Z
F45A0 41 ??$_Find_hint@VUnicodeString@@@?$_Tree@V?$_Tmap_traits@VUnicodeString@@HU?$less@VUnicodeString@@@std@@U?$custom_nballocator_t@U?$pair@$$CBVUnicodeString@@H@std@@@nb@@$0A@@std@@@std@@IBE?AU?$_Tree_find_hint_result@PAU?$_Tree_node@U?$pair@$$CBVUnicodeString@@H@std@@PAX@std@@@1@QAU?$_Tree_node@U?$pair@$$CBVUnicodeString@@H@std@@PAX@1@ABVUnicodeString@@@Z
F4820 41 ??_9THierarchicalStorage@@$BEI@AE
F4830 0 ??_ETOptions@@UAEPAXI@Z
F4870 50 ??1TOptions@@UAE@XZ
F4900 0 ??_ETOption@TOptions@@UAEPAXI@Z
F4940 50 ??1TOption@TOptions@@UAE@XZ
F49C0 50 ??0TOptions@@QAE@XZ
F4AF0 50 ?Add@TOptions@@QAEXABVUnicodeString@@@Z
F4E90 50 ?FindSwitch@TOptions@@IAE_NABVUnicodeString@@AAV2@AAH2_NAA_N@Z
F4FE0 50 ?FindSwitch@TOptions@@QAE_NABVUnicodeString@@@Z
F5060 50 ?DoFindSwitch@TOptions@@IAE_NABVUnicodeString@@PAVTStrings@@H_N@Z
F5250 50 ?SwitchValue@TOptions@@QAE_NABVUnicodeString@@_N1@Z
F5440 50 ?ParamsProcessed@TOptions@@IAEXHH@Z
F5570 50 ?LogOptions@TOptions@@QAEX$$QAV?$FastDelegate1@XABVUnicodeString@@@fastdelegate@@@Z
F5810 50 ??1?$vector@UTOption@TOptions@@U?$custom_nballocator_t@UTOption@TOptions@@@nb@@@std@@QAE@XZ
F5850 50 ??$Sprintf@_WVUnicodeString@@V1@V1@@nb@@YA?AVUnicodeString@@ABV1@AB_W000@Z
F58F0 50 ??$_Assign_counted_range@PAUTOption@TOptions@@@?$vector@UTOption@TOptions@@U?$custom_nballocator_t@UTOption@TOptions@@@nb@@@std@@AAEXPAUTOption@TOptions@@I@Z
F5B00 50 ??$_Uninitialized_copy_n@PAUTOption@TOptions@@U?$custom_nballocator_t@UTOption@TOptions@@@nb@@@std@@YAPAUTOption@TOptions@@PAU12@I0AAU?$custom_nballocator_t@UTOption@TOptions@@@nb@@@Z
F5B80 50 ??$_Emplace_reallocate@ABUTOption@TOptions@@@?$vector@UTOption@TOptions@@U?$custom_nballocator_t@UTOption@TOptions@@@nb@@@std@@AAEPAUTOption@TOptions@@QAU23@ABU23@@Z
F5D00 50 ??$_Uninitialized_move@PAUTOption@TOptions@@U?$custom_nballocator_t@UTOption@TOptions@@@nb@@@std@@YAPAUTOption@TOptions@@QAU12@0PAU12@AAU?$custom_nballocator_t@UTOption@TOptions@@@nb@@@Z
F5D80 26 ?VERSION_GetFileVersionInfo_PE@@YAIPB_WIPAX@Z
F5E10 26 ?CreateFileInfo@@YAPAXABVUnicodeString@@@Z
F5F50 26 ?GetTranslationCount@@YAIPBX@Z
F5FF0 26 ?GetTranslation@@YA?AUTTranslation@@PBXI@Z
F60C0 26 ?GetFileInfoString@@YA?AVUnicodeString@@PBXUTTranslation@@ABV1@_N@Z
F6320 26 ??0?$scope_guard@V<lambda_a771ee0530698c0f7753b4c28a33eda2>@@V<lambda_bdd22ee86f9d256239a4bc354c9cdffd>@@@detail@Sysutils@@QAE@$$QAV<lambda_a771ee0530698c0f7753b4c28a33eda2>@@$$QAV<lambda_bdd22ee86f9d256239a4bc354c9cdffd>@@@Z
F63D0 26 ??0?$scope_guard@V<lambda_fe3949e79bb3463b29eb8d6297838d91>@@V<lambda_e8f88c16448113a881e666efa0215028>@@@detail@Sysutils@@QAE@$$QAV<lambda_fe3949e79bb3463b29eb8d6297838d91>@@$$QAV<lambda_e8f88c16448113a881e666efa0215028>@@@Z
F6480 0 ??_ETCustomFileSystem@@UAEPAXI@Z
F64C0 29 ??0TCustomFileSystem@@IAE@GPAVTTerminal@@@Z
F6510 29 ??1TCustomFileSystem@@UAE@XZ
F65A0 29 ?CalculateFilesChecksumInitialize@TCustomFileSystem@@UAE?AVUnicodeString@@ABV2@@Z
F65A7 29 ??_9TCustomFileSystem@@$BMM@AE
F65AF 29 ??_ETCustomFileSystem@@W7AEPAXI@Z
F65C0 9 ?is@TBookmarkList@@UBE_NG@Z
F65F0 9 ?is@TBookmark@@UBE_NG@Z
F6620 9 ?GetName@TBookmark@@QBE?AVUnicodeString@@XZ
F6640 0 ??_ETBookmarks@@UAEPAXI@Z
F6700 9 ?Clear@TBookmarks@@QAEXXZ
F6773 9 __catch$?Clear@TBookmarks@@QAEXXZ$0
F6780 9 ??R<lambda_273360656d8085d1cfe0f7c764da4400>@@QBE@XZ
F6AB0 9 ?LoadLevel@TBookmarks@@AAEXPAVTHierarchicalStorage@@ABVUnicodeString@@HPAVTBookmarkList@@@Z
F6B70 9 ??R<lambda_e8315d8c0ea2797f12bc1bc70b0d995a>@@QBE@XZ
F6F70 9 ?Save@TBookmarks@@QAEXPAVTHierarchicalStorage@@_N@Z
F7420 9 ?ModifyAll@TBookmarks@@QAEX_N@Z
F7470 9 ?SetBookmarks@TBookmarks@@QAEXABVUnicodeString@@PBVTBookmarkList@@@Z
F7510 9 ??0TBookmarkList@@QAE@XZ
F75E0 0 ??_ETBookmarkList@@UAEPAXI@Z
F7680 9 ?Clear@TBookmarkList@@QAEXXZ
F76FB 9 __catch$?Clear@TBookmarkList@@QAEXXZ$0
F7710 9 ?Assign@TBookmarkList@@UAEXPBVTPersistent@@@Z
F7840 9 ?Insert@TBookmarkList@@QAEXHPAVTBookmark@@@Z
F79C0 9 ?IndexOf@TBookmarkList@@IBEHPBVTBookmark@@@Z
F7A60 9 ?KeyChanged@TBookmarkList@@IAEXH@Z
F7C50 9 ?FindByName@TBookmarkList@@QBEPAVTBookmark@@ABVUnicodeString@@0@Z
F7E20 9 ?GetCount@TBookmarkList@@QBEHXZ
F7E30 9 ??0TBookmark@@QAE@XZ
F7EB0 0 ??_ETBookmark@@UAEPAXI@Z
F7FA0 9 ?Assign@TBookmark@@UAEXPBVTPersistent@@@Z
F8180 9 ?SetName@TBookmark@@QAEXABVUnicodeString@@@Z
F82E2 9 __catch$?SetName@TBookmark@@QAEXABVUnicodeString@@@Z$0
F8300 9 ?SetLocal@TBookmark@@QAEXABVUnicodeString@@@Z
F83B0 9 ?SetRemote@TBookmark@@QAEXABVUnicodeString@@@Z
F8460 9 ?SetNode@TBookmark@@QAEXABVUnicodeString@@@Z
F8530 9 ?BookmarkKey@TBookmark@@KA?AVUnicodeString@@ABV2@0@Z
F85E0 9 ?GetKey@TBookmark@@QBE?AVUnicodeString@@XZ
F86D0 9 ??0?$scope_guard@V<lambda_e8315d8c0ea2797f12bc1bc70b0d995a>@@V<lambda_f2f26be8a4602952ee78c425961295ea>@@@detail@Sysutils@@QAE@$$QAV<lambda_e8315d8c0ea2797f12bc1bc70b0d995a>@@$$QAV<lambda_f2f26be8a4602952ee78c425961295ea>@@@Z
F8730 9 __catch$??0?$scope_guard@V<lambda_e8315d8c0ea2797f12bc1bc70b0d995a>@@V<lambda_f2f26be8a4602952ee78c425961295ea>@@@detail@Sysutils@@QAE@$$QAV<lambda_e8315d8c0ea2797f12bc1bc70b0d995a>@@$$QAV<lambda_f2f26be8a4602952ee78c425961295ea>@@@Z$0
F8740 9 ??0?$scope_guard@V<lambda_273360656d8085d1cfe0f7c764da4400>@@V<lambda_5fd7890472e919b4da05f1268de7b7d7>@@@detail@Sysutils@@QAE@$$QAV<lambda_273360656d8085d1cfe0f7c764da4400>@@$$QAV<lambda_5fd7890472e919b4da05f1268de7b7d7>@@@Z
F8796 9 __catch$??0?$scope_guard@V<lambda_273360656d8085d1cfe0f7c764da4400>@@V<lambda_5fd7890472e919b4da05f1268de7b7d7>@@@detail@Sysutils@@QAE@$$QAV<lambda_273360656d8085d1cfe0f7c764da4400>@@$$QAV<lambda_5fd7890472e919b4da05f1268de7b7d7>@@@Z$0
F87B0 77 ?SimpleEncryptChar@@YA?AVRawByteString@@E@Z
F8990 77 ?SimpleDecryptNextChar@@YAEAAVRawByteString@@@Z
F8AE0 77 ?EncryptPassword@@YA?AVRawByteString@@ABVUnicodeString@@0H@Z
F8E10 77 ?DecryptPassword@@YA?AVUnicodeString@@ABVRawByteString@@ABV1@H@Z
F90F0 77 ?WindowsValidateCertificate@@YA_NPBEIAAVUnicodeString@@@Z
F9360 77 ??$Sprintf@KVUnicodeString@@JJ@nb@@YA?AVUnicodeString@@ABV1@ABK0ABJ2@Z
F9410 47 __vsnprintf_s_l
F9440 47 ?NeonParseUrl@@YAXABVUnicodeString@@AAUne_uri@@@Z
F9560 47 ?IsTlsUri@@YA_NABUne_uri@@@Z
F9660 47 ?NeonProxyAuth@@YAHPAXPBDHPAD2@Z
F9740 47 ?InitNeonSession@@YAXPAUne_session_s@@W4TProxyMethod@@ABVUnicodeString@@H22PAVTTerminal@@@Z
F9BB0 47 ?DestroyNeonSession@@YAXPAUne_session_s@@@Z
F9CA0 47 ?GetNeonError@@YA?AVUnicodeString@@PAUne_session_s@@@Z
F9D50 47 ?CheckNeonStatus@@YAXPAUne_session_s@@HABVUnicodeString@@1@Z
FA024 47 $LN39
FA050 47 ?CheckRedirectLoop@@YAXABVUnicodeString@@PAVTStrings@@@Z
FA120 47 ?SetNeonTlsInit@@YAXPAUne_session_s@@P6AXPAUssl_st@@0@ZPAVTTerminal@@@Z
FA360 47 ?NeonExportCertificate@@YA?AVAnsiString@@PBUne_ssl_certificate_s@@@Z
FA450 47 ?NeonWindowsValidateCertificateWithMessage@@YA_NAAUTNeonCertificateData@@AAVUnicodeString@@@Z
FA630 47 ?NeonCertificateFailuresErrorStr@@YA?AVUnicodeString@@HABV1@@Z
FA950 47 _ne_debug
FABF0 47 ?RegisterForNeonDebug@@YAXPAVTTerminal@@@Z
FAC60 47 ?UnregisterFromNeonDebug@@YAXPAVTTerminal@@@Z
FACC0 47 ?RetrieveNeonCertificateData@@YAXHPBUne_ssl_certificate_s@@AAUTNeonCertificateData@@@Z
FB2B0 47 ?CertificateSummary@@YA?AVUnicodeString@@ABUTNeonCertificateData@@ABV1@@Z
FB4A0 47 ?NeonTlsSessionInfo@@YA?AVUnicodeString@@PAUne_session_s@@AAUTSessionInfo@@AAV1@@Z
FB6C0 47 ?SetupSsl@@YAXPAUssl_st@@W4TTlsVersion@@1@Z
FB810 47 ?erase@?$_Tree@V?$_Tset_traits@PAVTTerminal@@U?$less@PAVTTerminal@@@std@@U?$custom_nballocator_t@PAVTTerminal@@@nb@@$0A@@std@@@std@@QAEIABQAVTTerminal@@@Z
FB9A0 47 ??$insert@$0A@$0A@@?$_Tree@V?$_Tset_traits@PAVTTerminal@@U?$less@PAVTTerminal@@@std@@U?$custom_nballocator_t@PAVTTerminal@@@nb@@$0A@@std@@@std@@QAE?AU?$pair@V?$_Tree_const_iterator@V?$_Tree_val@U?$_Tree_simple_types@PAVTTerminal@@@std@@@std@@@std@@_N@1@ABQAVTTerminal@@@Z
FBA60 47 ??$_Find_lower_bound@PAVTTerminal@@@?$_Tree@V?$_Tset_traits@PAVTTerminal@@U?$less@PAVTTerminal@@@std@@U?$custom_nballocator_t@PAVTTerminal@@@nb@@$0A@@std@@@std@@IBE?AU?$_Tree_find_result@PAU?$_Tree_node@PAVTTerminal@@PAX@std@@@1@ABQAVTTerminal@@@Z
FBAB0 62 ??0TSynchronizeParamType@@QAE@XZ
FBAF0 0 ??_ETSynchronizeController@@UAEPAXI@Z
FBB40 0 ??_ETSynchronizeParamType@@UAEPAXI@Z
FBB80 62 ??1TSynchronizeController@@UAE@XZ
FBBA0 62 ?StartStop@TSynchronizeController@@QAEXPAVTObject@@_NABUTSynchronizeParamType@@ABVTCopyParamType@@PAUTSynchronizeOptions@@V?$FastDelegate2@XPAVTObject@@_N@fastdelegate@@V?$FastDelegate2@XPAVTObject@@V?$FastDelegate0@X@fastdelegate@@@7@V?$FastDelegate3@XPAVTSynchronizeController@@W4TSynchronizeLogEntry@@ABVUnicodeString@@@7@@Z
FBCE2 62 __catch$?StartStop@TSynchronizeController@@QAEXPAVTObject@@_NABUTSynchronizeParamType@@ABVTCopyParamType@@PAUTSynchronizeOptions@@V?$FastDelegate2@XPAVTObject@@_N@fastdelegate@@V?$FastDelegate2@XPAVTObject@@V?$FastDelegate0@X@fastdelegate@@@7@V?$FastDelegate3@XPAVTSynchronizeController@@W4TSynchronizeLogEntry@@ABVUnicodeString@@@7@@Z$0
FBCF0 62 ??4TSynchronizeParamType@@QAEAAU0@ABU0@@Z
FBD40 62 ?LogOperation@TSynchronizeController@@QAEXW4TSynchronizeOperation@@ABVUnicodeString@@@Z
FBE70 62 ?SynchronizeLog@TSynchronizeController@@AAEXW4TSynchronizeLogEntry@@ABVUnicodeString@@@Z
FBE90 62 ??9?$FastDelegate8@XPAVTSynchronizeController@@ABVUnicodeString@@ABV2@ABVTCopyParamType@@ABUTSynchronizeParamType@@PAPAVTSynchronizeChecklist@@PAUTSynchronizeOptions@@_N@fastdelegate@@QAE_NP6AXPAVTSynchronizeController@@ABVUnicodeString@@1ABVTCopyParamType@@ABUTSynchronizeParamType@@PAPAVTSynchronizeChecklist@@PAUTSynchronizeOptions@@_N@Z@Z
FBEB0 62 ??R?$FastDelegate8@XPAVTSynchronizeController@@ABVUnicodeString@@ABV2@ABVTCopyParamType@@ABUTSynchronizeParamType@@PAPAVTSynchronizeChecklist@@PAUTSynchronizeOptions@@_N@fastdelegate@@QBEXPAVTSynchronizeController@@ABVUnicodeString@@1ABVTCopyParamType@@ABUTSynchronizeParamType@@PAPAVTSynchronizeChecklist@@PAUTSynchronizeOptions@@_N@Z
FBED0 39 ?FindFile@@YA_NAAVUnicodeString@@@Z
FC280 39 ?ExportSessionToPutty@@YA_NPAVTSessionData@@_NABVUnicodeString@@@Z
FC7A0 39 ?is@TPuttyCleanupThread@@UBE_NG@Z
FC7D0 0 ??_ETPuttyCleanupThread@@UAEPAXI@Z
FC870 39 ?Execute@TPuttyCleanupThread@@MAEXXZ
FC890 39 ??R<lambda_6d6ff8bdddf9645e00d428a1abcf63c3>@@QBE@XZ
FCCC0 39 ??R<lambda_8fed12291abc871b793c1eff99d5b2af>@@QBE@XZ
FCCF0 39 ?DoSchedule@TPuttyCleanupThread@@IAEXXZ
FCD40 39 ?is@TPuttyPasswordThread@@UBE_NG@Z
FCD60 0 ??_ETPuttyPasswordThread@@UAEPAXI@Z
FCEE0 39 ?DoSleep@TPuttyPasswordThread@@AAEXAAH@Z
FCFB0 39 ?Execute@TPuttyPasswordThread@@MAEXXZ
FD410 39 ?SplitPuttyCommand@@YAXAAVUnicodeString@@0@Z
FD560 39 ?OpenSessionInPutty@@YAXPAVTSessionData@@@Z
FE740 39 ??1TLocalCustomCommand@@UAE@XZ
FE7D0 39 ??1TWinInteractiveCustomCommand@@UAE@XZ
FE890 39 ?DoExecuteShell@@YA_NABVUnicodeString@@0_NPAPAX@Z
FEA40 39 ?ExecuteShellChecked@@YAXABVUnicodeString@@0_N@Z
FEAC0 39 ?ExecuteShellCheckedAndWait@@YAXABVUnicodeString@@$$QAV?$FastDelegate0@X@fastdelegate@@@Z
FECA0 0 ??_ETLocalCustomCommand@@UAEPAXI@Z
FECE0 39 ??0TLocalCustomCommand@@QAE@ABUTCustomCommandData@@ABVUnicodeString@@1111@Z
FED40 39 ?PatternLen@TLocalCustomCommand@@MBEHABVUnicodeString@@H@Z
FEDDC 39 $LN63
FEDE4 39 $LN62
FEE40 39 ?PatternReplacement@TLocalCustomCommand@@MBE_NHABVUnicodeString@@AAV2@AA_N@Z
FEF50 39 ?IsFileCommand@TLocalCustomCommand@@UBE_NABVUnicodeString@@@Z
FEF90 39 ??$make_unique@VTRegistryStorage@@ABV?$ROProperty@VUnicodeString@@@@PAUHKEY__@@$0A@@std@@YA?AV?$unique_ptr@VTRegistryStorage@@U?$default_delete@VTRegistryStorage@@@std@@@0@ABV?$ROProperty@VUnicodeString@@@@$$QAPAUHKEY__@@@Z
FF080 39 ??$Sprintf@KIH@nb@@YA?AVUnicodeString@@ABV1@ABKABIABH@Z
FF120 39 ??0?$scope_guard@V<lambda_6d6ff8bdddf9645e00d428a1abcf63c3>@@V<lambda_8fed12291abc871b793c1eff99d5b2af>@@@detail@Sysutils@@QAE@$$QAV<lambda_6d6ff8bdddf9645e00d428a1abcf63c3>@@$$QAV<lambda_8fed12291abc871b793c1eff99d5b2af>@@@Z
FF192 39 __catch$??0?$scope_guard@V<lambda_6d6ff8bdddf9645e00d428a1abcf63c3>@@V<lambda_8fed12291abc871b793c1eff99d5b2af>@@@detail@Sysutils@@QAE@$$QAV<lambda_6d6ff8bdddf9645e00d428a1abcf63c3>@@$$QAV<lambda_8fed12291abc871b793c1eff99d5b2af>@@@Z$0
FF1B0 38 ?is@TGUICopyParamType@@UBE_NG@Z
FF1E0 38 ?is@TCopyParamRule@@UBE_NG@Z
FF200 0 ??_ETCopyParamRuleData@@UAEPAXI@Z
FF240 38 ?is@TGUIConfiguration@@UBE_NG@Z
FF270 0 ??_ETGUICopyParamType@@UAEPAXI@Z
FF2B0 38 ??1TGUICopyParamType@@UAE@XZ
FF2C0 38 ??0TGUICopyParamType@@QAE@ABV0@@Z
FF360 38 ?Assign@TGUICopyParamType@@UAEXPBVTCopyParamType@@@Z
FF3B0 38 ?Default@TGUICopyParamType@@UAEXXZ
FF3D0 38 ?Load@TGUICopyParamType@@UAEXPAVTHierarchicalStorage@@@Z
FF5C0 38 ?Save@TGUICopyParamType@@UBEXPAVTHierarchicalStorage@@PBVTCopyParamType@@@Z
FF780 38 ??4TGUICopyParamType@@QAEAAV0@ABV0@@Z
FF7E0 0 ??_ETCopyParamRule@@UAEPAXI@Z
FF820 38 ??0TCopyParamRuleData@@QAE@XZ
FF860 38 ?Load@TCopyParamRule@@QAEXPAVTHierarchicalStorage@@@Z
FFA60 38 ?Save@TCopyParamRule@@QBEXPAVTHierarchicalStorage@@@Z
FFBF0 0 ??_ETCopyParamList@@UAEPAXI@Z
FFC30 38 ?Init@TCopyParamList@@AAEXXZ
FFD30 38 ??1TCopyParamList@@UAE@XZ
FFD78 38 __catch$??1TCopyParamList@@UAE@XZ$0
FFDD0 38 ?Clear@TCopyParamList@@QAEXXZ
FFEC0 38 ?Insert@TCopyParamList@@QAEXHABVUnicodeString@@PAVTCopyParamType@@PAVTCopyParamRule@@@Z
FFF20 38 ?Load@TCopyParamList@@QAEXPAVTHierarchicalStorage@@H@Z
100110 38 ??R<lambda_d9e6fd558cac58c847ab7cde8b212340>@@QBE@XZ
100310 38 ??R<lambda_48214aa989b5eedd4397b11dde092ea2>@@QBE@XZ
100510 38 ?GetCount@TCopyParamList@@QBEHXZ
100520 38 ??0TGUIConfiguration@@QAE@G@Z
1008C0 0 ??_ETGUIConfiguration@@UAEPAXI@Z
100900 38 ??1TGUIConfiguration@@UAE@XZ
100A50 38 ?ConfigurationInit@TGUIConfiguration@@UAEXXZ
100B70 38 ?GetStorage@TGUIConfiguration@@UBE?AW4TStorage@@XZ
100B80 38 ?Default@TGUIConfiguration@@UAEXXZ
100F90 38 ?DefaultLocalized@TGUIConfiguration@@UAEXXZ
101370 38 ?UpdateStaticUsage@TGUIConfiguration@@UAEXXZ
101530 38 ?SaveData@TGUIConfiguration@@UAEXPAVTHierarchicalStorage@@_N@Z
102110 38 ??R<lambda_275da4f89065983c9da455f895818586>@@QBE@XZ
102390 38 ?LoadCopyParam@TGUIConfiguration@@QAE_NPAVTHierarchicalStorage@@PAVTCopyParamType@@@Z
10248C 38 __catch$?LoadCopyParam@TGUIConfiguration@@QAE_NPAVTHierarchicalStorage@@PAVTCopyParamType@@@Z$0
1024A0 38 ?LoadData@TGUIConfiguration@@UAEXPAVTHierarchicalStorage@@@Z
103330 38 ?Saved@TGUIConfiguration@@UAEXXZ
103360 38 ?GetTranslationModule@TGUIConfiguration@@QBE?AVUnicodeString@@ABV2@@Z
103440 38 ?AddTranslationsSubFolder@TGUIConfiguration@@QBE?AVUnicodeString@@ABV2@@Z
1035B0 38 ?LoadNewResourceModule@TGUIConfiguration@@UAEPAUHINSTANCE__@@KAAVUnicodeString@@@Z
103930 38 ?GetLocale@TGUIConfiguration@@UBEKXZ
103940 38 ?GetResourceModuleCompleteness@TGUIConfiguration@@UAEHPAUHINSTANCE__@@@Z
103950 38 ?IsTranslationComplete@TGUIConfiguration@@UAE_NPAUHINSTANCE__@@@Z
103960 38 ?FindLocales@TGUIConfiguration@@QAEXABVUnicodeString@@PAVTStrings@@AAV2@@Z
103D30 38 ?GetLocales@TGUIConfiguration@@QAEPAVTObjectList@@XZ
103F60 38 ?SetDefaultCopyParam@TGUIConfiguration@@QAEXABVTGUICopyParamType@@@Z
103FD0 38 ?GetRememberPassword@TGUIConfiguration@@UBE_NXZ
1040C8 38 __catch$?GetRememberPassword@TGUIConfiguration@@UBE_NXZ$0
104100 38 ?GetGUIConfiguration@@YAPAVTGUIConfiguration@@XZ
104130 19 ??1?$scope_guard0@V<lambda_0ebe68728978bfcc11cf3cf49660e49b>@@$0A@@scope_exit@Sysutils@@QAE@XZ
104140 38 ??1?$unique_ptr@VTCopyParamRule@@U?$default_delete@VTCopyParamRule@@@std@@@std@@QAE@XZ
104160 38 ??$Sprintf@_W@nb@@YA?AVUnicodeString@@ABV1@AB_W@Z
1041C0 38 ??0?$scope_guard@V<lambda_c9b7c7e3f4fd6a157c9dce5882f4f870>@@V<lambda_c188f1b85171668343defcf0651a6bf4>@@@detail@Sysutils@@QAE@$$QAV<lambda_c9b7c7e3f4fd6a157c9dce5882f4f870>@@$$QAV<lambda_c188f1b85171668343defcf0651a6bf4>@@@Z
104240 38 __catch$??0?$scope_guard@V<lambda_c9b7c7e3f4fd6a157c9dce5882f4f870>@@V<lambda_c188f1b85171668343defcf0651a6bf4>@@@detail@Sysutils@@QAE@$$QAV<lambda_c9b7c7e3f4fd6a157c9dce5882f4f870>@@$$QAV<lambda_c188f1b85171668343defcf0651a6bf4>@@@Z$0
104260 38 ??0?$scope_guard@V<lambda_34736aa4e7cd5039fc5d03d83d42bb4c>@@V<lambda_a919416e2bee1b0a9021c0bc3276ad44>@@@detail@Sysutils@@QAE@$$QAV<lambda_34736aa4e7cd5039fc5d03d83d42bb4c>@@$$QAV<lambda_a919416e2bee1b0a9021c0bc3276ad44>@@@Z
104402 38 __catch$??0?$scope_guard@V<lambda_34736aa4e7cd5039fc5d03d83d42bb4c>@@V<lambda_a919416e2bee1b0a9021c0bc3276ad44>@@@detail@Sysutils@@QAE@$$QAV<lambda_34736aa4e7cd5039fc5d03d83d42bb4c>@@$$QAV<lambda_a919416e2bee1b0a9021c0bc3276ad44>@@@Z$0
104420 38 ??0?$scope_guard@V<lambda_7842a151a4ef97009c5b3920b1be5b2e>@@V<lambda_28ef02454a79a799fe4988db345867fd>@@@detail@Sysutils@@QAE@$$QAV<lambda_7842a151a4ef97009c5b3920b1be5b2e>@@$$QAV<lambda_28ef02454a79a799fe4988db345867fd>@@@Z
1044A0 38 __catch$??0?$scope_guard@V<lambda_7842a151a4ef97009c5b3920b1be5b2e>@@V<lambda_28ef02454a79a799fe4988db345867fd>@@@detail@Sysutils@@QAE@$$QAV<lambda_7842a151a4ef97009c5b3920b1be5b2e>@@$$QAV<lambda_28ef02454a79a799fe4988db345867fd>@@@Z$0
1044C0 38 ??0?$scope_guard@V<lambda_275da4f89065983c9da455f895818586>@@V<lambda_d317592c1ba5fd3488923a78a7fd6859>@@@detail@Sysutils@@QAE@$$QAV<lambda_275da4f89065983c9da455f895818586>@@$$QAV<lambda_d317592c1ba5fd3488923a78a7fd6859>@@@Z
10453C 38 __catch$??0?$scope_guard@V<lambda_275da4f89065983c9da455f895818586>@@V<lambda_d317592c1ba5fd3488923a78a7fd6859>@@@detail@Sysutils@@QAE@$$QAV<lambda_275da4f89065983c9da455f895818586>@@$$QAV<lambda_d317592c1ba5fd3488923a78a7fd6859>@@@Z$0
104560 38 ??0?$scope_guard@V<lambda_48214aa989b5eedd4397b11dde092ea2>@@V<lambda_bdd2b68bf7a93c908a00d746734a064b>@@@detail@Sysutils@@QAE@$$QAV<lambda_48214aa989b5eedd4397b11dde092ea2>@@$$QAV<lambda_bdd2b68bf7a93c908a00d746734a064b>@@@Z
1045DC 38 __catch$??0?$scope_guard@V<lambda_48214aa989b5eedd4397b11dde092ea2>@@V<lambda_bdd2b68bf7a93c908a00d746734a064b>@@@detail@Sysutils@@QAE@$$QAV<lambda_48214aa989b5eedd4397b11dde092ea2>@@$$QAV<lambda_bdd2b68bf7a93c908a00d746734a064b>@@@Z$0
104600 38 ??0?$scope_guard@V<lambda_82f143218892e1aeaceb0d9043be36fb>@@V<lambda_c585ebcd271240734157e7f1b0549493>@@@detail@Sysutils@@QAE@$$QAV<lambda_82f143218892e1aeaceb0d9043be36fb>@@$$QAV<lambda_c585ebcd271240734157e7f1b0549493>@@@Z
104691 38 __catch$??0?$scope_guard@V<lambda_82f143218892e1aeaceb0d9043be36fb>@@V<lambda_c585ebcd271240734157e7f1b0549493>@@@detail@Sysutils@@QAE@$$QAV<lambda_82f143218892e1aeaceb0d9043be36fb>@@$$QAV<lambda_c585ebcd271240734157e7f1b0549493>@@@Z$0
1046A0 38 ??0?$scope_guard@V<lambda_d9e6fd558cac58c847ab7cde8b212340>@@V<lambda_6176c6a338964f6cc93bfa997a22c2ec>@@@detail@Sysutils@@QAE@$$QAV<lambda_d9e6fd558cac58c847ab7cde8b212340>@@$$QAV<lambda_6176c6a338964f6cc93bfa997a22c2ec>@@@Z
104714 38 __catch$??0?$scope_guard@V<lambda_d9e6fd558cac58c847ab7cde8b212340>@@V<lambda_6176c6a338964f6cc93bfa997a22c2ec>@@@detail@Sysutils@@QAE@$$QAV<lambda_d9e6fd558cac58c847ab7cde8b212340>@@$$QAV<lambda_6176c6a338964f6cc93bfa997a22c2ec>@@@Z$0
104730 67 ?OpenTextFromClipboard@@YAPAXAAPB_W@Z
104820 67 ?CloseTextFromClipboard@@YAXPAX@Z
104960 67 ?TextFromClipboard@@YA_NAAVUnicodeString@@_N@Z
104C69 67 __catch$?TextFromClipboard@@YA_NAAVUnicodeString@@_N@Z$0
104CA0 51 ?Init@TProgramParams@@AAEXABVUnicodeString@@@Z
104E20 51 ??1?$unique_ptr@VTProgramParams@@U?$default_delete@VTProgramParams@@@std@@@std@@QAE@XZ
104E40 51 ??$make_unique@VTProgramParams@@$$V$0A@@std@@YA?AV?$unique_ptr@VTProgramParams@@U?$default_delete@VTProgramParams@@@std@@@0@XZ
104F30 73 ??1TMessageParams@@UAE@XZ
105000 73 ??0TMessageParams@@QAE@PBUTQueryParams@@@Z
1050B0 0 ??_ETMessageParams@@UAEPAXI@Z
1050F0 73 ?Reset@TMessageParams@@AAEXXZ
1051B0 0 ??_ETWinInteractiveCustomCommand@@UAEPAXI@Z
1051F0 73 ?PatternHint@TWinInteractiveCustomCommand@@MAEXHABVUnicodeString@@@Z
1052F0 73 ?Execute@TWinInteractiveCustomCommand@@MBEXABVUnicodeString@@AAV2@@Z
105300 32 ?AfxCrtErrorCheck@@YAHH@Z
105320 32 $LN12
105330 32 $LN11
105390 32 ?AtlThrowImpl@ATL@@YGXJ@Z
1053B0 32 ?AtlGetStringResourceImage@ATL@@YAPBUATLSTRINGRESOURCEIMAGE@1@PAUHINSTANCE__@@I@Z
105430 32 ?GetHour@CTime@ATL@@QBEHXZ
1054B0 32 ?GetMinute@CTime@ATL@@QBEHXZ
105530 32 ??1t_transferfile@@QAE@XZ
1055B0 0 ??_ETFileZillaIntf@@UAEPAXI@Z
105620 32 ?SetCurrentPath@TFileZillaIntf@@QAE_NPB_W@Z
1057E0 32 ?Cancel@TFileZillaIntf@@QAE_NXZ
105830 32 ?Connect@TFileZillaIntf@@QAE_NPB_WH0000HHHHHHPAUx509_st@@PAUevp_pkey_st@@HHH@Z
105AA0 32 ??4t_server@@QAEAAV0@ABV0@@Z
105B30 32 ?MakeDir@TFileZillaIntf@@QAE_NPB_W@Z
105CC0 32 ?Chmod@TFileZillaIntf@@QAE_NHPB_W0@Z
105FA0 32 ?Delete@TFileZillaIntf@@QAE_NPB_W0_N@Z
106280 32 ?RemoveDir@TFileZillaIntf@@QAE_NPB_W0@Z
106580 32 ?Rename@TFileZillaIntf@@QAE_NPB_W000@Z
106800 32 ?List@TFileZillaIntf@@QAE_NPB_W@Z
1069A0 32 ?ListFile@TFileZillaIntf@@QAE_NPB_W0@Z
106C40 32 ?FileTransfer@TFileZillaIntf@@QAE_NPB_W00_N_JHPAX$$QAV?$FastDelegate3@XPAVTObject@@PBEI@fastdelegate@@$$QAV?$FastDelegate3@IPAVTObject@@PAEI@3@@Z
106F90 32 ??0t_transferfile@@QAE@XZ
107050 32 ?CopyContact@@YAXAAUTContact@TFtpsCertificateData@@ABUt_Contact@t_SslCertData@@@Z
1070A0 32 ?CopyValidityTime@@YAXAAUTValidityTime@TFtpsCertificateData@@ABUt_validTime@t_SslCertData@@@Z
1070D0 32 ?CopyFileTime@@YAXAAUTRemoteFileTime@@ABVt_date@t_direntry@t_directory@@@Z
107130 32 ?HandleMessage@TFileZillaIntf@@QAE_NIJ@Z
1077A8 32 __catch$?HandleMessage@TFileZillaIntf@@QAE_NIJ@Z$0
1077C7 32 __catch$?HandleMessage@TFileZillaIntf@@QAE_NIJ@Z$2
1077EC 32 $LN1893
107820 32 ??0TContact@TFtpsCertificateData@@QAE@XZ
107860 32 ??_Gt_ffam_statusmessage@@QAEPAXI@Z
107890 32 ?CheckError@TFileZillaIntf@@MAE_NHPB_W@Z
1078A0 32 ?Check@TFileZillaIntf@@IAE_NHPB_WH@Z
1078D0 32 ?UsingMlsd@TFileZillaIntf@@QBE_NXZ
107950 32 ?GetTlsVersionStr@TFileZillaIntf@@QBE?AV?$basic_string@DU?$char_traits@D@std@@V?$allocator@D@2@@std@@XZ
107A20 32 ?LoadStringW@?$CStringT@_WV?$StrTraitMFC@_WV?$ChTraitsCRT@_W@ATL@@@@@ATL@@QAEHI@Z
107B30 32 ??4?$CStringT@_WV?$StrTraitMFC@_WV?$ChTraitsCRT@_W@ATL@@@@@ATL@@QAEAAV01@PB_W@Z
107B70 32 ??4?$CStringT@_WV?$StrTraitMFC@_WV?$ChTraitsCRT@_W@ATL@@@@@ATL@@QAEAAV01@ABV01@@Z
107BE0 6 ??1?$CSimpleStringT@D$0A@@ATL@@QAE@XZ
107C00 32 ??0?$CStringT@_WV?$StrTraitMFC@_WV?$ChTraitsCRT@_W@ATL@@@@@ATL@@QAE@PB_W@Z
107CA0 32 ?ReleaseBuffer@?$CSimpleStringT@_W$0A@@ATL@@QAEXH@Z
107CF0 32 ?GetBuffer@?$CSimpleStringT@_W$0A@@ATL@@QAEPA_WH@Z
107D30 32 ?CloneData@?$CSimpleStringT@_W$0A@@ATL@@CAPAUCStringData@2@PAU32@@Z
107DC0 32 ?PrepareWrite2@?$CSimpleStringT@_W$0A@@ATL@@AAEXH@Z
107E30 32 ?SetString@?$CSimpleStringT@_W$0A@@ATL@@QAEXPB_WH@Z
107F40 32 ?ReleaseBufferSetLength@?$CSimpleStringT@_W$0A@@ATL@@QAEXH@Z
107F70 32 ?Empty@?$CSimpleStringT@_W$0A@@ATL@@QAEXXZ
108020 32 ?Reallocate@?$CSimpleStringT@_W$0A@@ATL@@AAEXH@Z
108060 32 ?Fork@?$CSimpleStringT@_W$0A@@ATL@@AAEXH@Z
108120 6 ?ThrowMemoryException@?$CSimpleStringT@D$0A@@ATL@@KAXXZ
108130 31 ?PostMessage@TFileZillaIntern@@QBE_NIJ@Z
108170 31 $LN19
108178 31 $LN18
108190 31 ?GetOptionVal@TFileZillaIntern@@QBEHH@Z
1081B0 0 ??_ECApiLog@@UAEPAXI@Z
1081F0 4 ??1CApiLog@@UAE@XZ
108200 4 ?LogMessage@CApiLog@@QBAXHPB_WZZ
1082A0 4 ?SendLogMessage@CApiLog@@IBEXHPB_W@Z
1083B0 4 ?GetOption@CApiLog@@QBE?AV?$CStringT@_WV?$StrTraitMFC@_WV?$ChTraitsCRT@_W@ATL@@@@@ATL@@H@Z
108460 4 ?LogError@CApiLog@@QAEXH@Z
1084B0 4 ?FormatV@?$CStringT@_WV?$StrTraitMFC@_WV?$ChTraitsCRT@_W@ATL@@@@@ATL@@QAEXPB_WPAD@Z
108560 58 ??0CServerPath@@QAE@XZ
108600 0 ??_ECServerPath@@UAEPAXI@Z
108660 58 ??0CServerPath@@QAE@V?$CStringT@_WV?$StrTraitMFC@_WV?$ChTraitsCRT@_W@ATL@@@@@ATL@@_N@Z
1089F0 58 ??0CServerPath@@QAE@V?$CStringT@_WV?$StrTraitMFC@_WV?$ChTraitsCRT@_W@ATL@@@@@ATL@@H_N@Z
109180 58 ??0CServerPath@@QAE@ABV0@@Z
109250 58 ??1CServerPath@@UAE@XZ
109290 58 ?SetPath@CServerPath@@QAEHAAV?$CStringT@_WV?$StrTraitMFC@_WV?$ChTraitsCRT@_W@ATL@@@@@ATL@@H@Z
109B30 58 ?DoGetPath@CServerPath@@ABE?BV?$CStringT@_WV?$StrTraitMFC@_WV?$ChTraitsCRT@_W@ATL@@@@@ATL@@_N@Z
109EE0 58 ?GetPathUnterminated@CServerPath@@QBE?BV?$CStringT@_WV?$StrTraitMFC@_WV?$ChTraitsCRT@_W@ATL@@@@@ATL@@XZ
109F00 58 ??4CServerPath@@QAEAAV0@ABV0@@Z
109F60 58 ??8CServerPath@@QBE?B_NABV0@@Z
109FE0 58 ?GetLastSegment@CServerPath@@QBE?AV?$CStringT@_WV?$StrTraitMFC@_WV?$ChTraitsCRT@_W@ATL@@@@@ATL@@XZ
10A0A0 58 ?GetParent@CServerPath@@QBE?AV1@XZ
10A160 58 ?AddSubdir@CServerPath@@QAEHV?$CStringT@_WV?$StrTraitMFC@_WV?$ChTraitsCRT@_W@ATL@@@@@ATL@@@Z
10A310 58 ?SetPath@CServerPath@@QAEHV?$CStringT@_WV?$StrTraitMFC@_WV?$ChTraitsCRT@_W@ATL@@@@@ATL@@@Z
10A380 58 ?FormatFilename@CServerPath@@QBE?AV?$CStringT@_WV?$StrTraitMFC@_WV?$ChTraitsCRT@_W@ATL@@@@@ATL@@V23@_N@Z
10A7E0 58 ?push_back@?$list@V?$CStringT@_WV?$StrTraitMFC@_WV?$ChTraitsCRT@_W@ATL@@@@@ATL@@U?$custom_nballocator_t@V?$CStringT@_WV?$StrTraitMFC@_WV?$ChTraitsCRT@_W@ATL@@@@@ATL@@@nb@@@std@@QAEXABV?$CStringT@_WV?$StrTraitMFC@_WV?$ChTraitsCRT@_W@ATL@@@@@ATL@@@Z
10A890 34 ??1?$list@V?$CStringT@DV?$StrTraitMFC@DV?$ChTraitsCRT@D@ATL@@@@@ATL@@U?$custom_nballocator_t@V?$CStringT@DV?$StrTraitMFC@DV?$ChTraitsCRT@D@ATL@@@@@ATL@@@nb@@@std@@QAE@XZ
10A8B0 58 ??0?$list@V?$CStringT@_WV?$StrTraitMFC@_WV?$ChTraitsCRT@_W@ATL@@@@@ATL@@U?$custom_nballocator_t@V?$CStringT@_WV?$StrTraitMFC@_WV?$ChTraitsCRT@_W@ATL@@@@@ATL@@@nb@@@std@@QAE@XZ
10A8F0 58 ??9ATL@@YA_NABV?$CStringT@_WV?$StrTraitMFC@_WV?$ChTraitsCRT@_W@ATL@@@@@0@PB_W@Z
10A980 58 ??9ATL@@YA_NABV?$CStringT@_WV?$StrTraitMFC@_WV?$ChTraitsCRT@_W@ATL@@@@@0@0@Z
10AA20 58 ??8ATL@@YA_NABV?$CStringT@_WV?$StrTraitMFC@_WV?$ChTraitsCRT@_W@ATL@@@@@0@PB_W@Z
10AAB0 58 ??HATL@@YA?AV?$CStringT@_WV?$StrTraitMFC@_WV?$ChTraitsCRT@_W@ATL@@@@@0@PB_WABV10@@Z
10AB80 58 ??HATL@@YA?AV?$CStringT@_WV?$StrTraitMFC@_WV?$ChTraitsCRT@_W@ATL@@@@@0@ABV10@PB_W@Z
10AC50 58 ?Left@?$CStringT@_WV?$StrTraitMFC@_WV?$ChTraitsCRT@_W@ATL@@@@@ATL@@QBE?AV12@H@Z
10AD50 58 ?Right@?$CStringT@_WV?$StrTraitMFC@_WV?$ChTraitsCRT@_W@ATL@@@@@ATL@@QBE?AV12@H@Z
10AE50 58 ?Mid@?$CStringT@_WV?$StrTraitMFC@_WV?$ChTraitsCRT@_W@ATL@@@@@ATL@@QBE?AV12@HH@Z
10AF90 58 ?Mid@?$CStringT@_WV?$StrTraitMFC@_WV?$ChTraitsCRT@_W@ATL@@@@@ATL@@QBE?AV12@H@Z
10AFB0 58 ?TrimLeft@?$CStringT@_WV?$StrTraitMFC@_WV?$ChTraitsCRT@_W@ATL@@@@@ATL@@QAEAAV12@PB_W@Z
10B0A0 58 ?TrimLeft@?$CStringT@_WV?$StrTraitMFC@_WV?$ChTraitsCRT@_W@ATL@@@@@ATL@@QAEAAV12@_W@Z
10B190 58 ?TrimRight@?$CStringT@_WV?$StrTraitMFC@_WV?$ChTraitsCRT@_W@ATL@@@@@ATL@@QAEAAV12@PB_W@Z
10B200 58 ?TrimRight@?$CStringT@_WV?$StrTraitMFC@_WV?$ChTraitsCRT@_W@ATL@@@@@ATL@@QAEAAV12@_W@Z
10B290 58 ?ReverseFind@?$CStringT@_WV?$StrTraitMFC@_WV?$ChTraitsCRT@_W@ATL@@@@@ATL@@QBEH_W@Z
10B2C0 58 ?Find@?$CStringT@_WV?$StrTraitMFC@_WV?$ChTraitsCRT@_W@ATL@@@@@ATL@@QBEHPB_WH@Z
10B300 58 ?Replace@?$CStringT@_WV?$StrTraitMFC@_WV?$ChTraitsCRT@_W@ATL@@@@@ATL@@QAEHPB_W0@Z
10B5B0 58 ??Y?$CStringT@_WV?$StrTraitMFC@_WV?$ChTraitsCRT@_W@ATL@@@@@ATL@@QAEAAV01@PB_W@Z
10B5F0 58 ??Y?$CStringT@_WV?$StrTraitMFC@_WV?$ChTraitsCRT@_W@ATL@@@@@ATL@@QAEAAV01@ABV?$CSimpleStringT@_W$0A@@1@@Z
10B610 58 ??0?$CStringT@_WV?$StrTraitMFC@_WV?$ChTraitsCRT@_W@ATL@@@@@ATL@@QAE@ABV01@@Z
10B640 58 ??A?$CSimpleStringT@_W$0A@@ATL@@QBE_WH@Z
10B670 58 ?Concatenate@?$CSimpleStringT@_W$0A@@ATL@@KAXAAV12@PB_WH1H@Z
10B750 58 ?Truncate@?$CSimpleStringT@_W$0A@@ATL@@QAEXH@Z
10B7A0 58 ?Append@?$CSimpleStringT@_W$0A@@ATL@@QAEXPB_WH@Z
10B890 34 ??$_Free_non_head@U?$custom_nballocator_t@U?$_List_node@V?$CStringT@DV?$StrTraitMFC@DV?$ChTraitsCRT@D@ATL@@@@@ATL@@PAX@std@@@nb@@@?$_List_node@V?$CStringT@DV?$StrTraitMFC@DV?$ChTraitsCRT@D@ATL@@@@@ATL@@PAX@std@@SAXAAU?$custom_nballocator_t@U?$_List_node@V?$CStringT@DV?$StrTraitMFC@DV?$ChTraitsCRT@D@ATL@@@@@ATL@@PAX@std@@@nb@@PAU01@@Z
10B8D0 58 ??$_Emplace@V?$CStringT@_WV?$StrTraitMFC@_WV?$ChTraitsCRT@_W@ATL@@@@@ATL@@@?$list@V?$CStringT@_WV?$StrTraitMFC@_WV?$ChTraitsCRT@_W@ATL@@@@@ATL@@U?$custom_nballocator_t@V?$CStringT@_WV?$StrTraitMFC@_WV?$ChTraitsCRT@_W@ATL@@@@@ATL@@@nb@@@std@@QAEPAU?$_List_node@V?$CStringT@_WV?$StrTraitMFC@_WV?$ChTraitsCRT@_W@ATL@@@@@ATL@@PAX@1@QAU21@$$QAV?$CStringT@_WV?$StrTraitMFC@_WV?$ChTraitsCRT@_W@ATL@@@@@ATL@@@Z
10B980 58 ??$_Assign_unchecked@V?$_List_unchecked_const_iterator@V?$_List_val@U?$_List_simple_types@V?$CStringT@_WV?$StrTraitMFC@_WV?$ChTraitsCRT@_W@ATL@@@@@ATL@@@std@@@std@@U_Iterator_base0@2@@std@@V12@@?$list@V?$CStringT@_WV?$StrTraitMFC@_WV?$ChTraitsCRT@_W@ATL@@@@@ATL@@U?$custom_nballocator_t@V?$CStringT@_WV?$StrTraitMFC@_WV?$ChTraitsCRT@_W@ATL@@@@@ATL@@@nb@@@std@@AAEXV?$_List_unchecked_const_iterator@V?$_List_val@U?$_List_simple_types@V?$CStringT@_WV?$StrTraitMFC@_WV?$ChTraitsCRT@_W@ATL@@@@@ATL@@@std@@@std@@U_Iterator_base0@2@@1@V21@@Z
10BBB0 58 ??1?$_List_node_insert_op2@U?$custom_nballocator_t@U?$_List_node@V?$CStringT@_WV?$StrTraitMFC@_WV?$ChTraitsCRT@_W@ATL@@@@@ATL@@PAX@std@@@nb@@@std@@QAE@XZ
10BC00 8 __vswprintf_c_l
10BC30 8 __swprintf
10BC50 8 __vsnprintf_l
10BC90 8 __vsprintf_s_l
10BCD0 8 _sprintf
10BCF0 8 _sprintf_s
10BD10 8 ?wchcalloc@nb@@YAPA_WI@Z
10BD40 8 ?AtlW2AHelper@@YGPADPADPB_WHI@Z
10BD80 8 ??0CAsyncSslSocketLayer@@QAE@XZ
10BF80 0 ??_ECAsyncSslSocketLayer@@UAEPAXI@Z
10C060 8 ?OnReceive@CAsyncSslSocketLayer@@EAEXH@Z
10C2D0 8 ?ProcessSendBuffer@CAsyncSslSocketLayer@@AAEHXZ
10C380 8 ?OnSend@CAsyncSslSocketLayer@@EAEXH@Z
10C6C0 8 ?Send@CAsyncSslSocketLayer@@EAEHPBXHH@Z
10C830 8 ?Receive@CAsyncSslSocketLayer@@EAEHPAXHH@Z
10CAB0 8 ?Close@CAsyncSslSocketLayer@@EAEXXZ
10CB50 8 ?Connect@CAsyncSslSocketLayer@@EAEHPBUsockaddr@@H@Z
10CB90 8 ?Connect@CAsyncSslSocketLayer@@EAEHPB_WI@Z
10CBD0 8 ?SetSession@CAsyncSslSocketLayer@@AAEXPAUssl_session_st@@@Z
10CCD0 8 ?HandleSession@CAsyncSslSocketLayer@@AAE_NPAUssl_session_st@@@Z
10CDE0 8 ?NewSessionCallback@CAsyncSslSocketLayer@@CAHPAUssl_st@@PAUssl_session_st@@@Z
10CE30 8 ?InitSSLConnection@CAsyncSslSocketLayer@@QAEH_NPAV1@0ABV?$CStringT@_WV?$StrTraitMFC@_WV?$ChTraitsCRT@_W@ATL@@@@@ATL@@PAVCFileZillaTools@@@Z
10D4F0 8 ?ResetSslSession@CAsyncSslSocketLayer@@AAEXXZ
10D730 8 ?ShutDown@CAsyncSslSocketLayer@@EAEHH@Z
10D870 8 ?ShutDownComplete@CAsyncSslSocketLayer@@AAEHXZ
10D910 8 ?LogSslError@CAsyncSslSocketLayer@@AAEXPBUssl_st@@PBD1HPAD@Z
10DC60 8 $LN728
10DD40 8 ?apps_ssl_info_callback@CAsyncSslSocketLayer@@CAXPBUssl_st@@HH@Z
10E108 8 $LN529
10E188 8 $LN528
10E210 8 ?AsnTimeToValidTime@@YA_NPAUasn1_string_st@@AAUt_validTime@t_SslCertData@@@Z
10E370 8 ?GetPeerCertificateData@CAsyncSslSocketLayer@@QAEHAAUt_SslCertData@@AAPB_W@Z
10F0C0 8 $LN1800
10F0E0 8 $LN1799
10F104 8 $LN1812
10F124 8 $LN1811
10F150 8 ?SetNotifyReply@CAsyncSslSocketLayer@@QAEXHHH@Z
10F1E0 8 ?PrintSessionInfo@CAsyncSslSocketLayer@@AAEXXZ
10F520 8 ?OnConnect@CAsyncSslSocketLayer@@EAEXH@Z
10F550 8 ?LookupLayer@CAsyncSslSocketLayer@@CAPAV1@PAUssl_st@@@Z
10F5A0 8 ?verify_callback@CAsyncSslSocketLayer@@CAHHPAUx509_store_ctx_st@@@Z
10F630 8 ?ProvideClientCert@CAsyncSslSocketLayer@@CAHPAUssl_st@@PAPAUx509_st@@PAPAUevp_pkey_st@@@Z
10F760 8 ?OnClose@CAsyncSslSocketLayer@@EAEXH@Z
10F7B0 8 ?PrintLastErrorMsg@CAsyncSslSocketLayer@@AAEXXZ
10F9E0 8 ?TriggerEvents@CAsyncSslSocketLayer@@AAEXXZ
10FB40 8 ??4?$basic_string@DU?$char_traits@D@std@@V?$allocator@D@2@@std@@QAEAAV01@QBD@Z
10FB70 8 ??0?$basic_string@DU?$char_traits@D@std@@V?$allocator@D@2@@std@@QAE@XZ
10FB90 8 ?assign@?$basic_string@DU?$char_traits@D@std@@V?$allocator@D@2@@std@@QAEAAV12@QBDI@Z
10FC80 7 __vsnwprintf_l
10FCC0 7 __snwprintf
10FCE0 7 __snprintf
10FD00 7 ?Inet6AddrToString@@YAPA_WAAUin6_addr@@@Z
10FDA0 7 ??0CAsyncSocketExLayer@@IAE@XZ
10FE00 0 ??_ECAsyncSocketExLayer@@MAEPAXI@Z
10FE40 7 ?AddLayer@CAsyncSocketExLayer@@AAEPAV1@PAV1@PAVCAsyncSocketEx@@@Z
10FEA0 7 ?Receive@CAsyncSocketExLayer@@MAEHPAXHH@Z
10FEB0 7 ?Send@CAsyncSocketExLayer@@MAEHPBXHH@Z
10FEC0 7 ?OnReceive@CAsyncSocketExLayer@@MAEXH@Z
10FEE0 7 ?OnSend@CAsyncSocketExLayer@@MAEXH@Z
10FF00 7 ?OnConnect@CAsyncSocketExLayer@@MAEXH@Z
10FF10 7 ?OnAccept@CAsyncSocketExLayer@@MAEXH@Z
10FF30 7 ?OnClose@CAsyncSocketExLayer@@MAEXH@Z
10FF50 7 ?TriggerEvent@CAsyncSocketExLayer@@IAEHJHH@Z
110080 7 ?Close@CAsyncSocketExLayer@@MAEXXZ
110090 7 ?CloseNext@CAsyncSocketExLayer@@IAEXXZ
1100F0 7 ?Connect@CAsyncSocketExLayer@@MAEHPB_WI@Z
110100 7 ?Connect@CAsyncSocketExLayer@@MAEHPBUsockaddr@@H@Z
110110 7 ?SendNext@CAsyncSocketExLayer@@IAEHPBXHH@Z
110190 7 ?ReceiveNext@CAsyncSocketExLayer@@IAEHPAXHH@Z
110210 7 ?ConnectNext@CAsyncSocketExLayer@@IAEHPB_WI@Z
110620 7 ?ConnectNext@CAsyncSocketExLayer@@IAEHPBUsockaddr@@H@Z
110690 7 ?GetPeerName@CAsyncSocketExLayer@@MAEHAAV?$CStringT@_WV?$StrTraitMFC@_WV?$ChTraitsCRT@_W@ATL@@@@@ATL@@AAI@Z
1106A0 7 ?GetPeerNameNext@CAsyncSocketExLayer@@IAEHAAV?$CStringT@_WV?$StrTraitMFC@_WV?$ChTraitsCRT@_W@ATL@@@@@ATL@@AAI@Z
110800 7 ?GetPeerName@CAsyncSocketExLayer@@MAEHPAUsockaddr@@PAH@Z
110830 7 ?GetSockName@CAsyncSocketExLayer@@MAEHAAV?$CStringT@_WV?$StrTraitMFC@_WV?$ChTraitsCRT@_W@ATL@@@@@ATL@@AAI@Z
110840 7 ?GetSockNameNext@CAsyncSocketExLayer@@IAEHAAV?$CStringT@_WV?$StrTraitMFC@_WV?$ChTraitsCRT@_W@ATL@@@@@ATL@@AAI@Z
1109A0 7 ?GetSockName@CAsyncSocketExLayer@@MAEHPAUsockaddr@@PAH@Z
1109D0 7 ?CallEvent@CAsyncSocketExLayer@@AAEXHH@Z
110C60 7 ?Create@CAsyncSocketExLayer@@MAEHIHJPB_WH@Z
110C70 7 ?CreateNext@CAsyncSocketExLayer@@IAEHIHJPB_WH@Z
110DE0 7 ?DoLayerCallback@CAsyncSocketExLayer@@IAEHHHHPAD@Z
110EC0 7 ?Listen@CAsyncSocketExLayer@@MAEHH@Z
110ED0 7 ?ListenNext@CAsyncSocketExLayer@@IAEHH@Z
110F30 7 ?Accept@CAsyncSocketExLayer@@MAEHAAVCAsyncSocketEx@@PAUsockaddr@@PAH@Z
110F40 7 ?AcceptNext@CAsyncSocketExLayer@@IAEHAAVCAsyncSocketEx@@PAUsockaddr@@PAH@Z
110FD0 7 ?ShutDown@CAsyncSocketExLayer@@MAEHH@Z
110FE0 7 ?ShutDownNext@CAsyncSocketExLayer@@IAEHH@Z
111050 7 ?TryNextProtocol@CAsyncSocketExLayer@@IAE_NXZ
111230 7 ?LogSocketMessageRaw@CAsyncSocketExLayer@@IAEXHPB_W@Z
111250 7 ?GetSocketOptionVal@CAsyncSocketExLayer@@IBEHH@Z
111270 7 ??4?$CStringT@_WV?$StrTraitMFC@_WV?$ChTraitsCRT@_W@ATL@@@@@ATL@@QAEAAV01@PBD@Z
111300 6 ?GetSocketOptionVal@CAsyncSocketEx@@MBEHH@Z
111310 6 ??2CAsyncSocketExHelperWindow@@SAPAXI@Z
111340 6 ??0CAsyncSocketExHelperWindow@@QAE@PAUt_AsyncSocketExThreadData@CAsyncSocketEx@@@Z
111450 6 ?AddSocket@CAsyncSocketExHelperWindow@@QAEHPAVCAsyncSocketEx@@AAH@Z
1115F0 6 ?RemoveLayers@CAsyncSocketExHelperWindow@@QAEXPAVCAsyncSocketEx@@@Z
1117E0 6 ?WindowProc@CAsyncSocketExHelperWindow@@SGJPAUHWND__@@IIJ@Z
112080 0 ??_ECAsyncSocketExHelperWindow@@UAEPAXI@Z
1120F0 6 ??0CAsyncSocketEx@@QAE@XZ
112180 0 ??_ECAsyncSocketEx@@UAEPAXI@Z
1121A0 6 ??1CAsyncSocketEx@@UAE@XZ
112320 6 ?Create@CAsyncSocketEx@@QAEHIHJPB_WH@Z
112450 6 ?Bind@CAsyncSocketEx@@UAEHIPB_W@Z
1126C0 6 ?AttachHandle@CAsyncSocketEx@@IAEXI@Z
1126E0 6 ?DetachHandle@CAsyncSocketEx@@IAEXI@Z
112750 6 ?Close@CAsyncSocketEx@@UAEXXZ
112800 6 ?InitAsyncSocketExInstance@CAsyncSocketEx@@IAEHXZ
1129B0 6 ??0t_AsyncSocketExThreadData@CAsyncSocketEx@@QAE@XZ
1129F0 6 ?Receive@CAsyncSocketEx@@UAEHPAXHH@Z
112A20 6 ?Send@CAsyncSocketEx@@UAEHPBXHHH@Z
112BE0 6 ?Connect@CAsyncSocketEx@@UAEHPB_WI@Z
112FC0 6 ?Connect@CAsyncSocketEx@@UAEHPBUsockaddr@@H@Z
113020 6 ?GetPeerName@CAsyncSocketEx@@QAEHAAV?$CStringT@_WV?$StrTraitMFC@_WV?$ChTraitsCRT@_W@ATL@@@@@ATL@@AAI@Z
1131D0 6 ?GetSockName@CAsyncSocketEx@@QAEHAAV?$CStringT@_WV?$StrTraitMFC@_WV?$ChTraitsCRT@_W@ATL@@@@@ATL@@AAI@Z
113350 6 ?AsyncSelect@CAsyncSocketEx@@QAEHJ@Z
1133B0 6 ?Listen@CAsyncSocketEx@@QAEHH@Z
1133F0 6 ?Accept@CAsyncSocketEx@@UAEHAAV1@PAUsockaddr@@PAH@Z
113470 6 ?IOCtl@CAsyncSocketEx@@QAEHJPAK@Z
113490 6 ?TriggerEvent@CAsyncSocketEx@@QAEHJ@Z
113590 6 ?GetHelperWindowHandle@CAsyncSocketEx@@IAEPAUHWND__@@XZ
1135B0 6 ?AddLayer@CAsyncSocketEx@@QAEHPAVCAsyncSocketExLayer@@@Z
113650 6 ?RemoveAllLayers@CAsyncSocketEx@@QAEXXZ
1136D0 6 ?OnLayerCallback@CAsyncSocketEx@@MAEHAAV?$list@Ut_callbackMsg@@U?$custom_nballocator_t@Ut_callbackMsg@@@nb@@@std@@@Z
113700 6 ?SetSockOpt@CAsyncSocketEx@@QAEHHPBXHH@Z
113730 6 ?SetState@CAsyncSocketEx@@MAEXH@Z
113740 6 ?GetStateDesc@CAsyncSocketEx@@KAPB_WH@Z
113784 6 $LN14
1137B0 6 ?SetFamily@CAsyncSocketEx@@QAE_NH@Z
1137D0 6 ?TryNextProtocol@CAsyncSocketEx@@IAE_NXZ
113970 6 ?AppendChar@?$CSimpleStringT@D$0A@@ATL@@QAEXD@Z
1139D0 36 ??1?$list@HU?$custom_nballocator_t@H@nb@@@std@@QAE@XZ
113A00 6 ??0?$list@Ut_callbackMsg@@U?$custom_nballocator_t@Ut_callbackMsg@@@nb@@@std@@QAE@XZ
113A60 6 ?Fork@?$CSimpleStringT@D$0A@@ATL@@AAEXH@Z
113B10 6 ?PrepareWrite2@?$CSimpleStringT@D$0A@@ATL@@AAEXH@Z
113B80 6 ?Reallocate@?$CSimpleStringT@D$0A@@ATL@@AAEXH@Z
113BC0 30 ??1t_SslCertData@@QAE@XZ
113BD0 30 ??0t_command@@QAE@XZ
113CF0 0 ??_ECFileZillaApi@@UAEPAXI@Z
113DE0 30 ?IsConnected@CFileZillaApi@@IBEHXZ
113E30 30 ?IsBusy@CFileZillaApi@@IBEHXZ
113E80 30 ??1t_command@@QAE@XZ
113F40 30 ??4t_transferfile@@QAEAAU0@ABU0@@Z
113FD0 30 ?CustomCommand@CFileZillaApi@@QAEHV?$CStringT@_WV?$StrTraitMFC@_WV?$ChTraitsCRT@_W@ATL@@@@@ATL@@@Z
1141D0 30 ?Rename@CFileZillaApi@@QAEHV?$CStringT@_WV?$StrTraitMFC@_WV?$ChTraitsCRT@_W@ATL@@@@@ATL@@0ABVCServerPath@@1@Z
1143C0 30 ?SetAsyncRequestResult@CFileZillaApi@@QAEHHPAVCAsyncRequestData@@@Z
114480 0 ??_ECAsyncRequestData@@UAEPAXI@Z
1144C0 0 ??_ECOverwriteRequestData@@UAEPAXI@Z
114590 0 ??_ECVerifyCertRequestData@@UAEPAXI@Z
1145F0 30 ??0CNeedPassRequestData@@QAE@XZ
114670 0 ??_ECNeedPassRequestData@@UAEPAXI@Z
1146D0 30 ??8ATL@@YA_NABV?$CStringT@_WV?$StrTraitMFC@_WV?$ChTraitsCRT@_W@ATL@@@@@0@PBD@Z
1147A0 30 ??8ATL@@YA_NABV?$CStringT@_WV?$StrTraitMFC@_WV?$ChTraitsCRT@_W@ATL@@@@@0@0@Z
114840 37 ??0t_server@@QAE@XZ
114940 37 ??1t_server@@QAE@XZ
1149D0 37 ??MATL@@YA_NABV?$CStringT@_WV?$StrTraitMFC@_WV?$ChTraitsCRT@_W@ATL@@@@@0@0@Z
114A60 34 ??1AFX_EXCEPTION_LINK@@QAE@XZ
114AF0 34 ?GetTickCount@CTime@ATL@@SG?AV12@XZ
114B10 34 ?SetFilePath@CFile@@UAEXPB_W@Z
114B50 34 ??0CFileFix@@QAE@XZ
114BC0 82 ?Read@CFile@@UAEIPAXI@Z
114C10 0 ??_ECFile@@UAEPAXI@Z
114C50 34 ??2t_directory@@SAPAXI@Z
114C80 34 ??0t_SslCertData@@QAE@XZ
114DB0 34 ??0t_Contact@t_SslCertData@@QAE@XZ
114E50 34 ??0t_transferdata@@QAE@XZ
114E90 0 ??_ECOpData@t_operation@CFtpControlSocket@@UAEPAXI@Z
114ED0 0 ??_ECFileTransferData@CFtpControlSocket@@UAEPAXI@Z
114FA0 0 ??_ECLogonData@CFtpControlSocket@@UAEPAXI@Z
114FE0 0 ??_ECListData@CFtpControlSocket@@UAEPAXI@Z
1150D0 0 ??_ECListFileData@CFtpControlSocket@@UAEPAXI@Z
1151F0 34 ??_Et_direntry@t_directory@@QAEPAXI@Z
115250 34 ??1t_direntry@t_directory@@QAE@XZ
115310 0 ??_ECMakeDirData@CFtpControlSocket@@UAEPAXI@Z
1153C0 34 ??0CFtpControlSocket@@QAE@PAVCMainThread@@PAVCFileZillaTools@@@Z
1156A0 0 ??_ECFtpControlSocket@@UAEPAXI@Z
1156E0 34 ??1CFtpControlSocket@@UAE@XZ
1159F0 34 ?ShowStatus@CFtpControlSocket@@IBEXIH@Z
115A90 34 ?ShowStatus@CFtpControlSocket@@IBEXV?$CStringT@_WV?$StrTraitMFC@_WV?$ChTraitsCRT@_W@ATL@@@@@ATL@@H@Z
115C70 34 ?ShowTimeoutError@CFtpControlSocket@@IBEXI@Z
115DA0 34 ??0t_server@@QAE@ABV0@@Z
115E90 34 ?Close@CFtpControlSocket@@MAEXXZ
115F00 34 ?SetDirectoryListing@CFtpControlSocket@@IAEXPAVt_directory@@_N@Z
115FA0 34 ?InitConnect@CFtpControlSocket@@IAE_NXZ
1164B0 34 ?Connect@CFtpControlSocket@@QAEXAAVt_server@@@Z
116A50 34 ?NormalizePass@@YA?AV?$CStringT@_WV?$StrTraitMFC@_WV?$ChTraitsCRT@_W@ATL@@@@@ATL@@ABV12@@Z
116BA0 34 ?LogOnToServer@CFtpControlSocket@@IAEXH@Z
1189D8 34 $LN1814
118A10 34 ?SendAuthSsl@CFtpControlSocket@@IAEHXZ
118AC0 34 ?OnReceive@CFtpControlSocket@@UAEXH@Z
1193D0 34 ?ProcessReply@CFtpControlSocket@@QAEXXZ
119810 34 ?OnConnect@CFtpControlSocket@@UAEXH@Z
119AF0 34 ?Send@CFtpControlSocket@@IAEHV?$CStringT@_WV?$StrTraitMFC@_WV?$ChTraitsCRT@_W@ATL@@@@@ATL@@@Z
119F30 34 ?TryGetReplyCode@CFtpControlSocket@@IAEHXZ
11A060 34 ?GetReplyCode@CFtpControlSocket@@IAEHXZ
11A160 34 ?DoClose@CFtpControlSocket@@MAEXH@Z
11A2A0 34 ?UsingMlsd@CFtpControlSocket@@QBE_NXZ
11A2D0 34 ?GetListingCmd@CFtpControlSocket@@IAE?AV?$CStringT@_WV?$StrTraitMFC@_WV?$ChTraitsCRT@_W@ATL@@@@@ATL@@XZ
11A3A0 34 ?List@CFtpControlSocket@@QAEXHHVCServerPath@@V?$CStringT@_WV?$StrTraitMFC@_WV?$ChTraitsCRT@_W@ATL@@@@@ATL@@@Z
11B884 34 $LN2311
11B8B0 34 ?ConnectTransferSocket@CFtpControlSocket@@IAE_NABV?$CStringT@_WV?$StrTraitMFC@_WV?$ChTraitsCRT@_W@ATL@@@@@ATL@@I@Z
11B9F0 34 ?ListFile@CFtpControlSocket@@QAEXV?$CStringT@_WV?$StrTraitMFC@_WV?$ChTraitsCRT@_W@ATL@@@@@ATL@@ABVCServerPath@@@Z
11C13C 34 $LN816
11C160 34 ?TransferEnd@CFtpControlSocket@@QAEXH@Z
11C290 34 ?OnClose@CFtpControlSocket@@UAEXH@Z
11C2F0 34 ?ResetTransferSocket@CFtpControlSocket@@IAEXH@Z
11C390 34 ?OpenTransferFile@CFtpControlSocket@@IAEHPAVCFileTransferData@1@@Z
11C5C0 34 ?ActivateTransferSocket@CFtpControlSocket@@IAEHPAVCFileTransferData@1@@Z
11C600 34 ?FileTransfer@CFtpControlSocket@@QAEXPAUt_transferfile@@HH@Z
11F70C 34 $LN4168
11F768 34 $LN4166
11F7D0 34 ??4t_direntry@t_directory@@QAEAAV01@ABV01@@Z
11F870 34 ?TransferHandleListError@CFtpControlSocket@@QAEXXZ
11F8A0 34 ?atoui@@YAHPB_W@Z
11F8D0 34 ?HandleMdtm@CFtpControlSocket@@QAE_NHAAVt_date@t_direntry@t_directory@@@Z
11FD10 34 ?HandleSize@CFtpControlSocket@@QAE_NHAA_J@Z
11FE70 34 ?TransferFinished@CFtpControlSocket@@IAEX_N@Z
120100 34 ?Cancel@CFtpControlSocket@@QAEXH@Z
1201B0 34 ?ResetOperation@CFtpControlSocket@@IAEXH@Z
120750 34 ?Delete@CFtpControlSocket@@QAEXV?$CStringT@_WV?$StrTraitMFC@_WV?$ChTraitsCRT@_W@ATL@@@@@ATL@@ABVCServerPath@@_N@Z
120CB0 34 ??_GCDeleteData@?1??Delete@CFtpControlSocket@@QAEXV?$CStringT@_WV?$StrTraitMFC@_WV?$ChTraitsCRT@_W@ATL@@@@@ATL@@ABVCServerPath@@_N@Z@UAEPAXI@Z
120D40 34 ?RemoveDir@CFtpControlSocket@@QAEXV?$CStringT@_WV?$StrTraitMFC@_WV?$ChTraitsCRT@_W@ATL@@@@@ATL@@ABVCServerPath@@@Z
1212D0 34 ??_GCRemoveDirData@?1??RemoveDir@CFtpControlSocket@@QAEXV?$CStringT@_WV?$StrTraitMFC@_WV?$ChTraitsCRT@_W@ATL@@@@@ATL@@ABVCServerPath@@@Z@UAEPAXI@Z
121360 34 ?FileTransferHandleDirectoryListing@CFtpControlSocket@@IAEHPAVt_directory@@@Z
1213A0 34 ?CheckOverwriteFileAndCreateTarget@CFtpControlSocket@@IAEHXZ
121610 34 ?CheckOverwriteFile@CFtpControlSocket@@IAEHXZ
1217EF 34 __catch$?CheckOverwriteFile@CFtpControlSocket@@IAEHXZ$0
121EF0 34 ?SetFileExistsAction@CFtpControlSocket@@IAEXHPAVCOverwriteRequestData@@@Z
122170 34 $LN73
122190 34 ?MakeDir@CFtpControlSocket@@QAEXABVCServerPath@@@Z
122990 34 ?Rename@CFtpControlSocket@@QAEXV?$CStringT@_WV?$StrTraitMFC@_WV?$ChTraitsCRT@_W@ATL@@@@@ATL@@0ABVCServerPath@@1@Z
1231E0 34 ??_GCRenameData@?1??Rename@CFtpControlSocket@@QAEXV?$CStringT@_WV?$StrTraitMFC@_WV?$ChTraitsCRT@_W@ATL@@@@@ATL@@0ABVCServerPath@@1@Z@UAEPAXI@Z
1232C0 34 ??0t_direntry@t_directory@@QAE@ABV01@@Z
1233D0 34 ?OnTimer@CFtpControlSocket@@UAEXXZ
1237A0 34 ?SetAsyncRequestResult@CFtpControlSocket@@QAEXHPAVCAsyncRequestData@@@Z
123900 34 ?OnLayerCallback@CFtpControlSocket@@MAEHAAV?$list@Ut_callbackMsg@@U?$custom_nballocator_t@Ut_callbackMsg@@@nb@@@std@@@Z
123E50 34 $LN4179
123E70 34 $LN4181
123E88 34 $LN4180
123EA0 34 ?GetSpeedLimit@CFtpControlSocket@@QAE_JW4transferDirection@1@AAVCTime@ATL@@@Z
123F10 34 ?GetAbleToUDSize@CFtpControlSocket@@IAE_JAA_NAAVCTime@ATL@@AA_JAAV?$_List_iterator@V?$_List_val@U?$_List_simple_types@Ut_ActiveList@CFtpControlSocket@@@std@@@std@@@std@@W4transferDirection@1@H@Z
124220 34 ?GetAbleToTransferSize@CFtpControlSocket@@QAE_JW4transferDirection@1@AA_NH@Z
1243B0 34 ?RemoveActiveTransfer@CFtpControlSocket@@QAEHXZ
124430 34 ?SpeedLimitAddTransferredBytes@CFtpControlSocket@@QAEHW4transferDirection@1@_J@Z
1244E0 34 ?ConvertDomainName@CFtpControlSocket@@IAE?AV?$CStringT@_WV?$StrTraitMFC@_WV?$ChTraitsCRT@_W@ATL@@@@@ATL@@V23@@Z
124710 34 ?LogSocketMessageRaw@CFtpControlSocket@@MAEXHPB_W@Z
124740 34 ?LoggingSocketMessage@CFtpControlSocket@@MAE_NH@Z
124760 34 ?GetSocketOptionVal@CFtpControlSocket@@MBEHH@Z
124770 34 ?ParsePwdReply@CFtpControlSocket@@IAEHAAV?$CStringT@_WV?$StrTraitMFC@_WV?$ChTraitsCRT@_W@ATL@@@@@ATL@@@Z
124820 34 ?ParsePwdReply@CFtpControlSocket@@IAEHAAV?$CStringT@_WV?$StrTraitMFC@_WV?$ChTraitsCRT@_W@ATL@@@@@ATL@@AAVCServerPath@@@Z
124A50 34 ?DiscardLine@CFtpControlSocket@@IAEXV?$CStringT@DV?$StrTraitMFC@DV?$ChTraitsCRT@D@ATL@@@@@ATL@@@Z
124FB0 34 ?FileTransferListState@CFtpControlSocket@@IAEH_N@Z
124FD0 34 ?GetReply@CFtpControlSocket@@IAE?AV?$CStringT@_WV?$StrTraitMFC@_WV?$ChTraitsCRT@_W@ATL@@@@@ATL@@XZ
125350 34 ?OnSend@CFtpControlSocket@@UAEXH@Z
125490 34 ?IsMisleadingListResponse@CFtpControlSocket@@QAE_NXZ
125530 34 ?IsRoutableAddress@CFtpControlSocket@@IAE_NABV?$CStringT@_WV?$StrTraitMFC@_WV?$ChTraitsCRT@_W@ATL@@@@@ATL@@@Z
125960 34 ?CheckForcePasvIp@CFtpControlSocket@@IAE_NAAV?$CStringT@_WV?$StrTraitMFC@_WV?$ChTraitsCRT@_W@ATL@@@@@ATL@@@Z
125AA0 34 ?CreateListResult@CFtpControlSocket@@QAEPAVCFtpListResult@@_N@Z
125B70 34 ?GetCapability@TFTPServerCapabilities@@QBE?AW4ftp_capabilities_t@@W4ftp_capability_names_t@@@Z
125BD0 34 ?GetCapabilityString@TFTPServerCapabilities@@QBE?AW4ftp_capabilities_t@@W4ftp_capability_names_t@@PAV?$basic_string@DU?$char_traits@D@std@@V?$allocator@D@2@@std@@@Z
125C70 34 ?SetCapability@TFTPServerCapabilities@@QAEXW4ftp_capability_names_t@@W4ftp_capabilities_t@@@Z
125D30 34 ?SetCapability@TFTPServerCapabilities@@QAEXW4ftp_capability_names_t@@W4ftp_capabilities_t@@ABV?$basic_string@DU?$char_traits@D@std@@V?$allocator@D@2@@std@@@Z
125E20 34 ?pop_back@?$list@V?$CStringT@DV?$StrTraitMFC@DV?$ChTraitsCRT@D@ATL@@@@@ATL@@U?$custom_nballocator_t@V?$CStringT@DV?$StrTraitMFC@DV?$ChTraitsCRT@D@ATL@@@@@ATL@@@nb@@@std@@QAEXXZ
125E60 34 ?pop_front@?$list@V?$CStringT@DV?$StrTraitMFC@DV?$ChTraitsCRT@D@ATL@@@@@ATL@@U?$custom_nballocator_t@V?$CStringT@DV?$StrTraitMFC@DV?$ChTraitsCRT@D@ATL@@@@@ATL@@@nb@@@std@@QAEXXZ
125EA0 34 ?push_back@?$list@V?$CStringT@DV?$StrTraitMFC@DV?$ChTraitsCRT@D@ATL@@@@@ATL@@U?$custom_nballocator_t@V?$CStringT@DV?$StrTraitMFC@DV?$ChTraitsCRT@D@ATL@@@@@ATL@@@nb@@@std@@QAEX$$QAV?$CStringT@DV?$StrTraitMFC@DV?$ChTraitsCRT@D@ATL@@@@@ATL@@@Z
125F50 34 ??9ATL@@YA_NABV?$CStringT@DV?$StrTraitMFC@DV?$ChTraitsCRT@D@ATL@@@@@0@PBD@Z
125FA0 34 ??8ATL@@YA_NABV?$CStringT@DV?$StrTraitMFC@DV?$ChTraitsCRT@D@ATL@@@@@0@PBD@Z
126000 34 ??HATL@@YA?AV?$CStringT@DV?$StrTraitMFC@DV?$ChTraitsCRT@D@ATL@@@@@0@ABV10@D@Z
126150 34 ?Left@?$CStringT@DV?$StrTraitMFC@DV?$ChTraitsCRT@D@ATL@@@@@ATL@@QBE?AV12@H@Z
126230 34 ?Mid@?$CStringT@DV?$StrTraitMFC@DV?$ChTraitsCRT@D@ATL@@@@@ATL@@QBE?AV12@HH@Z
126360 34 ??4?$CStringT@DV?$StrTraitMFC@DV?$ChTraitsCRT@D@ATL@@@@@ATL@@QAEAAV01@ABV01@@Z
1263D0 34 ??0?$CStringT@DV?$StrTraitMFC@DV?$ChTraitsCRT@D@ATL@@@@@ATL@@QAE@PBD@Z
126440 34 ??0?$CStringT@DV?$StrTraitMFC@DV?$ChTraitsCRT@D@ATL@@@@@ATL@@QAE@ABV01@@Z
126470 34 ??0?$list@Ut_ActiveList@CFtpControlSocket@@U?$custom_nballocator_t@Ut_ActiveList@CFtpControlSocket@@@nb@@@std@@QAE@XZ
1264D0 34 ??A?$map@W4ftp_capability_names_t@@Ut_cap@TFTPServerCapabilities@@U?$less@W4ftp_capability_names_t@@@std@@U?$custom_nballocator_t@U?$pair@$$CBW4ftp_capability_names_t@@Ut_cap@TFTPServerCapabilities@@@std@@@nb@@@std@@QAEAAUt_cap@TFTPServerCapabilities@@ABW4ftp_capability_names_t@@@Z
1265A0 34 ??HATL@@YA?AV?$CStringT@_WV?$StrTraitMFC@_WV?$ChTraitsCRT@_W@ATL@@@@@0@ABV10@0@Z
126660 34 ?MakeLower@?$CStringT@_WV?$StrTraitMFC@_WV?$ChTraitsCRT@_W@ATL@@@@@ATL@@QAEAAV12@XZ
1266C0 34 ?FindOneOf@?$CStringT@_WV?$StrTraitMFC@_WV?$ChTraitsCRT@_W@ATL@@@@@ATL@@QBEHPB_W@Z
1266F0 34 ?Replace@?$CStringT@_WV?$StrTraitMFC@_WV?$ChTraitsCRT@_W@ATL@@@@@ATL@@QAEH_W0@Z
126790 34 ??0?$CStringT@_WV?$StrTraitMFC@_WV?$ChTraitsCRT@_W@ATL@@@@@ATL@@QAE@PBD@Z
126820 34 ?SetAt@?$CSimpleStringT@_W$0A@@ATL@@QAEXH_W@Z
126880 34 ?CheckImplicitLoad@?$CStringT@DV?$StrTraitMFC@DV?$ChTraitsCRT@D@ATL@@@@@ATL@@AAE_NPBX@Z
1269B0 34 ?CloneData@?$CSimpleStringT@D$0A@@ATL@@CAPAUCStringData@2@PAU32@@Z
126A40 34 ?SetString@?$CSimpleStringT@D$0A@@ATL@@QAEXPBDH@Z
126B40 34 ?Empty@?$CSimpleStringT@D$0A@@ATL@@QAEXXZ
126BE0 34 ?_Xran@?$_String_val@U?$_Simple_types@D@std@@@std@@SAXXZ
126BF0 34 ?Format@?$CStringT@_WV?$StrTraitMFC@_WV?$ChTraitsCRT@_W@ATL@@@@@ATL@@QAAXIZZ
126D60 34 ?Format@?$CStringT@_WV?$StrTraitMFC@_WV?$ChTraitsCRT@_W@ATL@@@@@ATL@@QAAXPB_WZZ
126D73 34 ??_ECFtpControlSocket@@WFA@AEPAXI@Z
126D80 0 ??_ECMainThread@@MAEPAXI@Z
126E50 44 ?IsConnected@CMainThread@@QBEHXZ
126E90 44 ?OnThreadMessage@CMainThread@@UAEHIIJ@Z
127414 44 $LN761
12742C 44 $LN760
127450 44 ?IsBusy@CMainThread@@QBEHXZ
127490 44 ?Command@CMainThread@@QAEXABUt_command@@@Z
127560 44 ??4t_command@@QAEAAU0@ABU0@@Z
1275D0 44 ?SetBusy@CMainThread@@QAEXH@Z
127610 44 ?SetConnected@CMainThread@@QAEXH@Z
127650 44 ?GetCurrentPath@CMainThread@@QAE_NAAVCServerPath@@@Z
1276D0 44 ?GetCurrentPath@CMainThread@@QAE?AVCServerPath@@XZ
127780 44 ?SetCurrentPath@CMainThread@@QAEXVCServerPath@@@Z
127870 44 ?GetWorkingDir@CMainThread@@QAEHPAVt_directory@@@Z
1278D0 44 ?SetWorkingDir@CMainThread@@QAEXPAVt_directory@@@Z
127AA0 44 ?Create@CMainThread@@SAPAV1@HK@Z
127D80 44 ?ThreadProc@CMainThread@@KGKPAX@Z
127D90 44 ?Run@CMainThread@@IAEKXZ
127FA0 68 ??2t_ffam_transferstatus@@SAPAXI@Z
127FC0 68 ??0CTransferSocket@@QAE@PAVCFtpControlSocket@@H@Z
1282F0 0 ??_ECTransferSocket@@UAEPAXI@Z
128400 68 ?OnReceive@CTransferSocket@@UAEXH@Z
128726 68 __catch$?OnReceive@CTransferSocket@@UAEXH@Z$0
1287F0 68 ?SetBuffers@CTransferSocket@@IAEXXZ
1288C0 68 ?OnAccept@CTransferSocket@@UAEXH@Z
1289F0 68 ?ConfigureSocket@CTransferSocket@@MAEXXZ
128A30 68 ?OnConnect@CTransferSocket@@UAEXH@Z
128C00 68 ?Start@CTransferSocket@@IAEXXZ
128D20 68 ?OnClose@CTransferSocket@@UAEXH@Z
128E00 68 ?SetState@CTransferSocket@@UAEXH@Z
128E30 68 ?Activate@CTransferSocket@@IAE_NXZ
128EE0 68 ?OnSend@CTransferSocket@@UAEXH@Z
129360 68 ?UpdateStatusBar@CTransferSocket@@IAEX_N@Z
129470 68 ?Create@CTransferSocket@@UAEHH@Z
129840 68 ?Close@CTransferSocket@@UAEXXZ
129850 68 ?OnLayerCallback@CTransferSocket@@MAEHAAV?$list@Ut_callbackMsg@@U?$custom_nballocator_t@Ut_callbackMsg@@@nb@@@std@@@Z
129C14 68 $LN1752
129C40 68 ?ReadData@CTransferSocket@@IAEHPADH@Z
129C90 68 ?ReadDataFromFile@CTransferSocket@@IAEHPADH@Z
129DDB 68 __catch$?ReadDataFromFile@CTransferSocket@@IAEHPADH@Z$0
129EC0 68 ?CloseAndEnsureSendClose@CTransferSocket@@IAEXH@Z
12A000 68 ?CloseOnShutDownOrError@CTransferSocket@@IAEXH@Z
12A07F 68 ??_ECTransferSocket@@WFA@AEPAXI@Z
12A090 36 ??0CFtpListResult@@QAE@Vt_server@@_NPA_NPAH11@Z
12CF80 0 ??_ECFtpListResult@@UAEPAXI@Z
12D010 36 ??1?$map@V?$CStringT@_WV?$StrTraitMFC@_WV?$ChTraitsCRT@_W@ATL@@@@@ATL@@HU?$less@V?$CStringT@_WV?$StrTraitMFC@_WV?$ChTraitsCRT@_W@ATL@@@@@ATL@@@std@@U?$custom_nballocator_t@U?$pair@$$CBV?$CStringT@_WV?$StrTraitMFC@_WV?$ChTraitsCRT@_W@ATL@@@@@ATL@@H@std@@@nb@@@std@@QAE@XZ
12D030 36 ?getList@CFtpListResult@@QAEPAVt_direntry@t_directory@@AAI@Z
12D2E0 36 ?parseLine@CFtpListResult@@AAEHPBDHAAVt_direntry@t_directory@@@Z
12D550 36 ?AddData@CFtpListResult@@QAEXPBDH@Z
12D9F0 36 ?SendLineToMessageLog@CFtpListResult@@IAEXABVRawByteString@@@Z
12DAE0 36 ?AddLine@CFtpListResult@@IAEXAAVt_direntry@t_directory@@@Z
12DE20 36 ?ParseShortDate@CFtpListResult@@ABE_NPBDHAAVt_date@t_direntry@t_directory@@@Z
12E170 36 ?parseAsVMS@CFtpListResult@@AAEHPBDHAAVt_direntry@t_directory@@@Z
12EAB0 36 ?parseAsEPLF@CFtpListResult@@AAEHPBDHAAVt_direntry@t_directory@@@Z
12EC80 36 ?parseAsMlsd@CFtpListResult@@AAEHPBDHAAVt_direntry@t_directory@@@Z
12F970 36 ?GuessYearIfUnknown@CFtpListResult@@CAXAAVt_date@t_direntry@t_directory@@@Z
12FAF0 36 ?parseAsUnix@CFtpListResult@@AAEHPBDHAAVt_direntry@t_directory@@@Z
130C70 36 ?parseAsDos@CFtpListResult@@AAEHPBDHAAVt_direntry@t_directory@@@Z
130E10 36 ?TimeTToDate@CFtpListResult@@ABEX_JAAVt_date@t_direntry@t_directory@@@Z
130E60 36 ?parseAsOther@CFtpListResult@@AAEHPBDHAAVt_direntry@t_directory@@@Z
131560 36 ?strntoi64@CFtpListResult@@IBE_JPBDI@Z
1315F0 36 ?GetNextToken@CFtpListResult@@ABEPBDPBDHAAH1H@Z
131690 36 ?copyStr@CFtpListResult@@IAEXAAV?$CStringT@_WV?$StrTraitMFC@_WV?$ChTraitsCRT@_W@ATL@@@@@ATL@@HPBDI_N@Z
131B30 36 ?parseAsIBM@CFtpListResult@@AAEHPBDHAAVt_direntry@t_directory@@@Z
131CC0 36 ?parseAsIBMMVS@CFtpListResult@@AAEHPBDHAAVt_direntry@t_directory@@@Z
132010 36 ?parseAsIBMMVSPDS@CFtpListResult@@AAEHPBDHAAVt_direntry@t_directory@@@Z
132230 36 ?parseAsIBMMVSPDS2@CFtpListResult@@AAEHPBDHAAVt_direntry@t_directory@@@Z
132680 36 ?parseTime@CFtpListResult@@ABE_NPBDHAAVt_date@t_direntry@t_directory@@@Z
132760 36 ?parseAsWfFtp@CFtpListResult@@AAEHPBDHAAVt_direntry@t_directory@@@Z
1328E0 36 ?ParseSize@CFtpListResult@@ABE_NPBDHAA_J@Z
132A80 36 $LN58
132A94 36 $LN57
132AD0 36 ??1?$vector@VRawByteString@@U?$custom_nballocator_t@VRawByteString@@@nb@@@std@@QAE@XZ
132B50 36 ??A?$map@V?$CStringT@_WV?$StrTraitMFC@_WV?$ChTraitsCRT@_W@ATL@@@@@ATL@@HU?$less@V?$CStringT@_WV?$StrTraitMFC@_WV?$ChTraitsCRT@_W@ATL@@@@@ATL@@@std@@U?$custom_nballocator_t@U?$pair@$$CBV?$CStringT@_WV?$StrTraitMFC@_WV?$ChTraitsCRT@_W@ATL@@@@@ATL@@H@std@@@nb@@@std@@QAEAAH$$QAV?$CStringT@_WV?$StrTraitMFC@_WV?$ChTraitsCRT@_W@ATL@@@@@ATL@@@Z
132C50 36 ?find@?$_Tree@V?$_Tmap_traits@V?$CStringT@_WV?$StrTraitMFC@_WV?$ChTraitsCRT@_W@ATL@@@@@ATL@@HU?$less@V?$CStringT@_WV?$StrTraitMFC@_WV?$ChTraitsCRT@_W@ATL@@@@@ATL@@@std@@U?$custom_nballocator_t@U?$pair@$$CBV?$CStringT@_WV?$StrTraitMFC@_WV?$ChTraitsCRT@_W@ATL@@@@@ATL@@H@std@@@nb@@$0A@@std@@@std@@QAE?AV?$_Tree_iterator@V?$_Tree_val@U?$_Tree_simple_types@U?$pair@$$CBV?$CStringT@_WV?$StrTraitMFC@_WV?$ChTraitsCRT@_W@ATL@@@@@ATL@@H@std@@@std@@@std@@@2@ABV?$CStringT@_WV?$StrTraitMFC@_WV?$ChTraitsCRT@_W@ATL@@@@@ATL@@@Z
132CA0 36 ?push_back@?$list@Vt_direntry@t_directory@@U?$custom_nballocator_t@Vt_direntry@t_directory@@@nb@@@std@@QAEXABVt_direntry@t_directory@@@Z
132D40 36 ??1?$list@Vt_direntry@t_directory@@U?$custom_nballocator_t@Vt_direntry@t_directory@@@nb@@@std@@QAE@XZ
132D80 36 ??$_Find_lower_bound@V?$CStringT@_WV?$StrTraitMFC@_WV?$ChTraitsCRT@_W@ATL@@@@@ATL@@@?$_Tree@V?$_Tmap_traits@V?$CStringT@_WV?$StrTraitMFC@_WV?$ChTraitsCRT@_W@ATL@@@@@ATL@@HU?$less@V?$CStringT@_WV?$StrTraitMFC@_WV?$ChTraitsCRT@_W@ATL@@@@@ATL@@@std@@U?$custom_nballocator_t@U?$pair@$$CBV?$CStringT@_WV?$StrTraitMFC@_WV?$ChTraitsCRT@_W@ATL@@@@@ATL@@H@std@@@nb@@$0A@@std@@@std@@IBE?AU?$_Tree_find_result@PAU?$_Tree_node@U?$pair@$$CBV?$CStringT@_WV?$StrTraitMFC@_WV?$ChTraitsCRT@_W@ATL@@@@@ATL@@H@std@@PAX@std@@@1@ABV?$CStringT@_WV?$StrTraitMFC@_WV?$ChTraitsCRT@_W@ATL@@@@@ATL@@@Z
132DE0 36 ??$_Erase_tree@U?$custom_nballocator_t@U?$_Tree_node@U?$pair@$$CBV?$CStringT@_WV?$StrTraitMFC@_WV?$ChTraitsCRT@_W@ATL@@@@@ATL@@H@std@@PAX@std@@@nb@@@?$_Tree_val@U?$_Tree_simple_types@U?$pair@$$CBV?$CStringT@_WV?$StrTraitMFC@_WV?$ChTraitsCRT@_W@ATL@@@@@ATL@@H@std@@@std@@@std@@QAEXAAU?$custom_nballocator_t@U?$_Tree_node@U?$pair@$$CBV?$CStringT@_WV?$StrTraitMFC@_WV?$ChTraitsCRT@_W@ATL@@@@@ATL@@H@std@@PAX@std@@@nb@@PAU?$_Tree_node@U?$pair@$$CBV?$CStringT@_WV?$StrTraitMFC@_WV?$ChTraitsCRT@_W@ATL@@@@@ATL@@H@std@@PAX@1@@Z
132E40 5 ??0CAsyncProxySocketLayer@@QAE@XZ
132EC0 0 ??_ECAsyncProxySocketLayer@@UAEPAXI@Z
132F30 5 ?SetProxy@CAsyncProxySocketLayer@@QAEXHPBDH_N00@Z
1330A0 5 ?OnReceive@CAsyncProxySocketLayer@@MAEXH@Z
133CC0 5 ?ConnectionFailed@CAsyncProxySocketLayer@@AAEXHPAD@Z
133D40 5 ?ConnectionEstablished@CAsyncProxySocketLayer@@AAEXXZ
133E40 5 ?Connect@CAsyncProxySocketLayer@@UAEHPB_WI@Z
1341B0 5 ?Connect@CAsyncProxySocketLayer@@UAEHPBUsockaddr@@H@Z
1342A0 5 ?OnConnect@CAsyncProxySocketLayer@@MAEXH@Z
134A80 5 ?ClearBuffer@CAsyncProxySocketLayer@@AAEXXZ
134AC0 5 ?Listen@CAsyncProxySocketLayer@@UAEHH@Z
134BA0 5 ?GetPeerName@CAsyncProxySocketLayer@@UAEHAAV?$CStringT@_WV?$StrTraitMFC@_WV?$ChTraitsCRT@_W@ATL@@@@@ATL@@AAI@Z
134C60 5 ?GetPeerName@CAsyncProxySocketLayer@@UAEHPAUsockaddr@@PAH@Z
134D00 5 ?Close@CAsyncProxySocketLayer@@UAEXXZ
134D60 5 ?Send@CAsyncProxySocketLayer@@MAEHPBXHH@Z
134D80 5 ?Receive@CAsyncProxySocketLayer@@MAEHPAXHH@Z
134DA0 5 ?Accept@CAsyncProxySocketLayer@@MAEHAAVCAsyncSocketEx@@PAUsockaddr@@PAH@Z
134DC0 5 ??$safe_strlen@D@nb@@YAHPBD@Z
134DD0 1278 ??0t_directory@@QAE@XZ
134E00 1278 ??1t_directory@@QAE@XZ
134EA0 1278 ??4t_directory@@QAEAAV0@ABV0@@Z
1350B0 1278 ??0t_direntry@t_directory@@QAE@XZ
1351E0 1278 ??0t_date@t_direntry@t_directory@@QAE@XZ
135220 43 ??0CTime@ATL@@QAE@ABU_FILETIME@@H@Z
135370 43 ?GetLength64@@YA_JAAVCFileFix@@@Z
135390 43 ?GetLength64@@YAHV?$CStringT@_WV?$StrTraitMFC@_WV?$ChTraitsCRT@_W@ATL@@@@@ATL@@AA_J@Z
135420 43 ?GetStatus64@@YGHPB_WAAUCFileStatus64@@@Z
13551C 43 __catch$?GetStatus64@@YGHPB_WAAUCFileStatus64@@@Z$0
1355D9 43 __catch$?GetStatus64@@YGHPB_WAAUCFileStatus64@@@Z$2
13568D 43 __catch$?GetStatus64@@YGHPB_WAAUCFileStatus64@@@Z$4
135770 48 ?InvalidParameterHandler@@YAXPB_W00II@Z
135790 48 _GetGlobalInfoW@4
135900 48 _SetStartupInfoW@4
135950 48 _ExitFARW@4
135AD0 48 _GetPluginInfoW@4
135B10 48 _ProcessSynchroEventW@4
135B60 48 _ConfigureW@4
135BB0 48 _ClosePanelW@4
135C00 48 _GetOpenPanelInfoW@4
135C40 48 _GetFindDataW@4
135C90 48 _FreeFindDataW@4
135CD0 48 _ProcessHostFileW@4
135D20 48 _ProcessPanelInputW@4
135D60 48 _ProcessPanelEventW@4
135DB0 48 _SetDirectoryW@4
135E00 48 _MakeDirectoryW@4
135E50 48 _DeleteFilesW@4
135EA0 48 _GetFilesW@4
135EF0 48 _PutFilesW@4
135F40 48 _ProcessEditorEventW@4
135F90 48 _ProcessEditorInputW@4
135FE0 48 _AnalyseW@4
1360B0 48 _OpenW@4
136110 48 _DllMain@12
136140 20 ??0TPoint@@QAE@HH@Z
136160 20 ?is@TFarDialog@@UBE_NG@Z
136180 20 ?is@TFarDialogContainer@@UBE_NG@Z
1361A0 20 ?is@TFarDialogItem@@UBE_NG@Z
1361C0 20 ?GetLeft@TFarDialogItem@@QBEHXZ
1361D0 20 ?SetLeft@TFarDialogItem@@QAEXH@Z
1361E0 20 ?GetTop@TFarDialogItem@@QBEHXZ
1361F0 20 ?GetRight@TFarDialogItem@@QBEHXZ
136200 20 ?GetEnabled@TFarDialogItem@@QBE_NXZ
136210 20 ?GetVisible@TFarDialogItem@@QBE_NXZ
136240 20 ?SetVisible@TFarDialogItem@@QAEX_N@Z
136260 20 ?GetCenterGroup@TFarButton@@UBE_NXZ
136280 20 ?SetCenterGroup@TFarDialogItem@@MAEX_N@Z
1362A0 20 ?GetCaption@TFarBox@@UBE?AVUnicodeString@@XZ
1362C0 20 ?GetDouble@TFarBox@@UBE_NXZ
1362E0 20 ?SetDouble@TFarBox@@UAEX_N@Z
136320 20 ?is@TFarButton@@UBE_NG@Z
136350 20 ?SetResult@TFarButton@@UAEXH@Z
136360 20 ?SetCenterGroup@TFarButton@@UAEX_N@Z
136370 20 ?GetOnClick@TFarButton@@UAEABV?$FastDelegate2@XPAVTFarButton@@AA_N@fastdelegate@@XZ
136380 20 ?SetOnClick@TFarButton@@UAEX$$QAV?$FastDelegate2@XPAVTFarButton@@AA_N@fastdelegate@@@Z
1363A0 20 ?is@TFarCheckBox@@UBE_NG@Z
1363D0 20 ?GetOnAllowChange@TFarCheckBox@@UAEAAV?$FastDelegate3@XPAVTFarDialogItem@@PAXAA_N@fastdelegate@@XZ
1363E0 20 ?SetOnAllowChange@TFarCheckBox@@UAEX$$QAV?$FastDelegate3@XPAVTFarDialogItem@@PAXAA_N@fastdelegate@@@Z
136400 20 ?GetChecked@TFarCheckBox@@UBE_NXZ
136410 20 ?SetChecked@TFarCheckBox@@UAEX_N@Z
136420 20 ?GetSelected@TFarCheckBox@@UBEHXZ
136440 20 ?SetSelected@TFarCheckBox@@UAEXH@Z
1364B0 20 ?GetOnAllowChange@TFarRadioButton@@UAEAAV?$FastDelegate3@XPAVTFarDialogItem@@PAXAA_N@fastdelegate@@XZ
1364C0 20 ?SetOnAllowChange@TFarRadioButton@@UAEX$$QAV?$FastDelegate3@XPAVTFarDialogItem@@PAXAA_N@fastdelegate@@@Z
1364E0 20 ?is@TFarEdit@@UBE_NG@Z
136510 20 ?GetPassword@TFarEdit@@UBE_NXZ
136530 20 ?SetPassword@TFarEdit@@UAEX_N@Z
136570 20 ?GetFixed@TFarEdit@@UBE_NXZ
136590 20 ?SetFixed@TFarEdit@@UAEX_N@Z
1365D0 20 ?GetMask@TFarEdit@@UBE?AVUnicodeString@@XZ
136640 20 ?SetMask@TFarEdit@@UAEXABVUnicodeString@@@Z
136650 20 ?GetHistory@TFarEdit@@UBE?AVUnicodeString@@XZ
1366C0 20 ?SetHistory@TFarEdit@@UAEXABVUnicodeString@@@Z
1366D0 20 ?SetAutoSelect@TFarComboBox@@QAEX_N@Z
1366F0 20 ?GetCaption@TFarSeparator@@UAE?AVUnicodeString@@XZ
136710 20 ?is@TFarText@@UBE_NG@Z
136740 20 ?is@TFarList@@UBE_NG@Z
136780 20 ?is@TFarListBox@@UBE_NG@Z
1367B0 74 ?GetCaption@TFarText@@QBE?AVUnicodeString@@XZ
136800 20 ?SetText@TFarComboBox@@QAEXABVUnicodeString@@@Z
136810 20 ?GetItemIndex@TFarComboBox@@QBEHXZ
136840 20 ?SetItemIndex@TFarComboBox@@QAEXH@Z
136850 20 ?Execute@TFarDialogIdleThread@@UAEXXZ
136890 20 ?Terminate@TFarDialogIdleThread@@UAEXXZ
1368B0 20 ?Close@TFarDialogIdleThread@@UAEXXZ
1368F0 0 ??_ETFarDialogIdleThread@@UAEPAXI@Z
136990 20 ??0TFarDialog@@QAE@V?$not_null@PAVTCustomFarPlugin@@@gsl@@@Z
136AA0 0 ??_ETAboutDialog@@UAEPAXI@Z
136AE0 20 ??1TFarDialog@@UAE@XZ
136C70 20 ?InitDialog@TFarDialog@@QAEXXZ
136E60 20 ?SetBounds@TFarDialog@@IAEXABUTRect@@@Z
136EF0 20 ??R<lambda_b7899343f5335132778416e9bae3ab8c>@@QBE@XZ
137000 20 ??R<lambda_f8c662d4e1f932dd9cda2b8a29f793dd>@@QBE@XZ
137010 20 ?GetClientRect@TFarDialog@@QBE?AUTRect@@XZ
137050 20 ?GetClientSize@TFarDialog@@QBE?AUTPoint@@XZ
1370E0 20 ?GetMaxSize@TFarDialog@@QBE?AUTPoint@@XZ
137100 20 ?GetSize@TFarDialog@@QBE?AUTPoint@@XZ
137190 20 ?SetSize@TFarDialog@@QAEXUTPoint@@@Z
137200 20 ?GetWidth@TFarDialog@@QBEHXZ
137220 20 ?SetHeight@TFarDialog@@QAEXH@Z
137250 20 ?GetHeight@TFarDialog@@QBEHXZ
137270 20 ?SetCaption@TFarDialog@@QAEXABVUnicodeString@@@Z
137310 20 ?GetItem@TFarDialog@@QBEPAVTFarDialogItem@@H@Z
137370 20 ?Add@TFarDialog@@IAEXPAVTFarDialogItem@@@Z
1374B0 20 ?GetNextItemPosition@TFarDialog@@IAEXAAH0@Z
137588 20 $LN77
1375A0 20 ?DialogProcGeneral@TFarDialog@@KGHPAXHH0@Z
1376C0 20 ?DialogProc@TFarDialog@@MAEHHHPAX@Z
137732 20 __catch$?DialogProc@TFarDialog@@MAEHHHPAX@Z$0
13779D 20 __catch$?DialogProc@TFarDialog@@MAEHHHPAX@Z$2
1379C0 20 __catch$?DialogProc@TFarDialog@@MAEHHHPAX@Z$4
137A0C 20 $LN117
137A1C 20 $LN116
137A30 20 $LN119
137A44 20 $LN118
137A60 20 ?FailDialogProc@TFarDialog@@MAEHHHPAX@Z
137AA0 20 ?MouseEvent@TFarDialog@@MAE_NPAU_MOUSE_EVENT_RECORD@@@Z
137C30 20 ?Key@TFarDialog@@MAE_NPAVTFarDialogItem@@H@Z
137C70 20 ?CloseQuery@TFarDialog@@MAE_NXZ
137D00 20 ?RefreshBounds@TFarDialog@@IAEXXZ
137D60 20 ?Init@TFarDialog@@MAEXXZ
137E20 20 ?ShowModal@TFarDialog@@QAEHXZ
137EA0 20 ??R<lambda_6766cb1eb616257c774b79c58259a30c>@@QBE@XZ
138040 20 ??R<lambda_57e16088f1b18f289b88e2c93ddc44b2>@@QBE@XZ
138070 20 ?Close@TFarDialog@@IAEXPBVTFarButton@@@Z
1380A0 20 ?Change@TFarDialog@@MAEXXZ
1382B0 20 ?ProcessGroup@TFarDialog@@IAEXH$$QAV?$FastDelegate2@XPAVTFarDialogItem@@PAX@fastdelegate@@PAX@Z
138320 20 ?ShowItem@TFarDialog@@IAEXPAVTFarDialogItem@@PAX@Z
138340 20 ?EnableItem@TFarDialog@@IAEXPAVTFarDialogItem@@PAX@Z
138360 20 ?GetMsg@TFarDialog@@IBE?AVUnicodeString@@H@Z
138380 20 ?UnlockChanges@TFarDialog@@QAEXXZ
138410 20 ??0TFarDialogContainer@@QAE@GPAVTFarDialog@@@Z
1384B0 0 ??_ETFarDialogContainer@@UAEPAXI@Z
138500 20 ??1TFarDialogContainer@@UAE@XZ
138520 20 ?Add@TFarDialogContainer@@IAEXPAVTFarDialogItem@@@Z
138580 20 ?SetPosition@TFarDialogContainer@@QAEXHH@Z
1385F0 20 ?SetEnabled@TFarDialogContainer@@QAEX_N@Z
138660 20 ??0TFarDialogItem@@IAE@GPAVTFarDialog@@W4FARDIALOGITEMTYPES@@@Z
138760 0 ??_ETFarBox@@UAEPAXI@Z
1387B0 20 ?SetBounds@TFarDialogItem@@IAEXABUTRect@@@Z
138850 20 ?Detach@TFarDialogItem@@MAEXXZ
138880 20 ?ResetBounds@TFarDialogItem@@MAEXXZ
138970 20 ?UpdateBounds@TFarDialogItem@@MAEXXZ
1389E0 20 ?GetActualBounds@TFarDialogItem@@QBE?AUTRect@@XZ
138A20 20 ?SetDataInternal@TFarDialogItem@@UAEXABVUnicodeString@@@Z
138B60 20 ?SetData@TFarDialogItem@@MAEXABVUnicodeString@@@Z
138C00 20 ?UpdateData@TFarDialogItem@@QAEXABVUnicodeString@@@Z
138CE0 20 ?SetFlag@TFarDialogItem@@QAEX_K_N@Z
138E30 20 ?SetEnabledFollow@TFarDialogItem@@QAEXPAV1@@Z
138E50 20 ?SetEnabledDependency@TFarDialogItem@@QAEXPAV1@@Z
138E70 20 ?SetEnabledDependencyNegative@TFarDialogItem@@QAEXPAV1@@Z
138E90 20 ?GetIsEmpty@TFarDialogItem@@UBE_NXZ
138EF0 20 ?FailItemProc@TFarDialogItem@@MAEHHPAX@Z
138F40 20 ?ItemProc@TFarDialogItem@@MAEHHPAX@Z
139010 20 ?DoExit@TFarDialogItem@@UAEXXZ
139030 20 ?Change@TFarDialogItem@@MAEXXZ
139050 20 ?SetEnabled@TFarDialogItem@@QAEX_N@Z
139070 20 ?UpdateEnabled@TFarDialogItem@@IAEXXZ
139100 20 ?SendDialogMessage@TFarDialogItem@@IAEHHHPAX@Z
139130 20 ?SendDialogMessage@TFarDialogItem@@IAEHHPAX@Z
139170 20 ?SetSelected@TFarDialogItem@@MAEXH@Z
1391E0 20 ?GetFocused@TFarDialogItem@@QBE_NXZ
139210 20 ?SetFocused@TFarDialogItem@@QAEX_N@Z
139230 20 ?Move@TFarDialogItem@@QAEXHH@Z
139270 20 ?MoveAt@TFarDialogItem@@QAEXHH@Z
1392A0 20 ?SetCoordinate@TFarDialogItem@@IAEXHH@Z
1392D0 20 ?GetCoordinate@TFarDialogItem@@IBEHH@Z
1392F0 20 ?SetWidth@TFarDialogItem@@QAEXH@Z
139340 20 ?GetWidth@TFarDialogItem@@QBEHXZ
139370 20 ?SetHeight@TFarDialogItem@@QAEXH@Z
1393D0 20 ?GetHeight@TFarDialogItem@@QBEHXZ
139400 20 ?CanFocus@TFarDialogItem@@UBE_NXZ
139470 20 ?SetFocus@TFarDialogItem@@QAEXXZ
139500 20 ?Init@TFarDialogItem@@MAEXXZ
139580 20 ?CloseQuery@TFarDialogItem@@MAE_NXZ
1395A0 20 ?MouseClientPosition@TFarDialogItem@@IAE?AUTPoint@@PBU_MOUSE_EVENT_RECORD@@@Z
139640 20 ?MouseClick@TFarDialogItem@@MAE_NPAU_MOUSE_EVENT_RECORD@@@Z
1396E0 20 ?MouseMove@TFarDialogItem@@MAE_NHHPAU_MOUSE_EVENT_RECORD@@@Z
139760 20 ?SetContainer@TFarDialogItem@@IAEXPAVTFarDialogContainer@@@Z
1397E0 20 ??0TFarButton@@QAE@PAVTFarDialog@@@Z
139860 20 ??1TFarButton@@UAE@XZ
139880 0 ??_ETFarButton@@UAEPAXI@Z
1398D0 20 ?SetDataInternal@TFarButton@@MAEXABVUnicodeString@@@Z
139B38 20 $LN1431
139B50 20 ?GetData@TFarButton@@UBE?AVUnicodeString@@XZ
139CC0 20 ?SetDefault@TFarButton@@QAEX_N@Z
139D50 20 ?SetBrackets@TFarButton@@QAEXW4TFarButtonBrackets@@@Z
139E00 20 ?ItemProc@TFarButton@@MAEHHPAX@Z
139E60 20 ?HotKey@TFarButton@@MAE_ND@Z
139FB0 20 ??0TFarCheckBox@@QAE@PAVTFarDialog@@@Z
13A050 0 ??_ETFarCheckBox@@UAEPAXI@Z
13A0A0 20 ?ItemProc@TFarCheckBox@@MAEHHPAX@Z
13A120 20 ?GetIsEmpty@TFarCheckBox@@MBE_NXZ
13A130 20 ?SetData@TFarCheckBox@@MAEXABVUnicodeString@@@Z
13A1F0 0 ??_ETFarRadioButton@@UAEPAXI@Z
13A240 20 ?ItemProc@TFarRadioButton@@MAEHHPAX@Z
13A2C0 20 ?GetIsEmpty@TFarRadioButton@@MBE_NXZ
13A2D0 20 ??0TFarEdit@@QAE@PAVTFarDialog@@@Z
13A370 20 ?Detach@TFarEdit@@MAEXXZ
13A3C0 20 ?ItemProc@TFarEdit@@MAEHHPAX@Z
13A4D0 20 ?GetHistoryMask@TFarEdit@@ABE?AVUnicodeString@@I@Z
13A570 20 ?SetHistoryMask@TFarEdit@@AAEXIABVUnicodeString@@@Z
13A750 20 ?SetAsInteger@TFarEdit@@QAEXH@Z
13A800 20 ?GetAsInteger@TFarEdit@@QBEHXZ
13A8E0 20 ??0TFarSeparator@@QAE@PAVTFarDialog@@@Z
13A950 20 ?ResetBounds@TFarSeparator@@MAEXXZ
13AA50 20 ?SetPosition@TFarSeparator@@QAEXH@Z
13AA80 22 ?SetCaption@TFarText@@QAEXABVUnicodeString@@@Z
13AAC0 20 ??0TFarList@@QAE@PAVTFarDialogItem@@@Z
13AB20 0 ??_ETFarList@@UAEPAXI@Z
13ABA0 20 ?Assign@TFarList@@UAEXPBVTPersistent@@@Z
13AD10 20 ?UpdateItem@TFarList@@IAEXH@Z
13AE40 20 ?Changed@TFarList@@MAEXXZ
13B180 20 ?SetSelected@TFarList@@QAEXH@Z
13B230 20 ?UpdatePosition@TFarList@@IAEXH@Z
13B320 20 ?GetPosition@TFarList@@IBEHXZ
13B360 20 ?GetTopIndex@TFarList@@QBEHXZ
13B3E0 20 ?GetSelectedInt@TFarList@@QBEH_N@Z
13B4C0 20 ?GetSelected@TFarList@@QBEHXZ
13B4F0 20 ?GetFlags@TFarList@@QBE_KH@Z
13B580 20 ?SetFlag@TFarList@@QAEXH_K_N@Z
13B620 20 ?ItemProc@TFarList@@IAEHHPAX@Z
13B720 20 ??0TFarListBox@@QAE@PAVTFarDialog@@@Z
13B7D0 0 ??_ETFarListBox@@UAEPAXI@Z
13B830 20 ?ItemProc@TFarListBox@@MAEHHPAX@Z
13B940 20 ?Init@TFarListBox@@MAEXXZ
13B990 20 ??0TFarComboBox@@QAE@PAVTFarDialog@@@Z
13BAC0 0 ??_ETFarComboBox@@UAEPAXI@Z
13BB20 20 ?ItemProc@TFarComboBox@@MAEHHPAX@Z
13BC50 20 ?Init@TFarComboBox@@MAEXXZ
13BC80 20 ??0TFarLister@@QAE@PAVTFarDialog@@@Z
13BD40 0 ??_ETFarLister@@UAEPAXI@Z
13BDA0 20 ?ItemsChange@TFarLister@@AAEXPAVTObject@@@Z
13BDD0 20 ?SetTopIndex@TFarLister@@QAEXH@Z
13BE00 20 ?ItemProc@TFarLister@@MAEHHPAX@Z
13C660 20 ??1?$scope_guard0@V<lambda_2dfd9e0b0bfcce740f557f439ff1bfc8>@@$0A@@scope_exit@Sysutils@@QAE@XZ
13C680 20 ??1?$scope_guard0@V<lambda_dc639a7197b92e3d9e9b803ea9150cf0>@@$0A@@scope_exit@Sysutils@@QAE@XZ
13C6B0 20 ?Add@?$TListBase@VTFarDialogContainer@@@@UAEHPAVTFarDialogContainer@@@Z
13C6F0 20 ??A?$map@PAXPAXU?$less@PAX@std@@U?$custom_nballocator_t@U?$pair@QAXPAX@std@@@nb@@@std@@QAEAAPAXABQAX@Z
13C790 20 ?erase@?$_Tree@V?$_Tmap_traits@PAXPAXU?$less@PAX@std@@U?$custom_nballocator_t@U?$pair@QAXPAX@std@@@nb@@$0A@@std@@@std@@QAEIABQAX@Z
13C920 20 ??1?$unique_ptr@VTFarList@@U?$default_delete@VTFarList@@@std@@@std@@QAE@XZ
13C980 20 ??1?$unique_ptr@VTFarDialogIdleThread@@U?$default_delete@VTFarDialogIdleThread@@@std@@@std@@QAE@XZ
13CA10 0 ??_E?$TListBase@VTFarDialogContainer@@@@UAEPAXI@Z
13CAC0 20 ??$MakeOwnedObject@VTFarBox@@VTFarDialog@@@@YAPAVTFarBox@@PAVTFarDialog@@@Z
13CB50 20 ??$CheckControlMaskSet@K@@YA_NKK@Z
13CB70 20 ??0?$scope_guard@V<lambda_ac98fe46936330d5fcc7166237235935>@@V<lambda_fb0611c9e33ba2413a3f20ba7bbf3e94>@@@detail@Sysutils@@QAE@$$QAV<lambda_ac98fe46936330d5fcc7166237235935>@@$$QAV<lambda_fb0611c9e33ba2413a3f20ba7bbf3e94>@@@Z
13CC65 20 __catch$??0?$scope_guard@V<lambda_ac98fe46936330d5fcc7166237235935>@@V<lambda_fb0611c9e33ba2413a3f20ba7bbf3e94>@@@detail@Sysutils@@QAE@$$QAV<lambda_ac98fe46936330d5fcc7166237235935>@@$$QAV<lambda_fb0611c9e33ba2413a3f20ba7bbf3e94>@@@Z$0
13CC80 20 ??0?$scope_guard@V<lambda_6766cb1eb616257c774b79c58259a30c>@@V<lambda_57e16088f1b18f289b88e2c93ddc44b2>@@@detail@Sysutils@@QAE@$$QAV<lambda_6766cb1eb616257c774b79c58259a30c>@@$$QAV<lambda_57e16088f1b18f289b88e2c93ddc44b2>@@@Z
13CD32 20 __catch$??0?$scope_guard@V<lambda_6766cb1eb616257c774b79c58259a30c>@@V<lambda_57e16088f1b18f289b88e2c93ddc44b2>@@@detail@Sysutils@@QAE@$$QAV<lambda_6766cb1eb616257c774b79c58259a30c>@@$$QAV<lambda_57e16088f1b18f289b88e2c93ddc44b2>@@@Z$0
13CD50 20 ??0?$scope_guard@V<lambda_b7899343f5335132778416e9bae3ab8c>@@V<lambda_f8c662d4e1f932dd9cda2b8a29f793dd>@@@detail@Sysutils@@QAE@$$QAV<lambda_b7899343f5335132778416e9bae3ab8c>@@$$QAV<lambda_f8c662d4e1f932dd9cda2b8a29f793dd>@@@Z
13CDC6 20 __catch$??0?$scope_guard@V<lambda_b7899343f5335132778416e9bae3ab8c>@@V<lambda_f8c662d4e1f932dd9cda2b8a29f793dd>@@@detail@Sysutils@@QAE@$$QAV<lambda_b7899343f5335132778416e9bae3ab8c>@@$$QAV<lambda_f8c662d4e1f932dd9cda2b8a29f793dd>@@@Z$0
13CDE0 20 ??$_Find_lower_bound@PAX@?$_Tree@V?$_Tmap_traits@PAXPAXU?$less@PAX@std@@U?$custom_nballocator_t@U?$pair@QAXPAX@std@@@nb@@$0A@@std@@@std@@IBE?AU?$_Tree_find_result@PAU?$_Tree_node@U?$pair@QAXPAX@std@@PAX@std@@@1@ABQAX@Z
13CE2D 20 ??_9TFarCheckBox@@$BEA@AE
13CE32 20 ??_9TFarEdit@@$BHA@AE
13CE37 20 ??_9TFarEdit@@$BHE@AE
13CE40 22 ??$_Fputc@D@std@@YA_NDPAU_iobuf@@@Z
13CE60 22 ?is@TCustomFarPlugin@@UBE_NG@Z
13CE80 22 ?GetPluginStartupInfo@TCustomFarPlugin@@UBEPBUPluginStartupInfo@@XZ
13CE90 22 ?is@TCustomFarFileSystem@@UBE_NG@Z
13CEB0 22 ?is@TCustomFarPanelItem@@UBE_NG@Z
13CED0 22 ?is@TFarPanelItem@@UBE_NG@Z
13CF00 22 ?is@TFarMenuItems@@UBE_NG@Z
13CF40 22 ?SetNextItemPosition@TFarDialog@@QAEXW4TItemPosition@@@Z
13CF50 22 ?SetTop@TFarDialogItem@@QAEXH@Z
13CF60 22 ?SetRight@TFarDialogItem@@QAEXH@Z
13CF70 22 ?SetBottom@TFarDialogItem@@QAEXH@Z
13CF80 22 ?SetTabStop@TFarDialogItem@@QAEX_N@Z
13CFA0 22 ?Execute@TPluginIdleThread@@UAEXXZ
13D050 22 ?Terminate@TPluginIdleThread@@UAEXXZ
13D100 22 ?SetActivation@TPluginIdleThread@@QAEX_N@Z
13D1C0 0 ??_ETPluginIdleThread@@UAEPAXI@Z
13D300 85 ??1?$function@$$A6A?AV?$basic_string@DU?$char_traits@D@std@@V?$allocator@D@2@@std@@XZ@std@@QAE@XZ
13D330 22 ??0TCustomFarPlugin@@QAE@GPAUHINSTANCE__@@@Z
13D7D0 0 ??_ETCustomFarPlugin@@UAEPAXI@Z
13D810 22 ??1TCustomFarPlugin@@UAE@XZ
13D990 22 ?SetStartupInfo@TCustomFarPlugin@@UAEXPBUPluginStartupInfo@@@Z
13DA00 22 ?GetPluginInfo@TCustomFarPlugin@@UAEXPAUPluginInfo@@@Z
13E04E 22 __catch$?GetPluginInfo@TCustomFarPlugin@@UAEXPAUPluginInfo@@@Z$0
13E070 22 ?ProcessSynchroEvent@TCustomFarPlugin@@UAEHPBUProcessSynchroEventInfo@@@Z
13E11D 22 __catch$?ProcessSynchroEvent@TCustomFarPlugin@@UAEHPBUProcessSynchroEventInfo@@@Z$0
13E140 22 ?GetModuleName@TCustomFarPlugin@@UBE?AVUnicodeString@@XZ
13E190 22 ?ClearPluginInfo@TCustomFarPlugin@@ABEXAAUPluginInfo@@@Z
13E260 22 ?DuplicateStr@TCustomFarPlugin@@SAPA_WABVUnicodeString@@_N@Z
13E2C0 22 ?GetPanelFileSystem@TCustomFarPlugin@@QAEPAVTCustomFarFileSystem@@_NPAX@Z
13E4E0 22 ?Configure@TCustomFarPlugin@@UAEHPBUConfigureInfo@@@Z
13E59E 22 __catch$?Configure@TCustomFarPlugin@@UAEHPBUConfigureInfo@@@Z$0
13E5D0 22 ?OpenPlugin@TCustomFarPlugin@@UAEPAXPBUOpenInfo@@@Z
13E6C3 22 __catch$?OpenPlugin@TCustomFarPlugin@@UAEPAXPBUOpenInfo@@@Z$0
13E700 22 ?ClosePanel@TCustomFarPlugin@@UAEXPAX@Z
13E776 22 __catch$?ClosePanel@TCustomFarPlugin@@UAEXPAX@Z$0
13E790 22 ?CloseFileSystem@TCustomFarPlugin@@AAEXPAVTCustomFarFileSystem@@@Z
13E7D0 22 ??R<lambda_b3809ea804b11ec8ca366085ca2bf682>@@QBE@XZ
13E820 22 ?HandleFileSystemException@TCustomFarPlugin@@MAEXPAVTCustomFarFileSystem@@PAVException@@_K@Z
13E890 22 ?GetOpenPanelInfo@TCustomFarPlugin@@UAEXPAUOpenPanelInfo@@@Z
13E92E 22 __catch$?GetOpenPanelInfo@TCustomFarPlugin@@UAEXPAUOpenPanelInfo@@@Z$0
13E950 22 ?GetFindData@TCustomFarPlugin@@UAEHPAUGetFindDataInfo@@@Z
13E9F2 22 __catch$?GetFindData@TCustomFarPlugin@@UAEHPAUGetFindDataInfo@@@Z$0
13EA30 22 ?FreeFindData@TCustomFarPlugin@@UAEXPBUFreeFindDataInfo@@@Z
13EBA0 22 ?ProcessHostFile@TCustomFarPlugin@@UAEHPBUProcessHostFileInfo@@@Z
13ECC0 22 __catch$?ProcessHostFile@TCustomFarPlugin@@UAEHPBUProcessHostFileInfo@@@Z$0
13ED00 22 ?ProcessPanelInput@TCustomFarPlugin@@UAEHPBUProcessPanelInputInfo@@@Z
13EE26 22 __catch$?ProcessPanelInput@TCustomFarPlugin@@UAEHPBUProcessPanelInputInfo@@@Z$0
13EE70 22 ?ProcessPanelEvent@TCustomFarPlugin@@UAEHPBUProcessPanelEventInfo@@@Z
13EFBD 22 __catch$?ProcessPanelEvent@TCustomFarPlugin@@UAEHPBUProcessPanelEventInfo@@@Z$0
13F020 22 ?SetDirectory@TCustomFarPlugin@@UAEHPBUSetDirectoryInfo@@@Z
13F0DF 22 __catch$?SetDirectory@TCustomFarPlugin@@UAEHPBUSetDirectoryInfo@@@Z$0
13F1A0 22 __catch$?SetDirectory@TCustomFarPlugin@@UAEHPBUSetDirectoryInfo@@@Z$1
13F1D0 22 ?MakeDirectory@TCustomFarPlugin@@UAEHPAUMakeDirectoryInfo@@@Z
13F30B 22 __catch$?MakeDirectory@TCustomFarPlugin@@UAEHPAUMakeDirectoryInfo@@@Z$0
13F350 22 ?DeleteFiles@TCustomFarPlugin@@UAEHPBUDeleteFilesInfo@@@Z
13F45D 22 __catch$?DeleteFiles@TCustomFarPlugin@@UAEHPBUDeleteFilesInfo@@@Z$0
13F4A0 22 ?GetFiles@TCustomFarPlugin@@UAEHPAUGetFilesInfo@@@Z
13F601 22 __catch$?GetFiles@TCustomFarPlugin@@UAEHPAUGetFilesInfo@@@Z$0
13F640 22 ?PutFiles@TCustomFarPlugin@@UAEHPBUPutFilesInfo@@@Z
13F754 22 __catch$?PutFiles@TCustomFarPlugin@@UAEHPBUPutFilesInfo@@@Z$0
13F790 22 ?ProcessEditorEvent@TCustomFarPlugin@@UAEHPBUProcessEditorEventInfo@@@Z
13F7EB 22 __catch$?ProcessEditorEvent@TCustomFarPlugin@@UAEHPBUProcessEditorEventInfo@@@Z$0
13F820 22 ?ProcessEditorInput@TCustomFarPlugin@@UAEHPBUProcessEditorInputInfo@@@Z
13F881 22 __catch$?ProcessEditorInput@TCustomFarPlugin@@UAEHPBUProcessEditorInputInfo@@@Z$0
13F8C0 22 ?MaxLength@TCustomFarPlugin@@IBEHPAVTStrings@@@Z
13F9B0 22 ?GetDialogGuid@TFarMessageDialog@@MBEPBU_GUID@@XZ
13F9C0 0 ??_ETFarMessageDialog@@UAEPAXI@Z
13FA50 22 ?InitFarMessageDialog@TFarMessageDialog@@QAEXIABVUnicodeString@@0PAVTStrings@@@Z
140380 22 ?Idle@TFarMessageDialog@@MAEXXZ
1403D0 22 ?Change@TFarMessageDialog@@MAEXXZ
140480 22 ?Execute@TFarMessageDialog@@QAEHAA_N@Z
140530 22 ?ButtonClick@TFarMessageDialog@@AAEXPAVTFarButton@@AA_N@Z
140570 22 ?OnUpdateTimeoutButton@TFarMessageDialog@@AAEXPAVTObject@@PAX@Z
1407A0 22 ?Message@TCustomFarPlugin@@QAEHIABVUnicodeString@@0PAVTStrings@@PAUTFarMessageParams@@@Z
1409F0 22 ??0TFarMessageParams@@QAE@XZ
140A70 0 ??_ETFarMessageParams@@UAEPAXI@Z
140AB0 22 ??1TFarMessageParams@@UAE@XZ
140B30 22 ?Menu@TCustomFarPlugin@@QAEH_KABVUnicodeString@@1PAVTStrings@@PBUFarKey@@AAH@Z
140D50 22 ?Menu@TCustomFarPlugin@@QAEH_KABVUnicodeString@@1PAVTStrings@@@Z
140D80 22 ?InputBox@TCustomFarPlugin@@QAE_NABVUnicodeString@@0AAV2@_K0H$$QAV?$FastDelegate1@XAAVUnicodeString@@@fastdelegate@@@Z
140E7C 22 __catch$?InputBox@TCustomFarPlugin@@QAE_NABVUnicodeString@@0AAV2@_K0H$$QAV?$FastDelegate1@XAAVUnicodeString@@@fastdelegate@@@Z$0
140F00 22 ?FarCopyToClipboard@TCustomFarPlugin@@QAEXPBVTStrings@@@Z
140FB0 22 ?TerminalInfo@TCustomFarPlugin@@QBE?AUTPoint@@PAU2@0@Z
141050 22 ?ConsoleWindowState@TCustomFarPlugin@@QBEIXZ
1410F0 22 ?ToggleVideoMode@TCustomFarPlugin@@QAEXXZ
1412A0 22 ?ShowTerminalScreen@TCustomFarPlugin@@QAEXABVUnicodeString@@@Z
141410 22 ?is@TConsoleTitleParam@@UBE_NG@Z
141430 22 ?ShowConsoleTitle@TCustomFarPlugin@@QAEXABVUnicodeString@@@Z
141610 22 ?ClearConsoleTitle@TCustomFarPlugin@@QAEXXZ
141790 22 ?FormatConsoleTitle@TCustomFarPlugin@@ABE?AVUnicodeString@@XZ
141910 22 ?UpdateProgress@TCustomFarPlugin@@ABEXHH@Z
1419B0 22 ?UpdateCurrentConsoleTitle@TCustomFarPlugin@@AAEXXZ
141A60 22 ?HandleException@TCustomFarPlugin@@UAEXPAVException@@_K@Z
141C30 22 ?GetMsg@TCustomFarPlugin@@UBE?AVUnicodeString@@H@Z
141CCA 22 __catch$?GetMsg@TCustomFarPlugin@@UBE?AVUnicodeString@@H@Z$0
141CF0 22 ?CheckForEsc@TCustomFarPlugin@@QBE_NXZ
141DC0 22 ?GetSystemSetting@TCustomFarPlugin@@ABE_JAAPAXPB_W@Z
141E30 22 ?FarAdvControl@TCustomFarPlugin@@QBEHW4ADVANCED_CONTROL_COMMANDS@@HPAX@Z
141E60 22 ?FarEditorControl@TCustomFarPlugin@@QBEHW4EDITOR_CONTROL_COMMANDS@@HPAX@Z
141E80 22 ?EditorInfo@TCustomFarPlugin@@QAEPAVTFarEditorInfo@@XZ
141F8C 22 __catch$?EditorInfo@TCustomFarPlugin@@QAEPAVTFarEditorInfo@@XZ$0
141FB0 22 ?Initialize@TCustomFarPlugin@@UAEXXZ
142150 0 ??_ETCustomFarFileSystem@@UAEPAXI@Z
142190 22 ??1TCustomFarFileSystem@@UAE@XZ
1422A0 22 ?HandleException@TCustomFarFileSystem@@MAEXPAVException@@_K@Z
1422C0 22 ?Close@TCustomFarFileSystem@@UAEXXZ
1422D0 22 ?ClearOpenPanelInfo@TCustomFarFileSystem@@AAEXAAUOpenPanelInfo@@@Z
142370 22 ?GetOpenPanelInfo@TCustomFarFileSystem@@QAEXPAUOpenPanelInfo@@@Z
1428C0 22 ?GetFindData@TCustomFarFileSystem@@QAEHPAUGetFindDataInfo@@@Z
142A20 22 ?SetDirectory@TCustomFarFileSystem@@QAEHPBUSetDirectoryInfo@@@Z
142B40 22 ??R<lambda_07efb30e66b646f95c8688f73d7aeb64>@@QBE@XZ
142B90 22 ??R<lambda_e02a09c74a63e2e9bb4ba8403d26dfac>@@QBE@XZ
142BF0 22 ?ResetCachedInfo@TCustomFarFileSystem@@IAEXXZ
142C30 22 ?GetPanelInfo@TCustomFarFileSystem@@AAEPAPAVTFarPanelInfo@@H@Z
142D10 22 ?FarControl@TCustomFarFileSystem@@IAEHW4FILE_CONTROL_COMMANDS@@HPAX@Z
142D40 22 ?UpdatePanel@TCustomFarFileSystem@@IAE_N_N0@Z
142D80 22 ?RedrawPanel@TCustomFarFileSystem@@IAEX_N@Z
142DA0 22 ?ClosePanel@TCustomFarFileSystem@@IAEXXZ
142DD0 22 ?GetMsg@TCustomFarFileSystem@@IBE?AVUnicodeString@@H@Z
142DF0 22 ?DeleteFilesEx@TCustomFarFileSystem@@MAE_NPAVTObjectList@@_K@Z
142E00 22 ?MakeDirectoryEx@TCustomFarFileSystem@@MAEHAAVUnicodeString@@_K@Z
142E10 22 ?GetFilesEx@TCustomFarFileSystem@@MAEHPAVTObjectList@@_NAAVUnicodeString@@_K@Z
142E20 82 ?GetBufferPtr@CFile@@UAEIIIPAPAX0@Z
142E30 22 ?CreatePanelItemList@TCustomFarFileSystem@@AAEPAVTObjectList@@PAUPluginPanelItem@@H@Z
142EE0 0 ??_ETFarPanelModes@@UAEPAXI@Z
142F80 22 ?SetPanelMode@TFarPanelModes@@QAEXIABVUnicodeString@@0PAVTStrings@@_N22200@Z
143260 22 ?ClearPanelMode@TFarPanelModes@@CAXAAUPanelMode@@@Z
143350 22 ?FillOpenPanelInfo@TFarPanelModes@@AAEXPAUOpenPanelInfo@@@Z
1433B0 22 ?CommaCount@TFarPanelModes@@CAHABVUnicodeString@@@Z
1433F0 0 ??_ETFarKeyBarTitles@@UAEPAXI@Z
143440 22 ?ClearKeyBarTitle@TFarKeyBarTitles@@QAEXW4TFarShiftStatus@@HH@Z
143510 22 ?SetKeyBarTitle@TFarKeyBarTitles@@QAEXW4TFarShiftStatus@@HABVUnicodeString@@@Z
1435C0 22 ?ClearKeyBarTitles@TFarKeyBarTitles@@CAXAAUKeyBarTitles@@@Z
143610 22 ?GetCustomColumnData@TCustomFarPanelItem@@MAE?AVUnicodeString@@I@Z
143660 22 ?FillPanelItem@TCustomFarPanelItem@@IAEXPAUPluginPanelItem@@@Z
1438E0 0 ??_ETFarPanelItem@@UAEPAXI@Z
143930 22 ?GetData@TFarPanelItem@@MAEXAA_KAAVUnicodeString@@AA_JAAIAAVTDateTime@@4311AAPAX3@Z
143940 22 ?GetFileName@TFarPanelItem@@QBE?AVUnicodeString@@XZ
143990 22 ?GetIsParentDirectory@TFarPanelItem@@QBE_NXZ
143A40 22 ?GetData@THintPanelItem@@MAEXAA_KAAVUnicodeString@@AA_JAAIAAVTDateTime@@4311AAPAX3@Z
143A60 0 ??_ETFarPanelInfo@@UAEPAXI@Z
143AB0 22 ?GetSelectedCount@TFarPanelInfo@@QBEH_N@Z
143B50 22 ?GetItems@TFarPanelInfo@@QBEPAVTObjectList@@XZ
143C80 22 ?FindUserData@TFarPanelInfo@@QAEPAVTFarPanelItem@@PBX@Z
143CF0 22 ?GetFocusedItem@TFarPanelInfo@@QBEPBVTFarPanelItem@@XZ
143D50 22 ?SetFocusedItem@TFarPanelInfo@@QAEXPBVTFarPanelItem@@@Z
143DB0 22 ?GetFocusedIndex@TFarPanelInfo@@QBEHXZ
143DC0 22 ?SetFocusedIndex@TFarPanelInfo@@QAEXH@Z
143E20 22 ?GetType@TFarPanelInfo@@QBE?AW4TFarPanelType@@XZ
143E48 22 $LN10
143E60 22 ?GetIsPlugin@TFarPanelInfo@@QBE_NXZ
143E80 22 ?GetCurrentDirectory@TFarPanelInfo@@QBE?AVUnicodeString@@XZ
143FA0 22 ?Clear@TFarMenuItems@@UAEXXZ
143FB0 22 ?Delete@TFarMenuItems@@UAEXH@Z
143FD0 22 ?SetObject@TFarMenuItems@@MAEXHPAVTObject@@@Z
144030 22 ?AddString@TFarMenuItems@@QAEHABVUnicodeString@@_N@Z
144070 22 ?AddSeparator@TFarMenuItems@@QAEX_N@Z
144150 22 ?SetItemFocused@TFarMenuItems@@QAEXH@Z
144190 22 ?SetFlag@TFarMenuItems@@QAEXHI_N@Z
144220 0 ??_ETFarEditorInfo@@UAEPAXI@Z
144260 22 ?GetFileName@TFarEditorInfo@@SA?AVUnicodeString@@XZ
144330 22 ?GetInstanceHandle@TGlobalFunctions@@UBEPAUHINSTANCE__@@XZ
144350 22 ?GetMsg@TGlobalFunctions@@UBE?AVUnicodeString@@H@Z
144490 22 ?GetCurrentDirectory@TGlobalFunctions@@UBE?AVUnicodeString@@XZ
144550 22 ?GetStrVersionNumber@TGlobalFunctions@@UBE?AVUnicodeString@@XZ
144620 22 ?InputDialog@TGlobalFunctions@@UAE_NABVUnicodeString@@0AAV2@0PAVTStrings@@_N$$QAV?$FastDelegate2@XPAVTObject@@PAUTInputDialogData@@@fastdelegate@@3@Z
144740 22 ?MoreMessageDialog@TGlobalFunctions@@UAEIABVUnicodeString@@PAVTStrings@@W4TQueryType@@IPBUTMessageParams@@@Z
144770 22 ??1?$unique_ptr@VTFarKeyBarTitles@@U?$default_delete@VTFarKeyBarTitles@@@std@@@std@@QAE@XZ
1447A0 22 ??1?$unique_ptr@VTFarPanelModes@@U?$default_delete@VTFarPanelModes@@@std@@@std@@QAE@XZ
144820 22 ??1?$scope_guard0@V<lambda_3331504b2026188ba37536f911438b2b>@@$0A@@scope_exit@Sysutils@@QAE@XZ
144830 22 ??1?$unique_ptr@VTFarMessageDialog@@U?$default_delete@VTFarMessageDialog@@@std@@@std@@QAE@XZ
1448A0 22 ??1?$TGlobalsIntfInitializer@VTGlobalFunctions@@@@QAE@XZ
1448C0 22 ?imbue@?$basic_filebuf@DU?$char_traits@D@std@@@std@@MAEXABVlocale@2@@Z
144900 22 ?sync@?$basic_filebuf@DU?$char_traits@D@std@@@std@@MAEHXZ
144930 22 ?setbuf@?$basic_filebuf@DU?$char_traits@D@std@@@std@@MAEPAV?$basic_streambuf@DU?$char_traits@D@std@@@2@PAD_J@Z
144980 22 ?seekpos@?$basic_filebuf@DU?$char_traits@D@std@@@std@@MAE?AV?$fpos@U_Mbstatet@@@2@V32@H@Z
144A50 22 ?seekoff@?$basic_filebuf@DU?$char_traits@D@std@@@std@@MAE?AV?$fpos@U_Mbstatet@@@2@_JHH@Z
144B40 22 ?xsputn@?$basic_filebuf@DU?$char_traits@D@std@@@std@@MAE_JPBD_J@Z
144D00 22 ?xsgetn@?$basic_filebuf@DU?$char_traits@D@std@@@std@@MAE_JPAD_J@Z
144EF0 22 ?uflow@?$basic_filebuf@DU?$char_traits@D@std@@@std@@MAEHXZ
145240 22 ?underflow@?$basic_filebuf@DU?$char_traits@D@std@@@std@@MAEHXZ
145280 22 ?pbackfail@?$basic_filebuf@DU?$char_traits@D@std@@@std@@MAEHH@Z
145330 22 ?overflow@?$basic_filebuf@DU?$char_traits@D@std@@@std@@MAEHH@Z
1454C0 22 ?_Unlock@?$basic_filebuf@DU?$char_traits@D@std@@@std@@UAEXXZ
1454D0 22 ?_Lock@?$basic_filebuf@DU?$char_traits@D@std@@@std@@UAEXXZ
1454E0 22 ??1?$basic_filebuf@DU?$char_traits@D@std@@@std@@UAE@XZ
145630 22 ?xsputn@?$basic_streambuf@DU?$char_traits@D@std@@@std@@MAE_JPBD_J@Z
145710 22 ?xsgetn@?$basic_streambuf@DU?$char_traits@D@std@@@std@@MAE_JPAD_J@Z
1457F0 22 ?uflow@?$basic_streambuf@DU?$char_traits@D@std@@@std@@MAEHXZ
145820 22 ?underflow@?$basic_streambuf@DU?$char_traits@D@std@@@std@@MAEHXZ
145830 22 ?overflow@?$basic_streambuf@DU?$char_traits@D@std@@@std@@MAEHH@Z
145840 22 ??1?$basic_ostream@DU?$char_traits@D@std@@@std@@UAE@XZ
145860 0 ??_E?$basic_filebuf@DU?$char_traits@D@std@@@std@@UAEPAXI@Z
145880 0 ??_E?$basic_ofstream@DU?$char_traits@D@std@@@std@@UAEPAXI@Z
1458B0 0 ??_E?$basic_streambuf@DU?$char_traits@D@std@@@std@@UAEPAXI@Z
145900 0 ??_E?$basic_ostream@DU?$char_traits@D@std@@@std@@UAEPAXI@Z
145990 0 ??_ETGlobalFunctions@@UAEPAXI@Z
1459D0 22 ??_D?$basic_ofstream@DU?$char_traits@D@std@@@std@@QAEXXZ
145A60 22 ??_D?$basic_ostream@DU?$char_traits@D@std@@@std@@QAEXXZ
145AD0 22 ?do_length@?$codecvt@DDU_Mbstatet@@@std@@MBEHAAU_Mbstatet@@PBD1I@Z
145AF0 22 ?do_unshift@?$codecvt@DDU_Mbstatet@@@std@@MBEHAAU_Mbstatet@@PAD1AAPAD@Z
145B10 22 ?do_in@?$codecvt@DDU_Mbstatet@@@std@@MBEHAAU_Mbstatet@@PBD1AAPBDPAD3AAPAD@Z
145B30 22 ??R?$default_delete@VTPluginIdleThread@@@std@@QBEXPAVTPluginIdleThread@@@Z
145C60 22 ?_Reset_back@?$basic_filebuf@DU?$char_traits@D@std@@@std@@AAEXXZ
145C90 22 ?_Endwrite@?$basic_filebuf@DU?$char_traits@D@std@@@std@@IAE_NXZ
145D70 22 ?_Init@?$basic_filebuf@DU?$char_traits@D@std@@@std@@IAEXPAU_iobuf@@W4_Initfl@12@@Z
145E50 0 ??_E?$codecvt@DDU_Mbstatet@@@std@@MAEPAXI@Z
145E80 22 ?_Init@?$basic_streambuf@DU?$char_traits@D@std@@@std@@IAEXXZ
145EE0 22 ??$calloc@PAPA_W@nb@@YAPAPA_WII@Z
145F30 74 ??$MakeOwnedObject@VTFarSeparator@@VTAboutDialog@@@@YAPAVTFarSeparator@@PAVTAboutDialog@@@Z
145FE0 22 ??$Sprintf@FVUnicodeString@@@nb@@YA?AVUnicodeString@@ABV1@ABF0@Z
146050 22 ??$Sprintf@KKK@nb@@YA?AVUnicodeString@@ABV1@ABK11@Z
1460F0 22 ??$GetAs@VTFarPanelItem@@@TObjectList@@QAEPAVTFarPanelItem@@H@Z
146120 22 ??$use_facet@V?$codecvt@DDU_Mbstatet@@@std@@@std@@YAABV?$codecvt@DDU_Mbstatet@@@0@ABVlocale@0@@Z
146280 22 ??1?$unique_ptr@VTFarText@@U?$default_delete@VTFarText@@@std@@@std@@QAE@XZ
1462B0 22 ??0?$scope_guard@V<lambda_aedcc35720af6706825ca0cef80b8f27>@@V<lambda_e02a09c74a63e2e9bb4ba8403d26dfac>@@@detail@Sysutils@@QAE@$$QAV<lambda_aedcc35720af6706825ca0cef80b8f27>@@$$QAV<lambda_e02a09c74a63e2e9bb4ba8403d26dfac>@@@Z
146353 22 __catch$??0?$scope_guard@V<lambda_aedcc35720af6706825ca0cef80b8f27>@@V<lambda_e02a09c74a63e2e9bb4ba8403d26dfac>@@@detail@Sysutils@@QAE@$$QAV<lambda_aedcc35720af6706825ca0cef80b8f27>@@$$QAV<lambda_e02a09c74a63e2e9bb4ba8403d26dfac>@@@Z$0
146370 22 ??0?$scope_guard@V<lambda_5b03071fdce9f8e2c03738ac500a9aa2>@@V<lambda_07efb30e66b646f95c8688f73d7aeb64>@@@detail@Sysutils@@QAE@$$QAV<lambda_5b03071fdce9f8e2c03738ac500a9aa2>@@$$QAV<lambda_07efb30e66b646f95c8688f73d7aeb64>@@@Z
14643B 22 __catch$??0?$scope_guard@V<lambda_5b03071fdce9f8e2c03738ac500a9aa2>@@V<lambda_07efb30e66b646f95c8688f73d7aeb64>@@@detail@Sysutils@@QAE@$$QAV<lambda_5b03071fdce9f8e2c03738ac500a9aa2>@@$$QAV<lambda_07efb30e66b646f95c8688f73d7aeb64>@@@Z$0
146460 22 ??0?$scope_guard@V<lambda_9bfed0e290b15a4ea16327a102ed071a>@@V<lambda_b3809ea804b11ec8ca366085ca2bf682>@@@detail@Sysutils@@QAE@$$QAV<lambda_9bfed0e290b15a4ea16327a102ed071a>@@$$QAV<lambda_b3809ea804b11ec8ca366085ca2bf682>@@@Z
14653A 22 __catch$??0?$scope_guard@V<lambda_9bfed0e290b15a4ea16327a102ed071a>@@V<lambda_b3809ea804b11ec8ca366085ca2bf682>@@@detail@Sysutils@@QAE@$$QAV<lambda_9bfed0e290b15a4ea16327a102ed071a>@@$$QAV<lambda_b3809ea804b11ec8ca366085ca2bf682>@@@Z$0
146550 85 ?_Delete_this@?$_Func_impl_no_alloc@U?$Output@V?$ostreambuf_iterator@DU?$char_traits@D@std@@@std@@@Icecream@detail@icecream@@XABV?$basic_string@DU?$char_traits@D@std@@V?$allocator@D@2@@std@@@std@@EAEX_N@Z
146570 85 ?_Get@?$_Func_impl_no_alloc@U?$Function@V<lambda_29c427726cb44a3270611abeb54bdb19>@@@Prefix@detail@icecream@@V?$basic_string@DU?$char_traits@D@std@@V?$allocator@D@2@@std@@$$V@std@@EBEPBXXZ
146580 22 ?_Target_type@?$_Func_impl_no_alloc@V<lambda_4dff4c9a36bb205850d0d87ebb2ec8c8>@@_N$$V@std@@EBEABVtype_info@@XZ
146590 22 ?_Do_call@?$_Func_impl_no_alloc@V<lambda_4dff4c9a36bb205850d0d87ebb2ec8c8>@@_N$$V@std@@EAE_NXZ
1465C0 22 ?_Copy@?$_Func_impl_no_alloc@V<lambda_4dff4c9a36bb205850d0d87ebb2ec8c8>@@_N$$V@std@@EBEPAV?$_Func_base@_N$$V@2@PAX@Z
1465E0 85 ?_Delete_this@?$_Func_impl_no_alloc@U?$Function@V<lambda_29c427726cb44a3270611abeb54bdb19>@@@Prefix@detail@icecream@@V?$basic_string@DU?$char_traits@D@std@@V?$allocator@D@2@@std@@$$V@std@@EAEX_N@Z
146600 22 ?_Target_type@?$_Func_impl_no_alloc@V<lambda_7d82b6ad879138c5480a1cab84cbdacc>@@_N$$V@std@@EBEABVtype_info@@XZ
146610 22 ?_Do_call@?$_Func_impl_no_alloc@V<lambda_7d82b6ad879138c5480a1cab84cbdacc>@@_N$$V@std@@EAE_NXZ
146630 22 ?_Copy@?$_Func_impl_no_alloc@V<lambda_7d82b6ad879138c5480a1cab84cbdacc>@@_N$$V@std@@EBEPAV?$_Func_base@_N$$V@2@PAX@Z
146643 22 ??_E?$basic_ostream@DU?$char_traits@D@std@@@std@@$4PPPPPPPM@A@AEPAXI@Z
14664B 22 ??_E?$basic_ofstream@DU?$char_traits@D@std@@@std@@$4PPPPPPPM@A@AEPAXI@Z
146653 22 ??_ETGlobalFunctions@@W3AEPAXI@Z
146660 24 ??1CNBFile@@UAE@XZ
146690 0 ??_ECNBFile@@UAEPAXI@Z
1466F0 24 ?Read@CNBFile@@QAE_NPAXAAI@Z
146750 24 ?Write@CNBFile@@QAE_NPBXI@Z
146790 24 ?SaveFile@CNBFile@@SAKPB_WPBD@Z
146830 24 ?FarWrapText@@YAXABVUnicodeString@@PAVTStrings@@H@Z
146D20 75 ?GetPanelInfo@TCustomFarFileSystem@@IAEPAPAVTFarPanelInfo@@XZ
146DD0 75 ?is@TMakeLocalFileListParams@@UBE_NG@Z
146DF0 0 ??_ETMakeLocalFileListParams@@UAEPAXI@Z
146E60 75 ??1TMakeLocalFileListParams@@UAE@XZ
146EA0 75 ?is@TWinSCPFileSystem@@UBE_NG@Z
146ED0 75 ?GetCurrentDirectory@TWinSCPFileSystem@@MBE?AVUnicodeString@@XZ
146FD0 0 ??_EEOSError@@UAEPAXI@Z
147040 75 ?SetPanelModes@TSessionPanelItem@@SAXPAVTFarPanelModes@@@Z
147270 75 ?SetKeyBarTitles@TSessionPanelItem@@SAXPAVTFarKeyBarTitles@@@Z
147400 75 ?GetData@TSessionPanelItem@@MAEXAA_KAAVUnicodeString@@AA_JAAIAAVTDateTime@@4311AAPAX3@Z
1474F0 75 ??0TSessionFolderPanelItem@@QAE@ABVUnicodeString@@@Z
147520 75 ?GetData@TSessionFolderPanelItem@@MAEXAA_KAAVUnicodeString@@AA_JAAIAAVTDateTime@@4311AAPAX3@Z
147540 75 ?GetData@TRemoteFilePanelItem@@MAEXAA_KAAVUnicodeString@@AA_JAAIAAVTDateTime@@4311AAPAX3@Z
147740 75 ?GetCustomColumnData@TRemoteFilePanelItem@@MAE?AVUnicodeString@@I@Z
147908 75 $LN976
147920 75 ?TranslateColumnTypes@TRemoteFilePanelItem@@KAXAAVUnicodeString@@PAVTStrings@@@Z
147CB0 75 ?SetPanelModes@TRemoteFilePanelItem@@SAXPAVTFarPanelModes@@@Z
147EB0 75 ?SetKeyBarTitles@TRemoteFilePanelItem@@SAXPAVTFarKeyBarTitles@@@Z
148030 75 ??0TFarInteractiveCustomCommand@@QAE@V?$not_null@PAVTCustomFarPlugin@@@gsl@@PAVTCustomCommand@@@Z
148060 75 ?Prompt@TFarInteractiveCustomCommand@@MBEXHABVUnicodeString@@AAV2@@Z
148210 75 ??0TWinSCPFileSystem@@QAE@V?$not_null@PAVTCustomFarPlugin@@@gsl@@@Z
148580 0 ??_ETWinSCPFileSystem@@UAEPAXI@Z
1485C0 75 ??1TWinSCPFileSystem@@UAE@XZ
1487A0 75 ?HandleException@TWinSCPFileSystem@@MAEXPAVException@@_K@Z
148940 75 ?Connected@TWinSCPFileSystem@@IBE_NXZ
148970 75 ?GetWinSCPPlugin@TWinSCPFileSystem@@IAEPAVTWinSCPPlugin@@XZ
1489A0 75 ?Close@TWinSCPFileSystem@@UAEXXZ
148AF0 75 ?GetOpenPanelInfoEx@TWinSCPFileSystem@@MAEXAA_KAAVUnicodeString@@111PAVTFarPanelModes@@AAHAAW4OPENPANELINFO_SORTMODES@@AA_NPAVTFarKeyBarTitles@@1@Z
148F20 75 ?GetFindDataEx@TWinSCPFileSystem@@MAE_NPAVTObjectList@@_K@Z
149640 75 ??R<lambda_6f22eda5478df983e987eb007c06623e>@@QBE@XZ
149870 75 ??R<lambda_924d5e84e2e42ee34f5d9302e1941280>@@QBE@XZ
149880 75 ??R<lambda_bb85452358c840773f87883e429b5dde>@@QBE@XZ
149890 75 ?DuplicateOrRenameSession@TWinSCPFileSystem@@IAEXPAVTSessionData@@_N@Z
149C70 75 ?FocusSession@TWinSCPFileSystem@@IAEXPBVTSessionData@@@Z
149CA0 75 ?EditConnectSession@TWinSCPFileSystem@@IAEXPAVTSessionData@@_N@Z
149DB0 75 ??R<lambda_45f89175c9a6d7cd28813d1c35e8616d>@@QBE@XZ
149DD0 75 ?EditConnectSession@TWinSCPFileSystem@@IAEXPAVTSessionData@@_N11@Z
14A1E0 75 ?ProcessPanelEventEx@TWinSCPFileSystem@@MAE_NHPAX@Z
14A420 75 __catch$?ProcessPanelEventEx@TWinSCPFileSystem@@MAE_NHPAX@Z$0
14A530 75 ?TerminalCaptureLog@TWinSCPFileSystem@@IAEXABVUnicodeString@@W4TCaptureOutputType@@@Z
14A5D0 75 ?RequireLocalPanel@TWinSCPFileSystem@@IAEXPBVTFarPanelInfo@@ABVUnicodeString@@@Z
14A618 75 $LN21
14A630 75 ?RequireCapability@TWinSCPFileSystem@@IAEXH@Z
14A6F0 75 ?EnsureCommandSessionFallback@TWinSCPFileSystem@@IAE_NW4TFSCapability@@@Z
14A8F0 75 ?ExecuteCommand@TWinSCPFileSystem@@IAE_NABVUnicodeString@@@Z
14A9A0 75 ??R<lambda_0c6f9508c6272acb2023b216cffdbbfb>@@QBE@XZ
14A9D0 75 ??R<lambda_491ec2a644ed34c806e91a35a26c7adc>@@QBE@XZ
14AA70 75 ?ProcessKeyEx@TWinSCPFileSystem@@MAE_NHI@Z
14B2E0 75 ?RemoteCreateLink@TWinSCPFileSystem@@IAEXXZ
14B5A0 75 ??R<lambda_de85cde1cdc5fe5653c6354f919975b2>@@QBE@XZ
14B630 75 ?TemporarilyDownloadFiles@TWinSCPFileSystem@@IAEXPAVTStrings@@AAVTCopyParamType@@AAVUnicodeString@@@Z
14B860 75 ??R<lambda_a299139dbfbd38d92f110628665a6f20>@@QBE@XZ
14B8C5 75 __catch$??R<lambda_a299139dbfbd38d92f110628665a6f20>@@QBE@XZ$1
14B8CB 75 __catch$??R<lambda_a299139dbfbd38d92f110628665a6f20>@@QBE@XZ$0
14B910 75 ?ApplyCommand@TWinSCPFileSystem@@IAEXXZ
14BEE0 75 ??R<lambda_8c750f6f8c05e19a1567dc2aef52ee98>@@QBE@XZ
14BFF0 75 ??R<lambda_dae8887828b96cf3e4851e9a0fac350a>@@QBE@XZ
14C130 75 ??R<lambda_11f99f5ee98bf6b5e7b2c03d49380acc>@@QBE@XZ
14C190 75 ??R<lambda_8b8794f727e8998fe1e2f1fa44537c40>@@QBE@XZ
14C400 75 ??R<lambda_c2521061fe5fe3729b546ddebf2a7595>@@QBE@XZ
14CBE0 75 ??R<lambda_0e6e40cf2b4d4fcde224eb092624b602>@@QBE@XZ
14CC00 75 ??R<lambda_66913a0eb1e4823a0be19974ec70dd59>@@QBE@XZ
14CC90 75 ?Synchronize@TWinSCPFileSystem@@AAEXABVUnicodeString@@0W4TSynchronizeMode@TTerminal@@ABVTCopyParamType@@HPAPAVTSynchronizeChecklist@@PAUTSynchronizeOptions@@@Z
14CD10 75 ??R<lambda_19472f922512bd7105ffff9c86bfd144>@@QBE@XZ
14CFA0 75 ??R<lambda_77fc6cc02724abb95ec8822bc056324f>@@QBE@XZ
14D010 75 ??R<lambda_c9dac58caae0ef31e790bef9a432dbed>@@QBE@XZ
14D030 75 ?SynchronizeAllowSelectedOnly@TWinSCPFileSystem@@IAE_NXZ
14D070 75 ?GetSynchronizeOptions@TWinSCPFileSystem@@AAEXHAAUTSynchronizeOptions@@@Z
14D1E0 75 ?FullSynchronize@TWinSCPFileSystem@@IAEX_N@Z
14D5C0 75 ??R<lambda_1891c6540318dccdfc934876bc95b586>@@QBE@XZ
14D980 75 ??R<lambda_4e3eeeb41a978f3bfb1bfa3cd124ec01>@@QBE@XZ
14D9F0 75 ??R<lambda_4f3d950f1da8f3a61ce21a656264e326>@@QBE@XZ
14DA60 75 ??R<lambda_3bdd9970cfdf8f9ed736dbe90d4bb0d0>@@QBE@XZ
14DAD0 75 ??R<lambda_582bba9061b7376e572c02d08552887c>@@QBE@XZ
14DB60 75 ?TerminalSynchronizeDirectory@TWinSCPFileSystem@@AAEXABVUnicodeString@@0AA_N_NPBUTSynchronizeOptions@@@Z
14E0F0 75 ?Synchronize@TWinSCPFileSystem@@IAEXXZ
14E480 75 ??R<lambda_9e101f08fc6d114122ccf999b60dc13b>@@QBE@XZ
14E650 75 ??R<lambda_c85a99f911d7994daf794ee729ff4f3d>@@QBE@XZ
14E6B0 75 ?DoSynchronize@TWinSCPFileSystem@@AAEXPAVTSynchronizeController@@ABVUnicodeString@@1ABVTCopyParamType@@ABUTSynchronizeParamType@@PAPAVTSynchronizeChecklist@@PAUTSynchronizeOptions@@_N@Z
14E72B 75 __catch$?DoSynchronize@TWinSCPFileSystem@@AAEXPAVTSynchronizeController@@ABVUnicodeString@@1ABVTCopyParamType@@ABUTSynchronizeParamType@@PAPAVTSynchronizeChecklist@@PAUTSynchronizeOptions@@_N@Z$0
14E750 75 ?DoSynchronizeInvalid@TWinSCPFileSystem@@AAEXPAVTSynchronizeController@@ABVUnicodeString@@1@Z
14E890 75 ?DoSynchronizeTooManyDirectories@TWinSCPFileSystem@@AAEXPAVTSynchronizeController@@AAH@Z
14EA80 75 ?TransferFiles@TWinSCPFileSystem@@IAEX_N@Z
14EC80 75 ??R<lambda_1b3afa6201ea2189c4f0b178939f39b5>@@QBE@XZ
14EE00 75 ??R<lambda_8398f47ab9ad53f005a239edf308d9fc>@@QBE@XZ
14EE50 75 ?FileProperties@TWinSCPFileSystem@@IAEXXZ
14F150 75 ??R<lambda_6589de773938034e9bde0cdd867dfd58>@@QBE@XZ
14F290 75 ?InsertTokenOnCommandLine@TWinSCPFileSystem@@IAEXABVUnicodeString@@_N@Z
14F3F0 75 ?InsertSessionNameOnCommandLine@TWinSCPFileSystem@@IAEXXZ
14F570 75 ?InsertFileNameOnCommandLine@TWinSCPFileSystem@@IAEX_N@Z
14F6A0 75 ?GetFullFilePath@TWinSCPFileSystem@@IBE?AVUnicodeString@@PBVTRemoteFile@@@Z
14F7E0 75 ?CopyFullFileNamesToClipboard@TWinSCPFileSystem@@IAEXXZ
14FA10 75 ?GetSpaceAvailable@TWinSCPFileSystem@@AAEXABVUnicodeString@@AAUTSpaceAvailable@@AA_N@Z
14FA8D 75 __catch$?GetSpaceAvailable@TWinSCPFileSystem@@AAEXABVUnicodeString@@AAUTSpaceAvailable@@AA_N@Z$0
14FAC0 75 ?ShowInformation@TWinSCPFileSystem@@IAEXXZ
14FCA0 75 ?QueueShow@TWinSCPFileSystem@@IAEX_N@Z
14FDA0 75 ?OpenDirectory@TWinSCPFileSystem@@IAEX_N@Z
150050 75 ?ToggleSynchronizeBrowsing@TWinSCPFileSystem@@IAEXXZ
1501E0 75 ?SynchronizeBrowsing@TWinSCPFileSystem@@IAE_NABVUnicodeString@@@Z
150450 75 ?SetDirectoryEx@TWinSCPFileSystem@@MAE_NABVUnicodeString@@_K@Z
150ABF 75 __catch$?SetDirectoryEx@TWinSCPFileSystem@@MAE_NABVUnicodeString@@_K@Z$0
150BE0 75 ??R<lambda_2f43ee7feb58ebbbe83347d4ab37e800>@@QBE@XZ
150BF0 75 ??R<lambda_6fdfdb57a21b6046f188f296c80e5faa>@@QBE@XZ
150CC0 75 ?MakeDirectoryEx@TWinSCPFileSystem@@MAEHAAVUnicodeString@@_K@Z
1511E0 75 ??R<lambda_f11eab87554fc92bc25bf0465fab728c>@@QBE@XZ
151210 75 ?DeleteSession@TWinSCPFileSystem@@IAEXPAVTSessionData@@PAX@Z
1512C0 75 ?ProcessSessions@TWinSCPFileSystem@@IAEXPAVTObjectList@@$$QAV?$FastDelegate2@XPAVTSessionData@@PAX@fastdelegate@@PAX@Z
151600 75 ?DeleteFilesEx@TWinSCPFileSystem@@MAE_NPAVTObjectList@@_K@Z
151A30 75 ?QueueAddItem@TWinSCPFileSystem@@AAEXPAVTQueueItem@@@Z
151A70 75 ?GetFilesEx@TWinSCPFileSystem@@MAEHPAVTObjectList@@_NAAVUnicodeString@@_K@Z
151E70 75 ??R<lambda_3389983c7f56fdf9afdc77fec0e3ac70>@@QBE@XZ
151EC0 75 ??R<lambda_52cde0439dfc289c0b8b46d758227411>@@QBE@XZ
151EF0 75 ?GetFilesRemote@TWinSCPFileSystem@@AAEHPAVTObjectList@@_NAAVUnicodeString@@_K@Z
152260 75 ?GetQueue@TWinSCPFileSystem@@AAEPAVTTerminalQueue@@XZ
1525C0 75 ?GetQueueStatus@TWinSCPFileSystem@@AAEPAVTTerminalQueueStatus@@XZ
152600 75 ?ExportSession@TWinSCPFileSystem@@IAEXPAVTSessionData@@PAX@Z
152990 75 ?UploadFiles@TWinSCPFileSystem@@IAEH_N_K0AAVUnicodeString@@@Z
152CE0 75 ??R<lambda_6cb35afee423d6a5aba3cf9ce7da034c>@@QBE@XZ
152D00 75 ?PutFilesEx@TWinSCPFileSystem@@MAEHPAVTObjectList@@_N_K@Z
1530B0 75 ?ImportSessions@TWinSCPFileSystem@@IAE_NPAVTObjectList@@_N_K@Z
1534E0 75 ?CreateFocusedFileList@TWinSCPFileSystem@@AAEPAVTStrings@@W4TOperationSide@@PAPAVTFarPanelInfo@@@Z
153640 75 ?CreateSelectedFileList@TWinSCPFileSystem@@AAEPAVTStrings@@W4TOperationSide@@PAPAVTFarPanelInfo@@@Z
153780 75 ?CreateFileList@TWinSCPFileSystem@@AAEPAVTStrings@@PAVTObjectList@@W4TOperationSide@@_NABVUnicodeString@@2PAV2@@Z
153AF0 75 ?SaveSession@TWinSCPFileSystem@@IAEXXZ
153D20 75 ?Connect@TWinSCPFileSystem@@IAE_NPAVTSessionData@@@Z
1540A6 75 __catch$?Connect@TWinSCPFileSystem@@IAE_NPAVTSessionData@@@Z$0
154230 75 ?Disconnect@TWinSCPFileSystem@@IAEXXZ
154420 75 ?TerminalCheckForEsc@TWinSCPFileSystem@@AAE_NXZ
154450 75 ?LogAuthentication@TWinSCPFileSystem@@IAEXPAVTTerminal@@ABVUnicodeString@@@Z
1547A0 75 ?TerminalInformation@TWinSCPFileSystem@@AAEXPAVTTerminal@@ABVUnicodeString@@_NH1@Z
1549E0 75 ?TerminalChangeDirectory@TWinSCPFileSystem@@AAEXPAVTObject@@@Z
154AE0 75 ?TerminalStartReadDirectory@TWinSCPFileSystem@@AAEXPAVTObject@@@Z
154BC0 75 ?TerminalReadDirectoryProgress@TWinSCPFileSystem@@AAEXPAVTObject@@HHAA_N@Z
154D30 75 ?TerminalReadDirectory@TWinSCPFileSystem@@AAEXPAVTObject@@_N@Z
154D70 75 ?TerminalDeleteLocalFile@TWinSCPFileSystem@@AAEXABVUnicodeString@@_NAAH@Z
154F00 75 ?TerminalCreateLocalFile@TWinSCPFileSystem@@AAEPAXABVUnicodeString@@KKKK@Z
154FF0 75 ?TerminalGetLocalFileAttributes@TWinSCPFileSystem@@ABEKABVUnicodeString@@@Z
155070 75 ?TerminalSetLocalFileAttributes@TWinSCPFileSystem@@AAE_NABVUnicodeString@@K@Z
155150 75 ?TerminalMoveLocalFile@TWinSCPFileSystem@@AAE_NABVUnicodeString@@0K@Z
1552C0 75 ?TerminalRemoveLocalDirectory@TWinSCPFileSystem@@AAE_NABVUnicodeString@@@Z
1553A0 75 ?TerminalCreateLocalDirectory@TWinSCPFileSystem@@AAE_NABVUnicodeString@@PAU_SECURITY_ATTRIBUTES@@@Z
155480 75 ?MoreMessageDialog@TWinSCPFileSystem@@IAEIABVUnicodeString@@PAVTStrings@@W4TQueryType@@IPBUTMessageParams@@@Z
1555F0 75 ?TerminalQueryUser@TWinSCPFileSystem@@AAEXPAVTObject@@ABVUnicodeString@@PAVTStrings@@IPBUTQueryParams@@AAIW4TQueryType@@PAX@Z
155750 75 ?TerminalPromptUser@TWinSCPFileSystem@@AAEXPAVTTerminal@@W4TPromptKind@@ABVUnicodeString@@2PAVTStrings@@3AA_NPAX@Z
1559E0 75 ?TerminalDisplayBanner@TWinSCPFileSystem@@AAEXPAVTTerminal@@ABVUnicodeString@@1AA_NHAAI@Z
155A00 75 ?TerminalShowExtendedException@TWinSCPFileSystem@@AAEXPAVTTerminal@@PAVException@@PAX@Z
155A40 75 ?OperationProgress@TWinSCPFileSystem@@AAEXAAVTFileOperationProgressType@@@Z
155AE0 75 ?OperationFinished@TWinSCPFileSystem@@AAEXW4TFileOperation@@W4TOperationSide@@_NABVUnicodeString@@2AAW4TOnceDoneOperation@@@Z
155D10 75 ?ShowOperationProgress@TWinSCPFileSystem@@IAEXAAVTFileOperationProgressType@@_N@Z
156770 75 ?ProgressBar@TWinSCPFileSystem@@IAE?AVUnicodeString@@HH@Z
156910 75 ?ProcessQueue@TWinSCPFileSystem@@IAEPAVTTerminalQueueStatus@@_N@Z
156D80 75 ?QueueListUpdate@TWinSCPFileSystem@@AAEXPAVTTerminalQueue@@@Z
156DA0 75 ?QueueItemUpdate@TWinSCPFileSystem@@AAEXPBVTTerminalQueue@@PAVTQueueItem@@@Z
156EC0 75 ?QueueEvent@TWinSCPFileSystem@@AAEXPAVTTerminalQueue@@W4TQueueEventType@@@Z
156F40 75 ?CancelConfiguration@TWinSCPFileSystem@@AAEXAAVTFileOperationProgressType@@@Z
1570D0 75 ?UploadFromEditor@TWinSCPFileSystem@@IAEX_NABVUnicodeString@@1AAV2@@Z
157270 75 ??R<lambda_de782774e98ee6a4ab0b68ddb6f3e777>@@QBE@XZ
1572A0 75 ?UploadOnSave@TWinSCPFileSystem@@IAEX_N@Z
157450 75 ?ProcessEditorEvent@TWinSCPFileSystem@@IAEXHPAX@Z
157B50 75 ??0TMultipleEdit@@QAE@XZ
157B90 0 ??_ETMultipleEdit@@UAEPAXI@Z
157BD0 75 ?EditViewCopyParam@TWinSCPFileSystem@@IAEXAAVTCopyParamType@@@Z
157C80 75 ?MultipleEdit@TWinSCPFileSystem@@IAEXVUnicodeString@@0PBVTRemoteFile@@@Z
158618 75 $LN1945
15862C 75 $LN1944
158640 0 ??_ETEditHistory@@UAEPAXI@Z
158680 75 ?EditHistory@TWinSCPFileSystem@@IAEXXZ
1589E0 75 ?ShowLog@TWinSCPFileSystem@@IAEXXZ
158B40 75 ??1?$unique_ptr@VTFarEditorInfo@@U?$default_delete@VTFarEditorInfo@@@std@@@std@@QAE@XZ
158B60 75 ??1?$scope_guard0@V<lambda_624fe1cd9b6da1969293c6c9c3c2d053>@@$0A@@scope_exit@Sysutils@@QAE@XZ
158B70 75 ??1?$scope_guard0@V<lambda_48766dd54e3708c9b87f6a2cf4119671>@@$0A@@scope_exit@Sysutils@@QAE@XZ
158BA0 75 ??1?$unique_ptr@VTBookmarkList@@U?$default_delete@VTBookmarkList@@@std@@@std@@QAE@XZ
158C20 75 ??1?$scope_guard0@V<lambda_4cd43fd48df8b2cf38a0f02edcb96b41>@@$0A@@scope_exit@Sysutils@@QAE@XZ
158C30 75 ??1?$vector@UTEditHistory@@U?$custom_nballocator_t@UTEditHistory@@@nb@@@std@@QAE@XZ
158C70 75 ?find@?$_Tree@V?$_Tmap_traits@HUTMultipleEdit@@U?$less@H@std@@U?$custom_nballocator_t@U?$pair@$$CBHUTMultipleEdit@@@std@@@nb@@$0A@@std@@@std@@QAE?AV?$_Tree_iterator@V?$_Tree_val@U?$_Tree_simple_types@U?$pair@$$CBHUTMultipleEdit@@@std@@@std@@@std@@@2@ABH@Z
158CC0 75 ?erase@?$_Tree@V?$_Tmap_traits@HUTMultipleEdit@@U?$less@H@std@@U?$custom_nballocator_t@U?$pair@$$CBHUTMultipleEdit@@@std@@@nb@@$0A@@std@@@std@@QAEIABH@Z
158DF0 75 ??$CheckControlMaskSet@KK@@YA_NKKK@Z
158E20 75 ??$?0PAVTWinSCPPlugin@@X@?$not_null@PAVTCustomFarPlugin@@@gsl@@QAE@$$QAPAVTWinSCPPlugin@@@Z
158E40 75 ??$make_unique@VTXmlStorage@@ABVUnicodeString@@V2@$0A@@std@@YA?AV?$unique_ptr@VTXmlStorage@@U?$default_delete@VTXmlStorage@@@std@@@0@ABVUnicodeString@@$$QAV2@@Z
158E90 75 ??$make_unique@VTFarMenuItems@@$$V$0A@@std@@YA?AV?$unique_ptr@VTFarMenuItems@@U?$default_delete@VTFarMenuItems@@@std@@@0@XZ
158EE0 75 ??$_Erase_tree@U?$custom_nballocator_t@U?$_Tree_node@U?$pair@$$CBHUTMultipleEdit@@@std@@PAX@std@@@nb@@@?$_Tree_val@U?$_Tree_simple_types@U?$pair@$$CBHUTMultipleEdit@@@std@@@std@@@std@@QAEXAAU?$custom_nballocator_t@U?$_Tree_node@U?$pair@$$CBHUTMultipleEdit@@@std@@PAX@std@@@nb@@PAU?$_Tree_node@U?$pair@$$CBHUTMultipleEdit@@@std@@PAX@1@@Z
158F20 75 ??0?$scope_guard@V<lambda_b058504ad009c60b5b5d6424bd5c321c>@@V<lambda_9216aa30e7cd8128f7ab211b18948e5d>@@@detail@Sysutils@@QAE@$$QAV<lambda_b058504ad009c60b5b5d6424bd5c321c>@@$$QAV<lambda_9216aa30e7cd8128f7ab211b18948e5d>@@@Z
158FB7 75 __catch$??0?$scope_guard@V<lambda_b058504ad009c60b5b5d6424bd5c321c>@@V<lambda_9216aa30e7cd8128f7ab211b18948e5d>@@@detail@Sysutils@@QAE@$$QAV<lambda_b058504ad009c60b5b5d6424bd5c321c>@@$$QAV<lambda_9216aa30e7cd8128f7ab211b18948e5d>@@@Z$0
158FE0 75 ??0?$scope_guard@V<lambda_196b84aed89c5c8901f9300208b79315>@@V<lambda_de782774e98ee6a4ab0b68ddb6f3e777>@@@detail@Sysutils@@QAE@$$QAV<lambda_196b84aed89c5c8901f9300208b79315>@@$$QAV<lambda_de782774e98ee6a4ab0b68ddb6f3e777>@@@Z
1590B5 75 __catch$??0?$scope_guard@V<lambda_196b84aed89c5c8901f9300208b79315>@@V<lambda_de782774e98ee6a4ab0b68ddb6f3e777>@@@detail@Sysutils@@QAE@$$QAV<lambda_196b84aed89c5c8901f9300208b79315>@@$$QAV<lambda_de782774e98ee6a4ab0b68ddb6f3e777>@@@Z$0
1590E0 75 ??0?$scope_guard@V<lambda_368f1561d1a479b3092cdeefb4c0d396>@@V<lambda_6cb35afee423d6a5aba3cf9ce7da034c>@@@detail@Sysutils@@QAE@$$QAV<lambda_368f1561d1a479b3092cdeefb4c0d396>@@$$QAV<lambda_6cb35afee423d6a5aba3cf9ce7da034c>@@@Z
1591AF 75 __catch$??0?$scope_guard@V<lambda_368f1561d1a479b3092cdeefb4c0d396>@@V<lambda_6cb35afee423d6a5aba3cf9ce7da034c>@@@detail@Sysutils@@QAE@$$QAV<lambda_368f1561d1a479b3092cdeefb4c0d396>@@$$QAV<lambda_6cb35afee423d6a5aba3cf9ce7da034c>@@@Z$0
1591D0 75 ??0?$scope_guard@V<lambda_3389983c7f56fdf9afdc77fec0e3ac70>@@V<lambda_52cde0439dfc289c0b8b46d758227411>@@@detail@Sysutils@@QAE@$$QAV<lambda_3389983c7f56fdf9afdc77fec0e3ac70>@@$$QAV<lambda_52cde0439dfc289c0b8b46d758227411>@@@Z
159268 75 __catch$??0?$scope_guard@V<lambda_3389983c7f56fdf9afdc77fec0e3ac70>@@V<lambda_52cde0439dfc289c0b8b46d758227411>@@@detail@Sysutils@@QAE@$$QAV<lambda_3389983c7f56fdf9afdc77fec0e3ac70>@@$$QAV<lambda_52cde0439dfc289c0b8b46d758227411>@@@Z$0
159290 75 ??0?$scope_guard@V<lambda_7765df66e0c999f684c3ab963139d853>@@V<lambda_f11eab87554fc92bc25bf0465fab728c>@@@detail@Sysutils@@QAE@$$QAV<lambda_7765df66e0c999f684c3ab963139d853>@@$$QAV<lambda_f11eab87554fc92bc25bf0465fab728c>@@@Z
159337 75 __catch$??0?$scope_guard@V<lambda_7765df66e0c999f684c3ab963139d853>@@V<lambda_f11eab87554fc92bc25bf0465fab728c>@@@detail@Sysutils@@QAE@$$QAV<lambda_7765df66e0c999f684c3ab963139d853>@@$$QAV<lambda_f11eab87554fc92bc25bf0465fab728c>@@@Z$0
159360 75 ??0?$scope_guard@V<lambda_a9bcea271349f7f7b36cd04e312d537a>@@V<lambda_6fdfdb57a21b6046f188f296c80e5faa>@@@detail@Sysutils@@QAE@$$QAV<lambda_a9bcea271349f7f7b36cd04e312d537a>@@$$QAV<lambda_6fdfdb57a21b6046f188f296c80e5faa>@@@Z
15957C 75 __catch$??0?$scope_guard@V<lambda_a9bcea271349f7f7b36cd04e312d537a>@@V<lambda_6fdfdb57a21b6046f188f296c80e5faa>@@@detail@Sysutils@@QAE@$$QAV<lambda_a9bcea271349f7f7b36cd04e312d537a>@@$$QAV<lambda_6fdfdb57a21b6046f188f296c80e5faa>@@@Z$0
1595A0 75 ??0?$scope_guard@V<lambda_3148cf4f1c128e2a3c6629b5884a186b>@@V<lambda_2f43ee7feb58ebbbe83347d4ab37e800>@@@detail@Sysutils@@QAE@$$QAV<lambda_3148cf4f1c128e2a3c6629b5884a186b>@@$$QAV<lambda_2f43ee7feb58ebbbe83347d4ab37e800>@@@Z
159621 75 __catch$??0?$scope_guard@V<lambda_3148cf4f1c128e2a3c6629b5884a186b>@@V<lambda_2f43ee7feb58ebbbe83347d4ab37e800>@@@detail@Sysutils@@QAE@$$QAV<lambda_3148cf4f1c128e2a3c6629b5884a186b>@@$$QAV<lambda_2f43ee7feb58ebbbe83347d4ab37e800>@@@Z$0
159640 75 ??0?$scope_guard@V<lambda_6589de773938034e9bde0cdd867dfd58>@@V<lambda_11f99f5ee98bf6b5e7b2c03d49380acc>@@@detail@Sysutils@@QAE@$$QAV<lambda_6589de773938034e9bde0cdd867dfd58>@@$$QAV<lambda_11f99f5ee98bf6b5e7b2c03d49380acc>@@@Z
1596B2 75 __catch$??0?$scope_guard@V<lambda_6589de773938034e9bde0cdd867dfd58>@@V<lambda_11f99f5ee98bf6b5e7b2c03d49380acc>@@@detail@Sysutils@@QAE@$$QAV<lambda_6589de773938034e9bde0cdd867dfd58>@@$$QAV<lambda_11f99f5ee98bf6b5e7b2c03d49380acc>@@@Z$0
1596D0 75 ??0?$scope_guard@V<lambda_12e6939e5a30c8fce0c2ec283d03173c>@@V<lambda_8398f47ab9ad53f005a239edf308d9fc>@@@detail@Sysutils@@QAE@$$QAV<lambda_12e6939e5a30c8fce0c2ec283d03173c>@@$$QAV<lambda_8398f47ab9ad53f005a239edf308d9fc>@@@Z
159793 75 __catch$??0?$scope_guard@V<lambda_12e6939e5a30c8fce0c2ec283d03173c>@@V<lambda_8398f47ab9ad53f005a239edf308d9fc>@@@detail@Sysutils@@QAE@$$QAV<lambda_12e6939e5a30c8fce0c2ec283d03173c>@@$$QAV<lambda_8398f47ab9ad53f005a239edf308d9fc>@@@Z$0
1597B0 75 ??0?$scope_guard@V<lambda_1b3afa6201ea2189c4f0b178939f39b5>@@V<lambda_d71496fc6c5f734a92529ccdbe1c6bb0>@@@detail@Sysutils@@QAE@$$QAV<lambda_1b3afa6201ea2189c4f0b178939f39b5>@@$$QAV<lambda_d71496fc6c5f734a92529ccdbe1c6bb0>@@@Z
159828 75 __catch$??0?$scope_guard@V<lambda_1b3afa6201ea2189c4f0b178939f39b5>@@V<lambda_d71496fc6c5f734a92529ccdbe1c6bb0>@@@detail@Sysutils@@QAE@$$QAV<lambda_1b3afa6201ea2189c4f0b178939f39b5>@@$$QAV<lambda_d71496fc6c5f734a92529ccdbe1c6bb0>@@@Z$0
159850 75 ??0?$scope_guard@V<lambda_9e101f08fc6d114122ccf999b60dc13b>@@V<lambda_c85a99f911d7994daf794ee729ff4f3d>@@@detail@Sysutils@@QAE@$$QAV<lambda_9e101f08fc6d114122ccf999b60dc13b>@@$$QAV<lambda_c85a99f911d7994daf794ee729ff4f3d>@@@Z
1598C2 75 __catch$??0?$scope_guard@V<lambda_9e101f08fc6d114122ccf999b60dc13b>@@V<lambda_c85a99f911d7994daf794ee729ff4f3d>@@@detail@Sysutils@@QAE@$$QAV<lambda_9e101f08fc6d114122ccf999b60dc13b>@@$$QAV<lambda_c85a99f911d7994daf794ee729ff4f3d>@@@Z$0
1598E0 75 ??0?$scope_guard@V<lambda_1891c6540318dccdfc934876bc95b586>@@V<lambda_582bba9061b7376e572c02d08552887c>@@@detail@Sysutils@@QAE@$$QAV<lambda_1891c6540318dccdfc934876bc95b586>@@$$QAV<lambda_582bba9061b7376e572c02d08552887c>@@@Z
15995A 75 __catch$??0?$scope_guard@V<lambda_1891c6540318dccdfc934876bc95b586>@@V<lambda_582bba9061b7376e572c02d08552887c>@@@detail@Sysutils@@QAE@$$QAV<lambda_1891c6540318dccdfc934876bc95b586>@@$$QAV<lambda_582bba9061b7376e572c02d08552887c>@@@Z$0
159980 75 ??0?$scope_guard@V<lambda_3bdd9970cfdf8f9ed736dbe90d4bb0d0>@@V<lambda_a1557cf54390e0d6022ab3429ba97350>@@@detail@Sysutils@@QAE@$$QAV<lambda_3bdd9970cfdf8f9ed736dbe90d4bb0d0>@@$$QAV<lambda_a1557cf54390e0d6022ab3429ba97350>@@@Z
1599F2 75 __catch$??0?$scope_guard@V<lambda_3bdd9970cfdf8f9ed736dbe90d4bb0d0>@@V<lambda_a1557cf54390e0d6022ab3429ba97350>@@@detail@Sysutils@@QAE@$$QAV<lambda_3bdd9970cfdf8f9ed736dbe90d4bb0d0>@@$$QAV<lambda_a1557cf54390e0d6022ab3429ba97350>@@@Z$0
159A10 75 ??0?$scope_guard@V<lambda_4e3eeeb41a978f3bfb1bfa3cd124ec01>@@V<lambda_4f3d950f1da8f3a61ce21a656264e326>@@@detail@Sysutils@@QAE@$$QAV<lambda_4e3eeeb41a978f3bfb1bfa3cd124ec01>@@$$QAV<lambda_4f3d950f1da8f3a61ce21a656264e326>@@@Z
159A8A 75 __catch$??0?$scope_guard@V<lambda_4e3eeeb41a978f3bfb1bfa3cd124ec01>@@V<lambda_4f3d950f1da8f3a61ce21a656264e326>@@@detail@Sysutils@@QAE@$$QAV<lambda_4e3eeeb41a978f3bfb1bfa3cd124ec01>@@$$QAV<lambda_4f3d950f1da8f3a61ce21a656264e326>@@@Z$0
159AB0 75 ??0?$scope_guard@V<lambda_19472f922512bd7105ffff9c86bfd144>@@V<lambda_c9dac58caae0ef31e790bef9a432dbed>@@@detail@Sysutils@@QAE@$$QAV<lambda_19472f922512bd7105ffff9c86bfd144>@@$$QAV<lambda_c9dac58caae0ef31e790bef9a432dbed>@@@Z
159B5E 75 __catch$??0?$scope_guard@V<lambda_19472f922512bd7105ffff9c86bfd144>@@V<lambda_c9dac58caae0ef31e790bef9a432dbed>@@@detail@Sysutils@@QAE@$$QAV<lambda_19472f922512bd7105ffff9c86bfd144>@@$$QAV<lambda_c9dac58caae0ef31e790bef9a432dbed>@@@Z$0
159B80 75 ??0?$scope_guard@V<lambda_4f6e3f373f3494b2d578a9a62cb4780f>@@V<lambda_77fc6cc02724abb95ec8822bc056324f>@@@detail@Sysutils@@QAE@$$QAV<lambda_4f6e3f373f3494b2d578a9a62cb4780f>@@$$QAV<lambda_77fc6cc02724abb95ec8822bc056324f>@@@Z
159C5A 75 __catch$??0?$scope_guard@V<lambda_4f6e3f373f3494b2d578a9a62cb4780f>@@V<lambda_77fc6cc02724abb95ec8822bc056324f>@@@detail@Sysutils@@QAE@$$QAV<lambda_4f6e3f373f3494b2d578a9a62cb4780f>@@$$QAV<lambda_77fc6cc02724abb95ec8822bc056324f>@@@Z$0
159C80 75 ??0?$scope_guard@V<lambda_286b6b2c76cb0545c99978d4bce4ebf5>@@V<lambda_f7ed731ff406c7222cd45615e8155c1c>@@@detail@Sysutils@@QAE@$$QAV<lambda_286b6b2c76cb0545c99978d4bce4ebf5>@@$$QAV<lambda_f7ed731ff406c7222cd45615e8155c1c>@@@Z
159D55 75 __catch$??0?$scope_guard@V<lambda_286b6b2c76cb0545c99978d4bce4ebf5>@@V<lambda_f7ed731ff406c7222cd45615e8155c1c>@@@detail@Sysutils@@QAE@$$QAV<lambda_286b6b2c76cb0545c99978d4bce4ebf5>@@$$QAV<lambda_f7ed731ff406c7222cd45615e8155c1c>@@@Z$0
159D80 75 ??0?$scope_guard@V<lambda_8b8794f727e8998fe1e2f1fa44537c40>@@V<lambda_66913a0eb1e4823a0be19974ec70dd59>@@@detail@Sysutils@@QAE@$$QAV<lambda_8b8794f727e8998fe1e2f1fa44537c40>@@$$QAV<lambda_66913a0eb1e4823a0be19974ec70dd59>@@@Z
159E00 75 __catch$??0?$scope_guard@V<lambda_8b8794f727e8998fe1e2f1fa44537c40>@@V<lambda_66913a0eb1e4823a0be19974ec70dd59>@@@detail@Sysutils@@QAE@$$QAV<lambda_8b8794f727e8998fe1e2f1fa44537c40>@@$$QAV<lambda_66913a0eb1e4823a0be19974ec70dd59>@@@Z$0
159E20 75 ??0?$scope_guard@V<lambda_c2521061fe5fe3729b546ddebf2a7595>@@V<lambda_0e6e40cf2b4d4fcde224eb092624b602>@@@detail@Sysutils@@QAE@$$QAV<lambda_c2521061fe5fe3729b546ddebf2a7595>@@$$QAV<lambda_0e6e40cf2b4d4fcde224eb092624b602>@@@Z
159EB1 75 __catch$??0?$scope_guard@V<lambda_c2521061fe5fe3729b546ddebf2a7595>@@V<lambda_0e6e40cf2b4d4fcde224eb092624b602>@@@detail@Sysutils@@QAE@$$QAV<lambda_c2521061fe5fe3729b546ddebf2a7595>@@$$QAV<lambda_0e6e40cf2b4d4fcde224eb092624b602>@@@Z$0
159ED0 75 ??0?$scope_guard@V<lambda_8c750f6f8c05e19a1567dc2aef52ee98>@@V<lambda_611af27fb69b19ac6131080cdd65efa6>@@@detail@Sysutils@@QAE@$$QAV<lambda_8c750f6f8c05e19a1567dc2aef52ee98>@@$$QAV<lambda_611af27fb69b19ac6131080cdd65efa6>@@@Z
159F42 75 __catch$??0?$scope_guard@V<lambda_8c750f6f8c05e19a1567dc2aef52ee98>@@V<lambda_611af27fb69b19ac6131080cdd65efa6>@@@detail@Sysutils@@QAE@$$QAV<lambda_8c750f6f8c05e19a1567dc2aef52ee98>@@$$QAV<lambda_611af27fb69b19ac6131080cdd65efa6>@@@Z$0
159F60 75 ??0?$scope_guard@V<lambda_fc3bc643eaab5ddbf1cb994140360126>@@V<lambda_dae8887828b96cf3e4851e9a0fac350a>@@@detail@Sysutils@@QAE@$$QAV<lambda_fc3bc643eaab5ddbf1cb994140360126>@@$$QAV<lambda_dae8887828b96cf3e4851e9a0fac350a>@@@Z
15A049 75 __catch$??0?$scope_guard@V<lambda_fc3bc643eaab5ddbf1cb994140360126>@@V<lambda_dae8887828b96cf3e4851e9a0fac350a>@@@detail@Sysutils@@QAE@$$QAV<lambda_fc3bc643eaab5ddbf1cb994140360126>@@$$QAV<lambda_dae8887828b96cf3e4851e9a0fac350a>@@@Z$0
15A070 75 ??0?$scope_guard@V<lambda_a299139dbfbd38d92f110628665a6f20>@@V<lambda_e1d617910cc9cfcaa104b34883bd060b>@@@detail@Sysutils@@QAE@$$QAV<lambda_a299139dbfbd38d92f110628665a6f20>@@$$QAV<lambda_e1d617910cc9cfcaa104b34883bd060b>@@@Z
15A0E2 75 __catch$??0?$scope_guard@V<lambda_a299139dbfbd38d92f110628665a6f20>@@V<lambda_e1d617910cc9cfcaa104b34883bd060b>@@@detail@Sysutils@@QAE@$$QAV<lambda_a299139dbfbd38d92f110628665a6f20>@@$$QAV<lambda_e1d617910cc9cfcaa104b34883bd060b>@@@Z$0
15A100 75 ??0?$scope_guard@V<lambda_91d1a9c7881f510dd126702f9c3f2c34>@@V<lambda_de85cde1cdc5fe5653c6354f919975b2>@@@detail@Sysutils@@QAE@$$QAV<lambda_91d1a9c7881f510dd126702f9c3f2c34>@@$$QAV<lambda_de85cde1cdc5fe5653c6354f919975b2>@@@Z
15A21B 75 __catch$??0?$scope_guard@V<lambda_91d1a9c7881f510dd126702f9c3f2c34>@@V<lambda_de85cde1cdc5fe5653c6354f919975b2>@@@detail@Sysutils@@QAE@$$QAV<lambda_91d1a9c7881f510dd126702f9c3f2c34>@@$$QAV<lambda_de85cde1cdc5fe5653c6354f919975b2>@@@Z$0
15A230 75 ??0?$scope_guard@V<lambda_0a9b19eca80d4f8ab384b99a62defafb>@@V<lambda_491ec2a644ed34c806e91a35a26c7adc>@@@detail@Sysutils@@QAE@$$QAV<lambda_0a9b19eca80d4f8ab384b99a62defafb>@@$$QAV<lambda_491ec2a644ed34c806e91a35a26c7adc>@@@Z
15A306 75 __catch$??0?$scope_guard@V<lambda_0a9b19eca80d4f8ab384b99a62defafb>@@V<lambda_491ec2a644ed34c806e91a35a26c7adc>@@@detail@Sysutils@@QAE@$$QAV<lambda_0a9b19eca80d4f8ab384b99a62defafb>@@$$QAV<lambda_491ec2a644ed34c806e91a35a26c7adc>@@@Z$0
15A330 75 ??0?$scope_guard@V<lambda_393c8f026f1ec4b30b78a80cf4979754>@@V<lambda_0c6f9508c6272acb2023b216cffdbbfb>@@@detail@Sysutils@@QAE@$$QAV<lambda_393c8f026f1ec4b30b78a80cf4979754>@@$$QAV<lambda_0c6f9508c6272acb2023b216cffdbbfb>@@@Z
15A3FC 75 __catch$??0?$scope_guard@V<lambda_393c8f026f1ec4b30b78a80cf4979754>@@V<lambda_0c6f9508c6272acb2023b216cffdbbfb>@@@detail@Sysutils@@QAE@$$QAV<lambda_393c8f026f1ec4b30b78a80cf4979754>@@$$QAV<lambda_0c6f9508c6272acb2023b216cffdbbfb>@@@Z$0
15A420 75 ??0?$scope_guard@V<lambda_d315b62563c0cb54e8f9ac85658132e7>@@V<lambda_45f89175c9a6d7cd28813d1c35e8616d>@@@detail@Sysutils@@QAE@$$QAV<lambda_d315b62563c0cb54e8f9ac85658132e7>@@$$QAV<lambda_45f89175c9a6d7cd28813d1c35e8616d>@@@Z
15A4DF 75 __catch$??0?$scope_guard@V<lambda_d315b62563c0cb54e8f9ac85658132e7>@@V<lambda_45f89175c9a6d7cd28813d1c35e8616d>@@@detail@Sysutils@@QAE@$$QAV<lambda_d315b62563c0cb54e8f9ac85658132e7>@@$$QAV<lambda_45f89175c9a6d7cd28813d1c35e8616d>@@@Z$0
15A500 75 ??0?$scope_guard@V<lambda_0e2b7a959a891be22deb465fb738e916>@@V<lambda_bb85452358c840773f87883e429b5dde>@@@detail@Sysutils@@QAE@$$QAV<lambda_0e2b7a959a891be22deb465fb738e916>@@$$QAV<lambda_bb85452358c840773f87883e429b5dde>@@@Z
15A595 75 __catch$??0?$scope_guard@V<lambda_0e2b7a959a891be22deb465fb738e916>@@V<lambda_bb85452358c840773f87883e429b5dde>@@@detail@Sysutils@@QAE@$$QAV<lambda_0e2b7a959a891be22deb465fb738e916>@@$$QAV<lambda_bb85452358c840773f87883e429b5dde>@@@Z$0
15A5B0 75 ??0?$scope_guard@V<lambda_6f22eda5478df983e987eb007c06623e>@@V<lambda_924d5e84e2e42ee34f5d9302e1941280>@@@detail@Sysutils@@QAE@$$QAV<lambda_6f22eda5478df983e987eb007c06623e>@@$$QAV<lambda_924d5e84e2e42ee34f5d9302e1941280>@@@Z
15A621 75 __catch$??0?$scope_guard@V<lambda_6f22eda5478df983e987eb007c06623e>@@V<lambda_924d5e84e2e42ee34f5d9302e1941280>@@@detail@Sysutils@@QAE@$$QAV<lambda_6f22eda5478df983e987eb007c06623e>@@$$QAV<lambda_924d5e84e2e42ee34f5d9302e1941280>@@@Z$0
15A640 75 ?allocate@?$custom_nballocator_t@U?$_Tree_node@U?$pair@$$CBHUTMultipleEdit@@@std@@PAX@std@@@nb@@QAEPAU?$_Tree_node@U?$pair@$$CBHUTMultipleEdit@@@std@@PAX@std@@IPBX@Z
15A670 75 ??$_Emplace_reallocate@ABUTEditHistory@@@?$vector@UTEditHistory@@U?$custom_nballocator_t@UTEditHistory@@@nb@@@std@@AAEPAUTEditHistory@@QAU2@ABU2@@Z
15A7C0 75 ??$_Uninitialized_move@PAUTEditHistory@@U?$custom_nballocator_t@UTEditHistory@@@nb@@@std@@YAPAUTEditHistory@@QAU1@0PAU1@AAU?$custom_nballocator_t@UTEditHistory@@@nb@@@Z
15A820 74 ??0ExtException@@QAE@ABVUnicodeString@@@Z
15A850 74 ?SetDefaultGroup@TFarDialog@@QAEXH@Z
15A860 74 ?GetAllowGrayed@TFarCheckBox@@QBE_NXZ
15A890 74 ?SetAllowGrayed@TFarCheckBox@@QAEX_N@Z
15A8B0 74 ?SetReadOnly@TFarEdit@@QAEX_N@Z
15A8D0 74 ?SetDisabled@TFarList@@QAEXH_N@Z
15A8F0 74 ?SetNoBox@TFarListBox@@QAEX_N@Z
15A910 74 ?SetDropDownList@TFarComboBox@@QAEX_N@Z
15A930 74 ?GetPageantPath@TFarConfiguration@@QBE?AVUnicodeString@@XZ
15A950 74 ?GetPuttygenPath@TFarConfiguration@@QBE?AVUnicodeString@@XZ
15A970 0 ??_ETLinkDialog@@UAEPAXI@Z
15A9B0 74 ??1TWinSCPDialog@@UAE@XZ
15A9C0 74 ?AddStandardButtons@TWinSCPDialog@@QAEXH_N@Z
15AB80 74 ?is@TTabButton@@UBE_NG@Z
15ABB0 74 ??0TTabbedDialog@@QAE@PAVTCustomFarPlugin@@H@Z
15ACC0 0 ??_ETTabbedDialog@@UAEPAXI@Z
15AD40 74 ?HideTabs@TTabbedDialog@@IAEXXZ
15ADB0 74 ?SelectTab@TTabbedDialog@@MAEXH@Z
15AFC0 74 ?GetTabButton@TTabbedDialog@@IBEPAVTTabButton@@H@Z
15B0B0 74 ??$dyn_cast_or_null@VTTabButton@@VTFarDialogItem@@@rtti@@YA?A_PPAVTFarDialogItem@@@Z
15B0D0 74 ?GetTabName@TTabbedDialog@@MBE?AVUnicodeString@@H@Z
15B100 74 ?TabButtonClick@TTabbedDialog@@IAEXPAVTFarButton@@AA_N@Z
15B140 74 ?Key@TTabbedDialog@@MAE_NPAVTFarDialogItem@@H@Z
15B1E0 74 ??0TTabButton@@QAE@PAVTTabbedDialog@@@Z
15B2A0 0 ??_ETTabButton@@UAEPAXI@Z
15B330 74 ?SetTabName@TTabButton@@QAEXABVUnicodeString@@@Z
15B540 74 ?ConfigurationDialog@TWinSCPPlugin@@IAE_NXZ
15BF30 74 ?PanelConfigurationDialog@TWinSCPPlugin@@IAE_NXZ
15C1A0 74 ??R<lambda_02164f65ce1d68c71f2557308f6aadda>@@QBE@XZ
15C1E0 74 ?LoggingConfigurationDialog@TWinSCPPlugin@@IAE_NXZ
15C980 74 ?TransferConfigurationDialog@TWinSCPPlugin@@IAE_NXZ
15CB70 74 ?EnduranceConfigurationDialog@TWinSCPPlugin@@IAE_NXZ
15D4E0 74 ??R<lambda_b196ed2959766bb5819e43ea5b35d0df>@@QBE@XZ
15D680 74 ?QueueConfigurationDialog@TWinSCPPlugin@@IAE_NXZ
15DAC0 74 ??R<lambda_cd30ddef21a962e68d0838aa90655a67>@@QBE@XZ
15DC50 74 ?GetDialogGuid@TTransferEditorConfigurationDialog@@MBEPBU_GUID@@XZ
15DC60 74 ??0TTransferEditorConfigurationDialog@@QAE@PAVTCustomFarPlugin@@@Z
15E060 0 ??_ETTransferEditorConfigurationDialog@@UAEPAXI@Z
15E0A0 74 ?Execute@TTransferEditorConfigurationDialog@@QAE_NXZ
15E1D0 74 ??R<lambda_4ddbf8e4faaee56321061446c50dd91b>@@QBE@XZ
15E210 74 ?Change@TTransferEditorConfigurationDialog@@MAEXXZ
15E270 74 ?ConfirmationsConfigurationDialog@TWinSCPPlugin@@IAE_NXZ
15E650 74 ?IntegrationConfigurationDialog@TWinSCPPlugin@@IAE_NXZ
15EB70 74 ??R<lambda_7ae1e834f84be4e370c9d972e49bb7ac>@@QBE@XZ
15ED10 74 ?GetDialogGuid@TAboutDialog@@MBEPBU_GUID@@XZ
15ED20 74 ??0TAboutDialog@@QAE@PAVTCustomFarPlugin@@@Z
15F530 74 ?AboutDialog@TWinSCPPlugin@@IAEXXZ
15F5D0 74 ?GetDialogGuid@TPasswordDialog@@MBEPBU_GUID@@XZ
15F5E0 74 ??0TPasswordDialog@@QAE@PAVTCustomFarPlugin@@ABVUnicodeString@@W4TPromptKind@@11PBVTStrings@@_N@Z
15F960 0 ??_ETPasswordDialog@@UAEPAXI@Z
15F9F0 74 ?GenerateLabel@TPasswordDialog@@AAEXABVUnicodeString@@AA_N@Z
15FC10 74 ?GeneratePrompt@TPasswordDialog@@AAEX_NABVUnicodeString@@PBVTStrings@@AA_N@Z
15FE30 74 ?ShowPromptClick@TPasswordDialog@@AAEXPAVTFarButton@@AA_N@Z
15FE80 74 ?Execute@TPasswordDialog@@QAE_NPAVTStrings@@@Z
1600F0 74 ?BannerDialog@TWinSCPFileSystem@@IAE_NABVUnicodeString@@0AA_NH@Z
1603F0 74 ?GetDialogGuid@TSessionDialog@@MBEPBU_GUID@@XZ
160400 74 ??0TSessionDialog@@QAE@PAVTCustomFarPlugin@@W4TSessionActionEnum@@@Z
1647B0 74 ??$?6V<lambda_67bc529d6017aac3ccb804ff4788ba45>@@@?$make_scope_guard@$0A@@scope_exit@Sysutils@@QAE?A_P$$QAV<lambda_67bc529d6017aac3ccb804ff4788ba45>@@@Z
1647D0 74 ??R<lambda_be17ab1e5aa64502e43adf697a09a875>@@QBE@XZ
164980 74 ??R<lambda_eb1fb199071ad5f604963b20a91a71bd>@@QBE@XZ
1649A0 74 ??R<lambda_e7cadb5f7f28ece6452f68569562070c>@@QBE@XZ
1649C0 0 ??_ETSessionDialog@@UAEPAXI@Z
164A50 74 ?FtpProxyMethodComboAddNewItem@TSessionDialog@@AAEXHW4TProxyMethod@@@Z
164AF0 74 ?SshProxyMethodComboAddNewItem@TSessionDialog@@AAEXHW4TProxyMethod@@@Z
164B90 74 ?S3DefaultReqionComboAddNewItem@TSessionDialog@@AAEXABVUnicodeString@@H@Z
164BB0 74 ?Change@TSessionDialog@@MAEXXZ
164CB0 74 ?AdjustRemoteDir@@YAXAAVUnicodeString@@PAVTFarEdit@@1@Z
164EE0 74 ?TransferProtocolComboChange@TSessionDialog@@AAEXXZ
165270 74 ?UpdateControls@TSessionDialog@@AAEXXZ
166010 74 ?Execute@TSessionDialog@@QAE_NPAVTSessionData@@AAW4TSessionActionEnum@@@Z
168B34 74 $LN3065
168B44 74 $LN3066
168B54 74 $LN3069
168B70 74 ??R<lambda_ef0d1fd8f07a73e2b3833a1123c8ca71>@@QBE@XZ
168B90 74 ??R<lambda_a88d2a2b32198f9ed55dd5dc0601d710>@@QBE@XZ
168BB0 74 ?LoadPing@TSessionDialog@@AAEXPBVTSessionData@@@Z
168C80 74 ?FSProtocolToIndex@TSessionDialog@@ABEHW4TFSProtocol@@AA_N@Z
168CF0 74 ?GetProxyMethodCombo@TSessionDialog@@ABEPAVTFarComboBox@@XZ
168D40 74 ?GetFSProtocol@TSessionDialog@@ABE?AW4TFSProtocol@@XZ
168D80 74 ?GetProxyMethod@TSessionDialog@@ABE?AW4TProxyMethod@@XZ
168E00 74 ?GetFtps@TSessionDialog@@ABE?AW4TFtps@@XZ
168E5C 74 $LN41
168E70 74 ?CloseQuery@TSessionDialog@@MAE_NXZ
1690A0 74 ?SelectTab@TSessionDialog@@MAEXH@Z
169140 74 ?PrevTabClick@TSessionDialog@@AAEXPAVTFarButton@@AA_N@Z
169160 74 ?NextTabClick@TSessionDialog@@AAEXPAVTFarButton@@AA_N@Z
169180 74 ?ChangeTabs@TSessionDialog@@AAEXH@Z
169340 74 ?GetVisibleTabsCount@TSessionDialog@@ABEHH_N@Z
169570 74 ?CipherButtonClick@TSessionDialog@@AAEXPAVTFarButton@@AA_N@Z
1695E0 74 ?KexButtonClick@TSessionDialog@@AAEXPAVTFarButton@@AA_N@Z
169650 74 ?AuthGSSAPICheckAllowChange@TSessionDialog@@AAEXPAVTFarDialogItem@@PAXAA_N@Z
1697A0 74 ?UnixEnvironmentButtonClick@TSessionDialog@@AAEXPAVTFarButton@@AA_N@Z
1697D0 74 ?WindowsEnvironmentButtonClick@TSessionDialog@@AAEXPAVTFarButton@@AA_N@Z
169800 74 ?FillCodePageEdit@TSessionDialog@@AAEXXZ
169910 74 ?CodePageEditAdd@TSessionDialog@@AAEXI@Z
169A90 74 ?AddTab@TSessionDialog@@AAEHHABVUnicodeString@@@Z
169AE0 74 ?is@TRightsContainer@@UBE_NG@Z
169B10 74 ??0TRightsContainer@@QAE@PAVTFarDialog@@_N11PAVTFarDialogItem@@@Z
16A1E0 0 ??_ETRightsContainer@@UAEPAXI@Z
16A230 74 ?RightsButtonClick@TRightsContainer@@QAEXPAVTFarButton@@AA_N@Z
16A300 74 ?OctalEditExit@TRightsContainer@@QAEXPAVTObject@@@Z
16A490 74 ?UpdateControls@TRightsContainer@@IAEXXZ
16A64E 74 __catch$?UpdateControls@TRightsContainer@@IAEXXZ$0
16A660 74 ?Changed@TRightsContainer@@MAEXXZ
16A670 74 ?GetRights@TRightsContainer@@QAE?AVTRights@@XZ
16A740 74 ?SetRights@TRightsContainer@@QAEXABVTRights@@@Z
16A800 74 ??R<lambda_03e19a3ca4eaf71b67cdc960203f26a8>@@QBE@XZ
16A810 74 ?SetAllowUndef@TRightsContainer@@QAEX_N@Z
16A850 74 ?GetDialogGuid@TPropertiesDialog@@MBEPBU_GUID@@XZ
16A860 74 ?IsEmptyControl@TPropertiesDialog@@IBE_NH@Z
16A980 74 ??0TPropertiesDialog@@QAE@PAVTCustomFarPlugin@@PAVTStrings@@ABVUnicodeString@@PBVTRemoteTokenList@@3H@Z
16B6D0 0 ??_ETPropertiesDialog@@UAEPAXI@Z
16B760 74 ?DialogProc@TPropertiesDialog@@MAEHHHPAX@Z
16B890 74 ?Change@TPropertiesDialog@@MAEXXZ
16BD40 74 ?UpdateProperties@TPropertiesDialog@@IBEXAAVTRemoteProperties@@@Z
16C000 74 ?Execute@TPropertiesDialog@@QAE_NPAVTRemoteProperties@@@Z
16C480 74 ?is@TCopyParamsContainer@@UBE_NG@Z
16C4B0 74 ??0TCopyParamsContainer@@QAE@PAVTFarDialog@@II@Z
16D2B0 0 ??_ETCopyParamsContainer@@UAEPAXI@Z
16D300 74 ?Changed@TCopyParamsContainer@@MAEXXZ
16D360 74 ?SetParams@TCopyParamsContainer@@QAEXABVTCopyParamType@@@Z
16D650 74 $LN1415
16D670 74 ?GetParams@TCopyParamsContainer@@QBE?AVTCopyParamType@@XZ
16D9E0 74 ?ValidateMaskComboExit@TCopyParamsContainer@@IAEXPAVTObject@@@Z
16DA80 74 ?ValidateSpeedComboExit@TCopyParamsContainer@@IAEXPAVTObject@@@Z
16DB53 74 __catch$?ValidateSpeedComboExit@TCopyParamsContainer@@IAEXPAVTObject@@@Z$0
16DB70 74 ?GetDialogGuid@TCopyDialog@@MBEPBU_GUID@@XZ
16DB80 74 ??0TCopyDialog@@QAE@PAVTCustomFarPlugin@@_N1PBVTStrings@@II@Z
16E160 0 ??_ETCopyDialog@@UAEPAXI@Z
16E1B0 74 ?FormatPrompt@TCopyDialog@@IAE?AVUnicodeString@@XZ
16E4B0 74 ?DialogProc@TCopyDialog@@MAEHHHPAX@Z
16E560 74 ?Execute@TCopyDialog@@QAE_NAAVUnicodeString@@PAVTGUICopyParamType@@@Z
16EA10 74 ?CloseQuery@TCopyDialog@@MAE_NXZ
16EBF0 74 ?Change@TCopyDialog@@MAEXXZ
16EDC0 74 ?TransferSettingsButtonClick@TCopyDialog@@IAEXPAVTFarButton@@AA_N@Z
16EE10 74 ?CopyParamListerClick@TCopyDialog@@IAEXPAVTFarDialogItem@@PBU_MOUSE_EVENT_RECORD@@@Z
16EE70 74 ?CopyDialog@TWinSCPFileSystem@@IAE_N_N0PBVTStrings@@IIAAVUnicodeString@@PAVTGUICopyParamType@@@Z
16EF30 74 ?CopyParamDialog@TWinSCPPlugin@@IAE_NABVUnicodeString@@AAVTCopyParamType@@I@Z
16F080 74 ?CopyParamCustomDialog@TWinSCPPlugin@@QAE_NAAVTCopyParamType@@I@Z
16F120 74 ?GetDialogGuid@TLinkDialog@@MBEPBU_GUID@@XZ
16F130 74 ??0TLinkDialog@@QAE@PAVTCustomFarPlugin@@_N1@Z
16F5A0 74 ?Change@TLinkDialog@@MAEXXZ
16F680 74 ?LinkDialog@TWinSCPFileSystem@@IAE_NAAVUnicodeString@@0AA_N_N2@Z
16F830 74 ?GetDialogGuid@TFileSystemInfoDialog@@MBEPBU_GUID@@XZ
16F840 74 ?is@TLabelList@@UBE_NG@Z
16F870 0 ??_ETLabelList@@UAEPAXI@Z
16F930 74 ??0TFileSystemInfoDialog@@QAE@PAVTCustomFarPlugin@@$$QAV?$FastDelegate3@XABVUnicodeString@@AAUTSpaceAvailable@@AA_N@fastdelegate@@@Z
170020 0 ??_ETFileSystemInfoDialog@@UAEPAXI@Z
170150 74 ?CreateLabelArray@TFileSystemInfoDialog@@IAEPAVTLabelList@@H@Z
170240 74 ?CapabilityStr@TFileSystemInfoDialog@@IAE?AVUnicodeString@@W4TFSCapability@@@Z
170280 74 ?CapabilityStr@TFileSystemInfoDialog@@IAE?AVUnicodeString@@W4TFSCapability@@0@Z
1703F0 74 ?SpaceStr@TFileSystemInfoDialog@@IBE?AVUnicodeString@@_J@Z
1705E0 74 ?Feed@TFileSystemInfoDialog@@IAEX$$QAV?$FastDelegate3@XPAVTObject@@HABVUnicodeString@@@fastdelegate@@@Z
170C50 74 ?ControlsAddItem@TFileSystemInfoDialog@@IAEXPAVTObject@@HABVUnicodeString@@@Z
170EC0 74 ?CalculateMaxLenAddItem@TFileSystemInfoDialog@@IBEXPAVTObject@@HABVUnicodeString@@@Z
170F50 74 ?ClipboardAddItem@TFileSystemInfoDialog@@IAEXPAVTObject@@HABVUnicodeString@@@Z
1712D0 74 ?FeedControls@TFileSystemInfoDialog@@IAEXXZ
171340 74 ?SelectTab@TFileSystemInfoDialog@@MAEXH@Z
1713C0 74 ?Execute@TFileSystemInfoDialog@@QAEXABUTSessionInfo@@ABUTFileSystemInfo@@ABVUnicodeString@@@Z
171600 74 ?Key@TFileSystemInfoDialog@@MAE_NPAVTFarDialogItem@@H@Z
171630 74 ?Change@TFileSystemInfoDialog@@MAEXXZ
171670 74 ?ClipboardButtonClick@TFileSystemInfoDialog@@IAEXPAVTFarButton@@AA_N@Z
1716F0 74 ?SpaceAvailableButtonClick@TFileSystemInfoDialog@@IAEXPAVTFarButton@@AA_N@Z
171700 74 ?CheckSpaceAvailable@TFileSystemInfoDialog@@IAEXXZ
171840 74 ?SetFingerprintControl@TFileSystemInfoDialog@@IAEXABV?$FastDelegate3@XPAVTObject@@HABVUnicodeString@@@fastdelegate@@PBVTObject@@@Z
171A30 74 ?OpenDirectoryDialog@TWinSCPFileSystem@@IAE_N_NAAVUnicodeString@@PAVTBookmarkList@@@Z
172240 74 ?GetDialogGuid@TApplyCommandDialog@@MBEPBU_GUID@@XZ
172250 74 ??0TApplyCommandDialog@@QAE@PAVTCustomFarPlugin@@@Z
172940 0 ??_ETApplyCommandDialog@@UAEPAXI@Z
1729C0 74 ?Change@TApplyCommandDialog@@MAEXXZ
172B6E 74 __catch$?Change@TApplyCommandDialog@@MAEXXZ$0
172BC0 74 ?Execute@TApplyCommandDialog@@QAE_NAAVUnicodeString@@AAH@Z
172DB0 74 ?GetDialogGuid@TFullSynchronizeDialog@@MBEPBU_GUID@@XZ
172DC0 74 ??0TFullSynchronizeDialog@@QAE@PAVTCustomFarPlugin@@HABUTUsableCopyParamAttrs@@@Z
173790 0 ??_ETFullSynchronizeDialog@@UAEPAXI@Z
1737E0 74 ?AdaptSize@TFullSynchronizeDialog@@IAEXXZ
1738B0 74 ?GetMode@TFullSynchronizeDialog@@ABE?AW4TSynchronizeMode@TTerminal@@XZ
1738F0 74 ?TransferSettingsButtonClick@TFullSynchronizeDialog@@IAEXPAVTFarButton@@AA_N@Z
173950 74 ?CopyParamListerClick@TFullSynchronizeDialog@@IAEXPAVTFarDialogItem@@PBU_MOUSE_EVENT_RECORD@@@Z
173970 74 ?CustomCopyParam@TFullSynchronizeDialog@@IAEXXZ
1739C0 74 ?Change@TFullSynchronizeDialog@@MAEXXZ
173DF0 74 ?ActualCopyParamAttrs@TFullSynchronizeDialog@@IBEHXZ
173E60 74 ?CloseQuery@TFullSynchronizeDialog@@MAE_NXZ
173F70 74 ?DialogProc@TFullSynchronizeDialog@@MAEHHHPAX@Z
173FA0 74 ?Execute@TFullSynchronizeDialog@@QAE_NAAW4TSynchronizeMode@TTerminal@@AAHAAVUnicodeString@@2PAVTCopyParamType@@AA_N4@Z
174330 74 ?GetDialogGuid@TSynchronizeChecklistDialog@@MBEPBU_GUID@@XZ
174340 74 ??0TSynchronizeChecklistDialog@@QAE@PAVTCustomFarPlugin@@W4TSynchronizeMode@TTerminal@@HABVUnicodeString@@2@Z
1747C0 0 ??_ETSynchronizeChecklistDialog@@UAEPAXI@Z
1748C0 74 ?AddColumn@TSynchronizeChecklistDialog@@AAEXAAVUnicodeString@@ABV2@I_N@Z
174B30 74 ?AdaptSize@TSynchronizeChecklistDialog@@AAEXXZ
174E80 74 ?FormatSize@TSynchronizeChecklistDialog@@AAE?AVUnicodeString@@_JH@Z
175130 74 ?ItemLine@TSynchronizeChecklistDialog@@AAE?AVUnicodeString@@PBVTChecklistItem@@@Z
1756C0 74 ?LoadChecklist@TSynchronizeChecklistDialog@@AAEXXZ
1758E0 74 ?RefreshChecklist@TSynchronizeChecklistDialog@@AAEX_N@Z
175AB0 74 ??R<lambda_fc6e7a2c710c6adaca380dce68f7d9e7>@@QBE@XZ
175D10 74 ??R<lambda_72a91e9b341cb8799189fa2246bb8602>@@QBE@XZ
175D30 74 ?UpdateControls@TSynchronizeChecklistDialog@@AAEXXZ
175E90 74 ?DialogProc@TSynchronizeChecklistDialog@@MAEHHHPAX@Z
175EC0 74 ?CheckAll@TSynchronizeChecklistDialog@@AAEX_N@Z
175F30 74 ?CheckAllButtonClick@TSynchronizeChecklistDialog@@IAEXPAVTFarButton@@AA_N@Z
175F60 74 ?VideoModeButtonClick@TSynchronizeChecklistDialog@@IAEXPAVTFarButton@@AA_N@Z
175F70 74 ?ListBoxClick@TSynchronizeChecklistDialog@@IAEXPAVTFarDialogItem@@PBU_MOUSE_EVENT_RECORD@@@Z
1760B0 74 ?Key@TSynchronizeChecklistDialog@@MAE_NPAVTFarDialogItem@@H@Z
176380 74 ?Execute@TSynchronizeChecklistDialog@@QAE_NPAVTSynchronizeChecklist@@@Z
176430 74 ?GetDialogGuid@TSynchronizeDialog@@MBEPBU_GUID@@XZ
176440 74 ??0TSynchronizeDialog@@QAE@PAVTCustomFarPlugin@@$$QAV?$FastDelegate8@XPAVTObject@@_NABUTSynchronizeParamType@@ABVTCopyParamType@@PAUTSynchronizeOptions@@V?$FastDelegate2@XPAVTObject@@_N@fastdelegate@@V?$FastDelegate2@XPAVTObject@@V?$FastDelegate0@X@fastdelegate@@@6@V?$FastDelegate3@XPAVTSynchronizeController@@W4TSynchronizeLogEntry@@ABVUnicodeString@@@6@@fastdelegate@@II$$QAV?$FastDelegate2@XHAAUTSynchronizeOptions@@@3@@Z
176C90 0 ??_ETSynchronizeDialog@@UAEPAXI@Z
176D00 74 ?TransferSettingsButtonClick@TSynchronizeDialog@@IAEXPAVTFarButton@@AA_N@Z
176D20 74 ?CopyParamListerClick@TSynchronizeDialog@@IAEXPAVTFarDialogItem@@PBU_MOUSE_EVENT_RECORD@@@Z
176D40 74 ?CustomCopyParam@TSynchronizeDialog@@IAEXXZ
176E40 74 ?Execute@TSynchronizeDialog@@QAE_NAAUTSynchronizeParamType@@PBVTCopyParamType@@AA_N@Z
176FB0 74 ?GetParams@TSynchronizeDialog@@IBE?AUTSynchronizeParamType@@XZ
1771B0 74 ?DoStartStop@TSynchronizeDialog@@IAEX_N0@Z
1773D0 74 ?DoSynchronizeThreads@TSynchronizeDialog@@IAEXPAVTObject@@V?$FastDelegate0@X@fastdelegate@@@Z
177450 74 ?DialogProc@TSynchronizeDialog@@MAEHHHPAX@Z
1774F0 74 ?CloseQuery@TSynchronizeDialog@@MAE_NXZ
177510 74 ?DoAbort@TSynchronizeDialog@@IAEXPAVTObject@@_N@Z
177530 74 ?StartButtonClick@TSynchronizeDialog@@IAEXPAVTFarButton@@AA_N@Z
1776A5 74 __catch$?StartButtonClick@TSynchronizeDialog@@IAEXPAVTFarButton@@AA_N@Z$0
1776E0 74 ?StopButtonClick@TSynchronizeDialog@@IAEXPAVTFarButton@@AA_N@Z
177720 74 ?Change@TSynchronizeDialog@@MAEXXZ
1778A0 74 ?Key@TSynchronizeDialog@@MAE_NPAVTFarDialogItem@@H@Z
1778F0 74 ?UpdateControls@TSynchronizeDialog@@IAEXXZ
177A50 74 ?RemoteTransferDialog@TWinSCPFileSystem@@IAE_NPAVTStrings@@AAVUnicodeString@@1_N@Z
177CB0 74 ?RenameFileDialog@TWinSCPFileSystem@@IAE_NPAVTRemoteFile@@AAVUnicodeString@@@Z
177EC0 74 ?GetDialogGuid@TQueueDialog@@MBEPBU_GUID@@XZ
177ED0 74 ??0TQueueDialog@@QAE@V?$not_null@PAVTCustomFarPlugin@@@gsl@@V?$not_null@PAVTWinSCPFileSystem@@@2@_N@Z
178350 0 ??_ETQueueDialog@@UAEPAXI@Z
1783A0 74 ?OperationButtonClick@TQueueDialog@@AAEXPAVTFarButton@@AA_N@Z
178570 74 ?OnIdle@TQueueDialog@@AAEXPAVTObject@@PAX@Z
1785B0 74 ?Key@TQueueDialog@@MAE_NPAVTFarDialogItem@@H@Z
178650 74 ?UpdateControls@TQueueDialog@@IAEXXZ
178960 74 ?Idle@TQueueDialog@@MAEXXZ
1789B0 74 ?CloseQuery@TQueueDialog@@MAE_NXZ
178AA0 74 ?Change@TQueueDialog@@MAEXXZ
178AC0 74 ?RefreshQueue@TQueueDialog@@IAEXXZ
178D70 74 ?LoadQueue@TQueueDialog@@IAEXXZ
178F90 74 ?FillQueueItemLine@TQueueDialog@@IAE_NAAVUnicodeString@@PAVTQueueItemProxy@@H@Z
179430 74 $LN1596
179450 74 ?Execute@TQueueDialog@@QAE_NPAVTTerminalQueueStatus@@@Z
1794A0 74 ??R<lambda_60bbff90fbfffd7f2da2b286f3cdc5d2>@@QBE@XZ
1794B0 74 ?CreateDirectoryDialog@TWinSCPFileSystem@@IAE_NAAVUnicodeString@@PAVTRemoteProperties@@AA_N@Z
1798E0 74 ??1?$unique_ptr@VTQueueDialog@@U?$default_delete@VTQueueDialog@@@std@@@std@@QAE@XZ
179910 74 ??1?$unique_ptr@VTSynchronizeDialog@@U?$default_delete@VTSynchronizeDialog@@@std@@@std@@QAE@XZ
179960 74 ??R?$FastDelegate8@XPAVTObject@@_NABUTSynchronizeParamType@@ABVTCopyParamType@@PAUTSynchronizeOptions@@V?$FastDelegate2@XPAVTObject@@_N@fastdelegate@@V?$FastDelegate2@XPAVTObject@@V?$FastDelegate0@X@fastdelegate@@@6@V?$FastDelegate3@XPAVTSynchronizeController@@W4TSynchronizeLogEntry@@ABVUnicodeString@@@6@@fastdelegate@@QBEXPAVTObject@@_NABUTSynchronizeParamType@@ABVTCopyParamType@@PAUTSynchronizeOptions@@V?$FastDelegate2@XPAVTObject@@_N@1@V?$FastDelegate2@XPAVTObject@@V?$FastDelegate0@X@fastdelegate@@@1@V?$FastDelegate3@XPAVTSynchronizeController@@W4TSynchronizeLogEntry@@ABVUnicodeString@@@1@@Z
1799E0 74 ??1?$unique_ptr@VTSynchronizeChecklistDialog@@U?$default_delete@VTSynchronizeChecklistDialog@@@std@@@std@@QAE@XZ
179AD0 74 ??1?$unique_ptr@VTFullSynchronizeDialog@@U?$default_delete@VTFullSynchronizeDialog@@@std@@@std@@QAE@XZ
179B00 74 ??1?$unique_ptr@VTApplyCommandDialog@@U?$default_delete@VTApplyCommandDialog@@@std@@@std@@QAE@XZ
179B60 74 ??1?$unique_ptr@VTFileSystemInfoDialog@@U?$default_delete@VTFileSystemInfoDialog@@@std@@@std@@QAE@XZ
179C70 74 ??1?$unique_ptr@VTLinkDialog@@U?$default_delete@VTLinkDialog@@@std@@@std@@QAE@XZ
179C90 74 ??1?$unique_ptr@VTCopyDialog@@U?$default_delete@VTCopyDialog@@@std@@@std@@QAE@XZ
179CC0 74 ??1?$unique_ptr@VTPropertiesDialog@@U?$default_delete@VTPropertiesDialog@@@std@@@std@@QAE@XZ
179D30 74 ??1?$unique_ptr@VTSessionDialog@@U?$default_delete@VTSessionDialog@@@std@@@std@@QAE@XZ
179DA0 74 ??1?$scope_guard0@V<lambda_a459fd46ce61060570a1914f22fe5a92>@@$0A@@scope_exit@Sysutils@@QAE@XZ
179DD0 74 ??1?$scope_guard0@V<lambda_67bc529d6017aac3ccb804ff4788ba45>@@$0A@@scope_exit@Sysutils@@QAE@XZ
179E00 74 ??1?$scope_guard0@V<lambda_ed72acec63327820f8e1d4e4bb70a315>@@$0A@@scope_exit@Sysutils@@QAE@XZ
179E30 74 ??1?$scope_guard0@V<lambda_692a993269698aa3249242ead9a50e06>@@$0A@@scope_exit@Sysutils@@QAE@XZ
179E60 74 ??0?$scope_guard0@V<lambda_e7cadb5f7f28ece6452f68569562070c>@@$0A@@scope_exit@Sysutils@@QAE@$$QAV<lambda_e7cadb5f7f28ece6452f68569562070c>@@@Z
179E80 74 ??1?$scope_guard0@V<lambda_84483fb6983d296f479be705509d2cad>@@$0A@@scope_exit@Sysutils@@QAE@XZ
179EB0 74 ??1?$scope_guard0@V<lambda_89395659849b2841f65f0e2ba229f53a>@@$0A@@scope_exit@Sysutils@@QAE@XZ
179EE0 74 ??1?$scope_guard0@V<lambda_b335eda473f8d716dacd237c49893dc1>@@$0A@@scope_exit@Sysutils@@QAE@XZ
179F10 74 ??1?$unique_ptr@VTPasswordDialog@@U?$default_delete@VTPasswordDialog@@@std@@@std@@QAE@XZ
179F80 74 ??$MakeOwnedObject@VTFarButton@@VTCopyDialog@@@@YAPAVTFarButton@@PAVTCopyDialog@@@Z
17A030 74 ??$make_unique@VTWinSCPDialog@@PAVTCustomFarPlugin@@$0A@@std@@YA?AV?$unique_ptr@VTWinSCPDialog@@U?$default_delete@VTWinSCPDialog@@@std@@@0@$$QAPAVTCustomFarPlugin@@@Z
17A100 74 ??$MakeOwnedObject@VTFarCheckBox@@VTCopyDialog@@@@YAPAVTFarCheckBox@@PAVTCopyDialog@@@Z
17A140 74 ??$MakeOwnedObject@VTFarText@@VTAboutDialog@@@@YAPAVTFarText@@PAVTAboutDialog@@@Z
17A1D0 74 ??$MakeOwnedObject@VTFarEdit@@VTFileSystemInfoDialog@@@@YAPAVTFarEdit@@PAVTFileSystemInfoDialog@@@Z
17A210 74 ??$MakeOwnedObject@VTFarRadioButton@@VTApplyCommandDialog@@@@YAPAVTFarRadioButton@@PAVTApplyCommandDialog@@@Z
17A2B0 74 ??$MakeOwnedObject@VTFarCheckBox@@VTApplyCommandDialog@@@@YAPAVTFarCheckBox@@PAVTApplyCommandDialog@@@Z
17A2F0 74 ??$MakeOwnedObject@VTTabButton@@VTSessionDialog@@@@YAPAVTTabButton@@PAVTSessionDialog@@@Z
17A380 74 ??$MakeOwnedObject@VTFarComboBox@@VTSessionDialog@@@@YAPAVTFarComboBox@@PAVTSessionDialog@@@Z
17A3C0 74 ??$MakeOwnedObject@VTFarEdit@@VTFarDialog@@@@YAPAVTFarEdit@@PAVTFarDialog@@@Z
17A400 74 ??$MakeOwnedObject@VTFarListBox@@VTSessionDialog@@@@YAPAVTFarListBox@@PAVTSessionDialog@@@Z
17A440 74 ??$MakeOwnedObject@VTFarComboBox@@VTPropertiesDialog@@@@YAPAVTFarComboBox@@PAVTPropertiesDialog@@@Z
17A480 74 ??$Sprintf@$$BY00D@nb@@YA?AVUnicodeString@@ABV1@AAY00$$CBD@Z
17A4E0 74 ??$MakeOwnedObject@VTTabButton@@VTFileSystemInfoDialog@@@@YAPAVTTabButton@@PAVTFileSystemInfoDialog@@@Z
17A570 74 ??$Sprintf@HPB_WVUnicodeString@@@nb@@YA?AVUnicodeString@@ABV1@ABHABQB_W0@Z
17A620 74 ??0?$scope_guard@V<lambda_eb8ce7932f5fa848284f094c8df1386b>@@V<lambda_60bbff90fbfffd7f2da2b286f3cdc5d2>@@@detail@Sysutils@@QAE@$$QAV<lambda_eb8ce7932f5fa848284f094c8df1386b>@@$$QAV<lambda_60bbff90fbfffd7f2da2b286f3cdc5d2>@@@Z
17A6BF 74 __catch$??0?$scope_guard@V<lambda_eb8ce7932f5fa848284f094c8df1386b>@@V<lambda_60bbff90fbfffd7f2da2b286f3cdc5d2>@@@detail@Sysutils@@QAE@$$QAV<lambda_eb8ce7932f5fa848284f094c8df1386b>@@$$QAV<lambda_60bbff90fbfffd7f2da2b286f3cdc5d2>@@@Z$0
17A6E0 74 ??0?$scope_guard@V<lambda_3e746e60b8eebae0e53b553d7c6b8876>@@V<lambda_d0b4ff5b55f903e444f3118de4774c58>@@@detail@Sysutils@@QAE@$$QAV<lambda_3e746e60b8eebae0e53b553d7c6b8876>@@$$QAV<lambda_d0b4ff5b55f903e444f3118de4774c58>@@@Z
17A79E 74 __catch$??0?$scope_guard@V<lambda_3e746e60b8eebae0e53b553d7c6b8876>@@V<lambda_d0b4ff5b55f903e444f3118de4774c58>@@@detail@Sysutils@@QAE@$$QAV<lambda_3e746e60b8eebae0e53b553d7c6b8876>@@$$QAV<lambda_d0b4ff5b55f903e444f3118de4774c58>@@@Z$0
17A7C0 74 ??0?$scope_guard@V<lambda_fc6e7a2c710c6adaca380dce68f7d9e7>@@V<lambda_72a91e9b341cb8799189fa2246bb8602>@@@detail@Sysutils@@QAE@$$QAV<lambda_fc6e7a2c710c6adaca380dce68f7d9e7>@@$$QAV<lambda_72a91e9b341cb8799189fa2246bb8602>@@@Z
17A844 74 __catch$??0?$scope_guard@V<lambda_fc6e7a2c710c6adaca380dce68f7d9e7>@@V<lambda_72a91e9b341cb8799189fa2246bb8602>@@@detail@Sysutils@@QAE@$$QAV<lambda_fc6e7a2c710c6adaca380dce68f7d9e7>@@$$QAV<lambda_72a91e9b341cb8799189fa2246bb8602>@@@Z$0
17A860 74 ??0?$scope_guard@V<lambda_42fc8c35f3e454c0d8da14d617585f4c>@@V<lambda_4ddbf8e4faaee56321061446c50dd91b>@@@detail@Sysutils@@QAE@$$QAV<lambda_42fc8c35f3e454c0d8da14d617585f4c>@@$$QAV<lambda_4ddbf8e4faaee56321061446c50dd91b>@@@Z
17A977 74 __catch$??0?$scope_guard@V<lambda_42fc8c35f3e454c0d8da14d617585f4c>@@V<lambda_4ddbf8e4faaee56321061446c50dd91b>@@@detail@Sysutils@@QAE@$$QAV<lambda_42fc8c35f3e454c0d8da14d617585f4c>@@$$QAV<lambda_4ddbf8e4faaee56321061446c50dd91b>@@@Z$0
17A990 74 ??0?$scope_guard@V<lambda_df03a0c9f3254f9510e4a2bdca2b5700>@@V<lambda_03e19a3ca4eaf71b67cdc960203f26a8>@@@detail@Sysutils@@QAE@$$QAV<lambda_df03a0c9f3254f9510e4a2bdca2b5700>@@$$QAV<lambda_03e19a3ca4eaf71b67cdc960203f26a8>@@@Z
17AA97 74 __catch$??0?$scope_guard@V<lambda_df03a0c9f3254f9510e4a2bdca2b5700>@@V<lambda_03e19a3ca4eaf71b67cdc960203f26a8>@@@detail@Sysutils@@QAE@$$QAV<lambda_df03a0c9f3254f9510e4a2bdca2b5700>@@$$QAV<lambda_03e19a3ca4eaf71b67cdc960203f26a8>@@@Z$0
17AAC0 74 ??0?$scope_guard@V<lambda_7794f6e84b32e67eb6ff7a30b2da65a9>@@V<lambda_a88d2a2b32198f9ed55dd5dc0601d710>@@@detail@Sysutils@@QAE@$$QAV<lambda_7794f6e84b32e67eb6ff7a30b2da65a9>@@$$QAV<lambda_a88d2a2b32198f9ed55dd5dc0601d710>@@@Z
17ABF4 74 __catch$??0?$scope_guard@V<lambda_7794f6e84b32e67eb6ff7a30b2da65a9>@@V<lambda_a88d2a2b32198f9ed55dd5dc0601d710>@@@detail@Sysutils@@QAE@$$QAV<lambda_7794f6e84b32e67eb6ff7a30b2da65a9>@@$$QAV<lambda_a88d2a2b32198f9ed55dd5dc0601d710>@@@Z$0
17AC10 74 ??0?$scope_guard@V<lambda_b21c23bd302293fbe14fb9dc6dee57e7>@@V<lambda_ef0d1fd8f07a73e2b3833a1123c8ca71>@@@detail@Sysutils@@QAE@$$QAV<lambda_b21c23bd302293fbe14fb9dc6dee57e7>@@$$QAV<lambda_ef0d1fd8f07a73e2b3833a1123c8ca71>@@@Z
17AD44 74 __catch$??0?$scope_guard@V<lambda_b21c23bd302293fbe14fb9dc6dee57e7>@@V<lambda_ef0d1fd8f07a73e2b3833a1123c8ca71>@@@detail@Sysutils@@QAE@$$QAV<lambda_b21c23bd302293fbe14fb9dc6dee57e7>@@$$QAV<lambda_ef0d1fd8f07a73e2b3833a1123c8ca71>@@@Z$0
17AD60 74 ??0?$scope_guard@V<lambda_c5b3364052df87f5f931156fd1d79183>@@V<lambda_071345d4c445b6e9d6863d2c55a546d8>@@@detail@Sysutils@@QAE@$$QAV<lambda_c5b3364052df87f5f931156fd1d79183>@@$$QAV<lambda_071345d4c445b6e9d6863d2c55a546d8>@@@Z
17ADD0 74 __catch$??0?$scope_guard@V<lambda_c5b3364052df87f5f931156fd1d79183>@@V<lambda_071345d4c445b6e9d6863d2c55a546d8>@@@detail@Sysutils@@QAE@$$QAV<lambda_c5b3364052df87f5f931156fd1d79183>@@$$QAV<lambda_071345d4c445b6e9d6863d2c55a546d8>@@@Z$0
17ADF0 74 ??0?$scope_guard@V<lambda_be17ab1e5aa64502e43adf697a09a875>@@V<lambda_eb1fb199071ad5f604963b20a91a71bd>@@@detail@Sysutils@@QAE@$$QAV<lambda_be17ab1e5aa64502e43adf697a09a875>@@$$QAV<lambda_eb1fb199071ad5f604963b20a91a71bd>@@@Z
17AE74 74 __catch$??0?$scope_guard@V<lambda_be17ab1e5aa64502e43adf697a09a875>@@V<lambda_eb1fb199071ad5f604963b20a91a71bd>@@@detail@Sysutils@@QAE@$$QAV<lambda_be17ab1e5aa64502e43adf697a09a875>@@$$QAV<lambda_eb1fb199071ad5f604963b20a91a71bd>@@@Z$0
17AE90 74 ??0?$scope_guard@V<lambda_7ae1e834f84be4e370c9d972e49bb7ac>@@V<lambda_205b227a4850e1f11f8ba414c02d2e19>@@@detail@Sysutils@@QAE@$$QAV<lambda_7ae1e834f84be4e370c9d972e49bb7ac>@@$$QAV<lambda_205b227a4850e1f11f8ba414c02d2e19>@@@Z
17AF24 74 __catch$??0?$scope_guard@V<lambda_7ae1e834f84be4e370c9d972e49bb7ac>@@V<lambda_205b227a4850e1f11f8ba414c02d2e19>@@@detail@Sysutils@@QAE@$$QAV<lambda_7ae1e834f84be4e370c9d972e49bb7ac>@@$$QAV<lambda_205b227a4850e1f11f8ba414c02d2e19>@@@Z$0
17AF40 74 ??0?$scope_guard@V<lambda_c504214f6159a54823bc4c2187c98b4f>@@V<lambda_02164f65ce1d68c71f2557308f6aadda>@@@detail@Sysutils@@QAE@$$QAV<lambda_c504214f6159a54823bc4c2187c98b4f>@@$$QAV<lambda_02164f65ce1d68c71f2557308f6aadda>@@@Z
17B08D 74 __catch$??0?$scope_guard@V<lambda_c504214f6159a54823bc4c2187c98b4f>@@V<lambda_02164f65ce1d68c71f2557308f6aadda>@@@detail@Sysutils@@QAE@$$QAV<lambda_c504214f6159a54823bc4c2187c98b4f>@@$$QAV<lambda_02164f65ce1d68c71f2557308f6aadda>@@@Z$0
17B0B0 74 ??0?$scope_guard@V<lambda_f1f7cc80d130acd90bc228d1c9cfef78>@@V<lambda_c5d82d756a4580e2cc9d537416d1143c>@@@detail@Sysutils@@QAE@$$QAV<lambda_f1f7cc80d130acd90bc228d1c9cfef78>@@$$QAV<lambda_c5d82d756a4580e2cc9d537416d1143c>@@@Z
17B1B7 74 __catch$??0?$scope_guard@V<lambda_f1f7cc80d130acd90bc228d1c9cfef78>@@V<lambda_c5d82d756a4580e2cc9d537416d1143c>@@@detail@Sysutils@@QAE@$$QAV<lambda_f1f7cc80d130acd90bc228d1c9cfef78>@@$$QAV<lambda_c5d82d756a4580e2cc9d537416d1143c>@@@Z$0
17B1E0 74 ??0?$scope_guard@V<lambda_7af7a1e3b567bc8a64f9a3f74305163a>@@V<lambda_ab66da164aad72b679a0fe7f71c57a40>@@@detail@Sysutils@@QAE@$$QAV<lambda_7af7a1e3b567bc8a64f9a3f74305163a>@@$$QAV<lambda_ab66da164aad72b679a0fe7f71c57a40>@@@Z
17B2D0 74 __catch$??0?$scope_guard@V<lambda_7af7a1e3b567bc8a64f9a3f74305163a>@@V<lambda_ab66da164aad72b679a0fe7f71c57a40>@@@detail@Sysutils@@QAE@$$QAV<lambda_7af7a1e3b567bc8a64f9a3f74305163a>@@$$QAV<lambda_ab66da164aad72b679a0fe7f71c57a40>@@@Z$0
17B2F0 74 ??0?$scope_guard@V<lambda_cd30ddef21a962e68d0838aa90655a67>@@V<lambda_30f443d2eddae75843957470b7f3b3bc>@@@detail@Sysutils@@QAE@$$QAV<lambda_cd30ddef21a962e68d0838aa90655a67>@@$$QAV<lambda_30f443d2eddae75843957470b7f3b3bc>@@@Z
17B388 74 __catch$??0?$scope_guard@V<lambda_cd30ddef21a962e68d0838aa90655a67>@@V<lambda_30f443d2eddae75843957470b7f3b3bc>@@@detail@Sysutils@@QAE@$$QAV<lambda_cd30ddef21a962e68d0838aa90655a67>@@$$QAV<lambda_30f443d2eddae75843957470b7f3b3bc>@@@Z$0
17B3A0 74 ??0?$scope_guard@V<lambda_b196ed2959766bb5819e43ea5b35d0df>@@V<lambda_8011b5b52d2d9c944adeab607a98c7b7>@@@detail@Sysutils@@QAE@$$QAV<lambda_b196ed2959766bb5819e43ea5b35d0df>@@$$QAV<lambda_8011b5b52d2d9c944adeab607a98c7b7>@@@Z
17B43C 74 __catch$??0?$scope_guard@V<lambda_b196ed2959766bb5819e43ea5b35d0df>@@V<lambda_8011b5b52d2d9c944adeab607a98c7b7>@@@detail@Sysutils@@QAE@$$QAV<lambda_b196ed2959766bb5819e43ea5b35d0df>@@$$QAV<lambda_8011b5b52d2d9c944adeab607a98c7b7>@@@Z$0
17B450 74 ??0?$scope_guard@V<lambda_a0a023a6f907fdfd930eaa541c640335>@@V<lambda_65ca789e3f7809f395f42c69d7e583a1>@@@detail@Sysutils@@QAE@$$QAV<lambda_a0a023a6f907fdfd930eaa541c640335>@@$$QAV<lambda_65ca789e3f7809f395f42c69d7e583a1>@@@Z
17B5CD 74 __catch$??0?$scope_guard@V<lambda_a0a023a6f907fdfd930eaa541c640335>@@V<lambda_65ca789e3f7809f395f42c69d7e583a1>@@@detail@Sysutils@@QAE@$$QAV<lambda_a0a023a6f907fdfd930eaa541c640335>@@$$QAV<lambda_65ca789e3f7809f395f42c69d7e583a1>@@@Z$0
17B5E0 74 ??0?$scope_guard@V<lambda_db1f504d0d1d5550a777d9eb88341e23>@@V<lambda_325b6c70d9fd0a5703090a8f74c1bde9>@@@detail@Sysutils@@QAE@$$QAV<lambda_db1f504d0d1d5550a777d9eb88341e23>@@$$QAV<lambda_325b6c70d9fd0a5703090a8f74c1bde9>@@@Z
17B681 74 __catch$??0?$scope_guard@V<lambda_db1f504d0d1d5550a777d9eb88341e23>@@V<lambda_325b6c70d9fd0a5703090a8f74c1bde9>@@@detail@Sysutils@@QAE@$$QAV<lambda_db1f504d0d1d5550a777d9eb88341e23>@@$$QAV<lambda_325b6c70d9fd0a5703090a8f74c1bde9>@@@Z$0
17B6A0 74 ??$make_unique@VTFarText@@AAPAVTSessionDialog@@$0A@@std@@YA?AV?$unique_ptr@VTFarText@@U?$default_delete@VTFarText@@@std@@@0@AAPAVTSessionDialog@@@Z
17B740 76 ?is@TWinSCPPlugin@@UBE_NG@Z
17B770 0 ??_ETWinSCPPlugin@@UAEPAXI@Z
17B810 76 ?HandlesFunction@TWinSCPPlugin@@MBE_NW4THandlesFunction@@@Z
17B830 76 ?SetStartupInfo@TWinSCPPlugin@@UAEXPBUPluginStartupInfo@@@Z
17B881 76 __catch$?SetStartupInfo@TWinSCPPlugin@@UAEXPBUPluginStartupInfo@@@Z$0
17B8A0 76 ?GetPluginInfoEx@TWinSCPPlugin@@MAEXAA_KPAVTStrings@@111@Z
17BAF0 76 ?ConfigureEx@TWinSCPPlugin@@MAE_NPBU_GUID@@@Z
17BF80 76 ?ProcessEditorEventEx@TWinSCPPlugin@@MAEHPBUProcessEditorEventInfo@@@Z
17C050 76 ?ProcessEditorInputEx@TWinSCPPlugin@@MAEHPBU_INPUT_RECORD@@@Z
17C0A0 76 ?OpenPluginEx@TWinSCPPlugin@@MAEPAVTCustomFarFileSystem@@W4OPENFROM@@H@Z
17C700 76 ?ParseCommandLine@TWinSCPPlugin@@AAEXAAVUnicodeString@@PBVTOptions@@@Z
17C990 76 ?CommandsMenu@TWinSCPPlugin@@IAEX_N@Z
17D5E0 76 ?ShowExtendedException@TWinSCPPlugin@@QAEXPAVException@@@Z
17D6A0 76 ?HandleException@TWinSCPPlugin@@UAEXPAVException@@_K@Z
17D6D0 76 ?is@TFarMessageData@@UBE_NG@Z
17D6F0 0 ??_ETFarMessageData@@UAEPAXI@Z
17D720 76 ?MessageClick@TWinSCPPlugin@@IAEXPAXHAA_N@Z
17D7A0 76 ?MoreMessageDialog@TWinSCPPlugin@@QAEIABVUnicodeString@@PAVTStrings@@W4TQueryType@@IPBUTMessageParams@@@Z
17E200 76 $LN1697
17E210 76 ?CleanupConfiguration@TWinSCPPlugin@@AAEXXZ
17E4E0 76 ??1?$unique_ptr@VTWinSCPFileSystem@@U?$default_delete@VTWinSCPFileSystem@@@std@@@std@@QAE@XZ
17E500 19 ?is@TFarConfiguration@@UBE_NG@Z
17E530 19 ?TemporaryDir@TFarConfiguration@@UBE?AVUnicodeString@@_N@Z
17E550 19 ??0TFarConfiguration@@QAE@V?$not_null@PAVTCustomFarPlugin@@@gsl@@@Z
17E7B0 0 ??_ETFarConfiguration@@UAEPAXI@Z
17E8F0 19 ?Default@TFarConfiguration@@UAEXXZ
17EC70 19 ?CreateScpStorage@TFarConfiguration@@UAEPAVTHierarchicalStorage@@AA_N@Z
17EEE0 19 ?Saved@TFarConfiguration@@MAEXXZ
17EF20 19 ?ConfigurationInit@TFarConfiguration@@MAEXXZ
17F050 19 ?SaveData@TFarConfiguration@@MAEXPAVTHierarchicalStorage@@_N@Z
180E60 19 ?LoadData@TFarConfiguration@@MAEXPAVTHierarchicalStorage@@@Z
182F00 19 ?SaveFarConfiguration@TFarConfiguration@@QAEX_N0@Z
182F50 19 ??R<lambda_08252c5c537287bcb8f6de29c4efdefe>@@QBE@XZ
182F60 19 ?GetConfirmationsSetting@TFarConfiguration@@ABEHAAPAXPB_W@Z
182FD0 19 ?GetConfirmationsSettings@TFarConfiguration@@ABEHXZ
183170 19 ?GetConfirmOverwriting@TFarConfiguration@@MBE_NXZ
1831E0 19 ?SetConfirmOverwriting@TFarConfiguration@@MAEX_N@Z
1832F0 19 ?GetConfirmDeleting@TFarConfiguration@@QBE_NXZ
183330 19 ?ModuleFileName@TFarConfiguration@@MBE?AVUnicodeString@@XZ
183350 19 ?SetBookmarks@TFarConfiguration@@QAEXABVUnicodeString@@PBVTBookmarkList@@@Z
1833D0 19 ?GetFarConfiguration@@YAPAVTFarConfiguration@@XZ
183400 19 ??1?$unique_ptr@VTBookmarks@@U?$default_delete@VTBookmarks@@@std@@@std@@QAE@XZ
1834B0 19 ??0?$scope_guard@V<lambda_541a9b327bb2e83bee04373348e61875>@@V<lambda_08252c5c537287bcb8f6de29c4efdefe>@@@detail@Sysutils@@QAE@$$QAV<lambda_541a9b327bb2e83bee04373348e61875>@@$$QAV<lambda_08252c5c537287bcb8f6de29c4efdefe>@@@Z
1835AA 19 __catch$??0?$scope_guard@V<lambda_541a9b327bb2e83bee04373348e61875>@@V<lambda_08252c5c537287bcb8f6de29c4efdefe>@@@detail@Sysutils@@QAE@$$QAV<lambda_541a9b327bb2e83bee04373348e61875>@@$$QAV<lambda_08252c5c537287bcb8f6de29c4efdefe>@@@Z$0
1835C0 21 ?ShowExtendedException@@YAXPAVException@@@Z
183600 21 ?GetSshVersionString@@YA?AVUnicodeString@@XZ
183770 21 ?threadstartroutine@@YGKPAX@Z
183780 21 ??$ValidateMaskEditT@VTFarEdit@@@@YAXABVUnicodeString@@PAVTFarEdit@@H@Z
183838 21 __catch$??$ValidateMaskEditT@VTFarEdit@@@@YAXABVUnicodeString@@PAVTFarEdit@@H@Z$0
183870 79 ?VisitEnter@XMLVisitor@tinyxml2@@UAE_NABVXMLElement@2@PBVXMLAttribute@2@@Z
183880 0 ??_EXMLVisitor@tinyxml2@@UAEPAXI@Z
1838C0 79 ?SetAttribute@XMLElement@tinyxml2@@QAEXPBD0@Z
183940 79 ?RootElement@XMLDocument@tinyxml2@@QAEPAVXMLElement@2@XZ
183960 79 ?CompactMode@XMLPrinter@tinyxml2@@MAE_NABVXMLElement@2@@Z
183970 0 ??_EXMLPrinter@tinyxml2@@UAEPAXI@Z
1839D0 79 ??0TXmlStorage@@QAE@ABVUnicodeString@@0@Z
183AE0 0 ??_ETXmlStorage@@UAEPAXI@Z
183C50 79 ?ReadXml@TXmlStorage@@AAE_NXZ
183FF0 79 ?SetAccessModeProtected@TXmlStorage@@MAEXW4TStorageAccessMode@@@Z
184130 79 ?DoKeyExists@TXmlStorage@@MAE_NABVUnicodeString@@_N@Z
184220 79 ?DoOpenSubKey@TXmlStorage@@MAE_NABVUnicodeString@@_N@Z
1843E0 79 ?DoCloseSubKey@TXmlStorage@@MAEXXZ
184410 79 ?DoDeleteSubKey@TXmlStorage@@MAE_NABVUnicodeString@@@Z
184470 79 ?DoGetSubKeyNames@TXmlStorage@@MAEXPAVTStrings@@@Z
1845D0 79 ?DoGetValueNames@TXmlStorage@@MAEXPAVTStrings@@@Z
1845E0 79 ?AddNewElement@TXmlStorage@@AAEXABVUnicodeString@@0@Z
1846E0 79 ?GetSubKeyText@TXmlStorage@@ABE?AVUnicodeString@@ABV2@@Z
184840 79 ?FindElement@TXmlStorage@@ABEPAVXMLElement@tinyxml2@@ABVUnicodeString@@@Z
184990 79 ?FindChildElement@TXmlStorage@@ABEPAVXMLElement@tinyxml2@@ABVAnsiString@@@Z
184A20 79 ?GetValue@TXmlStorage@@ABE?AVUnicodeString@@PBVXMLElement@tinyxml2@@@Z
184BD0 79 ?DoValueExists@TXmlStorage@@MAE_NABVUnicodeString@@_N@Z
184BF0 79 ?DoBinaryDataSize@TXmlStorage@@MAEHABVUnicodeString@@@Z
184C00 79 ?DoReadBool@TXmlStorage@@MAE_NABVUnicodeString@@_N@Z
184D80 79 ?DoReadInteger@TXmlStorage@@MAEHABVUnicodeString@@HPBV?$map@VUnicodeString@@HU?$less@VUnicodeString@@@std@@U?$custom_nballocator_t@U?$pair@$$CBVUnicodeString@@H@std@@@nb@@@std@@@Z
184E00 79 ?DoReadInt64@TXmlStorage@@MAE_JABVUnicodeString@@_J@Z
184E90 79 ?DoReadDateTime@TXmlStorage@@MAE?AVTDateTime@@ABVUnicodeString@@ABV2@@Z
184F10 79 ?DoReadFloat@TXmlStorage@@MAENABVUnicodeString@@N@Z
184F80 79 ?DoReadStringRaw@TXmlStorage@@MAE?AVUnicodeString@@ABV2@0@Z
185000 79 ?DoReadBinaryData@TXmlStorage@@MAEHABVUnicodeString@@PAXH@Z
185010 79 ?DoWriteBool@TXmlStorage@@MAEXABVUnicodeString@@_N@Z
1850C0 79 ?DoWriteInteger@TXmlStorage@@MAEXABVUnicodeString@@H@Z
1851A0 79 ?DoWriteInt64@TXmlStorage@@MAEXABVUnicodeString@@_J@Z
185280 79 ?DoWriteStringRaw@TXmlStorage@@MAEXABVUnicodeString@@0@Z
1852E0 79 ?DoWriteBinaryData@TXmlStorage@@MAEXABVUnicodeString@@PBEH@Z
1854A0 18 ?Get@PluginSettings@@QAE_KIPB_W_K@Z
185500 18 ?Get@PluginSettings@@QAEIIPB_WPAXI@Z
185580 0 ??_ETFar3Storage@@UAEPAXI@Z
185640 18 ?Init@TFar3Storage@@EAEXXZ
185650 18 ?DoOpenSubKey@TFar3Storage@@UAE_NABVUnicodeString@@_N@Z
1857F0 18 ?DoCloseSubKey@TFar3Storage@@UAEXXZ
185830 18 ?DoDeleteSubKey@TFar3Storage@@UAE_NABVUnicodeString@@@Z
1859F0 18 ?DoGetSubKeyNames@TFar3Storage@@UAEXPAVTStrings@@@Z
185B60 18 ?DoGetValueNames@TFar3Storage@@UAEXPAVTStrings@@@Z
185C80 18 ?DoDeleteValue@TFar3Storage@@UAE_NABVUnicodeString@@@Z
185CC0 18 ?DoBinaryDataSize@TFar3Storage@@UAEHABVUnicodeString@@@Z
185D10 18 ?DoKeyExists@TFar3Storage@@UAE_NABVUnicodeString@@_N@Z
185DE0 18 ?DoValueExists@TFar3Storage@@UAE_NABVUnicodeString@@_N@Z
185E30 18 ?DoReadBool@TFar3Storage@@UAE_NABVUnicodeString@@_N@Z
185E90 18 ?DoReadDateTime@TFar3Storage@@UAE?AVTDateTime@@ABVUnicodeString@@ABV2@@Z
185F00 18 ?DoReadFloat@TFar3Storage@@UAENABVUnicodeString@@N@Z
185F60 18 ?DoReadInteger@TFar3Storage@@UAEHABVUnicodeString@@HPBV?$map@VUnicodeString@@HU?$less@VUnicodeString@@@std@@U?$custom_nballocator_t@U?$pair@$$CBVUnicodeString@@H@std@@@nb@@@std@@@Z
185F90 18 ?DoReadInt64@TFar3Storage@@UAE_JABVUnicodeString@@_J@Z
185FC0 18 ?DoReadStringRaw@TFar3Storage@@UAE?AVUnicodeString@@ABV2@0@Z
186060 18 ?DoReadBinaryData@TFar3Storage@@UAEHABVUnicodeString@@PAXH@Z
186090 18 ?DoWriteBool@TFar3Storage@@UAEXABVUnicodeString@@_N@Z
186110 18 ?DoWriteStringRaw@TFar3Storage@@UAEXABVUnicodeString@@0@Z
186160 18 ?DoWriteInteger@TFar3Storage@@UAEXABVUnicodeString@@H@Z
1861C0 18 ?DoWriteInt64@TFar3Storage@@UAEXABVUnicodeString@@_J@Z
186220 18 ?DoWriteBinaryData@TFar3Storage@@UAEXABVUnicodeString@@PBEH@Z
186280 45 ?AnswerNameAndCaption@@YAXIAAVUnicodeString@@0@Z
186644 45 $LN230
186660 45 $LN229
1866A0 91 ?nbstr_realloc@@YGPAUCMStringData@@PAU1@HH@Z
186710 91 ?nbstr_getNil@@YGPAUCMStringData@@XZ
186750 91 ??0?$CMStringT@_WV?$NBChTraitsCRT@_W@@@@QAE@PBDHH@Z
1867C0 91 ??0?$CMStringT@_WV?$NBChTraitsCRT@_W@@@@QAE@PBDH@Z
186820 91 ??0?$CMStringT@_WV?$NBChTraitsCRT@_W@@@@QAE@PB_WH@Z
186880 91 ??Y?$CMStringT@_WV?$NBChTraitsCRT@_W@@@@QAEAAV0@PBD@Z
1869E0 91 ?Delete@?$CMStringT@_WV?$NBChTraitsCRT@_W@@@@QAEHHH@Z
186A70 91 ?Insert@?$CMStringT@_WV?$NBChTraitsCRT@_W@@@@QAEHHPB_W@Z
186B10 91 ?Mid@?$CMStringT@_WV?$NBChTraitsCRT@_W@@@@QBE?AV1@HH@Z
186B90 91 ??0?$CMStringT@DV?$NBChTraitsCRT@D@@@@QAE@PB_WHH@Z
186C10 91 ??0?$CMStringT@DV?$NBChTraitsCRT@D@@@@QAE@PB_WH@Z
186C80 91 ??0?$CMStringT@DV?$NBChTraitsCRT@D@@@@QAE@PBDH@Z
186CD0 91 ?Mid@?$CMStringT@DV?$NBChTraitsCRT@D@@@@QBE?AV1@HH@Z
186D60 91 ?Append@?$CMSimpleStringT@_W@@QAEXPB_WH@Z
186DF0 91 ?Append@?$CMSimpleStringT@D@@QAEXPBDH@Z
186E70 87 ?ReplaceStr@@YA?AVUnicodeString@@ABV1@00@Z
186E90 87 ?StartsStr@@YA_NABVUnicodeString@@0@Z
186ED0 87 ?EndsStr@@YA_NABVUnicodeString@@0@Z
186F80 87 ?LeftStr@@YA?AVUnicodeString@@ABV1@H@Z
186FA0 87 ?EncodeBase64@@YA?AVUnicodeString@@PBDH@Z
186FF0 87 ?DecodeBase64@@YA?AV?$vector@EU?$custom_nballocator_t@E@nb@@@std@@ABVUnicodeString@@@Z
187000 89 ??0AnsiString@@QAE@PBD@Z
187070 89 ??0AnsiString@@QAE@ABVRawByteString@@@Z
1870D0 89 ?Init@AnsiString@@AAEXPBDH@Z
187170 89 ??0RawByteString@@QAE@PB_W@Z
1871D0 89 ?Init@RawByteString@@AAEXPB_WH@Z
187230 89 ?Init@RawByteString@@AAEXPBDH@Z
1872D0 89 ??BRawByteString@@QBE?AVUnicodeString@@XZ
1872F0 89 ?Pos@RawByteString@@QBEHD@Z
187320 89 ?Delete@RawByteString@@QAEAAV1@HH@Z
187380 89 ?Insert@RawByteString@@QAEAAV1@PBDH@Z
187410 89 ?SubString@RawByteString@@QBE?AV1@HH@Z
1874B0 89 ?ThrowIfOutOfRange@RawByteString@@ABEXH@Z
187530 89 ?TrimRight@RawByteString@@QBE?AV1@XZ
187620 89 ??4RawByteString@@QAEAAV0@ABVUnicodeString@@@Z
187640 89 ??HRawByteString@@QBE?AV0@ABV0@@Z
187760 89 ??YRawByteString@@QAEAAV0@ABV0@@Z
1877F0 89 ??0UTF8String@@QAE@ABVUnicodeString@@@Z
187810 89 ?Init@UTF8String@@AAEXPB_WH@Z
187870 89 ??HUTF8String@@QBE?AV0@ABV0@@Z
187980 89 ??0UnicodeString@@QAE@ABV0@@Z
1879A0 89 ??0UnicodeString@@QAE@PB_W@Z
1879E0 89 ??0UnicodeString@@QAE@PBD@Z
187A20 89 ?Init@UnicodeString@@AAEXPB_WH@Z
187AD0 89 ?Init@UnicodeString@@AAEXPBDHH@Z
187B30 89 ?SetLength@UnicodeString@@QAEPA_WH@Z
187B50 89 ?Lower@UnicodeString@@QAEAAV1@H@Z
187C20 89 ?Replace@UnicodeString@@QAEAAV1@HHPB_WH@Z
187D30 89 ?Insert@UnicodeString@@QAEAAV1@HPB_WH@Z
187DD0 89 ?Pos@UnicodeString@@QBEH_W@Z
187E00 89 ?Pos@UnicodeString@@QBEHABV1@@Z
187E40 89 ?SubStr@UnicodeString@@QBE?AV1@HH@Z
187EB0 89 ?SubStr@UnicodeString@@QBE?AV1@H@Z
187F20 89 ?SubString@UnicodeString@@QBE?AV1@HH@Z
187F40 89 ?LastDelimiter@UnicodeString@@QBEHABV1@@Z
187F80 89 ??4UnicodeString@@QAEAAV0@ABV0@@Z
187FA0 89 ??4UnicodeString@@QAEAAV0@PB_W@Z
187FE0 89 ??4UnicodeString@@QAEAAV0@PBD@Z
188020 89 ??HUnicodeString@@QBE?AV0@ABV0@@Z
188120 89 ??YUnicodeString@@QAEAAV0@ABV0@@Z
188140 89 ??YUnicodeString@@QAEAAV0@PB_W@Z
188180 89 ??YUnicodeString@@QAEAAV0@_W@Z
1881C0 89 ??AUnicodeString@@QBE_WH@Z
1881E0 89 ??AUnicodeString@@QAEAA_WH@Z
188210 89 ??H@YA?AVUnicodeString@@ABV0@_W@Z
188270 89 ??H@YA?AVUnicodeString@@PB_WABV0@@Z
1882F0 89 ??H@YA?AVUnicodeString@@ABV0@PB_W@Z
188380 89 ??H@YA?AVUnicodeString@@ABV0@PBD@Z
188400 89 ??8@YA_NABVUnicodeString@@PB_W@Z
188450 89 ??9@YA_NABVUnicodeString@@PB_W@Z
1884A0 89 ?Mid@?$CMStringT@EV?$NBChTraitsCRT@E@@@@QBE?AV1@HH@Z
188550 88 ?is@EOSError@@UBE_NG@Z
188570 88 ??0EOSError@@QAE@ABVUnicodeString@@K@Z
1885B0 88 ?MB2W@@YA?AVUnicodeString@@PBDI@Z
1885E0 88 ??0Exception@@QAE@ABVUnicodeString@@@Z
188610 88 ??0Exception@@QAE@GPB_W@Z
188690 88 ??0Exception@@QAE@PB_W@Z
188730 88 ?RaiseLastOSError@@YAXK@Z
1887F0 88 ??0EOSError@@QAE@ABV0@@Z
188830 88 ?Random@@YAHH@Z
188880 88 ?IntToStr@Sysutils@@YA?AVUnicodeString@@H@Z
188930 88 ?Int64ToStr@Sysutils@@YA?AVUnicodeString@@_J@Z
1889D0 88 ?StrToInt64@Sysutils@@YA_JABVUnicodeString@@@Z
188A00 88 ?StrToIntDef@Sysutils@@YAHABVUnicodeString@@H@Z
188A30 88 ?TryStrToInt64@Sysutils@@YA_NABVUnicodeString@@AA_J@Z
188AD0 88 ?TryStrToInt@Sysutils@@YA_NABVUnicodeString@@AAH@Z
188B00 88 ?Trim@Sysutils@@YA?AVUnicodeString@@ABV2@@Z
188BA0 88 ?TrimLeft@Sysutils@@YA?AVUnicodeString@@ABV2@@Z
188CB0 88 ?TrimRight@Sysutils@@YA?AVUnicodeString@@ABV2@@Z
188DE0 88 ?RightCutToLength@Sysutils@@YA?AVUnicodeString@@ABV2@H0@Z
188EC0 88 ?UpperCase@Sysutils@@YA?AVUnicodeString@@ABV2@@Z
188F50 88 ?LowerCase@Sysutils@@YA?AVUnicodeString@@ABV2@@Z
188FE0 88 ?AnsiReplaceStr@Sysutils@@YA?AVUnicodeString@@ABV2@00@Z
189040 88 ?Pos@Sysutils@@YAHABVUnicodeString@@0@Z
1890E0 88 ?IsDelimiter@Sysutils@@YA_NABVUnicodeString@@0H@Z
189140 88 ?FirstDelimiter@Sysutils@@YAHABVUnicodeString@@0@Z
189190 88 ?AnsiSameText@Sysutils@@YA_NABVUnicodeString@@0@Z
1891B0 88 ?ContainsStr@Sysutils@@YA_NABVUnicodeString@@0@Z
1891F0 88 ?PosEx@Sysutils@@YAHABVUnicodeString@@0H@Z
189280 88 ?UTF8ToString@Sysutils@@YA?AVUnicodeString@@PBDH@Z
189390 88 ?StrToFloatDef@Sysutils@@YANABVUnicodeString@@N@Z
1893B0 88 ?IsZero@Sysutils@@YA_NN@Z
1893D0 88 ?DateTimeToTimeStamp@Sysutils@@YA?AUTTimeStamp@@ABVTDateTime@@@Z
189430 88 ?FileSeek@Sysutils@@YA_JPAX_JK@Z
189460 88 ?FileSearch@Sysutils@@YA?AVUnicodeString@@ABV2@0@Z
1896B0 88 ?FileGetAttr@Sysutils@@YAKABVUnicodeString@@_N@Z
189710 88 ?FileSetAttr@Sysutils@@YA_NABVUnicodeString@@K@Z
189770 88 ?CreateDir@Sysutils@@YA_NABVUnicodeString@@PAU_SECURITY_ATTRIBUTES@@@Z
1897D0 88 ?RemoveDir@Sysutils@@YA_NABVUnicodeString@@@Z
189830 88 ?ForceDirectories@Sysutils@@YA_NABVUnicodeString@@@Z
189960 88 ?NextWord@Sysutils@@YAPB_WPB_W@Z
189A70 88 ?WrapText@Sysutils@@YA?AVUnicodeString@@ABV2@H@Z
189CB0 88 ?ExpandEnvVars@Sysutils@@YA?AVUnicodeString@@ABV2@@Z
189D30 88 ?StringOfChar@Sysutils@@YA?AVUnicodeString@@_WH@Z
189DE0 88 ?ExtractFileExt@Sysutils@@YA?AVUnicodeString@@ABV2@@Z
189E90 88 ?ExpandFileName@Sysutils@@YA?AVUnicodeString@@ABV2@@Z
189F40 88 ?ExpandUNCFileName@Sysutils@@YA?AVUnicodeString@@ABV2@@Z
18A0A0 88 ?FindMatchingFile@Sysutils@@YAKAAUTSearchRec@1@@Z
18A1A0 88 ?SysErrorMessage@Sysutils@@YA?AVUnicodeString@@K@Z
18A280 88 ?ReplaceStrAll@Sysutils@@YA?AVUnicodeString@@ABV2@00@Z
18A340 88 ?ExtractDirectory@Sysutils@@YA?AVUnicodeString@@ABV2@_W@Z
18A380 88 ?CharInSet@Sysutils@@YA_N_WABVUnicodeString@@@Z
18A3B0 88 ?ExtractFileDrive@Sysutils@@YA?AVUnicodeString@@ABV2@@Z
18A7E0 88 ?ExtractFilename@Sysutils@@YA?AVUnicodeString@@ABV2@_W@Z
18A830 88 ?ChangeFileExtension@Sysutils@@YA?AVUnicodeString@@ABV2@0_W@Z
18AA10 88 ?ExcludeTrailingBackslash@Sysutils@@YA?AVUnicodeString@@ABV2@@Z
18AAE0 88 ?IncludeTrailingBackslash@Sysutils@@YA?AVUnicodeString@@ABV2@@Z
18ABC0 88 ?ExtractFileDir@Sysutils@@YA?AVUnicodeString@@ABV2@@Z
18ADB0 88 ?IntToHex@Sysutils@@YA?AVUnicodeString@@II@Z
18AE80 88 ?ConvertError@Sysutils@@YAXH@Z
18AEE0 88 ?DecodeDateFully@Sysutils@@YA_NABVTDateTime@@AAG111@Z
18B0D0 88 ?DecodeDate@Sysutils@@YAXABVTDateTime@@AAG11@Z
18B0F0 88 ?DecodeTime@Sysutils@@YAXABVTDateTime@@AAG111@Z
18B1A0 88 ?TryEncodeDate@Sysutils@@YA_NGGGAAVTDateTime@@@Z
18B2F0 88 ?TryEncodeTime@Sysutils@@YA_NIIIIAAVTDateTime@@@Z
18B360 88 ?TryStrToDateTime@Sysutils@@YA_NABVUnicodeString@@AAVTDateTime@@ABUTFormatSettings@1@@Z
18B370 88 ?DateTimeToString@Sysutils@@YA?AVUnicodeString@@ABV2@ABVTDateTime@@@Z
18B5E0 88 ?DayOfWeek@Sysutils@@YAIABVTDateTime@@@Z
18B660 88 ?Date@Sysutils@@YA?AVTDateTime@@XZ
18B6D0 88 ?FormatDateTime@Sysutils@@YA?AVUnicodeString@@ABV2@ABVTDateTime@@@Z
18BA80 88 ?IncYear@Sysutils@@YA?AVTDateTime@@ABV2@_J@Z
18BAD0 88 ?IncMonth@Sysutils@@YA?AVTDateTime@@ABV2@_J@Z
18BD00 88 ?IncSecond@Sysutils@@YA?AVTDateTime@@ABV2@_J@Z
18BD80 88 ?IncMilliSecond@Sysutils@@YA?AVTDateTime@@ABV2@_J@Z
18BE00 88 ?MilliSecondsBetween@Sysutils@@YA_JABVTDateTime@@0@Z
18BE80 88 ?StripHotkey@Sysutils@@YA?AVUnicodeString@@ABV2@@Z
18BFB0 88 ?StrToVersionNumber@Sysutils@@YAIABVUnicodeString@@@Z
18C0C0 88 ?VersionNumberToStr@Sysutils@@YA?AVUnicodeString@@I@Z
18C190 88 ??0TFormatSettings@Sysutils@@QAE@K@Z
18C490 0 ??_ETFormatSettings@Sysutils@@UAEPAXI@Z
18C4D0 88 ?Combine@TPath@Sysutils@@SA?AVUnicodeString@@ABV3@0@Z
18C540 88 ?Join@TUnixPath@Sysutils@@SA?AVUnicodeString@@ABV3@0@Z
18C5B0 88 ?MilliSecondOfTheYear@Sysutils@@YA_JABVTDateTime@@@Z
18C6A0 88 ?TryStringToGUID@Sysutils@@YA_NABVUnicodeString@@AAU_GUID@@@Z
18C9D0 88 ??R<lambda_b23c14443044677a2a1aa02b92f516d1>@@QBEEXZ
18CA30 88 ?FileGetSymLinkTarget@Sysutils@@YA_NABVUnicodeString@@AAV2@@Z
18CE51 88 __catch$?FileGetSymLinkTarget@Sysutils@@YA_NABVUnicodeString@@AAV2@@Z$0
18CE70 88 ?FileRemove@base@@YA_NABVUnicodeString@@@Z
18CEE0 88 ?FileExistsFix@base@@YA_NABVUnicodeString@@@Z
18CFA0 88 ?RenameFile@base@@YA_NABVUnicodeString@@0@Z
18D080 88 ?DirectoryExists@base@@YA_NABVUnicodeString@@@Z
18D190 88 ?FindFirst@base@@YAKABVUnicodeString@@KAAUTSearchRec@Sysutils@@@Z
18D240 88 ?FileNameFormatString@@YA?AVUnicodeString@@ABV1@0PBVTStrings@@_N@Z
18D3B0 88 ?seed@?$mersenne_twister@I$0CA@$0CHA@$0BIN@$0BP@$0JJAILANP@$0L@$06$0JNCMFGIA@$0P@$0OPMGAAAA@$0BC@@std@@QAEXII@Z
18D3F0 88 ??$FmtLoadStr@KVUnicodeString@@@nb@@YA?AVUnicodeString@@HABKABV1@@Z
18D460 88 ??$Sprintf@GG@nb@@YA?AVUnicodeString@@ABV1@ABG1@Z
18D4D0 88 ??R?$mersenne_twister@I$0CA@$0CHA@$0BIN@$0BP@$0JJAILANP@$0L@$06$0JNCMFGIA@$0P@$0OPMGAAAA@$0BC@@std@@QAEIXZ
18D640 85 ?do_tolower@?$ctype@D@std@@MBEDD@Z
18D660 85 ?do_tolower@?$ctype@D@std@@MBEPBDPADPBD@Z
18D690 85 ?do_toupper@?$ctype@D@std@@MBEDD@Z
18D6B0 85 ?do_toupper@?$ctype@D@std@@MBEPBDPADPBD@Z
18D6E0 85 ?do_widen@?$ctype@D@std@@MBEDD@Z
18D6F0 85 ?do_widen@?$ctype@D@std@@MBEPBDPBD0PAD@Z
18D710 85 ?do_narrow@?$ctype@D@std@@MBEDDD@Z
18D720 85 ?do_narrow@?$ctype@D@std@@MBEPBDPBD0DPAD@Z
18D740 0 ??_E?$ctype@D@std@@MAEPAXI@Z
18D790 85 ??_D?$basic_ostringstream@DU?$char_traits@D@std@@V?$allocator@D@2@@std@@QAEXXZ
18D820 85 ??1Prefix@detail@icecream@@QAE@XZ
