MINIMAP

FILES
0 <absolute>
1 <common>
2 <linker-defined>
3 LIBCMT:alloca16.obj
4 LIBCMT:argv_mode.obj
5 LIBCMT:checkcfg.obj
6 LIBCMT:chkstk.obj
7 LIBCMT:cpu_disp.obj
8 LIBCMT:default_local_stdio_options.obj
9 LIBCMT:delete_scalar.obj
10 LIBCMT:delete_scalar_size.obj
11 LIBCMT:dll_dllmain.obj
12 LIBCMT:dyn_tls_init.obj
13 LIBCMT:ehprolg3.obj
14 LIBCMT:fltused.obj
15 LIBCMT:ftol2.obj
16 LIBCMT:gs_cookie.obj
17 LIBCMT:gs_report.obj
18 LIBCMT:gs_support.obj
19 LIBCMT:guard_support.obj
20 LIBCMT:initializers.obj
21 LIBCMT:initsect.obj
22 LIBCMT:lldiv.obj
23 LIBCMT:llmul.obj
24 LIBCMT:llrem.obj
25 LIBCMT:llshl.obj
26 LIBCMT:llshr.obj
27 LIBCMT:loadcfg.obj
28 LIBCMT:pesect.obj
29 LIBCMT:secchk.obj
30 LIBCMT:sehprolg4.obj
31 LIBCMT:sehprolg4gs.obj
32 LIBCMT:std_type_info_static.obj
33 LIBCMT:tncleanup.obj
34 LIBCMT:ucrt_detection.obj
35 LIBCMT:ulldiv.obj
36 LIBCMT:ullrem.obj
37 LIBCMT:ullshr.obj
38 LIBCMT:utility.obj
39 LIBCMT:utility_desktop.obj
40 LIBCMT:x86_exception_filter.obj
41 advapi32:ADVAPI32.dll
42 bit64.obj
43 exported.obj
44 farhost.obj
45 flags.obj
46 kernel32:KERNEL32.dll
47 keysandcolors.obj
48 lflua.obj
49 libucrt:87disp.obj
50 libucrt:87except.obj
51 libucrt:87tran.obj
52 libucrt:_ctype.obj
53 libucrt:_fenvutils.obj
54 libucrt:_filbuf.obj
55 libucrt:_file.obj
56 libucrt:_flsbuf.obj
57 libucrt:_fptostr.obj
58 libucrt:_freebuf.obj
59 libucrt:_getbuf.obj
60 libucrt:_sftbuf.obj
61 libucrt:_strnicm.obj
62 libucrt:abort.obj
63 libucrt:argv_data.obj
64 libucrt:argv_parsing.obj
65 libucrt:argv_wildcards.obj
66 libucrt:atox.obj
67 libucrt:c32rtomb.obj
68 libucrt:calloc.obj
69 libucrt:calloc_base.obj
70 libucrt:ceil.obj
71 libucrt:ceil_pentium4.obj
72 libucrt:cenvarg.obj
73 libucrt:cfout.obj
74 libucrt:chsize.obj
75 libucrt:clearerr.obj
76 libucrt:close.obj
77 libucrt:closeall.obj
78 libucrt:commit.obj
79 libucrt:common.obj
80 libucrt:common_utf8.obj
81 libucrt:comparestringw.obj
82 libucrt:console_output_initializer.obj
83 libucrt:contrlfp.obj
84 libucrt:createprocessa.obj
85 libucrt:ctype.obj
86 libucrt:cvt.obj
87 libucrt:environment_initialization.obj
88 libucrt:errno.obj
89 libucrt:exception_filter.obj
90 libucrt:exit.obj
91 libucrt:fclose.obj
92 libucrt:fdopen.obj
93 libucrt:fegetenv.obj
94 libucrt:fegetround.obj
95 libucrt:feholdexcept.obj
96 libucrt:feoferr.obj
97 libucrt:fesetenv.obj
98 libucrt:fflush.obj
99 libucrt:fgetc.obj
100 libucrt:fgets.obj
101 libucrt:fileno.obj
102 libucrt:fmode_initializer.obj
103 libucrt:fopen.obj
104 libucrt:fp_flags.obj
105 libucrt:fpctrl.obj
106 libucrt:fpexcept.obj
107 libucrt:fputc.obj
108 libucrt:fread.obj
109 libucrt:free.obj
110 libucrt:free_base.obj
111 libucrt:freopen.obj
112 libucrt:frnd.obj
113 libucrt:fseek.obj
114 libucrt:ftell.obj
115 libucrt:fwrite.obj
116 libucrt:genexcep.obj
117 libucrt:get_environment_from_os.obj
118 libucrt:get_qualified_locale.obj
119 libucrt:getenv.obj
120 libucrt:getmodulefilenamea.obj
121 libucrt:getpath.obj
122 libucrt:getstringtypea.obj
123 libucrt:getstringtypew.obj
124 libucrt:gettemppath.obj
125 libucrt:glstatus.obj
126 libucrt:heap_handle.obj
127 libucrt:ieee87.obj
128 libucrt:ieeemisc.obj
129 libucrt:initcon.obj
130 libucrt:initialization.obj
131 libucrt:initmon.obj
132 libucrt:initnum.obj
133 libucrt:initterm.obj
134 libucrt:inittime.obj
135 libucrt:input.obj
136 libucrt:invalid_parameter.obj
137 libucrt:ioinit.obj
138 libucrt:isatty.obj
139 libucrt:isctype.obj
140 libucrt:ismbbyte.obj
141 libucrt:iswctype.obj
142 libucrt:lcidtoname_downlevel.obj
143 libucrt:lcmapstringa.obj
144 libucrt:lcmapstringw.obj
145 libucrt:libm_error.obj
146 libucrt:locale_initializer.obj
147 libucrt:locale_refcounting.obj
148 libucrt:locale_update.obj
149 libucrt:localeconv.obj
150 libucrt:locks.obj
151 libucrt:log10_impl.obj
152 libucrt:log10_pentium4.obj
153 libucrt:log10_tables.obj
154 libucrt:lseek.obj
155 libucrt:malloc.obj
156 libucrt:malloc_base.obj
157 libucrt:matherr.obj
158 libucrt:mathfcns.obj
159 libucrt:mbctype.obj
160 libucrt:mbrtoc32.obj
161 libucrt:mbrtowc.obj
162 libucrt:mbsdec.obj
163 libucrt:mbtowc.obj
164 libucrt:msize.obj
165 libucrt:multibyte_initializer.obj
166 libucrt:multibytetowidechar.obj
167 libucrt:ncommode.obj
168 libucrt:new_handler.obj
169 libucrt:new_mode.obj
170 libucrt:nlsdata.obj
171 libucrt:onexit.obj
172 libucrt:open.obj
173 libucrt:openfile.obj
174 libucrt:osfinfo.obj
175 libucrt:output.obj
176 libucrt:peb_access.obj
177 libucrt:per_thread_data.obj
178 libucrt:pipe.obj
179 libucrt:popen.obj
180 libucrt:powhlp.obj
181 libucrt:printf_count_output.obj
182 libucrt:putwch.obj
183 libucrt:qsort.obj
184 libucrt:read.obj
185 libucrt:realloc.obj
186 libucrt:realloc_base.obj
187 libucrt:recalloc.obj
188 libucrt:report_runtime_error.obj
189 libucrt:rewind.obj
190 libucrt:rmtmp.obj
191 libucrt:setenv.obj
192 libucrt:setmode.obj
193 libucrt:setvbuf.obj
194 libucrt:shared_initialization.obj
195 libucrt:signal.obj
196 libucrt:spawnv.obj
197 libucrt:spawnvp.obj
198 libucrt:sse2_initializer.obj
199 libucrt:stdio_initializer.obj
200 libucrt:strcpy_s.obj
201 libucrt:strdup.obj
202 libucrt:stream.obj
203 libucrt:strerror.obj
204 libucrt:stricmp.obj
205 libucrt:strncmp.obj
206 libucrt:strncnt.obj
207 libucrt:strncpy.obj
208 libucrt:strncpy_s.obj
209 libucrt:strnlen.obj
210 libucrt:strpbrk.obj
211 libucrt:strtox.obj
212 libucrt:strupr.obj
213 libucrt:syserr.obj
214 libucrt:system.obj
215 libucrt:terminate.obj
216 libucrt:tmpfile.obj
217 libucrt:tmpfile_initializer.obj
218 libucrt:tolower_toupper.obj
219 libucrt:towlower.obj
220 libucrt:txtmode.obj
221 libucrt:umask.obj
222 libucrt:ungetc.obj
223 libucrt:util.obj
224 libucrt:waccess.obj
225 libucrt:wait.obj
226 libucrt:wcscat_s.obj
227 libucrt:wcscmp.obj
228 libucrt:wcscpy_s.obj
229 libucrt:wcsdup.obj
230 libucrt:wcsicmp.obj
231 libucrt:wcsncmp.obj
232 libucrt:wcsncpy.obj
233 libucrt:wcsnicmp.obj
234 libucrt:wcsnicol.obj
235 libucrt:wctomb.obj
236 libucrt:widechartomultibyte.obj
237 libucrt:win_policies.obj
238 libucrt:winapi_thunks.obj
239 libucrt:write.obj
240 libucrt:wsetlocale.obj
241 libucrt:xtoa.obj
242 libvcruntime:chandler4.obj
243 libvcruntime:ehhelpers.obj
244 libvcruntime:ehstate.obj
245 libvcruntime:exsup.obj
246 libvcruntime:exsup4.obj
247 libvcruntime:frame.obj
248 libvcruntime:initialization.obj
249 libvcruntime:jbcxrval.obj
250 libvcruntime:locks.obj
251 libvcruntime:lowhelpr.obj
252 libvcruntime:memchr.obj
253 libvcruntime:memcpy.obj
254 libvcruntime:memset.obj
255 libvcruntime:per_thread_data.obj
256 libvcruntime:purevirt_data.obj
257 libvcruntime:std_exception.obj
258 libvcruntime:std_type_info.obj
259 libvcruntime:strchr.obj
260 libvcruntime:strrchr.obj
261 libvcruntime:throw.obj
262 libvcruntime:trnsctrl.obj
263 libvcruntime:undname.obj
264 libvcruntime:unexpected.obj
265 libvcruntime:wcschr.obj
266 libvcruntime:wcsrchr.obj
267 libvcruntime:wcsstr.obj
268 libvcruntime:winapi_downlevel.obj
269 lpcap.obj
270 lpcode.obj
271 lpcset.obj
272 lptree.obj
273 lpvm.obj
274 lregex.obj
275 lua51:lua51.dll
276 luafar3.exp
277 luafar3.res
278 luamacro.obj
279 lusercontrol.obj
280 lutf8lib.obj
281 reg.obj
282 rpcrt4:RPCRT4.dll
283 service.obj
284 shell32:SHELL32.dll
285 slnunico.obj
286 uliolib51.obj
287 uloadlib51.obj
288 user32:USER32.dll
289 ustring.obj
290 util.obj
291 vc_crt_fix.obj
292 vc_crt_fix_impl.obj
293 win.obj

SYMBOLS
0 0 ___AbsoluteZero
A 0 ___safe_se_handler_count
100 0 ___guard_flags
1000 42 ___local_stdio_printf_options
1010 42 _sprintf
1050 42 _bit64_pushuserdata
1090 42 _bit64_push
1130 42 _bit64_getvalue
11B0 42 _check64
1320 42 _band
1390 42 _bor
1400 42 _bxor
1470 42 _bnot
14A0 42 _lshift
1510 42 _rshift
1580 42 _arshift
15F0 42 _f_new
1880 42 _f_tostring
18E0 42 _f_type
1960 42 _f_add
19D0 42 _f_sub
1A20 42 _f_mul
1AC0 42 _f_div
1BE0 42 _f_mod
1C40 42 _f_unm
1C70 42 _f_eq
1CD0 42 _f_lt
1D30 42 _f_le
1D90 42 _f_tonumber
1DE0 42 _luaopen_bit64
1E40 43 _traceback
1EE0 43 _GetExportFunction
1F70 43 _pcall_msg
2080 43 _PushPluginObject
20E0 43 _PushPluginPair
2140 43 _ReplacePluginInfoCollector
2170 43 __AddStringToCollector
2260 43 _AddStringToCollectorField
2290 43 _AddBufToCollector
22E0 43 _CreateStringsArray
23F0 43 _FarPanelItemFreeCallback@8
2420 43 _FillPluginPanelItem
2B60 43 _LF_GetFindData
2D20 43 _LF_FreeFindData
2D90 43 _UpdateFileSelection
3010 43 _LF_GetFiles
3200 43 _RunDefaultScript
34D0 43 _LF_RunDefaultScript
34F0 43 _RegisterObject
3560 43 _PushAnalyseInfo
36A0 43 _LF_Analyse
3740 43 _LF_CloseAnalyse
3760 43 _LF_GetOpenPanelInfo
3FF0 43 _PushFarMacroValue
4174 43 $LN22
41A0 43 _PackMacroValues
4210 43 _FillFarMacroCall_Callback@12
4260 43 _FillFarMacroCall
44E0 43 _LF_Open
4A20 43 _LF_ClosePanel
4A80 43 _LF_Compare
4B10 43 _LF_Configure
4B70 43 _LF_DeleteFiles
4C40 43 _LF_MakeDirectory
4D10 43 _LF_ProcessPanelEvent
4E60 43 _LF_ProcessHostFile
4F70 43 _LF_ProcessPanelInput
4FE0 43 _LF_PutFiles
51A0 43 _LF_SetDirectory
52E0 43 _LF_SetFindList
5390 43 _LF_ExitFAR
5410 43 _getPluginMenuItems
54B0 43 _LF_GetPluginInfo
5610 43 _LF_ProcessEditorInput
5670 43 _LF_ProcessEditorEvent
5950 43 _LF_ProcessViewerEvent
5A20 43 _LF_ProcessDialogEvent
5CA4 43 $LN56
5CB0 43 $LN55
5D00 43 _Common_ProcessSynchroEvent
5D70 43 _LF_ProcessSynchroEvent
5F90 43 _LF_GetContentFields
60D0 43 _LF_GetContentData
63B0 43 _LF_FreeContentData
63F0 43 _LF_GetGlobalInfo
6770 43 _LF_ProcessConsoleInput
68A0 44 _GetPluginModuleHandle
6920 44 _far_host_GetFiles
6BE0 44 _far_host_PutFiles
6EA0 44 _far_host_GetFindData
7020 44 _far_host_FreeUserData
7110 44 _far_host_SetDirectory
7320 48 _getF
7380 48 _errfile
73E0 48 _LF_LoadFile
7720 48 _luaB_loadfileW
7810 48 _luaB_dofileW
7900 48 _LF_Gsub
7A60 274 _method_gc
7AE0 274 _method_tostring
7B30 274 _check_regex_pattern
7BD0 274 _push_far_regex
7C50 274 __regex_gmatch_closure
7DB0 274 _regex_gmatch_closure
7DC0 274 _regex_gmatch_closureW
7DE0 274 __Gmatch
8060 274 _func_gmatch
8080 274 _func_gmatchW
8170 274 _method_gmatch
8190 274 _method_gmatchW
81B0 274 _rx_find_match
8650 274 _method_bracketscount
86D0 274 _rx_gsub
9280 274 _func_New
92E0 274 _method_find
9300 274 _func_find
9320 274 _method_findW
9340 274 _func_findW
9360 274 _method_match
9380 274 _func_match
93A0 274 _method_matchW
93C0 274 _func_matchW
93E0 274 _method_exec
9400 274 _func_exec
9420 274 _method_execW
9440 274 _func_execW
9460 274 _method_gsub
9480 274 _func_gsub
94A0 274 _method_gsubW
94C0 274 _func_gsubW
94E0 274 _luaopen_regex
9560 278 _FL_PushParams
9740 278 $LN33
9770 278 _InitMPR
97B0 278 _Open_Luamacro
9CE0 278 _MacroCallFarCallback@12
9D20 278 _far_MacroCallFar
9F60 278 _far_MacroCallToLua
9FE0 279 _uc_tostring
A020 279 _uc_len
A050 279 _uc_index
A1B0 279 _uc_newindex
A330 279 _uc_New
A3E0 279 _luaopen_usercontrol
A420 281 _CreateRegKey
A460 283 _fprintf
A490 283 _DllMain@12
A500 283 _CreateSynchroData
A530 283 _OptHandle
A590 283 $LN12
A5B0 283 _get_env_flag
A728 283 $LN21
A740 283 _check_env_flag
A810 283 _GetFlagCombination
AA10 283 _OptFlags
AA90 283 _CheckFlagsFromTable
AB20 283 _PutFlagsToTable
AB50 283 _PluginHandle_rawhandle
AB80 283 _ConvertLuaValue
ACD0 283 _far_GetFileOwner
AF50 283 _far_GetNumberOfLinks
B030 283 _far_GetLuafarVersion
B090 283 _StoreTempString
B150 283 _FillEditorSetPosition
B2F0 283 _PushPanelItem
B900 283 _PushPanelItems
B950 283 _far_PluginStartupInfo
BAB0 283 _far_GetCurrentDirectory
BBB0 283 _push_ev_filename
BD10 283 _editor_GetFileName
BD50 283 _editor_GetInfo
C0F0 283 _FastGetString
C190 283 __EditorGetString
C750 283 _editor_GetString
C760 283 _editor_GetStringW
C780 283 __EditorSetString
C9B0 283 _editor_SetString
C9C0 283 _editor_SetStringW
C9E0 283 _editor_InsertString
CA60 283 _editor_DeleteString
CAD0 283 __EditorInsertText
CC60 283 _editor_InsertText
CC70 283 _editor_InsertTextW
CC90 283 _editor_DeleteChar
CD00 283 _editor_DeleteBlock
CD70 283 _editor_UndoRedo
CE00 283 _FillKeyBarTitles
CFE0 283 _SetKeyBar
D160 283 _editor_SetKeyBar
D180 283 _viewer_SetKeyBar
D190 283 _editor_SetParam
D430 283 _editor_SetPosition
D530 283 _editor_Redraw
D5A0 283 _editor_ExpandTabs
D620 283 _PushBookmarks
D840 283 _editor_GetBookmarks
D860 283 _editor_GetSessionBookmarks
D880 283 _editor_AddSessionBookmark
D8F0 283 _editor_ClearSessionBookmarks
D960 283 _editor_DeleteSessionBookmark
D9E0 283 _editor_NextSessionBookmark
DA50 283 _editor_PrevSessionBookmark
DAC0 283 _editor_SetTitle
DBD0 283 _editor_GetTitle
DD00 283 _editor_Quit
DD70 283 _FillEditorSelect
DEF0 283 _editor_Select
E010 283 _editor_GetSelection
E410 283 __EditorTabConvert
E4D0 283 _editor_TabToReal
E4F0 283 _editor_RealToTab
E510 283 _GetFarColor
E680 283 _PushFarColor
E740 283 _GetOptGuid
E7E0 283 _editor_AddColor
E9E0 283 _editor_DelColor
EAA0 283 _editor_GetColor
ECD0 283 _editor_SaveFile
EEA0 283 _PushInputRecord
F238 283 $LN54
F250 283 $LN53
F260 283 _editor_ReadInput
F2F0 283 _FillInputRecord
F6F4 283 $LN50
F70C 283 $LN49
F720 283 _OptInputRecord
F7C0 283 _editor_ProcessInput
F860 283 _editor_SubscribeChangeEvent
F920 283 _far_Menu
106B0 283 _LF_Message
10C00 283 _LF_Error
10CD0 283 _far_Message
11100 283 _panel_CheckPanelsExist
11160 283 _panel_ClosePanel
11270 283 _panel_GetPanelInfo
11580 283 _get_panel_item
11690 283 _panel_GetPanelItem
116B0 283 _panel_GetSelectedPanelItem
116D0 283 _panel_GetCurrentPanelItem
116F0 283 _get_string_info
11840 283 _panel_GetPanelFormat
11860 283 _panel_GetPanelHostFile
11880 283 _panel_GetColumnTypes
118A0 283 _panel_GetColumnWidths
118C0 283 _panel_GetPanelPrefix
118E0 283 _panel_RedrawPanel
119F0 283 _SetPanelBooleanProperty
11A90 283 _SetPanelIntegerProperty
11B30 283 _panel_SetSortOrder
11B50 283 _panel_SetDirectoriesFirst
11B70 283 _panel_UpdatePanel
11B90 283 _panel_SetSortMode
11BB0 283 _panel_SetViewMode
11BD0 283 _panel_GetPanelDirectory
11EB0 283 _panel_SetPanelDirectory
12320 283 _panel_GetCmdLine
12430 283 _panel_SetCmdLine
12530 283 _panel_GetCmdLinePos
125B0 283 _panel_SetCmdLinePos
12620 283 _panel_InsertCmdLine
12720 283 _panel_GetCmdLineSelection
127F0 283 _panel_SetCmdLineSelection
128B0 283 _ChangePanelSelection
12AD0 283 _panel_SetSelection
12AF0 283 _panel_ClearSelection
12B00 283 _panel_BeginSelection
12B80 283 _panel_EndSelection
12C00 283 _panel_SetUserScreen
12C70 283 _panel_GetUserScreen
12CE0 283 _panel_IsActivePanel
12D40 283 _panel_SetActivePanel
12DD0 283 _far_GetDirList
12F40 283 _far_GetPluginDirList
130D0 283 _SavedScreen_tostring
13130 283 _far_RestoreScreen
131E0 283 _far_FreeScreen
13240 283 _far_SaveScreen
132F0 283 _CreateList
13540 283 _SetFarDialogItem
13AD0 283 _PushDlgItem
14090 283 _PushDlgItemNum
14140 283 _SetDlgItem
141F0 283 _NewDialogData
142A0 283 _DialogHandleEqual
142F0 283 _DoSendDlgMessage
155B4 283 $LN227
155C4 283 $LN226
15608 283 $LN229
15698 283 $LN228
156E0 283 _far_SendDlgMessage
15700 283 _dlg_AddHistory
15720 283 _dlg_Close
15740 283 _dlg_EditUnchangedFlag
15760 283 _dlg_Enable
15780 283 _dlg_EnableRedraw
157A0 283 _dlg_GetCheck
157C0 283 _dlg_GetComboboxEvent
157E0 283 _dlg_GetConstTextPtr
15800 283 _dlg_GetCursorPos
15820 283 _dlg_GetCursorSize
15840 283 _dlg_GetDialogInfo
15860 283 _dlg_GetDialogTitle
15880 283 _dlg_GetDlgData
158A0 283 _dlg_GetDlgItem
158C0 283 _dlg_GetDlgRect
158E0 283 _dlg_GetDropdownOpened
15900 283 _dlg_GetEditPosition
15920 283 _dlg_GetFocus
15940 283 _dlg_GetItemData
15960 283 _dlg_GetItemPosition
15980 283 _dlg_GetSelection
159A0 283 _dlg_GetText
159C0 283 _dlg_Key
159E0 283 _dlg_ListAdd
15A00 283 _dlg_ListAddStr
15A20 283 _dlg_ListDelete
15A40 283 _dlg_ListFindString
15A60 283 _dlg_ListGetCurPos
15A80 283 _dlg_ListGetData
15AA0 283 _dlg_ListGetDataSize
15AC0 283 _dlg_ListGetItem
15AE0 283 _dlg_ListGetTitles
15B00 283 _dlg_ListInfo
15B20 283 _dlg_ListInsert
15B40 283 _dlg_ListSet
15B60 283 _dlg_ListSetCurPos
15B80 283 _dlg_ListSetData
15BA0 283 _dlg_ListSetTitles
15BC0 283 _dlg_ListSort
15BE0 283 _dlg_ListUpdate
15C00 283 _dlg_MoveDialog
15C20 283 _dlg_Redraw
15C40 283 _dlg_ResizeDialog
15C60 283 _dlg_Set3State
15C80 283 _dlg_SetCheck
15CA0 283 _dlg_SetComboboxEvent
15CC0 283 _dlg_SetCursorPos
15CE0 283 _dlg_SetCursorSize
15D00 283 _dlg_SetDlgData
15D20 283 _dlg_SetDlgItem
15D40 283 _dlg_SetDropdownOpened
15D60 283 _dlg_SetEditPosition
15D80 283 _dlg_SetFocus
15DA0 283 _dlg_SetHistory
15DC0 283 _dlg_SetInputNotify
15DE0 283 _dlg_SetItemData
15E00 283 _dlg_SetItemPosition
15E20 283 _dlg_SetMaxTextLength
15E40 283 _dlg_SetSelection
15E60 283 _dlg_SetText
15E80 283 _dlg_SetTextPtr
15EA0 283 _dlg_ShowDialog
15EC0 283 _dlg_ShowItem
15EE0 283 _dlg_User
15F00 283 _PushDNParams
16130 283 $LN58
16140 283 $LN57
16158 283 $LN60
1617C 283 $LN59
161A0 283 _ProcessDNResult
16414 283 $LN31
1642C 283 $LN30
16450 283 _RemoveDialogFromRegistry
16490 283 _LF_DlgProc
16680 283 _far_DialogInit
16B90 283 _far_DialogRun
16C30 283 _far_DialogFree
16C80 283 _dialog_tostring
16CE0 283 _dialog_rawhandle
16D30 283 _far_GetDlgItem
16DC0 283 _far_SetDlgItem
16E40 283 _far_SubscribeDialogDrawEvents
16E80 283 _editor_Editor
17130 283 _viewer_Viewer
173B0 283 _viewer_GetFileName
173F0 283 _viewer_GetInfo
176A0 283 _viewer_Quit
17710 283 _viewer_Redraw
17770 283 _viewer_Select
17820 283 _viewer_SetPosition
17A20 283 _viewer_SetMode
17B50 283 _far_ShowHelp
17DA0 283 _far_InputBox
18320 283 _far_GetMsg
18440 283 _far_Text
185B0 283 _far_CopyToClipboard
18700 283 _far_PasteFromClipboard
18810 283 _far_InputRecordToName
18AE0 283 _far_NameToInputRecord
18BF0 283 _far_LStricmp
18D60 283 _far_LStrnicmp
18EF0 283 __ProcessName
19180 283 _far_ProcessName
191A0 283 _far_CmpName
191C0 283 _far_CmpNameList
191E0 283 _far_CheckMask
19200 283 _far_GenerateName
19220 283 _far_GetReparsePointInfo
193C0 283 _far_LIsAlpha
194B0 283 _far_LIsAlphanum
195A0 283 _far_LIsLower
19690 283 _far_LIsUpper
19780 283 _convert_buf
19870 283 _far_LLowerBuf
19890 283 _far_LUpperBuf
198B0 283 _far_MkTemp
19A50 283 _far_MkLink
19CB0 283 _far_GetPathRoot
19E30 283 _truncstring
1A010 283 _far_TruncPathStr
1A030 283 _far_TruncStr
1A050 283 _FrsUserFunc@12
1A1C0 283 _far_RecursiveSearch
1A520 283 _far_ConvertPath
1A6E0 283 _DoAdvControl
1AF08 283 $LN79
1AF50 283 $LN78
1AF70 283 _far_AdvControl
1AF90 283 _adv_Commit
1AFB0 283 _adv_GetArrayColor
1AFD0 283 _adv_GetColor
1AFF0 283 _adv_GetCursorPos
1B010 283 _adv_GetFarHwnd
1B030 283 _adv_GetFarManagerVersion
1B050 283 _adv_GetFarRect
1B070 283 _adv_GetWindowCount
1B090 283 _adv_GetWindowInfo
1B0B0 283 _adv_GetWindowType
1B0D0 283 _adv_ProgressNotify
1B0F0 283 _adv_Quit
1B110 283 _adv_RedrawAll
1B130 283 _adv_SetArrayColor
1B150 283 _adv_SetCurrentWindow
1B170 283 _adv_SetCursorPos
1B190 283 _adv_SetProgressState
1B1B0 283 _adv_SetProgressValue
1B1D0 283 _adv_Synchro
1B1F0 283 _adv_Waitkey
1B210 283 _far_MacroLoadAll
1B3A0 283 _far_MacroSaveAll
1B400 283 _far_MacroGetState
1B450 283 _far_MacroGetArea
1B4A0 283 _MacroSendString
1B680 283 _far_MacroPost
1B690 283 _far_MacroCheck
1B6B0 283 _far_MacroGetLastError
1B880 283 _MacroAddCallback@12
1B930 283 _far_MacroAdd
1BD40 283 _far_MacroDelete
1BDF0 283 _AddMacroData_gc
1BEB0 283 _far_MacroExecute
1C0C0 283 _far_CPluginStartupInfo
1C110 283 _pushFileTime
1C1C0 283 _far_MakeMenuItems
1C4D0 283 _far_Show
1C570 283 _far_CreateFileFilter
1C620 283 _filefilter_Free
1C6B0 283 _filefilter_gc
1C740 283 _filefilter_tostring
1C7A0 283 _filefilter_OpenMenu
1C820 283 _filefilter_Starting
1C8A0 283 _filefilter_IsFileInFilter
1C970 283 _plugin_load
1CAB0 283 _far_LoadPlugin
1CAC0 283 _far_ForcedLoadPlugin
1CAE0 283 _far_UnloadPlugin
1CB50 283 _far_FindPlugin
1CCB0 283 _PutPluginMenuItemToTable
1CE60 283 _PutVersionInfoToTable
1CFB0 283 _far_GetPluginInformation
1D530 283 _far_GetPlugins
1D620 283 _far_IsPluginLoaded
1D750 283 _far_XLat
1D9A0 283 _far_FormatFileSize
1DB40 283 _far_FarClock
1DBC0 283 _TimerCallback@8
1DC10 283 _far_Timer
1DDB0 283 _timer_Close
1DE50 283 _timer_gc
1DEC0 283 _timer_tostring
1DF20 283 _timer_index
1E0E0 283 _timer_newindex
1E290 283 _far_CreateSettings
1E4A0 283 _Settings_set
1E710 283 _Settings_get
1E960 283 _Settings_delete
1EAB0 283 _Settings_createsubkey
1ED10 283 _Settings_opensubkey
1EE60 283 _Settings_enum
1F390 283 _Settings_free
1F420 283 _far_FreeSettings
1F4B0 283 _Settings_tostring
1F510 283 _far_ColorDialog
1F640 283 _far_RunDefaultScript
1F670 283 _far_FileTimeResolution
1F6F0 283 _far_DetectCodePage
1F800 283 _luaopen_far
1FBF0 283 _LF_RunLuafarInit
1FCD0 283 _LF_InitLuaState1
1FF30 283 _CustomAllocator
1FF50 283 _LF_InitLuaState2
1FFF0 283 _LF_MacroCallback
20000 283 _LF_DoFile
20120 283 _LF_GetLuafarAPI
20160 283 _luaopen_luafar3
202E0 285 __snwprintf
20320 285 _str_format
20908 285 $LN92
20924 285 $LN91
20958 285 $LN97
20968 285 $LN96
209D0 285 _utf8_valid
20AB0 285 _luaopen_unicode
20AD0 280 _utf8_decode
20B70 280 _utf8_next
20B90 280 _utf8_length
20BD0 280 _utf8_offset
20C70 280 _utf8_range
20D30 280 _utf8_invalid_offset
20DE0 280 _find_in_range
20E30 280 _lookup_canon_cls
20E80 280 _nfc_quickcheck
20ED0 280 _nfc_combine
20F50 280 _nfc_decompose
20F90 280 _nfc_check
21060 280 _merge_combining_marks
21100 280 _stable_sort_combining_marks
21240 280 _string_to_nfc
21880 280 _utf8_isdigit
218E0 280 _utf8_islower
21940 280 _utf8_iscompose
219A0 280 _utf8_tolower
21A00 280 _utf8_toupper
21A60 280 _utf8_totitle
21AC0 280 _utf8_tofold
21B20 280 _utf8_width
21C20 280 _utf8_safe_decode
21CC0 280 _add_utf8char
21D40 280 _Lutf8_len
21EA0 280 _Lutf8_sub
21F20 280 _Lutf8_reverse
220B0 280 _Lutf8_byte
22160 280 _Lutf8_codepoint
222B0 280 _Lutf8_char
223C0 280 _Lutf8_lower
22560 280 _Lutf8_upper
22700 280 _Lutf8_title
228A0 280 _Lutf8_fold
22A40 280 _Lutf8_escape
22CC8 280 $LN91
22CD8 280 $LN90
22D30 280 _Lutf8_insert
22E60 280 _Lutf8_remove
22F50 280 _push_offset
22FF0 280 _Lutf8_charpos
230C0 280 _Lutf8_offset
23210 280 _Lutf8_next
23290 280 _iter_aux
23360 280 _iter_auxstrict
23380 280 _iter_auxlax
23390 280 _Lutf8_codes
233F0 280 _Lutf8_width
23500 280 _Lutf8_widthindex
23650 280 _Lutf8_ncasecmp
23730 280 _classend
237E0 280 _match_class
23BBC 280 $LN163
23BF0 280 $LN162
23C10 280 _matchbracketclass
23D70 280 _singlematch
23E20 280 _matchbalance
23F70 280 _start_capture
23FC0 280 _match
245D8 280 $LN244
245F0 280 $LN246
24600 280 $LN245
24638 280 $LN252
2464C 280 $LN251
24670 280 _get_index
246B0 280 _push_captures
247A0 280 _find_aux
24B70 280 _Lutf8_find
24B90 280 _Lutf8_match
24BA0 280 _gmatch_aux
24CE0 280 _Lutf8_gmatch
24D30 280 _add_s
24FD0 280 _Lutf8_gsub
25340 280 _Lutf8_isvalid
25380 280 _Lutf8_invalidoffset
25410 280 _Lutf8_clean
25580 280 _Lutf8_isnfc
25760 280 _Lutf8_normalize_nfc
25A40 280 _luaopen_utf8
25CA0 286 ___local_stdio_scanf_options
25CB0 286 _fscanf
25CE0 286 _pushresult
25DF0 286 _fileerror
25EC0 286 _io_type
25F70 286 _io_noclose
25FA0 286 _io_pclose
26020 286 _io_fclose
260A0 286 _io_close
26120 286 _io_gc
26170 286 _io_tostring
261C0 286 _io_open
26440 286 _io_popen
265F0 286 _io_tmpfile
26670 286 _g_iofile
267F0 286 _io_input
26810 286 _io_output
26830 286 _f_lines
26890 286 _io_lines
26A20 286 _read_line
26B20 286 _read_chars
26BE0 286 _g_read
26F30 286 $LN68
26F44 286 $LN67
26F60 286 _io_read
26FB0 286 _f_read
27000 286 _io_readline
270E0 286 _g_write
271E0 286 _io_write
27230 286 _f_write
27280 286 _f_seek
273B0 286 _f_setvbuf
27470 286 _io_flush
27510 286 _f_flush
275A0 286 _f_rawhandle
275C0 286 _luaopen_uio
27820 287 _gctm
27850 287 _ll_loadfunc
27A00 287 _ll_loadlib
27B00 287 _findfile
27E60 287 _loaderror
27F30 287 _loader_Lua
27F80 287 _mkfuncname
27FD0 287 _loader_C
28060 287 _loader_Croot
28100 287 _loader_preload
28180 287 _ll_require
28360 287 _ll_module
28550 287 _ll_seeall
285C0 287 _setpath
28790 287 _luaopen_upackage
28960 289 _pusherror
289F0 289 _SysErrorReturn
28A70 289 _PutIntToArray
28AB0 289 _PutIntToTable
28AF0 289 _PutNumToTable
28B20 289 _PutBoolToTable
28B50 289 _PutStrToTable
28B80 289 _PutStrToArray
28BB0 289 _PutWStrToTable
28BE0 289 _PutWStrToArray
28C10 289 _PutLStrToTable
28C40 289 _GetOptNumFromTable
28CA0 289 _GetOptIntFromTable
28CF0 289 _GetOptIntFromArray
28D40 289 _GetBoolFromTable
28D80 289 _GetOptBoolFromTable
28DE0 289 _check_utf8_string
28EB0 289 _utf8_to_utf16
28F80 289 _opt_utf8_string
28FC0 289 _push_utf8_string
29070 289 _ustring_WideCharToMultiByte
291A0 289 _ustring_MultiByteToWideChar
29360 289 _ustring_OemToUtf8
29420 289 _ustring_Utf8ToOem
29560 289 _ustring_Utf16ToUtf8
29590 289 _ustring_Utf8ToUtf16
29640 289 _ustring_GetACP
29660 289 _ustring_GetOEMCP
29680 289 _ustring_GetConsoleCP
296A0 289 _ustring_SetConsoleCP
296E0 289 _ustring_GetConsoleOutputCP
29700 289 _ustring_SetConsoleOutputCP
29740 289 _EnumCodePagesProc@4
29810 289 _ustring_EnumSystemCodePages
29870 289 _ustring_GetCPInfo
29AC0 289 _ustring_GetLogicalDriveStrings
29C80 289 _ustring_GetDriveType
29D88 289 $LN27
29DB0 289 _ustring_Uuid
29F60 289 _ustring_SearchPath
2A360 289 _ustring_GlobalMemoryStatus
2A660 289 _ustring_Sleep
2A690 289 _PushAttrString
2A760 289 _DecodeAttributes
2A890 289 _SetAttrWords
2AA70 289 _ustring_SetFileAttr
2AB50 289 _ustring_GetFileAttr
2AC20 289 _ustring_SHGetFolderPath
2AD20 289 _push_utf16_string
2AD60 289 _ustring_subW
2ADF0 289 _ustring_lenW
2AE20 289 _check_utf16_string
2AE50 289 _opt_utf16_string
2AE70 289 _ustring_OutputDebugString
2AFB0 289 _ustring_system
2B0F0 289 _ustring_GetCurrentDir
2B2C0 289 _ustring_SetCurrentDir
2B390 289 _ustring_GetKeyState
2B3E0 289 _luaopen_ustring
2B440 290 _GetIntFromArray
2B4C0 290 _GetFileTimeFromTable
2B5C0 290 _PutFileTimeToTable
2B690 293 _win_GetEnv
2B8D0 293 _win_SetEnv
2BA30 293 _CheckHKey
2BB90 293 _win_SetRegKey
2C0F0 293 _win_GetRegKey
2C438 293 $LN48
2C460 293 _win_DeleteRegKey
2C5C0 293 _win_DeleteRegValue
2C7F0 293 _win_EnumRegKey
2CA60 293 _win_EnumRegValue
2CCD0 293 _win_ExtractKey
2CD70 293 _win_ExtractKeyEx
2CDF0 293 _PushWinFindData
2D020 293 _win_GetFileInfo
2D130 293 _pushSystemTime
2D2E0 293 _win_GetSystemTime
2D330 293 _win_GetLocalTime
2D380 293 _win_GetSystemTimeAsFileTime
2D3B0 293 _win_FileTimeToSystemTime
2D480 293 _win_SystemTimeToFileTime
2D730 293 _win_FileTimeToLocalFileTime
2D7E0 293 _win_CompareString
2DA70 293 _win_wcscmp
2DBD0 293 _win_GetVirtualKeys
2DC40 293 _win_GetConsoleScreenBufferInfo
2DEA0 293 _win_CopyFile
2E030 293 _win_MoveFile
2E210 293 _win_RenameFile
2E220 293 _win_DeleteFile
2E2F0 293 _mkdir
2E4B0 293 _win_CreateDir
2E670 293 _win_RemoveDir
2E740 293 _win_ShellExecute
2EA30 293 _win_IsProcess64bit
2EA50 293 _win_WriteConsole
2EC00 293 _win_IsWinVersion
2F470 293 _PutFileTimeToTableEx
2F4C0 293 _win_GetFileTimes
2F620 293 _ExtractFileTime
2F6C0 293 _win_SetFileTimes
2F860 293 _win_ReplaceFile
2FA80 293 _win_JoinPath
2FBF0 293 _luaopen_win
2FC70 272 _finalfix
2FE68 272 $LN44
2FE78 272 $LN43
2FE90 272 _addtoktable
2FF00 272 _concattable
2FFC0 272 _correctkeys
3003C 272 $LN25
30048 272 $LN24
30050 272 _joinktables
30160 272 _newtree
301B0 272 _newleaf
30200 272 _newcharset
302A0 272 _getpatt
3050C 272 $LN73
30530 272 _newroot1sib
305E0 272 _newroot2sib
306D0 272 _lp_P
30710 272 _lp_seq
30790 272 _lp_choice
30880 272 _lp_star
30AC0 272 _lp_and
30AE0 272 _lp_not
30B00 272 _lp_sub
30C70 272 _lp_set
30D10 272 _lp_range
30E50 272 _codeutftree
30EF0 272 _lp_utfr
31010 272 _lp_behind
310A0 272 _lp_V
31140 272 _capture_aux
311E0 272 _newemptycapkey
31270 272 _lp_divcapture
31348 272 $LN12
31360 272 _lp_acccapture
313E0 272 _lp_substcapture
31400 272 _lp_tablecapture
31420 272 _lp_groupcapture
314D0 272 _lp_foldcapture
31560 272 _lp_simplecapture
31580 272 _lp_poscapture
315E0 272 _lp_argcapture
31670 272 _lp_backref
316A0 272 _lp_constcapture
317B0 272 _lp_matchtime
31840 272 _collectrules
31AE0 272 _checkloops
31B9C 272 $LN67
31BB4 272 $LN66
31BD0 272 _verifyrule
31D30 272 $LN63
31D58 272 $LN62
31D70 272 _newgrammar
320B0 272 _prepcompile
321E0 272 _lp_printtree
32250 272 _lp_printcode
322A0 272 _lp_match
32470 272 _lp_setmax
324D0 272 _lp_type
32550 272 _lp_gc
325A0 272 _createcat
326A0 272 _lp_locale
327B0 272 _luaopen_lpeg
32840 269 _nextcap
32890 269 _pushnestedvalues
32930 269 _findback
32AA0 269 _getstrcaps
32C00 269 _stringcap
32DC0 269 _substcap
32EB0 269 _addonestring
32F80 269 _pushcapture
33518 269 $LN104
33560 270 _callrecursive
335A0 270 _hascaptures
33624 270 $LN31
33650 270 _checkaux
336C8 270 $LN47
336EC 270 $LN46
33700 270 _fixedlen
337D0 270 $LN41
337F0 270 $LN40
33810 270 _getfirst
33B38 270 $LN98
33B90 270 _headfail
33C3C 270 $LN80
33C58 270 $LN79
33C6C 270 $LN82
33C84 270 $LN81
33CA0 270 _nextinstruction
33D80 270 _addoffsetinst
33DE0 270 _addcharset
33E50 270 _codetestset
33EF0 270 _codechoice
34200 270 _codeand
34350 270 _closeloop
343C0 270 _coderep
34614 270 $LN124
34630 270 _codegrammar
34834 270 $LN120
34844 270 $LN119
34860 270 _codegen
34F7C 270 $LN180
34FC8 270 $LN182
34FDC 270 $LN181
34FF0 270 _peephole
35150 270 $LN98
3515C 270 $LN97
3516C 270 $LN100
35178 270 $LN99
35184 270 $LN102
35194 270 $LN101
351B0 271 _charsettype
352F0 271 _tocharset
353EC 271 $LN17
35400 273 _growcap
354B0 273 _doublestack
35570 273 _removedyncap
355E0 273 _match
36040 273 $LN188
360B0 292 _Wrapper_EncodePointer@4
36100 292 ?impl@implementation@?1??Wrapper_DecodePointer@@YGPAXPAX@Z@SGPAX0@Z
36170 292 _Wrapper_DecodePointer@4
361C0 292 _Wrapper_GetModuleHandleExW@12
36210 292 ?impl@implementation@?1??Wrapper_GetModuleHandleExW@@YGHKPB_WPAPAUHINSTANCE__@@@Z@SGHK01@Z
362E0 292 _Wrapper_InitializeSListHead@4
36330 292 ?impl@implementation@?1??Wrapper_InitializeSListHead@@YGXPAT_SLIST_HEADER@@@Z@SGX0@Z
36350 292 _Wrapper_InterlockedFlushSList@4
363A0 292 ?impl@implementation@?1??Wrapper_InterlockedFlushSList@@YGPAU_SINGLE_LIST_ENTRY@@PAT_SLIST_HEADER@@@Z@SGPAU3@0@Z
36410 292 _Wrapper_InterlockedPushEntrySList@8
36460 292 ?impl@implementation@?1??Wrapper_InterlockedPushEntrySList@@YGPAU_SINGLE_LIST_ENTRY@@PAT_SLIST_HEADER@@PAU3@@Z@SGPAU3@01@Z
364C0 292 _Wrapper_GetNumaHighestNodeNumber@4
36510 292 ?impl@implementation@?1??Wrapper_GetNumaHighestNodeNumber@@YGHPAK@Z@SGH0@Z
36530 292 _Wrapper_GetLogicalProcessorInformation@8
36580 292 ?impl@implementation@?1??Wrapper_GetLogicalProcessorInformation@@YGHPAU_SYSTEM_LOGICAL_PROCESSOR_INFORMATION@@PAK@Z@SGH01@Z
36590 292 _Wrapper_SetThreadStackGuarantee@4
365E0 292 ?impl@implementation@?1??Wrapper_SetThreadStackGuarantee@@YGHPAK@Z@SGH0@Z
365F0 292 _Wrapper_InitializeCriticalSectionEx@12
36640 292 ?impl@implementation@?1??Wrapper_InitializeCriticalSectionEx@@YGHPAU_RTL_CRITICAL_SECTION@@KK@Z@SGH0KK@Z
36670 292 _Wrapper_CompareStringEx@36
366C0 292 ?impl@implementation@?1??Wrapper_CompareStringEx@@YGHPB_WK0H0HPAU_nlsversioninfo@@PAXJ@Z@SGH0K0H0H12J@Z
36720 292 _Wrapper_LCMapStringEx@36
36770 292 ?impl@implementation@?1??Wrapper_LCMapStringEx@@YGHPB_WK0HPA_WHPAU_nlsversioninfo@@PAXJ@Z@SGH0K0H1H23J@Z
367D0 292 _Wrapper_SleepConditionVariableSRW@16
36820 292 ?impl@implementation@?1??Wrapper_SleepConditionVariableSRW@@YGHPAU_RTL_CONDITION_VARIABLE@@PAU_RTL_SRWLOCK@@KK@Z@SGH01KK@Z
36830 292 _Wrapper_WakeAllConditionVariable@4
36880 292 ?impl@implementation@?1??Wrapper_AcquireSRWLockExclusive@@YGXPAU_RTL_SRWLOCK@@@Z@SGX0@Z
36890 292 _Wrapper_AcquireSRWLockExclusive@4
368E0 292 _Wrapper_ReleaseSRWLockExclusive@4
36930 292 _Wrapper_TryAcquireSRWLockExclusive@4
36980 292 ?impl@implementation@?1??Wrapper_TryAcquireSRWLockExclusive@@YGEPAU_RTL_SRWLOCK@@@Z@SGE0@Z
36990 292 _Wrapper_InitializeSRWLock@4
369E0 292 ?impl@implementation@?1??Wrapper_InitializeSRWLock@@YGXPAU_RTL_SRWLOCK@@@Z@SGX0@Z
369F0 292 _Wrapper_FlsAlloc@4
36A40 292 ?impl@implementation@?1??Wrapper_FlsAlloc@@YGKP6GXPAX@Z@Z@SGK1@Z
36A50 292 _Wrapper_FlsGetValue@4
36AA0 292 ?impl@implementation@?1??Wrapper_FlsGetValue@@YGPAXK@Z@SGPAXK@Z
36AB0 292 _Wrapper_FlsSetValue@8
36B00 292 ?impl@implementation@?1??Wrapper_FlsSetValue@@YGHKPAX@Z@SGHK0@Z
36B10 292 _Wrapper_FlsFree@4
36B60 292 ?impl@implementation@?1??Wrapper_FlsFree@@YGHK@Z@SGHK@Z
36B70 275 _luaopen_table
36B76 275 _luaopen_base
36B7C 275 _luaopen_os
36B82 275 _luaopen_string
36B88 275 _luaopen_math
36B8E 275 _luaopen_debug
36B94 29 @__security_check_cookie@4
36BA2 17 ___raise_securityfailure
36BCA 17 ___report_gsfailure
36CC5 11 ?dllmain_crt_dispatch@@YGHQAUHINSTANCE__@@KQAX@Z
36D18 11 ?dllmain_crt_process_attach@@YAHQAUHINSTANCE__@@QAX@Z
36E1F 11 ?dllmain_crt_process_detach@@YAH_N@Z
36ECF 11 ?dllmain_dispatch@@YAHQAUHINSTANCE__@@KQAX@Z
36FDA 11 ?dllmain_raw@@YGHQAUHINSTANCE__@@KQAX@Z
37005 11 __DllMainCRTStartup@12
37028 18 ___get_entropy
37075 18 ___security_init_cookie
370C0 33 ?__scrt_initialize_type_info@@YAXXZ
370CC 33 ?__scrt_uninitialize_type_info@@YAXXZ
370D8 8 ___scrt_initialize_default_local_stdio_options
370F5 38 ?find_pe_section@@YAPAU_IMAGE_SECTION_HEADER@@QAEI@Z
37139 38 ___scrt_acquire_startup_lock
3716B 38 ___scrt_dllmain_after_initialize_c
37196 38 ___scrt_dllmain_before_initialize_c
371A4 38 ___scrt_dllmain_crt_thread_attach
371C3 38 ___scrt_dllmain_crt_thread_detach
371D0 38 ___scrt_dllmain_exception_filter
37204 38 ___scrt_dllmain_uninitialize_c
37227 38 ___scrt_dllmain_uninitialize_critical
37234 38 ___scrt_initialize_crt
3726D 38 ___scrt_initialize_onexit_tables
372F4 38 ___scrt_is_nonwritable_in_current_image
37388 38 ___scrt_release_startup_lock
373A5 38 ___scrt_uninitialize_crt
373CD 12 ___scrt_get_dyn_tls_init_callback
373D3 39 ___scrt_fastfail
374E8 39 __crt_debugger_hook
374F0 21 __RTC_Initialize
3751C 21 __RTC_Terminate
37550 30 __SEH_prolog4
37595 19 @_guard_check_icall_nop@4
37598 7 ___isa_available_init
378C5 4 __get_startup_argv_mode
378C9 34 ___scrt_is_ucrt_dll_in_use
378D5 266 _wcsrchr
37978 267 _wcsstr
37BD8 265 _wcschr
37C80 259 _strchr
37CB3 259 strchr_sse_loop
37CD7 259 strchr_sse_break
37CE8 259 strchr_no_sse2
37CEE 259 ___from_strstr_to_strchr
37D00 259 str_misaligned
37D15 259 main_loop_start
37D20 259 main_loop
37D5C 259 retnull
37D5E 259 retnull_bx
37D62 259 found_bx
37D67 259 chr_is_found
37D8F 259 byte_3
37D96 259 byte_2
37D9D 259 byte_1
37DA4 259 byte_0
37DB0 260 _strrchr
37DED 260 strrchr_sse_loop
37E1D 260 strrchr_sse_break
37E3D 260 strrchr_sttni
37E4F 260 strrchr_sttni_chars
37E64 260 strrchr_sttni_aligned
37E68 260 strrchr_sttni_xmm
37E7B 260 exit
37E7E 260 strrchr_zero
37EA3 260 strchr_zero_loop
37EB7 260 strchr_zero_result
37EBE 260 strrchr_no_sse
37EE1 260 returndi
37EE3 260 toend
37EE7 262 ?GetRangeOfTrysToCheck@__FrameHandler3@@SA?AU?$pair@Viterator@TryBlockMap@__FrameHandler3@@V123@@std@@AAVTryBlockMap@1@HPAXPBU_s_FuncInfo@@H@Z
37F56 262 ?_CallCatchBlock2@@YAPAXPAUEHRegistrationNode@@PBU_s_FuncInfo@@PAXHK@Z
37FB3 262 ?_CallSETranslator@@YAHPAUEHExceptionRecord@@PAUEHRegistrationNode@@PAX2PBU_s_FuncInfo@@H1@Z
380A3 262 ?_JumpToContinuation@@YGXPAXPAUEHRegistrationNode@@@Z
380D3 262 ?_UnwindNestedFrames@@YGXPAUEHRegistrationNode@@PAUEHExceptionRecord@@@Z
38127 262 __CatchGuardHandler
38158 262 __CreateFrameInfo
3817C 262 __FindAndUnlinkFrame
381C4 262 __TranslatorGuardHandler
38263 262 ___CxxFrameHandler3
382A0 242 _ValidateLocalCookies
382E0 242 __except_handler4
3843E 258 ___std_type_info_compare
3847A 258 ___std_type_info_destroy_list
3849D 248 ___vcrt_initialize
384BC 248 ___vcrt_thread_attach
384C7 248 ___vcrt_thread_detach
384CF 248 ___vcrt_uninitialize
384E6 248 ___vcrt_uninitialize_critical
384EE 243 ___DestructExceptionObject
3858F 243 ?_CallMemberFunction0@@YGXQAX0@Z
3859C 243 ?_FilterSetCurrentException@@YAKPAU_EXCEPTION_POINTERS@@E@Z
385F4 243 __IsExceptionObjectToBeDestroyed
3861A 243 ___AdjustPointer
3863F 243 ___FrameUnwindFilter
38695 243 ___std_terminate
386A0 254 _memset
386E5 254 XMMMov
38720 254 LargeRangeBytes
3875D 254 XmmMovSmall
38770 254 XmmSmallLoop
38775 254 MidRangeBytes
38791 254 XMMTrailingBytes
387A5 254 SmallMov
387AD 254 ByteLoop
387BB 254 DwordTest
387CB 254 QwordTest
387E0 254 QwordLoop
387F3 254 toend
387FA 255 ___vcrt_freefls@4
38816 255 ___vcrt_freeptd_for_this_thread
38841 255 ___vcrt_getptd
3884F 255 ___vcrt_getptd_noexit
388E1 255 ___vcrt_initialize_ptd
38914 255 ___vcrt_uninitialize_ptd
3892F 247 ??$BuildCatchObjectHelperInternal@V__FrameHandler3@@@@YAHPAUEHExceptionRecord@@PAXPBU_s_HandlerType@@PBU_s_CatchableType@@@Z
38A6D 247 ??$BuildCatchObjectInternal@V__FrameHandler3@@@@YAXPAUEHExceptionRecord@@PAXPBU_s_HandlerType@@PBU_s_CatchableType@@@Z
38B06 247 ??$CatchIt@V__FrameHandler3@@@@YAXPAUEHExceptionRecord@@PAUEHRegistrationNode@@PAU_CONTEXT@@PAXPBU_s_FuncInfo@@PBU_s_HandlerType@@PBU_s_CatchableType@@PBU_s_TryBlockMapEntry@@H1EE@Z
38B86 247 ??$FindHandler@V__FrameHandler3@@@@YAXPAUEHExceptionRecord@@PAUEHRegistrationNode@@PAU_CONTEXT@@PAXPBU_s_FuncInfo@@EH1@Z
38F2B 247 ??$FindHandlerForForeignException@V__FrameHandler3@@@@YAXPAUEHExceptionRecord@@PAUEHRegistrationNode@@PAU_CONTEXT@@PAXPBU_s_FuncInfo@@HH1@Z
39061 247 ??$TypeMatchHelper@V__FrameHandler3@@@@YAHPBU_s_HandlerType@@PBU_s_CatchableType@@PBU_s_ThrowInfo@@@Z
390EF 247 ??$__InternalCxxFrameHandler@V__FrameHandler3@@@@YA?AW4_EXCEPTION_DISPOSITION@@PAUEHExceptionRecord@@PAUEHRegistrationNode@@PAU_CONTEXT@@PAXPBU_s_FuncInfo@@H1E@Z
391F1 247 ??$__InternalCxxFrameHandlerWrapper@V__FrameHandler3@@@@YA?AW4_EXCEPTION_DISPOSITION@@PAUEHExceptionRecord@@PAUEHRegistrationNode@@PAU_CONTEXT@@PAXPBU_s_FuncInfo@@H1E@Z
391FA 247 ??0bad_exception@std@@QAE@ABV01@@Z
39215 247 ??0bad_exception@std@@QAE@XZ
3922D 247 ??0exception@std@@QAE@ABV01@@Z
39259 247 ??1bad_exception@std@@UAE@XZ
3926A 247 ??8type_info@@QBE_NABV0@@Z
39289 247 ??_Ebad_exception@std@@UAEPAXI@Z
392B6 247 ?CallCatchBlock@@YAPAXPAUEHExceptionRecord@@PAUEHRegistrationNode@@PAU_CONTEXT@@PBU_s_FuncInfo@@PAXHK@Z
39485 247 ?CallUnexpected@@YAXPBU_s_ESTypeList@@@Z
394A5 247 __catch$?CallUnexpected@@YAXPBU_s_ESTypeList@@@Z$0
394C4 247 ?ExFilterRethrow@@YAHPAU_EXCEPTION_POINTERS@@@Z
3950E 247 ?FrameUnwindToEmptyState@__FrameHandler3@@SAXPAUEHRegistrationNode@@PAXPBU_s_FuncInfo@@@Z
39526 247 ?FrameUnwindToState@__FrameHandler3@@SAXPAUEHRegistrationNode@@PAXPBU_s_FuncInfo@@H@Z
3960E 247 ?IsInExceptionSpec@@YAEPAUEHExceptionRecord@@PBU_s_ESTypeList@@@Z
396A8 247 ?_CallMemberFunction1@@YGXQAX00@Z
396B8 247 ?_CallMemberFunction2@@YGXQAX00H@Z
396CB 247 ?getESTypes@__FrameHandler3@@SAPBU_s_ESTypeList@@PBU_s_FuncInfo@@@Z
396D6 247 ?what@exception@std@@UBEPBDXZ
396F0 251 __CallSettingFrame@12
39717 251 __NLG_Return
3972F 251 _NLG_Continue
3973C 249 ___except_validate_context_record
39770 246 __local_unwind4
397A2 246 _lu_top
39801 246 _lu_done
39810 246 $$000000
39860 246 @_EH4_CallFilterFunc@8
39880 246 @_EH4_TransferToHandler@8
398A0 246 @_EH4_GlobalUnwind2@8
398B5 246 ReturnPoint
398C0 246 @_EH4_LocalUnwind@16
398D7 250 ___vcrt_initialize_locks
39913 250 ___vcrt_uninitialize_locks
39942 268 ?try_get_function@@YAPAXW4function_id@?A0x14174aea@@QBDQBW4module_id@2@2@Z
399E2 268 ?try_load_library_from_system_directory@@YAPAUHINSTANCE__@@QB_W@Z
39A2D 268 ___vcrt_FlsAlloc
39A68 268 ___vcrt_FlsFree
39AA3 268 ___vcrt_FlsGetValue
39ADE 268 ___vcrt_FlsSetValue
39B1C 268 ___vcrt_InitializeCriticalSectionEx
39B63 264 _unexpected
39B80 244 ?GetCurrentState@__FrameHandler3@@SAHPAUEHRegistrationNode@@PAXPBU_s_FuncInfo@@@Z
39B9D 244 ?SetState@__FrameHandler3@@SAXPAUEHRegistrationNode@@PBU_s_FuncInfo@@H@Z
39BAB 257 ___std_exception_copy
39C0E 257 ___std_exception_destroy
39C2D 261 __CxxThrowException@8
39CA0 253 _memcpy
39CC0 253 CopyUp
39CE4 253 CopyUpLargeMov
39CF7 253 CopyUpSSE2Check
39D10 253 AtomChk
39D36 253 PalignHead4
39D49 253 PalignHead8
39D60 253 PalignLoop
39D72 253 MovPalign12
39D7C 253 PalignLoop12
39DCD 253 MovPalign8
39DD8 253 PalignLoop8
39E26 253 MovPalign4
39E30 253 PalignLoop4
39E7C 253 PalignTail
39E94 253 PalignTail4
39EA7 253 PalignTail8
39EBE 253 PalignTailLE3
39EC7 253 Dword_align
39ECF 253 Dword_up_align_loop
39EE2 253 Dword_align_Ok
39EFC 253 ByteCopyUp
39F04 253 TrailingUpVec
39F14 253 TrailingUp0
39F1C 253 TrailingUp1
39F28 253 TrailingUp2
39F3C 253 TrailingUp3
39F54 253 CopyDown
39F79 253 CopyDownNotAligned
39F80 253 CopyDownAlignLoop
39F8D 253 CopyDownAligned
39FB0 253 TrailingDownVec
39FC0 253 TrailingDown0
39FC8 253 TrailingDown1
39FD8 253 TrailingDown2
39FEC 253 TrailingDown3
3A005 253 XmmMovLargeAlignTest
3A00D 253 XmmMovAlignLoop
3A01C 253 XmmMovLargeLoop
3A08C 253 XmmMovSmallTest
3A091 253 XmmMovSmallLoop
3A0B4 253 CopyDownSmall
3A0BC 253 CopyDownDwordLoop
3A0D1 253 CopyDownByteTest
3A0D5 253 CopyDownByteLoop
3A0E4 253 CopyDownReturn
3A0F0 253 XmmCopy
3A0FD 253 XmmCopyAligned
3A110 253 XmmCopyLargeLoop
3A16D 253 XmmCopySmallTest
3A180 253 XmmCopySmallLoop
3A19B 253 CopyUpDwordMov
3A1A0 253 CopyUpDwordTest
3A1A7 253 CopyUpDwordLoop
3A1B6 253 CopyUpByteTest
3A1BD 253 CopyUpByteLoop
3A1D0 253 CopyUpReturn
3A1E0 253 XmmCopyUnaligned
3A1F3 253 XmmAlignByte
3A1FC 253 XmmAlignDwordTest
3A201 253 XmmAlignDwordLoop
3A20E 253 XmmAlignAdjustCnt
3A220 245 __NLG_Notify1
3A230 245 __NLG_Notify
3A23B 245 __NLG_Go
3A247 245 __NLG_Dispatch
3A250 245 __NLG_Call
3A252 245 __NLG_Return2
3A260 175 ??$?RV<lambda_62491a2101a2aba6cc4a769149c84f1f>@@AAV<lambda_826c27fce7726908515bbc79a5266961>@@V<lambda_4e64bbd54b50a7b070e3ea8d795375b6>@@@?$__crt_seh_guarded_call@H@@QAEH$$QAV<lambda_62491a2101a2aba6cc4a769149c84f1f>@@AAV<lambda_826c27fce7726908515bbc79a5266961>@@$$QAV<lambda_4e64bbd54b50a7b070e3ea8d795375b6>@@@Z
3A2BB 175 ??$common_vsprintf@Vstandard_base@__crt_stdio_output@@D@@YAH_KQADIQBDAAV__crt_cached_ptd_host@@1@Z
3A42F 175 ??$common_vsprintf@Vstandard_base@__crt_stdio_output@@_W@@YAH_KQA_WIQB_WAAV__crt_cached_ptd_host@@QAD@Z
3A5B2 175 ??$count@D@formatting_buffer@__crt_stdio_output@@QBEIXZ
3A5CA 175 ??$count@_W@formatting_buffer@__crt_stdio_output@@QBEIXZ
3A5E3 175 ??$ensure_buffer_is_big_enough@D@formatting_buffer@__crt_stdio_output@@QAE_NIAAV__crt_cached_ptd_host@@@Z
3A664 175 ??$ensure_buffer_is_big_enough@_W@formatting_buffer@__crt_stdio_output@@QAE_NIAAV__crt_cached_ptd_host@@@Z
3A6E6 175 ??$is_overflow_condition@K@__crt_strtox@@YA_NIK@Z
3A71A 175 ??$is_wide_character_specifier@D@__crt_stdio_output@@YA_N_KDW4length_modifier@0@@Z
3A74B 175 ??$is_wide_character_specifier@_W@__crt_stdio_output@@YA_N_K_WW4length_modifier@0@@Z
3A799 175 ??$make_c_string_character_source@DPAPAD@__crt_strtox@@YA?AV?$c_string_character_source@D@0@QBDQAPAD@Z
3A7B4 175 ??$parse_integer@KV?$c_string_character_source@D@__crt_strtox@@$0A@@__crt_strtox@@YAKAAV__crt_cached_ptd_host@@V?$c_string_character_source@D@0@H_N@Z
3A9C3 175 ??$parse_integer@KV?$c_string_character_source@_W@__crt_strtox@@$0A@@__crt_strtox@@YAKAAV__crt_cached_ptd_host@@V?$c_string_character_source@_W@0@H_N@Z
3AF96 175 ??$scratch_data@D@formatting_buffer@__crt_stdio_output@@QAEPADXZ
3AFB4 175 ??$type_case_integer@$07@?$output_processor@DV?$stream_output_adapter@D@__crt_stdio_output@@V?$standard_base@DV?$stream_output_adapter@D@__crt_stdio_output@@@2@@__crt_stdio_output@@AAE_N_N@Z
3B141 175 ??$type_case_integer@$07@?$output_processor@_WV?$string_output_adapter@_W@__crt_stdio_output@@V?$standard_base@_WV?$string_output_adapter@_W@__crt_stdio_output@@@2@@__crt_stdio_output@@AAE_N_N@Z
3B2D3 175 ??$type_case_integer@$09@?$output_processor@DV?$stream_output_adapter@D@__crt_stdio_output@@V?$standard_base@DV?$stream_output_adapter@D@__crt_stdio_output@@@2@@__crt_stdio_output@@AAE_N_N@Z
3B460 175 ??$type_case_integer@$09@?$output_processor@_WV?$string_output_adapter@_W@__crt_stdio_output@@V?$standard_base@_WV?$string_output_adapter@_W@__crt_stdio_output@@@2@@__crt_stdio_output@@AAE_N_N@Z
3B5F2 175 ??$type_case_integer@$0BA@@?$output_processor@DV?$stream_output_adapter@D@__crt_stdio_output@@V?$standard_base@DV?$stream_output_adapter@D@__crt_stdio_output@@@2@@__crt_stdio_output@@AAE_N_N@Z
3B77F 175 ??$type_case_integer@$0BA@@?$output_processor@_WV?$string_output_adapter@_W@__crt_stdio_output@@V?$standard_base@_WV?$string_output_adapter@_W@__crt_stdio_output@@@2@@__crt_stdio_output@@AAE_N_N@Z
3B911 175 ??$type_case_integer_parse_into_buffer@I$07@?$output_processor@DV?$stream_output_adapter@D@__crt_stdio_output@@V?$standard_base@DV?$stream_output_adapter@D@__crt_stdio_output@@@2@@__crt_stdio_output@@AAEXI_N@Z
3B974 175 ??$type_case_integer_parse_into_buffer@I$07@?$output_processor@_WV?$string_output_adapter@_W@__crt_stdio_output@@V?$standard_base@_WV?$string_output_adapter@_W@__crt_stdio_output@@@2@@__crt_stdio_output@@AAEXI_N@Z
3B9E7 175 ??$type_case_integer_parse_into_buffer@I$09@?$output_processor@DV?$stream_output_adapter@D@__crt_stdio_output@@V?$standard_base@DV?$stream_output_adapter@D@__crt_stdio_output@@@2@@__crt_stdio_output@@AAEXI_N@Z
3BA6E 175 ??$type_case_integer_parse_into_buffer@I$09@?$output_processor@_WV?$string_output_adapter@_W@__crt_stdio_output@@V?$standard_base@_WV?$string_output_adapter@_W@__crt_stdio_output@@@2@@__crt_stdio_output@@AAEXI_N@Z
3BB0A 175 ??$type_case_integer_parse_into_buffer@I$0BA@@?$output_processor@DV?$stream_output_adapter@D@__crt_stdio_output@@V?$standard_base@DV?$stream_output_adapter@D@__crt_stdio_output@@@2@@__crt_stdio_output@@AAEXI_N@Z
3BB87 175 ??$type_case_integer_parse_into_buffer@I$0BA@@?$output_processor@_WV?$string_output_adapter@_W@__crt_stdio_output@@V?$standard_base@_WV?$string_output_adapter@_W@__crt_stdio_output@@@2@@__crt_stdio_output@@AAEXI_N@Z
3BC11 175 ??$type_case_integer_parse_into_buffer@_K$07@?$output_processor@DV?$stream_output_adapter@D@__crt_stdio_output@@V?$standard_base@DV?$stream_output_adapter@D@__crt_stdio_output@@@2@@__crt_stdio_output@@AAEX_K_N@Z
3BC89 175 ??$type_case_integer_parse_into_buffer@_K$07@?$output_processor@_WV?$string_output_adapter@_W@__crt_stdio_output@@V?$standard_base@_WV?$string_output_adapter@_W@__crt_stdio_output@@@2@@__crt_stdio_output@@AAEX_K_N@Z
3BD10 175 ??$type_case_integer_parse_into_buffer@_K$09@?$output_processor@DV?$stream_output_adapter@D@__crt_stdio_output@@V?$standard_base@DV?$stream_output_adapter@D@__crt_stdio_output@@@2@@__crt_stdio_output@@AAEX_K_N@Z
3BDB7 175 ??$type_case_integer_parse_into_buffer@_K$09@?$output_processor@_WV?$string_output_adapter@_W@__crt_stdio_output@@V?$standard_base@_WV?$string_output_adapter@_W@__crt_stdio_output@@@2@@__crt_stdio_output@@AAEX_K_N@Z
3BE74 175 ??$type_case_integer_parse_into_buffer@_K$0BA@@?$output_processor@DV?$stream_output_adapter@D@__crt_stdio_output@@V?$standard_base@DV?$stream_output_adapter@D@__crt_stdio_output@@@2@@__crt_stdio_output@@AAEX_K_N@Z
3BEFE 175 ??$type_case_integer_parse_into_buffer@_K$0BA@@?$output_processor@_WV?$string_output_adapter@_W@__crt_stdio_output@@V?$standard_base@_WV?$string_output_adapter@_W@__crt_stdio_output@@@2@@__crt_stdio_output@@AAEX_K_N@Z
3BF94 175 ??0?$output_adapter_data@DV?$stream_output_adapter@D@__crt_stdio_output@@@__crt_stdio_output@@IAE@ABV?$stream_output_adapter@D@1@_KQBDAAV__crt_cached_ptd_host@@QAD@Z
3BFFB 175 ??0?$output_adapter_data@_WV?$string_output_adapter@_W@__crt_stdio_output@@@__crt_stdio_output@@IAE@ABV?$string_output_adapter@_W@1@_KQB_WAAV__crt_cached_ptd_host@@QAD@Z
3C070 175 ??0__crt_cached_ptd_host@@QAE@QAU__crt_locale_pointers@@@Z
3C0D0 175 ??1__crt_cached_ptd_host@@QAE@XZ
3C10C 175 ??1formatting_buffer@__crt_stdio_output@@QAE@XZ
3C126 175 ??4?$__crt_unique_heap_ptr@DU__crt_internal_free_policy@@@@QAEAAV0@$$QAV0@@Z
3C14A 175 ??R<lambda_826c27fce7726908515bbc79a5266961>@@QBEHXZ
3C1E6 175 ?crop_zeroes@__crt_stdio_output@@YAXPADQAU__crt_locale_pointers@@@Z
3C246 175 ?find_next_state@?$output_processor@DV?$stream_output_adapter@D@__crt_stdio_output@@V?$standard_base@DV?$stream_output_adapter@D@__crt_stdio_output@@@2@@__crt_stdio_output@@ABE?AW4state@2@DW432@@Z
3C281 175 ?find_next_state@?$output_processor@_WV?$string_output_adapter@_W@__crt_stdio_output@@V?$standard_base@_WV?$string_output_adapter@_W@__crt_stdio_output@@@2@@__crt_stdio_output@@ABE?AW4state@2@_WW432@@Z
3C2BB 175 ?force_decimal_point@__crt_stdio_output@@YAXPADQAU__crt_locale_pointers@@@Z
3C320 175 ?force_synchronize_per_thread_data@__crt_cached_ptd_host@@AAEPAU__acrt_ptd@@XZ
3C370 175 ?get_raw_ptd@__crt_cached_ptd_host@@QAEPAU__acrt_ptd@@XZ
3C3CC 175 ?parse_int_from_format_string@?$output_processor@DV?$stream_output_adapter@D@__crt_stdio_output@@V?$standard_base@DV?$stream_output_adapter@D@__crt_stdio_output@@@2@@__crt_stdio_output@@AAE_NQAH@Z
3C444 175 ?parse_int_from_format_string@?$output_processor@_WV?$string_output_adapter@_W@__crt_stdio_output@@V?$standard_base@_WV?$string_output_adapter@_W@__crt_stdio_output@@@2@@__crt_stdio_output@@AAE_NQAH@Z
3C4BE 175 ?process@?$output_processor@DV?$stream_output_adapter@D@__crt_stdio_output@@V?$standard_base@DV?$stream_output_adapter@D@__crt_stdio_output@@@2@@__crt_stdio_output@@QAEHXZ
3C74E 175 $LN121
3C76E 175 ?process@?$output_processor@DV?$string_output_adapter@D@__crt_stdio_output@@V?$standard_base@DV?$string_output_adapter@D@__crt_stdio_output@@@2@@__crt_stdio_output@@QAEHXZ
3CA22 175 $LN130
3CA42 175 ?process@?$output_processor@_WV?$string_output_adapter@_W@__crt_stdio_output@@V?$standard_base@_WV?$string_output_adapter@_W@__crt_stdio_output@@@2@@__crt_stdio_output@@QAEHXZ
3CC5E 175 $LN107
3CC7E 175 ?state_case_size@?$output_processor@DV?$stream_output_adapter@D@__crt_stdio_output@@V?$standard_base@DV?$stream_output_adapter@D@__crt_stdio_output@@@2@@__crt_stdio_output@@AAE_NXZ
3CDD7 175 ?state_case_size@?$output_processor@DV?$string_output_adapter@D@__crt_stdio_output@@V?$standard_base@DV?$string_output_adapter@D@__crt_stdio_output@@@2@@__crt_stdio_output@@AAE_NXZ
3CF30 175 ?state_case_size@?$output_processor@_WV?$string_output_adapter@_W@__crt_stdio_output@@V?$standard_base@_WV?$string_output_adapter@_W@__crt_stdio_output@@@2@@__crt_stdio_output@@AAE_NXZ
3D0BA 175 ?state_case_type@?$output_processor@DV?$stream_output_adapter@D@__crt_stdio_output@@V?$standard_base@DV?$stream_output_adapter@D@__crt_stdio_output@@@2@@__crt_stdio_output@@AAE_NXZ
3D3FC 175 ?state_case_type@?$output_processor@DV?$string_output_adapter@D@__crt_stdio_output@@V?$standard_base@DV?$string_output_adapter@D@__crt_stdio_output@@@2@@__crt_stdio_output@@AAE_NXZ
3D75B 175 ?state_case_type@?$output_processor@_WV?$string_output_adapter@_W@__crt_stdio_output@@V?$standard_base@_WV?$string_output_adapter@_W@__crt_stdio_output@@@2@@__crt_stdio_output@@AAE_NXZ
3DB4F 175 ?to_integer_size@__crt_stdio_output@@YAIW4length_modifier@1@@Z
3DB83 175 $LN18
3DB97 175 $LN17
3DBA3 175 ?type_case_Z@?$output_processor@DV?$stream_output_adapter@D@__crt_stdio_output@@V?$standard_base@DV?$stream_output_adapter@D@__crt_stdio_output@@@2@@__crt_stdio_output@@AAE_NXZ
3DC06 175 ?type_case_Z@?$output_processor@_WV?$string_output_adapter@_W@__crt_stdio_output@@V?$standard_base@_WV?$string_output_adapter@_W@__crt_stdio_output@@@2@@__crt_stdio_output@@AAE_NXZ
3DC69 175 ?type_case_a@?$output_processor@DV?$stream_output_adapter@D@__crt_stdio_output@@V?$standard_base@DV?$stream_output_adapter@D@__crt_stdio_output@@@2@@__crt_stdio_output@@AAE_NXZ
3DDFA 175 ?type_case_a@?$output_processor@_WV?$string_output_adapter@_W@__crt_stdio_output@@V?$standard_base@_WV?$string_output_adapter@_W@__crt_stdio_output@@@2@@__crt_stdio_output@@AAE_NXZ
3DFA1 175 ?type_case_c_tchar@?$output_processor@DV?$stream_output_adapter@D@__crt_stdio_output@@V?$standard_base@DV?$stream_output_adapter@D@__crt_stdio_output@@@2@@__crt_stdio_output@@AAE_ND@Z
3E036 175 ?type_case_c_tchar@?$output_processor@_WV?$string_output_adapter@_W@__crt_stdio_output@@V?$standard_base@_WV?$string_output_adapter@_W@__crt_stdio_output@@@2@@__crt_stdio_output@@AAE_N_W@Z
3E0DE 175 ?type_case_n@?$output_processor@DV?$stream_output_adapter@D@__crt_stdio_output@@V?$standard_base@DV?$stream_output_adapter@D@__crt_stdio_output@@@2@@__crt_stdio_output@@AAE_NXZ
3E163 175 ?type_case_o@?$output_processor@DV?$stream_output_adapter@D@__crt_stdio_output@@V?$standard_base@DV?$stream_output_adapter@D@__crt_stdio_output@@@2@@__crt_stdio_output@@AAE_NXZ
3E180 175 ?type_case_o@?$output_processor@_WV?$string_output_adapter@_W@__crt_stdio_output@@V?$standard_base@_WV?$string_output_adapter@_W@__crt_stdio_output@@@2@@__crt_stdio_output@@AAE_NXZ
3E19D 175 ?type_case_p@?$output_processor@DV?$stream_output_adapter@D@__crt_stdio_output@@V?$standard_base@DV?$stream_output_adapter@D@__crt_stdio_output@@@2@@__crt_stdio_output@@AAE_NXZ
3E1B3 175 ?type_case_p@?$output_processor@_WV?$string_output_adapter@_W@__crt_stdio_output@@V?$standard_base@_WV?$string_output_adapter@_W@__crt_stdio_output@@@2@@__crt_stdio_output@@AAE_NXZ
3E1C9 175 ?type_case_s@?$output_processor@DV?$stream_output_adapter@D@__crt_stdio_output@@V?$standard_base@DV?$stream_output_adapter@D@__crt_stdio_output@@@2@@__crt_stdio_output@@AAE_NXZ
3E23B 175 ?type_case_s@?$output_processor@_WV?$string_output_adapter@_W@__crt_stdio_output@@V?$standard_base@_WV?$string_output_adapter@_W@__crt_stdio_output@@@2@@__crt_stdio_output@@AAE_NXZ
3E2AF 175 ?type_case_s_compute_narrow_string_length@?$output_processor@_WV?$string_output_adapter@_W@__crt_stdio_output@@V?$standard_base@_WV?$string_output_adapter@_W@__crt_stdio_output@@@2@@__crt_stdio_output@@AAEHH_W@Z
3E304 175 ?unget@?$c_string_character_source@D@__crt_strtox@@QAEXD@Z
3E32D 175 ?unget@?$c_string_character_source@_W@__crt_strtox@@QAEX_W@Z
3E360 175 ?update_locale_slow@__crt_cached_ptd_host@@AAEXXZ
3E3BB 175 ?validate@?$c_string_character_source@D@__crt_strtox@@QBE_NXZ
3E3D6 175 ?validate@?$stream_output_adapter@D@__crt_stdio_output@@QBE_NAAV__crt_cached_ptd_host@@@Z
3E40E 175 ?validate@?$string_output_adapter@D@__crt_stdio_output@@QBE_NAAV__crt_cached_ptd_host@@@Z
3E43F 175 ?validate_stream_is_ansi_if_required@?$__acrt_stdio_char_traits@D@@SA_NQAU_iobuf@@@Z
3E4C6 175 ?write_character@?$output_adapter_common@DV?$stream_output_adapter@D@__crt_stdio_output@@@__crt_stdio_output@@QBEXDQAHAAV__crt_cached_ptd_host@@@Z
3E4E8 175 ?write_character_without_count_update@?$stream_output_adapter@D@__crt_stdio_output@@QBE_NDAAV__crt_cached_ptd_host@@@Z
3E522 175 ?write_string@?$stream_output_adapter@D@__crt_stdio_output@@QBEXQBDHQAHAAV__crt_cached_ptd_host@@@Z
3E54E 175 ?write_string@?$string_output_adapter@D@__crt_stdio_output@@QBEXQBDHQAHAAV__crt_cached_ptd_host@@@Z
3E5B5 175 ?write_string@?$string_output_adapter@_W@__crt_stdio_output@@QBEXQB_WHQAHAAV__crt_cached_ptd_host@@@Z
3E626 175 ?write_string_impl@?$output_adapter_common@DV?$stream_output_adapter@D@__crt_stdio_output@@@__crt_stdio_output@@IBEXQBDHQAHAAV__crt_cached_ptd_host@@@Z
3E6A5 175 ___acrt_locale_get_ctype_array_value
3E6C7 175 ___stdio_common_vfprintf
3E76B 175 ___stdio_common_vsprintf
3E7AC 175 ___stdio_common_vswprintf
3E7ED 91 ?_fclose_internal@@YAHQAU_iobuf@@AAV__crt_cached_ptd_host@@@Z
3E884 91 ?_fclose_nolock_internal@@YAHQAU_iobuf@@AAV__crt_cached_ptd_host@@@Z
3E912 91 __fclose_nolock
3E942 91 _fclose
3E972 229 __wcsdup
3E9D1 127 ___hw_cw_sse2
3EA78 127 __clearfp
3EB56 127 __control87
3EE57 127 __hw_cw
3EEF5 103 ??$common_fsopen@_W@@YAPAU_iobuf@@QB_W0H@Z
3EFAB 103 __wfopen
3EFC2 109 _free
3EFDD 155 _malloc
3EFE8 96 _feof
3F014 96 _ferror
3F040 55 ___acrt_initialize_stdio
3F108 55 ___acrt_iob_func
3F118 55 ___acrt_uninitialize_stdio
3F164 55 __lock_file
3F178 55 __unlock_file
3F18C 99 __fgetc_nolock
3F1C8 99 __getc_nolock
3F1D3 99 _fgetc
3F2EC 99 _getc
3F2F7 111 ??$common_freopen@_W@@YAHQAPAU_iobuf@@QB_W1V__crt_stdio_stream@@H@Z
3F400 111 __wfreopen
3F426 189 ?_rewind_internal@@YAXQAU_iobuf@@AAV__crt_cached_ptd_host@@@Z
3F50C 189 _rewind
3F536 88 ___acrt_errno_from_os_error
3F579 88 ___acrt_errno_map_os_error
3F59C 88 ___acrt_errno_map_os_error_ptd
3F5C0 88 ___doserrno
3F5D3 88 __errno
3F5E6 222 __ungetc_nolock
3F6DA 222 _ungetc
3F74D 108 __fread_nolock_s
3F926 108 _fread
3F943 108 _fread_s
3F9E0 73 _memcpy_s
3FA61 203 ??$common_strerror@D@@YAPADH@Z
3FAD4 203 __get_sys_err_msg
3FB2C 203 _strerror
3FB37 212 ??0_LocaleUpdate@@QAE@QAU__crt_locale_pointers@@@Z
3FBB9 212 ?_strupr_s_l_stat@@YAHQADIQAU__crt_locale_pointers@@@Z
3FD2F 212 __freea_crt
3FD4F 212 __strupr
3FDAB 212 __strupr_s_l
3FDE2 230 ___ascii_wcsicmp
3FE1F 230 __towlower_internal
3FE5E 230 __wcsicmp
3FEA7 230 __wcsicmp_l
3FF5F 141 _iswctype
3FFC8 232 _wcsncpy
40010 205 _strncmp
40090 52 _isalnum
40120 52 _isalpha
401B0 52 _iscntrl
40240 52 _isdigit
402D0 52 _isgraph
40360 52 _islower
403F0 52 _isprint
40480 52 _ispunct
40510 52 _isspace
405A0 52 _isupper
40630 52 _isxdigit
406C0 207 _strncpy
407F0 210 _strpbrk
40830 185 _realloc
4083B 179 ??$common_popen@_W@@YAPAU_iobuf@@QB_W0@Z
40969 179 ??$common_popen_nolock@_W@@YAPAU_iobuf@@QB_W0HAAY01H@Z
40C3C 179 ??$convert_popen_type_to_fdopen_mode@_W@@YA?AU?$fdopen_mode@_W@?A0xe43b7539@@QB_W@Z
40CC1 179 ??$get_executable_path@_W@@YAPB_WQB_W@Z
40E0B 179 ?__crt_stdio_path_requires_backslash@@YA_NQB_W@Z
40E45 179 ?idtab@@YAPAUprocess_handle_pair@?A0xe43b7539@@QAU_iobuf@@@Z
40EB6 179 __pclose
40F8D 179 __wpopen
40F98 98 ??$?RV<lambda_2866be3712abc81a800a822484c830d8>@@AAV<lambda_39ca0ed439415581b5b15c265174cece>@@V<lambda_2b24c74d71094a6cd0cb82e44167d71b>@@@?$__crt_seh_guarded_call@X@@QAEX$$QAV<lambda_2866be3712abc81a800a822484c830d8>@@AAV<lambda_39ca0ed439415581b5b15c265174cece>@@$$QAV<lambda_2b24c74d71094a6cd0cb82e44167d71b>@@@Z
41024 98 ??$?RV<lambda_2cc53f568c5a2bb6f192f930a45d44ea>@@AAV<lambda_ab61a845afdef5b7c387490eaf3616ee>@@V<lambda_c2ffc0b7726aa6be21d5f0026187e748>@@@?$__crt_seh_guarded_call@X@@QAEX$$QAV<lambda_2cc53f568c5a2bb6f192f930a45d44ea>@@AAV<lambda_ab61a845afdef5b7c387490eaf3616ee>@@$$QAV<lambda_c2ffc0b7726aa6be21d5f0026187e748>@@@Z
410D0 98 ??$?RV<lambda_6d20deecaf4856105ebacbad442d1079>@@AAV<lambda_9a32fed5bf61b6b509b2d3f6003082a1>@@V<lambda_63ea2239ed67c638ddbae41947fdf875>@@@?$__crt_seh_guarded_call@H@@QAEH$$QAV<lambda_6d20deecaf4856105ebacbad442d1079>@@AAV<lambda_9a32fed5bf61b6b509b2d3f6003082a1>@@$$QAV<lambda_63ea2239ed67c638ddbae41947fdf875>@@@Z
41130 98 ?common_flush_all@@YAH_N@Z
4117D 98 ?common_flush_all_should_try_to_flush_stream@@YA_NV__crt_stdio_stream@@QAH@Z
411AE 98 ?is_stream_flushable_or_commitable@@YA_NJ@Z
411D1 98 ___acrt_stdio_flush_nolock
4123A 98 __fflush_nolock
4129F 98 __flushall
412A8 98 _fflush
412FB 75 _clearerr
41300 75 _clearerr_s
413AB 100 ??$common_fgets@D@@YAPADQADHV__crt_stdio_stream@@@Z
4147D 100 _fgets
41488 216 ??$generate_tmpfile_file_name@D@@YA_NQADI@Z
414FC 216 ??$get_tmpfile_buffer_nolock@D@@YAPADW4buffer_id@?A0x5b9a7937@@@Z
41536 216 ??$initialize_tmpfile_buffer_nolock@D@@YA_NW4buffer_id@?A0x5b9a7937@@@Z
415D9 216 ?common_tmpfile@@YAHQAPAU_iobuf@@H@Z
41655 216 ?common_tmpfile_nolock@@YAHQAPAU_iobuf@@H@Z
417A9 216 ___acrt_stdio_free_tmpfile_name_buffers_nolock
417E4 216 _tmpfile
41800 115 ??$?RV<lambda_76055cf4b68c1f980da8b7496a3ae623>@@AAV<lambda_26974eb511f701c600fccfa2a97a8e1b>@@V<lambda_0062726809bb3c529c0733aa37379daf>@@@?$__crt_seh_guarded_call@I@@QAEI$$QAV<lambda_76055cf4b68c1f980da8b7496a3ae623>@@AAV<lambda_26974eb511f701c600fccfa2a97a8e1b>@@$$QAV<lambda_0062726809bb3c529c0733aa37379daf>@@@Z
4185B 115 ??R<lambda_26974eb511f701c600fccfa2a97a8e1b>@@QBEIXZ
418A7 115 __fwrite_internal
4191E 115 __fwrite_nolock_internal
41AC5 115 _fwrite
41AFF 193 ??$?RV<lambda_c390c0748f48a7db46f6ce5cc3c796da>@@AAV<lambda_703a5c3f7c88128b7f5f7a8861b0a6e0>@@V<lambda_c16a91f8771b304e2b1164fb4c043437>@@@?$__crt_seh_guarded_call@H@@QAEH$$QAV<lambda_c390c0748f48a7db46f6ce5cc3c796da>@@AAV<lambda_703a5c3f7c88128b7f5f7a8861b0a6e0>@@$$QAV<lambda_c16a91f8771b304e2b1164fb4c043437>@@@Z
41B5A 193 ??R<lambda_703a5c3f7c88128b7f5f7a8861b0a6e0>@@QBE@XZ
41BFA 193 ?_setvbuf_internal@@YAHQAU_iobuf@@QADHIAAV__crt_cached_ptd_host@@@Z
41C90 193 ?set_buffer@@YAHV__crt_stdio_stream@@QADIH@Z
41CC3 193 _setvbuf
41CFD 135 ??$?RV<lambda_274ecf0a8038e561263518ab346655e8>@@AAV<lambda_21448eb78dd3c4a522ed7c65a98d88e6>@@V<lambda_0ca1de2171e49cefb1e8dc85c06db622>@@@?$__crt_seh_guarded_call@H@@QAEH$$QAV<lambda_274ecf0a8038e561263518ab346655e8>@@AAV<lambda_21448eb78dd3c4a522ed7c65a98d88e6>@@$$QAV<lambda_0ca1de2171e49cefb1e8dc85c06db622>@@@Z
41D58 135 ??$assemble_floating_point_snan@N@__crt_strtox@@YAX_NAAN@Z
41D79 135 ??$assemble_floating_point_value_t@M@__crt_strtox@@YA?AW4SLD_STATUS@@_NH_KAAM@Z
41DA9 135 ??$assemble_floating_point_value_t@N@__crt_strtox@@YA?AW4SLD_STATUS@@_NH_KAAN@Z
41DEB 135 ??$convert_decimal_string_to_floating_type@M@__crt_strtox@@YA?AW4SLD_STATUS@@ABUfloating_point_string@0@AAM@Z
41E0C 135 ??$convert_decimal_string_to_floating_type@N@__crt_strtox@@YA?AW4SLD_STATUS@@ABUfloating_point_string@0@AAN@Z
41E2D 135 ??$convert_hexadecimal_string_to_floating_type@M@__crt_strtox@@YA?AW4SLD_STATUS@@ABUfloating_point_string@0@AAM@Z
41E4E 135 ??$convert_hexadecimal_string_to_floating_type@N@__crt_strtox@@YA?AW4SLD_STATUS@@ABUfloating_point_string@0@AAN@Z
41E6F 135 ??$is_overflow_condition@_K@__crt_strtox@@YA_NI_K@Z
41EB0 135 ??$make_input_adapter_character_source@V?$stream_input_adapter@D@__crt_stdio_input@@@__crt_strtox@@YA?AV?$input_adapter_character_source@V?$stream_input_adapter@D@__crt_stdio_input@@@0@QAV?$stream_input_adapter@D@__crt_stdio_input@@_KQA_N@Z
41ECE 135 ??$parse_floating_point@V?$input_adapter_character_source@V?$stream_input_adapter@D@__crt_stdio_input@@@__crt_strtox@@M@__crt_strtox@@YA?AW4SLD_STATUS@@QAU__crt_locale_pointers@@V?$input_adapter_character_source@V?$stream_input_adapter@D@__crt_stdio_input@@@0@QAM@Z
41F58 135 ??$parse_floating_point@V?$input_adapter_character_source@V?$stream_input_adapter@D@__crt_stdio_input@@@__crt_strtox@@N@__crt_strtox@@YA?AW4SLD_STATUS@@QAU__crt_locale_pointers@@V?$input_adapter_character_source@V?$stream_input_adapter@D@__crt_stdio_input@@@0@QAN@Z
41FE2 135 ??$parse_floating_point_from_source@V?$input_adapter_character_source@V?$stream_input_adapter@D@__crt_stdio_input@@@__crt_strtox@@@__crt_strtox@@YA?AW4floating_point_parse_result@0@QAU__crt_locale_pointers@@AAV?$input_adapter_character_source@V?$stream_input_adapter@D@__crt_stdio_input@@@0@AAUfloating_point_string@0@@Z
42444 135 ??$parse_floating_point_possible_infinity@DV?$input_adapter_character_source@V?$stream_input_adapter@D@__crt_stdio_input@@@__crt_strtox@@_K@__crt_strtox@@YA?AW4floating_point_parse_result@0@AADAAV?$input_adapter_character_source@V?$stream_input_adapter@D@__crt_stdio_input@@@0@_K@Z
42503 135 ??$parse_floating_point_possible_nan@DV?$input_adapter_character_source@V?$stream_input_adapter@D@__crt_stdio_input@@@__crt_strtox@@_K@__crt_strtox@@YA?AW4floating_point_parse_result@0@AADAAV?$input_adapter_character_source@V?$stream_input_adapter@D@__crt_stdio_input@@@0@_K@Z
4260B 135 ??$parse_floating_point_possible_nan_is_ind@DV?$input_adapter_character_source@V?$stream_input_adapter@D@__crt_stdio_input@@@__crt_strtox@@@__crt_strtox@@YA_NAADAAV?$input_adapter_character_source@V?$stream_input_adapter@D@__crt_stdio_input@@@0@@Z
42645 135 ??$parse_floating_point_possible_nan_is_snan@DV?$input_adapter_character_source@V?$stream_input_adapter@D@__crt_stdio_input@@@__crt_strtox@@@__crt_strtox@@YA_NAADAAV?$input_adapter_character_source@V?$stream_input_adapter@D@__crt_stdio_input@@@0@@Z
4267F 135 ??$parse_floating_point_write_result@M@__crt_strtox@@YA?AW4SLD_STATUS@@W4floating_point_parse_result@0@ABUfloating_point_string@0@QAM@Z
427C3 135 $LN32
427EB 135 ??$parse_floating_point_write_result@N@__crt_strtox@@YA?AW4SLD_STATUS@@W4floating_point_parse_result@0@ABUfloating_point_string@0@QAN@Z
428E7 135 $LN30
4290F 135 ??$parse_integer@_KV?$input_adapter_character_source@V?$stream_input_adapter@D@__crt_stdio_input@@@__crt_strtox@@$00@__crt_strtox@@YA_KAAV__crt_cached_ptd_host@@V?$input_adapter_character_source@V?$stream_input_adapter@D@__crt_stdio_input@@@0@H_N@Z
42C13 135 ??$parse_integer@_KV?$input_adapter_character_source@V?$stream_input_adapter@D@__crt_stdio_input@@@__crt_strtox@@@__crt_strtox@@YA_KQAU__crt_locale_pointers@@V?$input_adapter_character_source@V?$stream_input_adapter@D@__crt_stdio_input@@@0@H_N@Z
42C6F 135 ??$process_floating_point_specifier_t@M@?$input_processor@DV?$stream_input_adapter@D@__crt_stdio_input@@@__crt_stdio_input@@AAE_NXZ
42CD8 135 ??$process_floating_point_specifier_t@N@?$input_processor@DV?$stream_input_adapter@D@__crt_stdio_input@@@__crt_stdio_input@@AAE_NXZ
42D41 135 ??$process_string_specifier_tchar@D@?$input_processor@DV?$stream_input_adapter@D@__crt_stdio_input@@@__crt_stdio_input@@AAE_NW4conversion_mode@1@D@Z
42EB7 135 ??$process_string_specifier_tchar@_W@?$input_processor@DV?$stream_input_adapter@D@__crt_stdio_input@@@__crt_stdio_input@@AAE_NW4conversion_mode@1@_W@Z
43039 135 ??$skip_whitespace@Vstream_input_adapter@__crt_stdio_input@@D@__crt_stdio_input@@YAHAAV?$stream_input_adapter@D@0@QAU__crt_locale_pointers@@@Z
43070 135 ??$write_floating_point@M@?$input_processor@DV?$stream_input_adapter@D@__crt_stdio_input@@@__crt_stdio_input@@AAE_NABM@Z
430A5 135 ??$write_floating_point@N@?$input_processor@DV?$stream_input_adapter@D@__crt_stdio_input@@@__crt_stdio_input@@AAE_NABN@Z
430E0 135 ??0?$format_string_parser@D@__crt_stdio_input@@QAE@_KQBE@Z
4312A 135 ??0?$input_adapter_character_source@V?$stream_input_adapter@D@__crt_stdio_input@@@__crt_strtox@@QAE@$$QAV01@@Z
43167 135 ??0?$input_adapter_character_source@V?$stream_input_adapter@D@__crt_stdio_input@@@__crt_strtox@@QAE@QAV?$stream_input_adapter@D@__crt_stdio_input@@_KQA_N@Z
43198 135 ??0?$input_processor@DV?$stream_input_adapter@D@__crt_stdio_input@@@__crt_stdio_input@@QAE@ABV?$stream_input_adapter@D@1@_KQBDQAU__crt_locale_pointers@@QAD@Z
431E1 135 ??R<lambda_0b87716a0b73cdfba1cd37fcaaa20711>@@QBE@XZ
4320B 135 ??R<lambda_21448eb78dd3c4a522ed7c65a98d88e6>@@QBE@XZ
4328B 135 ?advance@?$format_string_parser@D@__crt_stdio_input@@QAE_NXZ
433A3 135 ?as_double@floating_point_value@__crt_strtox@@QBEAANXZ
433C8 135 ?as_float@floating_point_value@__crt_strtox@@QBEAAMXZ
433ED 135 ?assemble_floating_point_infinity@__crt_strtox@@YAX_NABVfloating_point_value@1@@Z
4342D 135 ?assemble_floating_point_value@__crt_strtox@@YA?AW4SLD_STATUS@@_KH_N1ABVfloating_point_value@1@@Z
43786 135 ?assemble_floating_point_value_from_big_integer@__crt_strtox@@YA?AW4SLD_STATUS@@ABUbig_integer@1@I_N1ABVfloating_point_value@1@@Z
43918 135 ?assemble_floating_point_zero@__crt_strtox@@YAX_NABVfloating_point_value@1@@Z
4394D 135 ?convert_decimal_string_to_floating_type_common@__crt_strtox@@YA?AW4SLD_STATUS@@ABUfloating_point_string@1@ABVfloating_point_value@1@@Z
456F3 135 ?convert_hexadecimal_string_to_floating_type_common@__crt_strtox@@YA?AW4SLD_STATUS@@ABUfloating_point_string@1@ABVfloating_point_value@1@@Z
45799 135 ?denormal_mantissa_mask@floating_point_value@__crt_strtox@@QBE_KXZ
457B0 135 ?divide@__crt_strtox@@YA_KAAUbig_integer@1@ABU21@@Z
45C5B 135 ?get@?$input_adapter_character_source@V?$stream_input_adapter@D@__crt_stdio_input@@@__crt_strtox@@QAEDXZ
45C9A 135 ?is_character_allowed_in_string@?$input_processor@DV?$stream_input_adapter@D@__crt_stdio_input@@@__crt_stdio_input@@ABE_NW4conversion_mode@2@H@Z
45CEA 135 ?length@?$format_string_parser@D@__crt_stdio_input@@QBEIXZ
45D22 135 $LN16
45D2E 135 $LN15
45D38 135 ?normal_mantissa_mask@floating_point_value@__crt_strtox@@QBE_KXZ
45D4F 135 ?process@?$input_processor@DV?$stream_input_adapter@D@__crt_stdio_input@@@__crt_stdio_input@@QAEHXZ
45DDA 135 ?process_character_count_specifier@?$input_processor@DV?$stream_input_adapter@D@__crt_stdio_input@@@__crt_stdio_input@@AAE_NXZ
45DEE 135 ?process_conversion_specifier@?$input_processor@DV?$stream_input_adapter@D@__crt_stdio_input@@@__crt_stdio_input@@AAE_NXZ
45E3A 135 $LN15
45E62 135 ?process_floating_point_specifier@?$input_processor@DV?$stream_input_adapter@D@__crt_stdio_input@@@__crt_stdio_input@@AAE_NXZ
45E92 135 ?process_integer_specifier@?$input_processor@DV?$stream_input_adapter@D@__crt_stdio_input@@@__crt_stdio_input@@AAE_NI_N@Z
45EF7 135 ?process_literal_character@?$input_processor@DV?$stream_input_adapter@D@__crt_stdio_input@@@__crt_stdio_input@@AAE_NXZ
45F2D 135 ?process_literal_character_tchar@?$input_processor@DV?$stream_input_adapter@D@__crt_stdio_input@@@__crt_stdio_input@@AAE_ND@Z
45F84 135 ?process_state@?$input_processor@DV?$stream_input_adapter@D@__crt_stdio_input@@@__crt_stdio_input@@AAE_NXZ
45FC6 135 ?process_string_specifier@?$input_processor@DV?$stream_input_adapter@D@__crt_stdio_input@@@__crt_stdio_input@@AAE_NW4conversion_mode@2@@Z
4600E 135 ?process_whitespace@?$input_processor@DV?$stream_input_adapter@D@__crt_stdio_input@@@__crt_stdio_input@@AAE_NXZ
4602B 135 ?restore_state@?$input_adapter_character_source@V?$stream_input_adapter@D@__crt_stdio_input@@@__crt_strtox@@QAE_N_K@Z
46050 135 ?scan_conversion_specifier@?$format_string_parser@D@__crt_stdio_input@@AAE_NXZ
461CC 135 ?scan_optional_field_width@?$format_string_parser@D@__crt_stdio_input@@AAE_NXZ
46260 135 ?scan_optional_length_modifier@?$format_string_parser@D@__crt_stdio_input@@AAEXXZ
46380 135 ?scan_optional_literal_character_trail_bytes_tchar@?$format_string_parser@D@__crt_stdio_input@@AAE_ND@Z
463D2 135 ?scan_optional_wide_modifier@?$format_string_parser@D@__crt_stdio_input@@AAEXXZ
463F0 135 ?scan_scanset_range@?$format_string_parser@D@__crt_stdio_input@@AAE_NXZ
46529 135 ?set@?$scanset_buffer@E@__crt_stdio_input@@QAEXE@Z
46554 135 ?set_wide_for_c_s_or_scanset@?$format_string_parser@D@__crt_stdio_input@@AAEXXZ
46575 135 ?to_floating_point_length@__crt_stdio_input@@YAIW4length_modifier@1@@Z
46598 135 ?to_integer_length@__crt_stdio_input@@YAIW4length_modifier@1@@Z
465CC 135 $LN17
465E0 135 $LN16
465EB 135 ?unget@?$input_adapter_character_source@V?$stream_input_adapter@D@__crt_stdio_input@@@__crt_strtox@@QAEXD@Z
46632 135 ?unget@?$stream_input_adapter@D@__crt_stdio_input@@QAEXH@Z
46650 135 ?validate@?$format_string_parser@D@__crt_stdio_input@@QBE_NXZ
4666C 135 ?validate@?$input_adapter_character_source@V?$stream_input_adapter@D@__crt_stdio_input@@@__crt_strtox@@QBE_NXZ
4668D 135 ?validate@?$stream_input_adapter@D@__crt_stdio_input@@QBE_NXZ
466AE 135 ?write_character@?$input_processor@DV?$stream_input_adapter@D@__crt_stdio_input@@@__crt_stdio_input@@AAE_NQA_WIAAPA_WAAID@Z
46724 135 ?write_integer@?$input_processor@DV?$stream_input_adapter@D@__crt_stdio_input@@@__crt_stdio_input@@AAE_N_K@Z
46793 135 ___stdio_common_vfscanf
46818 135 __ischartype_l
4686F 114 ??$common_ftell@_J@@YA_JV__crt_stdio_stream@@AAV__crt_cached_ptd_host@@@Z
468FE 114 ??$common_ftell_nolock@_J@@YA_JV__crt_stdio_stream@@AAV__crt_cached_ptd_host@@@Z
46A9F 114 ?common_ftell_read_mode_nolock@@YA_JV__crt_stdio_stream@@_J1AAV__crt_cached_ptd_host@@@Z
46C6A 114 ?common_ftell_translated_utf8_nolock@@YA_JV__crt_stdio_stream@@_JAAV__crt_cached_ptd_host@@@Z
46E15 114 ?count_newline_bytes@@YA_JQBD0W4__crt_lowio_text_mode@@@Z
46E66 114 __ftelli64
46E9C 114 __ftelli64_nolock_internal
46EA7 113 ?LongLongSub@@YAJ_J0PA_J@Z
46F21 113 ?common_fseek@@YAHV__crt_stdio_stream@@_JHAAV__crt_cached_ptd_host@@@Z
46FCB 113 ?common_fseek_binary_mode_read_only_fast_track_nolock@@YA_NV__crt_stdio_stream@@_JH@Z
470A4 113 ?common_fseek_nolock@@YAHV__crt_stdio_stream@@_JHAAV__crt_cached_ptd_host@@@Z
47190 113 __fseeki64
471CA 119 ??$common_dupenv_s@_W@@YAHQAPA_WQAIQB_WHQBDH@Z
4722F 119 ??$common_dupenv_s_nolock@_W@@YAHQAPA_WQAIQB_WHQBDH@Z
472DB 119 ??$common_getenv@_W@@YAPA_WQB_W@Z
4735A 119 ??$common_getenv_nolock@_W@@YAPA_WQB_W@Z
473DE 119 __wdupenv_s
473FC 119 __wgetenv
47407 218 __toupper_l
47505 218 _toupper
47535 214 ??$common_system@_W@@YAHQB_W@Z
47650 214 __wsystem
4765B 204 ___ascii_stricmp
47694 204 __stricmp
476DD 204 __stricmp_l
4776D 227 _wcscmp
477AD 133 __initterm
477D8 133 __initterm_e
47806 89 __seh_filter_dll
47826 89 __seh_filter_exe
4796C 90 ??$?RV<lambda_03b1d95aef87969028cfba75ccab2455>@@AAV<lambda_6e4b09c48022b2350581041d5f6b0c4c>@@V<lambda_22bdf7517842c4b3e53723af5aa32b9e>@@@?$__crt_seh_guarded_call@X@@QAEX$$QAV<lambda_03b1d95aef87969028cfba75ccab2455>@@AAV<lambda_6e4b09c48022b2350581041d5f6b0c4c>@@$$QAV<lambda_22bdf7517842c4b3e53723af5aa32b9e>@@@Z
479B9 168 ??$__crt_fast_decode_pointer@P6AHI@Z@@YAP6AHI@ZQ6AHI@Z@Z
479D4 90 ??R<lambda_6e4b09c48022b2350581041d5f6b0c4c>@@QBE@XZ
47ABC 90 ?common_exit@@YAXHW4_crt_exit_cleanup_mode@@W4_crt_exit_return_mode@@@Z
47B53 90 ?exit_or_terminate_process@@YAXI@Z
47B84 90 ?is_managed_app@@YA_NXZ
47BC6 90 ?should_call_terminate_process@@YA_NXZ
47BDF 90 ?try_cor_exit_process@@YAXI@Z
47C61 90 ___acrt_initialize_thread_local_exit_callback
47C70 90 __cexit
47C7F 90 __exit
47C95 90 __is_c_termination_complete
47C9C 64 ??$common_configure_argv@D@@YAHW4_crt_argv_mode@@@Z
47DD9 64 ??$parse_command_line@D@@YAXPADPAPAD0PAI2@Z
47F4D 64 ___acrt_allocate_buffer_for_argv
47F9C 64 __configure_narrow_argv
47FA7 87 ??$common_get_or_create_environment_nolock@_W@@YAPAPA_WXZ
47FD3 87 ??$common_initialize_environment_nolock@D@@YAHXZ
4802D 87 ??$common_initialize_environment_nolock@_W@@YAHXZ
48082 87 ??$create_environment@D@@YAQAPADQAD@Z
48164 87 ??$create_environment@_W@@YAQAPA_WQA_W@Z
48282 87 ??$free_environment@D@@YAXQAPAD@Z
482B1 87 ??$initialize_environment_by_cloning_nolock@_W@@YAHXZ
48332 87 ??$uninitialize_environment_internal@D@@YAXAAPAPAD@Z
4834D 87 ??$uninitialize_environment_internal@_W@@YAXAAPAPA_W@Z
48368 87 ___dcrt_get_or_create_wide_environment_nolock
4836D 87 ___dcrt_uninitialize_environments_nolock
483BE 87 __initialize_narrow_environment
483C3 171 ??$?RV<lambda_69a2805e680e0e292e8ba93315fe43a8>@@AAV<lambda_f03950bc5685219e0bcd2087efbe011e>@@V<lambda_03fcd07e894ec930e3f35da366ca99d6>@@@?$__crt_seh_guarded_call@H@@QAEH$$QAV<lambda_69a2805e680e0e292e8ba93315fe43a8>@@AAV<lambda_f03950bc5685219e0bcd2087efbe011e>@@$$QAV<lambda_03fcd07e894ec930e3f35da366ca99d6>@@@Z
4841E 171 ??R<lambda_f03950bc5685219e0bcd2087efbe011e>@@QBE@XZ
484F8 171 __execute_onexit_table
48536 171 __initialize_onexit_table
4855F 130 _initialize_global_variables
4856C 130 _initialize_c
48586 63 ___acrt_uninitialize_command_line
48589 130 _uninitialize_environment
48591 130 _initialize_pointers
485BF 130 _uninitialize_vcruntime
485C8 130 _uninitialize_allocated_memory
485DF 130 _uninitialize_allocated_io_buffers
4862F 130 ??$__crt_fast_encode_pointer@PAX@@YAPAXQAX@Z
4864E 130 ??R<lambda_af42a3ee9806e9a7305d451646e05244>@@QBE@AAPAU__crt_multibyte_data@@@Z
4867C 130 ___acrt_initialize
4868E 130 ___acrt_thread_attach
48699 130 ___acrt_thread_detach
486A1 130 ___acrt_uninitialize
486D1 130 ___acrt_uninitialize_critical
486E3 215 _terminate
4871F 62 _abort
48763 200 _strcpy_s
487BD 68 _calloc
487C8 66 ??$parse_integer@_KV?$c_string_character_source@D@__crt_strtox@@$00@__crt_strtox@@YA_KAAV__crt_cached_ptd_host@@V?$c_string_character_source@D@0@H_N@Z
48A90 231 _wcsncmp
48ACA 136 ?check_synchronize_global_state_index@__crt_cached_ptd_host@@AAEIXZ
48AF3 136 ___acrt_call_reportfault
48C2C 136 ___acrt_initialize_invalid_parameter_handler
48C3B 136 __invalid_parameter
48C72 136 __invalid_parameter_internal
48CEF 136 __invalid_parameter_noinfo
48CFF 136 __invoke_watson
48D33 110 __free_base
48D6D 156 __malloc_base
48DBB 209 _strnlen
48EDD 209 _wcsnlen
4908D 148 ___acrt_update_locale_info
490BA 148 ___acrt_update_locale_info_explicit
490EB 148 ___acrt_update_multibyte_info
49118 148 ___acrt_update_multibyte_info_explicit
49149 86 ?__acrt_fp_classify@@YA?AW4__acrt_fp_class@@ABN@Z
491AB 86 ?fe_to_nearest@@YA_NQBN_KF@Z
4924E 86 ?fp_format_a@@YAHQBNPADIQADIH_NIW4__acrt_rounding_mode@@AAV__crt_cached_ptd_host@@@Z
4957B 86 ?fp_format_e@@YAHQBNQADI1IH_NIW4__acrt_rounding_mode@@AAV__crt_cached_ptd_host@@@Z
4961F 86 ?fp_format_e_internal@@YAHQADIH_NIQAU_strflt@@1AAV__crt_cached_ptd_host@@@Z
49772 86 ?fp_format_f@@YAHQBNQADI1IHW4__acrt_rounding_mode@@AAV__crt_cached_ptd_host@@@Z
49808 86 ?fp_format_f_internal@@YAHQADIHQAU_strflt@@_NAAV__crt_cached_ptd_host@@@Z
498F6 86 ?fp_format_g@@YAHQBNQADI1IH_NIW4__acrt_rounding_mode@@AAV__crt_cached_ptd_host@@@Z
499C5 86 ?fp_format_nan_or_infinity@@YAHW4__acrt_fp_class@@_NPADI1@Z
49A5A 86 ?shift_bytes@@YAXQADI0H@Z
49A8E 86 ?should_round_up@@YA_NQBN_KFW4__acrt_rounding_mode@@@Z
49B21 86 ___acrt_fp_format
49CA2 235 __wctomb_internal
49E0C 163 __mbtowc_internal
49F3F 163 __mbtowc_l
49F77 101 __fileno
49F9E 181 __get_printf_count_output
49FB3 107 __fputc_nolock_internal
49FE0 60 ___acrt_should_use_temporary_buffer
4A01E 60 ___acrt_stdio_begin_temporary_buffering_nolock
4A0C9 60 ___acrt_stdio_end_temporary_buffering_nolock
4A107 177 ??$?RV<lambda_15ade71b0218206bbe3333a0c9b79046>@@AAV<lambda_da44e0f8b0f19ba52fefafb335991732>@@V<lambda_207f2d024fc103971653565357d6cd41>@@@?$__crt_seh_guarded_call@X@@QAEX$$QAV<lambda_15ade71b0218206bbe3333a0c9b79046>@@AAV<lambda_da44e0f8b0f19ba52fefafb335991732>@@$$QAV<lambda_207f2d024fc103971653565357d6cd41>@@@Z
4A159 177 ??$?RV<lambda_38edbb1296d33220d7e4dd0ed76b244a>@@AAV<lambda_5ce1d447e08cb34b2473517608e21441>@@V<lambda_fb385d3da700c9147fc39e65dd577a8c>@@@?$__crt_seh_guarded_call@X@@QAEX$$QAV<lambda_38edbb1296d33220d7e4dd0ed76b244a>@@AAV<lambda_5ce1d447e08cb34b2473517608e21441>@@$$QAV<lambda_fb385d3da700c9147fc39e65dd577a8c>@@@Z
4A1C4 177 ??$?RV<lambda_6affb1475c98b40b75cdec977db92e3c>@@AAV<lambda_b8d4b9c228a6ecc3f80208dbb4b4a104>@@V<lambda_608742c3c92a14382c1684fc64f96c88>@@@?$__crt_seh_guarded_call@X@@QAEX$$QAV<lambda_6affb1475c98b40b75cdec977db92e3c>@@AAV<lambda_b8d4b9c228a6ecc3f80208dbb4b4a104>@@$$QAV<lambda_608742c3c92a14382c1684fc64f96c88>@@@Z
4A219 177 ??$?RV<lambda_a7e850c220f1c8d1e6efeecdedd162c6>@@AAV<lambda_46720907175c18b6c9d2717bc0d2d362>@@V<lambda_9048902d66e8d99359bc9897bbb930a8>@@@?$__crt_seh_guarded_call@X@@QAEX$$QAV<lambda_a7e850c220f1c8d1e6efeecdedd162c6>@@AAV<lambda_46720907175c18b6c9d2717bc0d2d362>@@$$QAV<lambda_9048902d66e8d99359bc9897bbb930a8>@@@Z
4A273 177 ?construct_ptd@@YAXQAU__acrt_ptd@@QAPAU__crt_locale_data@@@Z
4A30C 177 ?destroy_fls@@YGXPAX@Z
4A32D 177 ?destroy_ptd@@YAXQAU__acrt_ptd@@@Z
4A3FA 177 ?replace_current_thread_locale_nolock@@YAXQAU__acrt_ptd@@QAU__crt_locale_data@@@Z
4A445 177 ___acrt_freeptd
4A471 177 ___acrt_getptd
4A52C 177 ___acrt_getptd_head
4A5C2 177 ___acrt_getptd_noexit
4A673 177 ___acrt_getptd_noexit_explicit
4A716 177 ___acrt_initialize_ptd
4A742 177 ___acrt_uninitialize_ptd
4A75C 240 ??$?RV<lambda_e5124f882df8998aaf41531e079ba474>@@AAV<lambda_3e16ef9562a7dcce91392c22ab16ea36>@@V<lambda_e25ca0880e6ef98be67edffd8c599615>@@@?$__crt_seh_guarded_call@X@@QAEX$$QAV<lambda_e5124f882df8998aaf41531e079ba474>@@AAV<lambda_3e16ef9562a7dcce91392c22ab16ea36>@@$$QAV<lambda_e25ca0880e6ef98be67edffd8c599615>@@@Z
4A7CA 240 ___acrt_set_locale_changed
4A7D5 240 ___acrt_uninitialize_locale
4A7FC 137 ?initialize_inherited_file_handles_nolock@@YAXXZ
4A8B2 137 ?initialize_stdio_handles_nolock@@YAXXZ
4A962 137 ___acrt_initialize_lowio
4A9C2 137 ___acrt_uninitialize_lowio
4A9EE 76 ??$?RV<lambda_d422a76eb4c3bf3ad751449ab71a6ea4>@@AAV<lambda_c9ba49e555ba839a7b07aa3fbecb7617>@@V<lambda_9476263c8ee91a25d21c55370bdb50de>@@@?$__crt_seh_guarded_call@H@@QAEH$$QAV<lambda_d422a76eb4c3bf3ad751449ab71a6ea4>@@AAV<lambda_c9ba49e555ba839a7b07aa3fbecb7617>@@$$QAV<lambda_9476263c8ee91a25d21c55370bdb50de>@@@Z
4AA7F 76 __close
4AAAF 76 __close_internal
4AB52 76 __close_nolock
4AB82 76 __close_nolock_internal
4AC22 202 ?__acrt_stdio_allocate_stream@@YA?AV__crt_stdio_stream@@XZ
4AC8B 202 ?__acrt_stdio_free_stream@@YAXV__crt_stdio_stream@@@Z
4ACC6 202 ?find_or_allocate_unused_stream_nolock@@YA?AV__crt_stdio_stream@@XZ
4AD88 58 ___acrt_stdio_free_buffer_nolock
4ADC8 228 _wcscpy_s
4AE2C 83 __controlfp_s
4AE8B 195 ??$?RV<lambda_cbab9ec6f41b0180b23cc171c22676b0>@@AAV<lambda_44731a7d0e6d81c3e6aa82d741081786>@@V<lambda_4b292cb8dd18144e164572427af410ab>@@@?$__crt_seh_guarded_call@P6AXH@Z@@QAEP6AXH@Z$$QAV<lambda_cbab9ec6f41b0180b23cc171c22676b0>@@AAV<lambda_44731a7d0e6d81c3e6aa82d741081786>@@$$QAV<lambda_4b292cb8dd18144e164572427af410ab>@@@Z
4AEF3 195 ?get_global_action_nolock@@YAPAP6AXH@ZH@Z
4AF35 195 ?siglookup@@YAPAU__crt_signal_action_t@@HQAU1@@Z
4AF5D 195 ___acrt_get_sigabrt_handler
4AF84 195 ___acrt_initialize_signal_handlers
4AFA2 195 _raise
4B194 105 ___set_fpsr_sse2
4B214 105 __clrfp
4B225 105 __ctrlfp
4B24F 105 __set_statfp
4B2A8 105 __statfp
4B2B8 173 ??$__acrt_stdio_parse_mode@_W@@YA?AU__acrt_stdio_stream_mode@@QB_W@Z
4B523 173 ??$common_openfile@_W@@YAPAU_iobuf@@QB_W0HV__crt_stdio_stream@@@Z
4B5A6 173 ?__acrt_stdio_parse_mode_D@@YA_NAAU__acrt_stdio_stream_mode@@@Z
4B5C1 173 ?__acrt_stdio_parse_mode_T@@YA_NAAU__acrt_stdio_stream_mode@@@Z
4B5E0 173 ?__acrt_stdio_parse_mode_b@@YA_NAAU__acrt_stdio_stream_mode@@@Z
4B600 173 ?__acrt_stdio_parse_mode_c@@YA_NAAU__acrt_stdio_stream_mode@@AA_N@Z
4B622 173 ?__acrt_stdio_parse_mode_n@@YA_NAAU__acrt_stdio_stream_mode@@AA_N@Z
4B644 173 ?__acrt_stdio_parse_mode_plus@@YA_NAAU__acrt_stdio_stream_mode@@AA_N@Z
4B67A 173 ?__acrt_stdio_parse_mode_t@@YA_NAAU__acrt_stdio_stream_mode@@@Z
4B69A 173 ?__acrt_stdio_parse_mode_x@@YA_NAAU__acrt_stdio_stream_mode@@@Z
4B6BA 173 __wopenfile
4B6C5 69 __calloc_base
4B722 238 ?try_get_AreFileApisANSI@@YAP6GHXZXZ
4B73C 238 ?try_get_CompareStringEx@@YAP6GHPB_WK0H0HPAU_nlsversioninfo@@PAXJ@ZXZ
4B756 238 ?try_get_LCMapStringEx@@YAP6GHPB_WK0HPA_WHPAU_nlsversioninfo@@PAXJ@ZXZ
4B770 238 ?try_get_LocaleNameToLCID@@YAP6GKPB_WK@ZXZ
4B78A 238 ?try_get_first_available_module@@YAPAUHINSTANCE__@@QBW4module_id@?A0x391cf84c@@0@Z
4B855 238 ?try_get_function@@YAPAXW4function_id@?A0x391cf84c@@QBDQBW4module_id@2@2@Z
4B8DA 238 ___acrt_AppPolicyGetProcessTerminationMethodInternal@4
4B91A 238 ___acrt_AreFileApisANSI@0
4B939 238 ___acrt_CompareStringEx@36
4B996 238 ___acrt_FlsAlloc@4
4B9D5 238 ___acrt_FlsFree@4
4BA14 238 ___acrt_FlsGetValue@4
4BA53 238 ___acrt_FlsSetValue@8
4BA95 238 ___acrt_GetTempPath2W@8
4BAD7 238 ___acrt_InitializeCriticalSectionEx@12
4BB22 238 ___acrt_LCMapStringEx@36
4BB7F 238 ___acrt_LocaleNameToLCID@8
4BBB0 238 ___acrt_initialize_winapi_thunks
4BBC4 238 ___acrt_uninitialize_winapi_thunks
4BBFA 77 __fcloseall
4BCA5 54 ??$common_refill_and_read_nolock@D@@YAHV__crt_stdio_stream@@@Z
4BE34 54 ___acrt_stdio_refill_and_read_narrow_nolock
4BE3F 154 ??$common_lseek@J@@YAJHJHAAV__crt_cached_ptd_host@@@Z
4BF52 154 ??$common_lseek@_J@@YA_JH_JHAAV__crt_cached_ptd_host@@@Z
4C077 154 ??$common_lseek_nolock@J@@YAJHJHAAV__crt_cached_ptd_host@@@Z
4C0D4 154 ??$common_lseek_nolock@_J@@YA_JH_JHAAV__crt_cached_ptd_host@@@Z
4C157 154 ?common_lseek_do_seek_nolock@@YAJQAXJHAAV__crt_cached_ptd_host@@@Z
4C1E0 154 __lseek_internal
4C1EB 154 __lseeki64
4C22B 154 __lseeki64_internal
4C249 154 __lseeki64_nolock
4C289 154 __lseeki64_nolock_internal
4C2A7 59 ___acrt_stdio_allocate_buffer_nolock
4C303 184 ??$translate_text_mode_nolock@D@@YAHHQADI@Z
4C450 184 ??$translate_text_mode_nolock@_W@@YAHHQA_WI@Z
4C60A 184 ?translate_ansi_or_utf8_nolock@@YAHHQADIQA_WI@Z
4C761 184 ?translate_utf16_from_console_nolock@@YAHHQA_WI@Z
4C7DF 184 __read
4C8F8 184 __read_nolock
4CC83 213 ___sys_errlist
4CC89 213 ___sys_nerr
4CC8F 208 ??$common_tcsncpy_s@D@@YAHQADIQBDI@Z
4CD46 208 _strncpy_s
4CD51 143 ?__acrt_LCMapStringA_stat@@YAHPAU__crt_locale_pointers@@PB_WKPBDHPADHHH@Z
4CF40 143 ___acrt_LCMapStringA
4CF89 219 __towlower_l
4D05D 85 ___pctype_func
4D081 123 ___acrt_GetStringTypeW
4D09A 139 __isctype_l
4D165 186 __realloc_base
4D1CE 187 __recalloc_base
4D23B 226 _wcscat_s
4D2AA 225 __cwait
4D33E 121 ??$common_getpath@_W@@YAPA_WQB_WQA_WI@Z
4D42C 121 ___acrt_wgetpath
4D437 84 ??$__acrt_convert_wcs_mbs_cp@D_WV<lambda_62f6974d9771e494a5ea317cc32e971c>@@U__crt_win32_buffer_internal_dynamic_resizing@@@@YAHQBDAAV?$__crt_win32_buffer@_WU__crt_win32_buffer_internal_dynamic_resizing@@@@ABV<lambda_62f6974d9771e494a5ea317cc32e971c>@@I@Z
4D4E9 84 ??$__acrt_mbs_to_wcs_cp@U__crt_win32_buffer_internal_dynamic_resizing@@@@YAHQBDAAV?$__crt_win32_buffer@_WU__crt_win32_buffer_internal_dynamic_resizing@@@@I@Z
4D506 84 ?__acrt_get_utf8_acp_compatibility_codepage@@YAIXZ
4D545 65 ?_deallocate@?$__crt_win32_buffer@DU__crt_win32_buffer_internal_dynamic_resizing@@@@AAEXXZ
4D55F 84 ?allocate@?$__crt_win32_buffer@_WU__crt_win32_buffer_internal_dynamic_resizing@@@@QAEHI@Z
4D59E 84 ?allocate@__crt_win32_buffer_internal_dynamic_resizing@@SAHQAPAXIABV__crt_win32_buffer_empty_debug_info@@@Z
4D5BD 150 ___acrt_initialize_locks
4D5FE 150 ___acrt_lock
4D615 150 ___acrt_uninitialize_locks
4D646 150 ___acrt_unlock
4D65D 224 __waccess_s
4D71B 178 __pipe
4D9A5 92 ??$common_fdopen@_W@@YAPAU_iobuf@@HQB_W@Z
4DAA1 92 __wfdopen
4DAAC 78 ??$?RV<lambda_9e9de3de5fa147e2223d7db92bc10aa6>@@AAV<lambda_38ce7e780aa69e748d6df282ebc68efe>@@V<lambda_8ca6da459f0f6780f1cff60fdc3d00e5>@@@?$__crt_seh_guarded_call@H@@QAEH$$QAV<lambda_9e9de3de5fa147e2223d7db92bc10aa6>@@AAV<lambda_38ce7e780aa69e748d6df282ebc68efe>@@$$QAV<lambda_8ca6da459f0f6780f1cff60fdc3d00e5>@@@Z
4DB4E 78 __commit
4DBCB 239 ?write_double_translated_ansi_nolock@@YA?AUwrite_result@?A0x17268360@@HQBDIAAV__crt_cached_ptd_host@@@Z
4DF92 239 ?write_double_translated_unicode_nolock@@YA?AUwrite_result@?A0x17268360@@QBDI@Z
4DFFA 239 ?write_requires_double_translation_nolock@@YA_NHAAV__crt_cached_ptd_host@@@Z
4E077 239 ?write_text_ansi_nolock@@YA?AUwrite_result@?A0x17268360@@HQBDI@Z
4E152 239 ?write_text_utf16le_nolock@@YA?AUwrite_result@?A0x17268360@@HQBDI@Z
4E23B 239 ?write_text_utf8_nolock@@YA?AUwrite_result@?A0x17268360@@HQBDI@Z
4E36D 239 __write
4E3A4 239 __write_internal
4E4B5 239 __write_nolock
4E6D1 211 _strtoull
4E71D 241 ??$common_xtox@_KD@@YAH_KQADII_N@Z
4E7FF 241 ??$common_xtox_s@_KD@@YAH_KQADII_N@Z
4E872 241 __ui64toa_s
4E892 201 __strdup
4E8E6 124 ___acrt_GetTempPath2A
4E966 172 ??$common_sopen_dispatch@D@@YAHQBDHHHQAHH@Z
4EA41 172 ??$common_sopen_dispatch@_W@@YAHQB_WHHHQAHH@Z
4EB1C 172 ?configure_text_mode@@YAHHUfile_options@?A0xa9d50aae@@HAAW4__crt_lowio_text_mode@@@Z
4ED72 172 ?create_file@@YAPAXQB_WQAU_SECURITY_ATTRIBUTES@@Ufile_options@?A0xa9d50aae@@@Z
4ED97 172 ?decode_open_create_flags@@YAKH@Z
4EE07 172 ?decode_options@@YA?AUfile_options@?A0xa9d50aae@@HHH@Z
4EF81 172 ?truncate_ctrl_z_if_present@@YAHH@Z
4F02B 172 __sopen_nolock
4F099 172 __sopen_s
4F0B9 172 __wsopen_nolock
4F3E3 172 __wsopen_s
4F403 190 ___acrt_uninitialize_tmpfile
4F40D 190 __rmtmp
4F4B1 56 ??$common_flush_and_write_nolock@D@@YAHHV__crt_stdio_stream@@AAV__crt_cached_ptd_host@@@Z
4F5A7 56 ??$write_buffer_nolock@D@@YA_NDV__crt_stdio_stream@@AAV__crt_cached_ptd_host@@@Z
4F679 56 ?stream_is_at_end_of_file_nolock@@YA_NV__crt_stdio_stream@@@Z
4F6FE 56 ___acrt_stdio_flush_and_write_narrow_nolock
4F709 94 _fegetround
4F716 234 __wcsnicoll
4F783 234 __wcsnicoll_l
4F843 196 ??$?RV<lambda_1f7e3ac85ca3635646511ad93ac0febe>@@AAV<lambda_555255fdfb9471e5fa7bfca50021c162>@@V<lambda_24f51f8b0c33fe186c624e6675644b7a>@@@?$__crt_seh_guarded_call@_N@@QAE_N$$QAV<lambda_1f7e3ac85ca3635646511ad93ac0febe>@@AAV<lambda_555255fdfb9471e5fa7bfca50021c162>@@$$QAV<lambda_24f51f8b0c33fe186c624e6675644b7a>@@@Z
4F89E 196 ??$common_spawnv@_W@@YAHHQB_WQBQB_W1@Z
4FAA5 196 ??$execute_command@_W@@YAHHQB_WQBQB_W1@Z
4FCB8 196 ??R<lambda_555255fdfb9471e5fa7bfca50021c162>@@QBE_NXZ
4FDEE 196 ?accumulate_inheritable_handles@@YA_NQAPAEQAI_N@Z
4FE27 196 __wspawnve
4FE32 197 ??$common_spawnvp@_W@@YAHHQB_WQBQB_W1@Z
50169 197 __wspawnvpe
50174 176 ___acrt_app_verifier_enabled
50186 176 ___acrt_is_secure_process
50199 237 ___acrt_get_process_end_policy
501C0 65 ?<lambda_invoker_cdecl>@<lambda_838c7f62c73c983481e27c09e84b0b5d>@@CAHPBX0@Z
501D8 65 ??$__acrt_convert_wcs_mbs_cp@_WDV<lambda_28bda7af82a03b66c1cb3803a755f95d>@@U__crt_win32_buffer_internal_dynamic_resizing@@@@YAHQB_WAAV?$__crt_win32_buffer@DU__crt_win32_buffer_internal_dynamic_resizing@@@@ABV<lambda_28bda7af82a03b66c1cb3803a755f95d>@@I@Z
5029E 65 ??$common_expand_argv_wildcards@D@@YAHQAPADQAPAPAD@Z
5041B 65 ??$copy_and_add_argument_to_buffer@D@@YAHQBD0IAAV?$argument_list@D@?A0x5f5c8891@@@Z
504CC 65 ??$expand_argument_wildcards@D@@YAHQAD0AAV?$argument_list@D@?A0x5f5c8891@@@Z
50751 65 ??1?$argument_list@D@?A0x5f5c8891@@QAE@XZ
50776 120 ??R<lambda_0fec1a7b3f42a53036604e18c2d5e07e>@@QBE@IQB_WQADI@Z
5079A 65 ?allocate@?$__crt_win32_buffer@DU__crt_win32_buffer_internal_dynamic_resizing@@@@QAEHI@Z
507D6 65 ?expand_if_necessary@?$argument_list@D@?A0x5f5c8891@@AAEHXZ
5085D 65 ___acrt_expand_narrow_argv_wildcards
50868 120 ??$__acrt_convert_wcs_mbs_cp@_WDV<lambda_0fec1a7b3f42a53036604e18c2d5e07e>@@U__crt_win32_buffer_no_resizing@@@@YAHQB_WAAV?$__crt_win32_buffer@DU__crt_win32_buffer_no_resizing@@@@ABV<lambda_0fec1a7b3f42a53036604e18c2d5e07e>@@I@Z
5092A 120 ?allocate@?$__crt_win32_buffer@DU__crt_win32_buffer_no_resizing@@@@QAEHI@Z
50951 120 ?set_to_nullptr@?$__crt_win32_buffer@DU__crt_win32_buffer_no_resizing@@@@QAEXXZ
50965 120 ___acrt_GetModuleFileNameA
50A06 159 ??$?RV<lambda_ceb1ee4838e85a9d631eb091e2fbe199>@@AAV<lambda_ae742caa10f662c28703da3d2ea5e57e>@@V<lambda_cd08b5d6af4937fe54fc07d0c9bf6b37>@@@?$__crt_seh_guarded_call@X@@QAEX$$QAV<lambda_ceb1ee4838e85a9d631eb091e2fbe199>@@AAV<lambda_ae742caa10f662c28703da3d2ea5e57e>@@$$QAV<lambda_cd08b5d6af4937fe54fc07d0c9bf6b37>@@@Z
50A53 159 ??R<lambda_ae742caa10f662c28703da3d2ea5e57e>@@QBE@XZ
50AD6 159 ?CPtoLocaleName@@YAPB_WH@Z
50B14 159 ?getSystemCP@@YAHH@Z
50B85 159 ?setSBCS@@YAXPAU__crt_multibyte_data@@@Z
50BE8 159 ?setSBUpLow@@YAXPAU__crt_multibyte_data@@@Z
50D8D 159 ?setmbcp_internal@@YAHH_NQAU__acrt_ptd@@QAPAU__crt_multibyte_data@@@Z
50EE2 159 ?update_thread_multibyte_data_internal@@YAPAU__crt_multibyte_data@@QAU__acrt_ptd@@QAPAU1@@Z
50F82 159 ___acrt_initialize_multibyte
50FCA 159 ___acrt_update_thread_multibyte_data
50FDD 159 __setmbcp_nolock
511E2 140 ?x_ismbbtype_l@@YAHPAU__crt_locale_pointers@@IHH@Z
51232 140 __ismbblead
5124A 63 ___acrt_initialize_command_line
51263 166 ?filter_mbtowcs_flags@@YAKIK@Z
512FB 166 ___acrt_MultiByteToWideChar
51325 236 ?filter_wcstomb_flags@@YAKIK@Z
513B5 236 ___acrt_WideCharToMultiByte
51421 117 ?find_end_of_double_null_terminated_sequence@@YAPB_WQB_W@Z
51458 117 ___dcrt_get_narrow_environment_from_os
514F8 117 ___dcrt_get_wide_environment_from_os
51546 191 ??$common_set_variable_in_environment_nolock@_W@@YAHQA_WH@Z
517D1 191 ??$copy_environment@_W@@YAPAPA_WQAPA_W@Z
5188F 191 ??$ensure_current_environment_is_not_initial_environment_nolock@_W@@YAXXZ
518A9 191 ??$find_in_environment_nolock@_W@@YAHQB_WI@Z
51901 191 ___dcrt_set_variable_in_wide_environment_nolock
5190C 126 ___acrt_initialize_heap
5191D 126 ___acrt_uninitialize_heap
51927 194 ___acrt_execute_initializers
5198F 194 ___acrt_execute_uninitializers
519C0 168 ___acrt_initialize_new_handler
519CF 168 __callnewh
519FB 168 __query_new_handler
51A52 157 ___acrt_has_user_matherr
51A6F 157 ___acrt_initialize_user_matherr
51A7E 157 ___acrt_invoke_user_matherr
51AB4 169 __query_new_mode
51ABB 147 ___acrt_add_locale_ref
51B38 147 ___acrt_free_locale
51C80 147 ___acrt_locale_add_lc_time_reference
51CA9 147 ___acrt_locale_free_lc_time_if_unreferenced
51CDA 147 ___acrt_locale_release_lc_time_reference
51D03 147 ___acrt_release_locale_ref
51D84 147 ___acrt_update_thread_locale_data
51E05 147 __updatetlocinfoEx_nolock
51E55 57 ?check_trailing@@YA_NPBDW4__acrt_has_trailing_digits@@@Z
51E78 57 ?should_round_up@@YA_NQBD0HW4__acrt_has_trailing_digits@@W4__acrt_rounding_mode@@@Z
51F06 57 ___acrt_fp_strflt_to_string
52000 73 ___acrt_fltout
535E8 67 ?__c32rtomb_utf8@__crt_mbstring@@YAIPAD_UPAU_Mbstatet@@AAV__crt_cached_ptd_host@@@Z
53698 161 ??R<lambda_e96123212306c92459f955e8e4eac55d>@@QBEIPBD@Z
536C4 161 ?__mbrtowc_utf8@__crt_mbstring@@YAIPA_WPBDIPAU_Mbstatet@@AAV__crt_cached_ptd_host@@@Z
53707 161 ?__mbsrtowcs_utf8@__crt_mbstring@@YAIPA_WPAPBDIPAU_Mbstatet@@AAV__crt_cached_ptd_host@@@Z
5380F 138 __isatty
53865 131 ___acrt_locale_free_monetary
53963 132 ___acrt_locale_free_numeric
539CC 134 ?free_crt_array_internal@@YAXQAPBXI@Z
539F1 134 ___acrt_locale_free_time
53AD5 122 ___acrt_GetStringTypeA
53BD6 174 ___acrt_lowio_create_handle_array
53C51 174 ___acrt_lowio_destroy_handle_array
53C86 174 ___acrt_lowio_ensure_fh_exists
53D24 174 ___acrt_lowio_lock_fh
53D47 174 ___acrt_lowio_set_os_handle
53DD9 174 ___acrt_lowio_unlock_fh
53DFC 174 __alloc_osfhnd
53F0F 174 __free_osfhnd
53FA0 174 __get_osfhandle
5400A 233 ___ascii_wcsnicmp
54059 233 __wcsnicmp
540A5 233 __wcsnicmp_l
54178 142 ?GetTableIndexFromLocaleName@@YAHPB_W@Z
541C8 142 ___acrt_DownlevelLocaleNameToLCID
541F4 206 ___strncnt
54210 144 ___acrt_LCMapStringW
5424E 164 __msize_base
54281 192 __get_fmode
542AE 192 __setmode_nolock
5437D 182 __putwch_nolock
543AF 74 ??0__crt_seek_guard@@QAE@H_J@Z
543FC 74 __chsize_nolock
54433 74 __chsize_nolock_internal
545CA 53 ?to_abstract_control@@YA?AW4__acrt_fenv_abstract_control@@W4__acrt_fenv_machine_sse_control@@@Z
5467A 53 ?to_abstract_control@@YA?AW4__acrt_fenv_abstract_control@@W4__acrt_fenv_machine_x87_control@@@Z
54727 53 ?to_machine_sse_control@@YA?AW4__acrt_fenv_machine_sse_control@@W4__acrt_fenv_abstract_control@@@Z
547DD 53 ?to_machine_x87_control@@YA?AW4__acrt_fenv_machine_x87_control@@W4__acrt_fenv_abstract_control@@@Z
54893 53 ___acrt_fenv_get_common_round_control
548B5 53 ___acrt_fenv_get_control
54935 53 ___acrt_fenv_get_status
549DF 53 ___acrt_fenv_set_control
54A5A 53 ___acrt_fenv_set_status
54B56 81 ___acrt_CompareStringW
54BBB 72 ??$common_pack_argv_and_envp@_W@@YAHQBQB_W0QAPA_W1@Z
54C34 72 ??$construct_command_line@_W@@YAHQBQB_WQAPA_W@Z
54D33 72 ??$construct_environment_block@_W@@YAHQBQB_WQAPA_W@Z
5503D 72 ??R<lambda_31d3e4c6a34e5ddcb7af9cf02b7cd71c>@@QBE@XZ
55087 72 ___acrt_pack_wide_command_line_and_environment
550A0 183 _qsort
5558E 162 __mbsdec
555A5 162 __mbsdec_l
55632 165 ?initialize_multibyte@@YAHXZ
55641 93 _fegetenv
5565E 97 _fesetenv
556AA 95 _feholdexcept
55700 151 __CIlog10
5573B 151 __CIlog10_default
5574F 151 __log10_default
55810 71 _ceil
55850 71 __ceil_pentium4
5592D 80 ?reset_and_return@__crt_mbstring@@YAIIPAU_Mbstatet@@@Z
55941 80 ?return_illegal_sequence@__crt_mbstring@@YAIPAU_Mbstatet@@AAV__crt_cached_ptd_host@@@Z
55963 160 ?__mbrtoc32_utf8@__crt_mbstring@@YAIPA_UPBDIPAU_Mbstatet@@AAV__crt_cached_ptd_host@@@Z
55B14 188 __query_app_type
55B20 61 ___ascii_strnicmp
55B81 220 ___acrt_initialize_fmode
55B97 129 ?__dcrt_lowio_initialize_console_output@@YAXXZ
55BB6 129 ___dcrt_lowio_ensure_console_output_initialized
55BD5 129 ___dcrt_terminate_console_output
55BEC 129 ___dcrt_write_console
55C41 158 ___acrt_initialize_sse2
55C60 152 __CIlog10_pentium4
55C78 152 __log10_pentium4
55EF0 51 $$000000
55F10 51 __fFEXP
55F67 51 __rtinfpopse
55F69 51 __rtinfnpopse
55F79 51 __fFLN
5602E 51 __rtinfpop
56030 51 __rtinfnpop
56040 51 __rtforexpinf
5604D 51 __ffexpm1
56100 49 __trandisp1
56175 49 __trandisp2
5620F 49 __rttospopde
56214 49 __rttospop
56220 49 __rtnospop
56230 49 __rttosnpop
56231 49 __rtnospopde
56238 49 __rtzeropop
5623A 49 __rtzeronpop
56240 49 __rtzerospop
5624D 49 __rtonepop
56250 49 __rtonenpop
56260 49 __tosnan1
56290 49 __nosnan2
562A0 49 __tosnan2
562D0 49 __nan2
56310 49 __rtindfpop
56312 49 __rtindfnpop
56323 49 __rttosnpopde
56330 49 __rtatan2inf
5634D 49 __rtchsifneg
56360 79 __twoToTOS
56375 79 __load_CW
5638C 79 __convertTOStoQNaN
563A5 79 __fload_withFB
563E8 79 __checkTOS_withFB
563FE 79 __fast_exit
5640B 79 __math_exit
56435 79 __check_overflow_exit
56449 79 __check_range_exit
564F0 116 __startTwoArgErrorHandling
56507 116 __startOneArgErrorHandling
56543 145 ___libm_error_support
56737 70 __ceil_default
567F5 180 __d_inttype
5685D 180 __powhlp
56988 50 __87except
56A98 112 __frnd
56AAC 106 __errcode
56AE0 106 __except1
56BAE 106 __handle_exc
56E2E 106 __raise_exc
56E51 106 __raise_exc_ex
57142 106 __set_errno_from_matherr
57173 106 __umatherr
57213 223 __decomp
572E5 223 __set_exp
57312 223 __sptype
57375 128 __fpclass
57419 5 @_guard_check_icall@4
57420 28 __FindPESection
57470 28 __IsNonwritableInCurrentImage
57530 28 __ValidateImageBase
57561 32 ??_Etype_info@@UAEPAXI@Z
57584 10 ??3@YAXPAXI@Z
57592 13 __EH_epilog3
575A6 13 __EH_prolog3
575D9 13 __EH_prolog3_catch
57610 35 __aulldiv
57632 35 L1
57640 35 L3
5766E 35 L4
5766F 35 L5
57673 35 L2
57680 36 __aullrem
576A1 36 L1
576AF 36 L3
576DA 36 L4
576E2 36 L5
576F1 36 L2
57700 3 __alloca_probe_16
57716 3 __alloca_probe_8
57730 31 __SEH_prolog4_GS
57780 23 __allmul
57799 23 hard
577C0 25 __allshl
577D0 25 MORE32
577DA 25 RETZERO
577E0 37 __aullshr
577F0 37 MORE32
577FA 37 RETZERO
57800 22 __alldiv
57821 22 L1
5783D 22 L2
57859 22 L3
57867 22 L5
57895 22 L6
57896 22 L7
5789A 22 L4
578A4 22 L8
578B0 6 __alloca_probe
578C4 6 cs10
578D2 6 cs20
578E0 24 __allrem
57900 24 L1
5791B 24 L2
5793A 24 L3
57948 24 L5
57973 24 L6
5797B 24 L7
57986 24 L4
5798D 24 L8
579A0 15 __ftol2_sse
579B0 15 __ftoi2
579C1 15 L3B
57A04 15 L3F
57A0C 15 L40
57A1F 15 L41
57A30 15 __ftol2
57A4E 15 L51
57A93 15 L52
57AA7 15 L53
57AA9 15 L55
57AB3 15 L56
57ACC 15 L57
57AE0 15 __ftoul2
57AFB 15 LA5
57B10 15 LA6
57B21 15 LA7
57B2E 15 LA9
57B75 15 LAA
57B7C 15 LAC
57B83 15 LAD
57B8D 15 LAF
57BA0 15 __ftoul2_legacy
57BB6 9 ??3@YAXPAX@Z
57BBB 40 __filter_x86_sse2_floating_point_exception
57C40 26 __allshr
57C50 26 MORE32
57C5B 26 RETSIGN
57C70 252 _memchr
57C8B 252 str_misaligned
57CA1 252 main_loop_start
57CB7 252 return_from_main
57CB8 252 tail_less_then_4
57CBD 252 tail_loop
57CCB 252 retnull
57CCD 252 main_loop
57CD2 252 main_loop_entry
57CED 252 char_is_found
57D05 252 byte_3
57D06 252 found
57D0B 252 byte_2
57D11 252 byte_1
57D17 252 byte_0
57D1D 247 __ehhandler$?CallUnexpected@@YAXPBU_s_ESTypeList@@@Z
57D3A 90 __ehhandler$?common_exit@@YAXHW4_crt_exit_cleanup_mode@@W4_crt_exit_return_mode@@@Z
57D57 90 __ehhandler$?try_cor_exit_process@@YAXI@Z
57D74 87 __ehhandler$___dcrt_uninitialize_environments_nolock
57D91 171 __ehhandler$__execute_onexit_table
57DAE 239 __ehhandler$?write_double_translated_ansi_nolock@@YA?AUwrite_result@?A0x17268360@@HQBDIAAV__crt_cached_ptd_host@@@Z
58000 41 __imp__RegDeleteKeyW@8
58004 41 __imp__RegEnumKeyExW@32
58008 41 __imp__RegDeleteValueW@8
5800C 41 __imp__RegEnumValueW@32
58010 41 __imp__RegCloseKey@4
58014 41 __imp__RegCreateKeyExW@36
58018 41 __imp__RegSetValueExW@24
5801C 41 __imp__RegOpenKeyExW@20
58020 41 __imp__RegQueryValueExW@24
58024 41 \177ADVAPI32_NULL_THUNK_DATA
58028 46 __imp__DeleteTimerQueueTimer@12
5802C 46 __imp__CreateTimerQueue@0
58030 46 __imp__GetModuleFileNameW@12
58034 46 __imp__LoadLibraryW@4
58038 46 __imp__FreeLibrary@4
5803C 46 __imp__GetCPInfoExW@12
58040 46 __imp__GetOEMCP@0
58044 46 __imp__SearchPathW@24
58048 46 __imp__GetConsoleOutputCP@0
5804C 46 __imp__SetConsoleMode@8
58050 46 __imp__GetConsoleCP@0
58054 46 __imp__EnumSystemCodePagesW@8
58058 46 __imp__GetACP@0
5805C 46 __imp__SetFileAttributesW@8
58060 46 __imp__GetLogicalDriveStringsW@8
58064 46 __imp__MultiByteToWideChar@24
58068 46 __imp__Sleep@4
5806C 46 __imp__GetConsoleMode@8
58070 46 __imp__FormatMessageW@28
58074 46 __imp__GetLastError@0
58078 46 __imp__OutputDebugStringW@4
5807C 46 __imp__GetCurrentDirectoryW@8
58080 46 __imp__SetCurrentDirectoryW@4
58084 46 __imp__SetConsoleCP@4
58088 46 __imp__GlobalMemoryStatusEx@4
5808C 46 __imp__WideCharToMultiByte@32
58090 46 __imp__SetConsoleOutputCP@4
58094 46 __imp__GetDriveTypeW@4
58098 46 __imp__CreateDirectoryW@8
5809C 46 __imp__FindFirstFileW@8
580A0 46 __imp__CompareStringW@24
580A4 46 __imp__RemoveDirectoryW@4
580A8 46 __imp__ChangeTimerQueueTimer@16
580AC 46 __imp__SetEnvironmentVariableW@8
580B0 46 __imp__FindClose@4
580B4 46 __imp__CreateFileW@28
580B8 46 __imp__ReadConsoleInputW@16
580BC 46 __imp__FileTimeToSystemTime@8
580C0 46 __imp__DeleteFileW@4
580C4 46 __imp__CloseHandle@4
580C8 46 __imp__FileTimeToLocalFileTime@8
580CC 46 __imp__GetLocalTime@4
580D0 46 __imp__PeekConsoleInputW@16
580D4 46 __imp__WriteConsoleW@20
580D8 46 __imp__MoveFileExW@12
580DC 46 __imp__ReplaceFileW@24
580E0 46 __imp__VerSetConditionMask@16
580E4 46 __imp__SystemTimeToFileTime@8
580E8 46 __imp__CopyFileW@12
580EC 46 __imp__VerifyVersionInfoW@16
580F0 46 __imp__GetSystemTimeAsFileTime@4
580F4 46 __imp__GetSystemTime@4
580F8 46 __imp__GetFileTime@16
580FC 46 __imp__TlsSetValue@8
58100 46 __imp__SetLastError@4
58104 46 __imp__InitializeCriticalSection@4
58108 46 __imp__GetCurrentThread@0
5810C 46 __imp__TlsAlloc@0
58110 46 __imp__LCMapStringW@24
58114 46 __imp__TlsGetValue@4
58118 46 __imp__GetThreadTimes@20
5811C 46 __imp__TlsFree@4
58120 46 __imp__lstrcmpW@8
58124 46 __imp__VirtualQuery@12
58128 46 __imp__HeapSize@12
5812C 46 __imp__GetModuleHandleA@4
58130 46 __imp__GetFileAttributesW@4
58134 46 __imp__GetEnvironmentVariableW@12
58138 46 __imp__GetStdHandle@4
5813C 46 __imp__GetConsoleScreenBufferInfo@8
58140 46 __imp__CreateTimerQueueTimer@28
58144 46 __imp__GetModuleHandleW@4
58148 46 __imp__GetProcAddress@8
5814C 46 __imp__SetFileTime@16
58150 46 __imp__DeleteTimerQueueEx@8
58154 46 __imp__SetStdHandle@8
58158 46 __imp__GetProcessHeap@0
5815C 46 __imp__FreeEnvironmentStringsW@4
58160 46 __imp__GetEnvironmentStringsW@0
58164 46 __imp__GetCommandLineW@0
58168 46 __imp__GetCommandLineA@0
5816C 46 __imp__GetCPInfo@8
58170 46 __imp__IsValidCodePage@4
58174 46 __imp__FindNextFileW@8
58178 46 __imp__FindFirstFileExW@24
5817C 46 __imp__GetFileSizeEx@8
58180 46 __imp__WriteFile@20
58184 46 __imp__FlushFileBuffers@4
58188 46 __imp__CreatePipe@16
5818C 46 __imp__GetFileAttributesExW@12
58190 46 __imp__GetExitCodeProcess@8
58194 46 __imp__WaitForSingleObject@8
58198 46 __imp__HeapReAlloc@16
5819C 46 __imp__GetStringTypeW@16
581A0 46 __imp__ReadConsoleW@20
581A4 46 __imp__SetFilePointerEx@20
581A8 46 __imp__GetTempPathW@8
581AC 46 __imp__GetFileType@4
581B0 46 __imp__HeapAlloc@12
581B4 46 __imp__HeapFree@12
581B8 46 __imp__ExitProcess@4
581BC 46 __imp__ReadFile@20
581C0 46 __imp__CreateProcessW@40
581C4 46 __imp__SetEndOfFile@4
581C8 46 __imp__DuplicateHandle@28
581CC 46 __imp__RaiseException@16
581D0 46 __imp__LoadLibraryExW@12
581D4 46 __imp__InitializeCriticalSectionAndSpinCount@8
581D8 46 __imp__DeleteCriticalSection@4
581DC 46 __imp__LeaveCriticalSection@4
581E0 46 __imp__EnterCriticalSection@4
581E4 46 __imp__RtlUnwind@16
581E8 46 __imp__GetStartupInfoW@4
581EC 46 __imp__IsDebuggerPresent@0
581F0 46 __imp__GetCurrentThreadId@0
581F4 46 __imp__GetCurrentProcessId@0
581F8 46 __imp__QueryPerformanceCounter@4
581FC 46 __imp__IsProcessorFeaturePresent@4
58200 46 __imp__TerminateProcess@8
58204 46 __imp__GetCurrentProcess@0
58208 46 __imp__SetUnhandledExceptionFilter@4
5820C 46 __imp__UnhandledExceptionFilter@4
58210 46 \177KERNEL32_NULL_THUNK_DATA
58214 282 __imp__UuidCreate@4
58218 282 __imp__UuidToStringA@8
5821C 282 __imp__RpcStringFreeA@4
58220 282 __imp__UuidFromStringA@8
58224 282 \177RPCRT4_NULL_THUNK_DATA
58228 284 __imp__SHGetFolderPathW@20
5822C 284 __imp__ShellExecuteW@24
58230 284 \177SHELL32_NULL_THUNK_DATA
58234 288 __imp__GetKeyState@4
58238 288 \177USER32_NULL_THUNK_DATA
5823C 275 __imp__luaL_addlstring
58240 275 __imp__luaL_buffinit
58244 275 __imp__luaL_checklstring
58248 275 __imp__luaL_addvalue
5824C 275 __imp__luaL_checkudata
58250 275 __imp__luaL_optlstring
58254 275 __imp__lua_getinfo
58258 275 __imp__lua_getstack
5825C 275 __imp__luaopen_table
58260 275 __imp__luaL_findtable
58264 275 __imp__lua_getallocf
58268 275 __imp__luaL_checkany
5826C 275 __imp__lua_settable
58270 275 __imp__lua_getfenv
58274 275 __imp__luaopen_base
58278 275 __imp__lua_next
5827C 275 __imp__luaopen_os
58280 275 __imp__luaL_optnumber
58284 275 __imp__luaopen_string
58288 275 __imp__luaopen_math
5828C 275 __imp__luaL_checknumber
58290 275 __imp__luaL_typerror
58294 275 __imp__lua_setfenv
58298 275 __imp__luaopen_debug
5829C 275 __imp__lua_setallocf
582A0 275 __imp__luaL_prepbuffer
582A4 275 __imp__luaL_checkstack
582A8 275 __imp__lua_typename
582AC 275 __imp__lua_tocfunction
582B0 275 __imp__luaL_checkoption
582B4 275 __imp__lua_iscfunction
582B8 275 __imp__luaL_gsub
582BC 275 __imp__lua_isuserdata
582C0 275 __imp__luaL_addstring
582C4 275 __imp__lua_equal
582C8 275 __imp__lua_load
582CC 275 __imp__lua_toboolean
582D0 275 __imp__lua_pcall
582D4 275 __imp__lua_error
582D8 275 __imp__lua_rawset
582DC 275 __imp__lua_rawget
582E0 275 __imp__lua_checkstack
582E4 275 __imp__luaL_unref
582E8 275 __imp__lua_remove
582EC 275 __imp__lua_rawgeti
582F0 275 __imp__lua_objlen
582F4 275 __imp__lua_topointer
582F8 275 __imp__lua_isstring
582FC 275 __imp__lua_tointeger
58300 275 __imp__lua_createtable
58304 275 __imp__luaL_ref
58308 275 __imp__lua_gettable
5830C 275 __imp__lua_pushlightuserdata
58310 275 __imp__lua_pushlstring
58314 275 __imp__lua_pushinteger
58318 275 __imp__lua_pushnil
5831C 275 __imp__lua_replace
58320 275 __imp__luaL_argerror
58324 275 __imp__lua_pushvalue
58328 275 __imp__luaL_newmetatable
5832C 275 __imp__lua_settop
58330 275 __imp__lua_setmetatable
58334 275 __imp__luaL_register
58338 275 __imp__lua_getfield
5833C 275 __imp__lua_gettop
58340 275 __imp__lua_pushnumber
58344 275 __imp__lua_pushstring
58348 275 __imp__lua_touserdata
5834C 275 __imp__lua_call
58350 275 __imp__lua_tolstring
58354 275 __imp__lua_pushboolean
58358 275 __imp__lua_tonumber
5835C 275 __imp__lua_newuserdata
58360 275 __imp__luaL_checkinteger
58364 275 __imp__lua_setfield
58368 275 __imp__lua_type
5836C 275 __imp__lua_rawequal
58370 275 __imp__lua_getmetatable
58374 275 __imp__lua_pushcclosure
58378 275 __imp__lua_pushfstring
5837C 275 __imp__lua_concat
58380 275 __imp__luaL_pushresult
58384 275 __imp__luaL_loadstring
58388 275 __imp__luaL_optinteger
5838C 275 __imp__luaL_error
58390 275 __imp__luaL_checktype
58394 275 __imp__lua_insert
58398 275 __imp__lua_gc
5839C 275 __imp__lua_rawseti
583A0 275 __imp__lua_isnumber
583A4 275 \177lua51_NULL_THUNK_DATA
583A8 19 ___guard_check_icall_fptr
583AC 19 ___castguard_check_failure_os_handled_fptr
583B0 20 ___xc_a
583B4 20 ___xc_z
583B8 20 ___xi_a
583BC 199 ___acrt_stdio_initializer
583C0 165 ___acrt_multibyte_initializer
583C4 102 ___acrt_fmode_initializer
583C8 198 ___acrt_tran_sse2_initializer
583CC 20 ___xi_z
583D0 20 ___xp_a
583D4 146 ___acrt_locale_terminator
583D8 217 ___acrt_tmpfile_terminator
583DC 82 ___dcrt_console_output_terminator
583E0 199 ___acrt_stdio_terminator
583E4 20 ___xp_z
583E8 20 ___xt_a
583EC 20 ___xt_z
583F0 291 __imp__EncodePointer@4
583F8 291 __imp__DecodePointer@4
58400 291 __imp__GetModuleHandleExW@12
58408 291 __imp__InitializeSListHead@4
58410 291 __imp__InterlockedFlushSList@4
58418 291 __imp__InterlockedPushEntrySList@8
58420 291 __imp__GetNumaHighestNodeNumber@4
58428 291 __imp__GetLogicalProcessorInformation@8
58430 291 __imp__SetThreadStackGuarantee@4
58438 291 __imp__FlsAlloc@4
58440 291 __imp__FlsGetValue@4
58448 291 __imp__FlsSetValue@8
58450 291 __imp__FlsFree@4
58458 291 __imp__InitializeCriticalSectionEx@12
58460 291 __imp__CompareStringEx@36
58468 291 __imp__LCMapStringEx@36
58470 291 __imp__AcquireSRWLockExclusive@4
58478 291 __imp__ReleaseSRWLockExclusive@4
58480 291 __imp__SleepConditionVariableSRW@16
58488 291 __imp__WakeAllConditionVariable@4
58490 291 __imp__TryAcquireSRWLockExclusive@4
58498 291 __imp__InitializeSRWLock@4
584A0 17 _GS_ExceptionPointers
584A8 11 __pDefaultRawDllMain
584B0 267 __xmm@00000000000000000000000000000000
584C0 243 __pDestructExceptionObject
584C8 247 ??_7exception@std@@6B@
584D0 247 ??_C@_0BC@EOODALEL@Unknown?5exception@
584E8 247 ??_7bad_exception@std@@6B@
584F0 247 ??_C@_0O@DPKOEFFH@bad?5exception@
58500 263 ?tokenTable@@3QBUStringLiteral@@B
58588 263 ?nameTable@@3QBUStringLiteral@@B
58820 263 ?rttiTable@@3QBUStringLiteral@@B
58848 263 ?IndirectionName@@3QBUStringLiteral@@B
58878 263 ?PrefixName@@3QBUStringLiteral@@B
58888 263 ??_C@_08EHJDFFNH@__based?$CI@
58894 263 ??_C@_07KOLFKCDI@__cdecl@
5889C 263 ??_C@_08GHMPAG@__pascal@
588A8 263 ??_C@_09IFJBGAPI@__stdcall@
588B4 263 ??_C@_0L@NPHFGOKO@__thiscall@
588C0 263 ??_C@_0L@JMKHOMEK@__fastcall@
588CC 263 ??_C@_0N@BCKKPABJ@__vectorcall@
588DC 263 ??_C@_09HIJEGCPM@__clrcall@
588E8 263 ??_C@_06GHPCKEAG@__eabi@
588F0 263 ??_C@_09IOPIDJLG@__swift_1@
588FC 263 ??_C@_09KFNFGKHF@__swift_2@
58908 263 ??_C@_09LMMOFLDE@__swift_3@
58914 263 ??_C@_07JOMMBBKO@__ptr64@
5891C 263 ??_C@_0L@PILCLIHE@__restrict@
58928 263 ??_C@_0M@GFIIJFMG@__unaligned@
58934 263 ??_C@_09DHDLOLLB@restrict?$CI@
58940 263 ??_C@_04NIHEBCM@?5new@
58948 263 ??_C@_07FPCDHGMM@?5delete@
58950 263 ??_C@_01NEMOKFLO@?$DN@
58954 263 ??_C@_02GPIOPFAK@?$DO?$DO@
58958 263 ??_C@_02FODMEDOG@?$DM?$DM@
5895C 263 ??_C@_01DCLJPIOD@?$CB@
58960 263 ??_C@_02EGOFBIJA@?$DN?$DN@
58964 263 ??_C@_02FDNJECIE@?$CB?$DN@
58968 263 ??_C@_02GPECMEKF@?$FL?$FN@
5896C 263 ??_C@_08LHJFAFGD@operator@
58978 263 ??_C@_02HBOOOICD@?9?$DO@
5897C 263 ??_C@_01NBENCBCI@?$CK@
58980 263 ??_C@_02ECNGHCIF@?$CL?$CL@
58984 263 ??_C@_02BAABKJLB@?9?9@
58988 263 ??_C@_01JOAMLHOP@?9@
5898C 263 ??_C@_01MIFGBAGJ@?$CL@
58990 263 ??_C@_01HNPIGOCE@?$CG@
58994 263 ??_C@_03MNHNFDLC@?9?$DO?$CK@
58998 263 ??_C@_01FGNFDNOH@?$CF@
5899C 263 ??_C@_01MNNFJEPP@?$DM@
589A0 263 ??_C@_02EHCHHCKH@?$DM?$DN@
589A4 263 ??_C@_01PPODPGHN@?$DO@
589A8 263 ??_C@_02EEKDKGMJ@?$DO?$DN@
589AC 263 ??_C@_01IHBHIGKO@?0@
589B0 263 ??_C@_02HCKGKOFO@?$CI?$CJ@
589B4 263 ??_C@_01PJKLJHI@?$HO@
589B8 263 ??_C@_01JKBOJNNK@?$FO@
589BC 263 ??_C@_01DNKMNLPK@?$HM@
589C0 263 ??_C@_02PPKAJPJL@?$CG?$CG@
589C4 263 ??_C@_02NONPIBCD@?$HM?$HM@
589C8 263 ??_C@_02FPIMKNGF@?$CK?$DN@
589CC 263 ??_C@_02FOEOMHFC@?$CL?$DN@
589D0 263 ??_C@_02FKMDLLOA@?9?$DN@
589D4 263 ??_C@_02FJEHGPIO@?1?$DN@
589D8 263 ??_C@_02FENAOKFI@?$CF?$DN@
589DC 263 ??_C@_03IKFCCPFF@?$DO?$DO?$DN@
589E0 263 ??_C@_03CDNPDDLA@?$DM?$DM?$DN@
589E4 263 ??_C@_02FGJGFEAB@?$CG?$DN@
589E8 263 ??_C@_02DHLNPPGH@?$HM?$DN@
589EC 263 ??_C@_02MHEGNOJ@?$FO?$DN@
589F0 263 ??_C@_09IFPLHPGF@?$GAvftable?8@
589FC 263 ??_C@_09BLBHBJP@?$GAvbtable?8@
58A08 263 ??_C@_07FEEIOKP@?$GAvcall?8@
58A10 263 ??_C@_08LLFFHHDJ@?$GAtypeof?8@
58A1C 263 ??_C@_0BF@KDPPACIK@?$GAlocal?5static?5guard?8@
58A34 263 ??_C@_08OBABFOLI@?$GAstring?8@
58A40 263 ??_C@_0BD@JDLKDPAB@?$GAvbase?5destructor?8@
58A54 263 ??_C@_0BN@DEGPLNFK@?$GAvector?5deleting?5destructor?8@
58A74 263 ??_C@_0BO@OBMKPJIG@?$GAdefault?5constructor?5closure?8@
58A94 263 ??_C@_0BN@IMDCHIKM@?$GAscalar?5deleting?5destructor?8@
58AB4 263 ??_C@_0BO@PFGOCPJJ@?$GAvector?5constructor?5iterator?8@
58AD4 263 ??_C@_0BN@LFPFMEDL@?$GAvector?5destructor?5iterator?8@
58AF4 263 ??_C@_0CE@IKBNEHA@?$GAvector?5vbase?5constructor?5itera@
58B18 263 ??_C@_0BL@NILFHHPC@?$GAvirtual?5displacement?5map?8@
58B34 263 ??_C@_0CB@JONCMFFK@?$GAeh?5vector?5constructor?5iterator@
58B58 263 ??_C@_0CA@GCEOPDGL@?$GAeh?5vector?5destructor?5iterator?8@
58B78 263 ??_C@_0CH@OOJPLCPH@?$GAeh?5vector?5vbase?5constructor?5it@
58BA0 263 ??_C@_0BL@LLKPOHJI@?$GAcopy?5constructor?5closure?8@
58BBC 263 ??_C@_0BA@KBCDOMBN@?$GAudt?5returning?8@
58BCC 263 ??_C@_03KLGMFNMG@?$GAEH@
58BD0 263 ??_C@_05KHLCHHI@?$GARTTI@
58BD8 263 ??_C@_0BA@KKLDJDLB@?$GAlocal?5vftable?8@
58BE8 263 ??_C@_0CE@IIHCMGGL@?$GAlocal?5vftable?5constructor?5clos@
58C0C 263 ??_C@_06FHBGPFGH@?5new?$FL?$FN@
58C14 263 ??_C@_09LBNFPBCA@?5delete?$FL?$FN@
58C20 263 ??_C@_0P@HJKNJFNN@?$GAomni?5callsig?8@
58C30 263 ??_C@_0BL@CNOONJFP@?$GAplacement?5delete?5closure?8@
58C4C 263 ??_C@_0BN@CKNJLHMB@?$GAplacement?5delete?$FL?$FN?5closure?8@
58C6C 263 ??_C@_0CG@CFDHKGGD@?$GAmanaged?5vector?5constructor?5ite@
58C94 263 ??_C@_0CF@IMGKMJNO@?$GAmanaged?5vector?5destructor?5iter@
58CBC 263 ??_C@_0CG@HLDDJMAG@?$GAeh?5vector?5copy?5constructor?5ite@
58CE4 263 ??_C@_0CM@FCBBDIGB@?$GAeh?5vector?5vbase?5copy?5construct@
58D10 263 ??_C@_0BL@CLIPGLGB@?$GAdynamic?5initializer?5for?5?8@
58D2C 263 ??_C@_0CB@PDBIFEP@?$GAdynamic?5atexit?5destructor?5for?5@
58D50 263 ??_C@_0CD@CGAJBKEJ@?$GAvector?5copy?5constructor?5iterat@
58D74 263 ??_C@_0CJ@GJELGAMM@?$GAvector?5vbase?5copy?5constructor?5@
58DA0 263 ??_C@_0CL@FGIJHLCE@?$GAmanaged?5vector?5copy?5constructo@
58DCC 263 ??_C@_0BM@PMGGMLDN@?$GAlocal?5static?5thread?5guard?8@
58DE8 263 ??_C@_0N@BDNMDMOL@operator?5?$CC?$CC?5@
58DF8 263 ??_C@_0BC@GGEBGALA@operator?5co_await@
58E0C 263 ??_C@_0M@GAAIMMOH@operator?$DM?$DN?$DO@
58E18 263 ??_C@_0BC@DAFEJGAK@?5Type?5Descriptor?8@
58E2C 263 ??_C@_0BM@LDKODKLH@?5Base?5Class?5Descriptor?5at?5?$CI@
58E48 263 ??_C@_0BD@LGICGFMM@?5Base?5Class?5Array?8@
58E5C 263 ??_C@_0BN@MECKDCOJ@?5Class?5Hierarchy?5Descriptor?8@
58E7C 263 ??_C@_0BK@CFCOFLF@?5Complete?5Object?5Locator?8@
58E98 263 ??_C@_0BG@JNJLAMPM@?$GAanonymous?5namespace?8@
58EB0 268 ?module_names@?A0x14174aea@@3QBQB_WB
58EBC 268 ??_C@_1DM@KHCHBNEB@?$AAa?$AAp?$AAi?$AA?9?$AAm?$AAs?$AA?9?$AAw?$AAi?$AAn?$AA?9?$AAc?$AAo?$AAr?$AAe@
58EF8 268 ??_C@_1DK@LPPGFMPP@?$AAa?$AAp?$AAi?$AA?9?$AAm?$AAs?$AA?9?$AAw?$AAi?$AAn?$AA?9?$AAc?$AAo?$AAr?$AAe@
58F34 268 ??_C@_1BC@GDMECMAK@?$AAk?$AAe?$AAr?$AAn?$AAe?$AAl?$AA3?$AA2@
58F48 268 ??_C@_1BA@PFFKHIOG@?$AAa?$AAp?$AAi?$AA?9?$AAm?$AAs?$AA?9@
58F58 268 ?candidate_modules@?1??try_get_FlsAlloc@@YAP6GKP6GXPAX@Z@ZXZ@4QBW4module_id@?A0x14174aea@@B
58F60 268 ??_C@_08KNHFBNJ@FlsAlloc@
58F6C 268 ?candidate_modules@?1??try_get_FlsFree@@YAP6GHK@ZXZ@4QBW4module_id@?A0x14174aea@@B
58F74 268 ??_C@_07PEJMOBNF@FlsFree@
58F7C 268 ?candidate_modules@?1??try_get_FlsGetValue@@YAP6GPAXK@ZXZ@4QBW4module_id@?A0x14174aea@@B
58F84 268 ??_C@_0M@GDNOONDI@FlsGetValue@
58F90 268 ?candidate_modules@?1??try_get_FlsSetValue@@YAP6GHKPAX@ZXZ@4QBW4module_id@?A0x14174aea@@B
58F98 268 ??_C@_0M@JCPCPOEF@FlsSetValue@
58FA4 268 ?candidate_modules@?1??try_get_InitializeCriticalSectionEx@@YAP6GHPAU_RTL_CRITICAL_SECTION@@KK@ZXZ@4QBW4module_id@?A0x14174aea@@B
58FAC 268 ??_C@_0BM@HCFOFFN@InitializeCriticalSectionEx@
58FC8 175 ?standard_lookup_table_spectre@__crt_stdio_output@@3V?$spectre_mitigated_lookup_table@Ustate_transition_pair@__crt_stdio_output@@$0IA@@1@B
590C8 175 ??_C@_1O@CEDCILHN@?$AA?$CI?$AAn?$AAu?$AAl?$AAl?$AA?$CJ@
590D8 175 ??_C@_06OJHGLDPL@?$CInull?$CJ@
590E0 88 ?errtable@@3QBUerrentry@?A0x31fdb9ec@@B
59248 203 ??_C@_0EA@FCLIIPNN@Visual?5C?$CL?$CL?5CRT?3?5Not?5enough?5memo@
59288 179 ?default_cmd_exe@?1???$common_popen_nolock@_W@@YAPAU_iobuf@@QB_W0HAAY01H@Z@4QB_WB
59298 179 ?slash_c@?1???$common_popen_nolock@_W@@YAPAU_iobuf@@QB_W0HAAY01H@Z@4QB_WB
592A4 179 ?comspec_name@?1???$get_comspec@_W@@YAPB_WXZ@4QB_WB
592B4 179 ?backslash@?L@???$get_executable_path@_W@@YAPB_WQB_W@Z@4QB_WB
592B8 179 ?path_name@?1???$get_path@_W@@YAPB_WXZ@4QB_WB
592C8 135 ?large_power_data@?1??multiply_by_power_of_ten@__crt_strtox@@YA_NAAUbig_integer@2@I@Z@4QBIB
59BD0 135 ?large_power_indices@?1??multiply_by_power_of_ten@__crt_strtox@@YA_NAAUbig_integer@2@I@Z@4QBUunpack_index@?1??12@YA_N0I@Z@B
59C68 135 ?small_powers_of_ten@?1??multiply_by_power_of_ten@__crt_strtox@@YA_NAAUbig_integer@2@I@Z@4QBIB
59C90 135 ??_C@_1GE@DPGDJKLM@?$AAm?$AAi?$AAn?$AAk?$AAe?$AAr?$AAn?$AAe?$AAl?$AA?2?$AAc?$AAr?$AAt?$AAs?$AA?2@
59CF8 135 ??_C@_1FM@FELNCOBF@?$AA_?$AA_?$AAc?$AAr?$AAt?$AA_?$AAs?$AAt?$AAr?$AAt?$AAo?$AAx?$AA?3?$AA?3?$AAf@
59D54 135 ??_C@_1BG@GEMHBGAF@?$AA_?$AAi?$AAs?$AA_?$AAd?$AAo?$AAu?$AAb?$AAl?$AAe@
59D70 135 ??_C@_1FK@JOJELFFO@?$AA_?$AA_?$AAc?$AAr?$AAt?$AA_?$AAs?$AAt?$AAr?$AAt?$AAo?$AAx?$AA?3?$AA?3?$AAf@
59DCC 135 ??_C@_1BI@BANMPGJI@?$AA?$CB?$AA_?$AAi?$AAs?$AA_?$AAd?$AAo?$AAu?$AAb?$AAl?$AAe@
59DE8 135 ?constraints@?1??is_length_valid@__crt_stdio_input@@YA_NW4conversion_mode@2@W4length_modifier@2@@Z@4QAY0M@$$CBEA
59E60 135 ?inf_uppercase@?1???$parse_floating_point_possible_infinity@DV?$input_adapter_character_source@V?$stream_input_adapter@D@__crt_stdio_input@@@__crt_strtox@@_K@__crt_strtox@@YA?AW4floating_point_parse_result@1@AADAAV?$input_adapter_character_source@V?$stream_input_adapter@D@__crt_stdio_input@@@1@_K@Z@4QBDB
59E64 135 ?inf_lowercase@?1???$parse_floating_point_possible_infinity@DV?$input_adapter_character_source@V?$stream_input_adapter@D@__crt_stdio_input@@@__crt_strtox@@_K@__crt_strtox@@YA?AW4floating_point_parse_result@1@AADAAV?$input_adapter_character_source@V?$stream_input_adapter@D@__crt_stdio_input@@@1@_K@Z@4QBDB
59E68 135 ?inity_uppercase@?1???$parse_floating_point_possible_infinity@DV?$input_adapter_character_source@V?$stream_input_adapter@D@__crt_stdio_input@@@__crt_strtox@@_K@__crt_strtox@@YA?AW4floating_point_parse_result@1@AADAAV?$input_adapter_character_source@V?$stream_input_adapter@D@__crt_stdio_input@@@1@_K@Z@4QBDB
59E70 135 ?inity_lowercase@?1???$parse_floating_point_possible_infinity@DV?$input_adapter_character_source@V?$stream_input_adapter@D@__crt_stdio_input@@@__crt_strtox@@_K@__crt_strtox@@YA?AW4floating_point_parse_result@1@AADAAV?$input_adapter_character_source@V?$stream_input_adapter@D@__crt_stdio_input@@@1@_K@Z@4QBDB
59E78 135 ?uppercase@?1???$parse_floating_point_possible_nan@DV?$input_adapter_character_source@V?$stream_input_adapter@D@__crt_stdio_input@@@__crt_strtox@@_K@__crt_strtox@@YA?AW4floating_point_parse_result@1@AADAAV?$input_adapter_character_source@V?$stream_input_adapter@D@__crt_stdio_input@@@1@_K@Z@4QBDB
59E7C 135 ?lowercase@?1???$parse_floating_point_possible_nan@DV?$input_adapter_character_source@V?$stream_input_adapter@D@__crt_stdio_input@@@__crt_strtox@@_K@__crt_strtox@@YA?AW4floating_point_parse_result@1@AADAAV?$input_adapter_character_source@V?$stream_input_adapter@D@__crt_stdio_input@@@1@_K@Z@4QBDB
59E80 135 ?uppercase@?1???$parse_floating_point_possible_nan_is_snan@DV?$input_adapter_character_source@V?$stream_input_adapter@D@__crt_stdio_input@@@__crt_strtox@@@__crt_strtox@@YA_NAADAAV?$input_adapter_character_source@V?$stream_input_adapter@D@__crt_stdio_input@@@1@@Z@4QBDB
59E88 135 ?lowercase@?1???$parse_floating_point_possible_nan_is_snan@DV?$input_adapter_character_source@V?$stream_input_adapter@D@__crt_stdio_input@@@__crt_strtox@@@__crt_strtox@@YA_NAADAAV?$input_adapter_character_source@V?$stream_input_adapter@D@__crt_stdio_input@@@1@@Z@4QBDB
59E90 135 ?uppercase@?1???$parse_floating_point_possible_nan_is_ind@DV?$input_adapter_character_source@V?$stream_input_adapter@D@__crt_stdio_input@@@__crt_strtox@@@__crt_strtox@@YA_NAADAAV?$input_adapter_character_source@V?$stream_input_adapter@D@__crt_stdio_input@@@1@@Z@4QBDB
59E94 135 ?lowercase@?1???$parse_floating_point_possible_nan_is_ind@DV?$input_adapter_character_source@V?$stream_input_adapter@D@__crt_stdio_input@@@__crt_strtox@@@__crt_strtox@@YA_NAADAAV?$input_adapter_character_source@V?$stream_input_adapter@D@__crt_stdio_input@@@1@@Z@4QBDB
59E98 214 ?comspec_name@?1???$common_system@_W@@YAHQB_W@Z@4QB_WB
59EA8 214 ?cmd_exe@?1???$common_system@_W@@YAHQB_W@Z@4QB_WB
59EB8 214 ?slash_c@?1???$common_system@_W@@YAHQB_W@Z@4QB_WB
59EC0 89 ___acrt_exception_action_table
59F50 89 ___acrt_signal_action_table_count
59F54 89 ___acrt_signal_action_first_fpe_index
59F58 89 ___acrt_signal_action_fpe_count
59F5C 90 ??_C@_1BI@BGOHAHKC@?$AAm?$AAs?$AAc?$AAo?$AAr?$AAe?$AAe?$AA?4?$AAd?$AAl?$AAl@
59F74 90 ??_C@_0P@MIGLKIOC@CorExitProcess@
59F88 130 ___acrt_initializers
5A008 86 ?strings@?1??fp_format_nan_or_infinity@@YAHW4__acrt_fp_class@@_NPADI1@Z@4QAY03QBDA
5A048 86 ??_C@_03OEIAHPBN@INF@
5A04C 86 ??_C@_03OJHLLCGB@inf@
5A050 86 ??_C@_03LKNCIKJB@NAN@
5A054 86 ??_C@_03LHCJEHON@nan@
5A058 86 ??_C@_09OFJJIMPC@NAN?$CISNAN?$CJ@
5A064 86 ??_C@_09IPFBKMDL@nan?$CIsnan?$CJ@
5A070 86 ??_C@_08IKHNHAJ@NAN?$CIIND?$CJ@
5A07C 86 ??_C@_08OFCDMILK@nan?$CIind?$CJ@
5A088 86 ??_C@_05KLBDPFGC@e?$CL000@
5A090 170 ___lc_time_c
5A1F4 170 ??_C@_03KOEHGMDN@Sun@
5A1F8 170 ??_C@_03PDAGKDH@Mon@
5A1FC 170 ??_C@_03NAGEINEP@Tue@
5A200 170 ??_C@_03MHOMLAJA@Wed@
5A204 170 ??_C@_03IOFIKPDN@Thu@
5A208 170 ??_C@_03IDIOELNC@Fri@
5A20C 170 ??_C@_03FEFJNEK@Sat@
5A210 170 ??_C@_06OOPIFAJ@Sunday@
5A218 170 ??_C@_06JLEDEDGH@Monday@
5A220 170 ??_C@_07BAAGCFCM@Tuesday@
5A228 170 ??_C@_09DLIGFAKA@Wednesday@
5A234 170 ??_C@_08HACCIKIA@Thursday@
5A240 170 ??_C@_06JECMNKMI@Friday@
5A248 170 ??_C@_08INBOOONO@Saturday@
5A254 170 ??_C@_03JIHJHPIE@Jan@
5A258 170 ??_C@_03HJBDCHOM@Feb@
5A25C 170 ??_C@_03ODNJBKGA@Mar@
5A260 170 ??_C@_03LEOLGMJP@Apr@
5A264 170 ??_C@_03CNMDKL@May@
5A268 170 ??_C@_03IDFGHECI@Jun@
5A26C 170 ??_C@_03LBGABGKK@Jul@
5A270 170 ??_C@_03IFJFEIGA@Aug@
5A274 170 ??_C@_03GGCAPAJC@Sep@
5A278 170 ??_C@_03BMAOKBAD@Oct@
5A27C 170 ??_C@_03JPJOFNIA@Nov@
5A280 170 ??_C@_03MKABNOCG@Dec@
5A284 170 ??_C@_07CGJPFGJA@January@
5A28C 170 ??_C@_08GNJGEPFN@February@
5A298 170 ??_C@_05HPCKOFNC@March@
5A2A0 170 ??_C@_05DMJDNLEJ@April@
5A2A8 170 ??_C@_04CNLMGBGM@June@
5A2B0 170 ??_C@_04MIEPOIFP@July@
5A2B8 170 ??_C@_06LBBHFDDG@August@
5A2C0 170 ??_C@_09BHHEALKD@September@
5A2CC 170 ??_C@_07JJNFCEND@October@
5A2D4 170 ??_C@_08HCHEGEOA@November@
5A2E0 170 ??_C@_08EDHMEBNP@December@
5A2EC 170 ??_C@_02DEDBPAFC@AM@
5A2F0 170 ??_C@_02CJNFDJBF@PM@
5A2F4 170 ??_C@_08BPBNCDIB@MM?1dd?1yy@
5A300 170 ??_C@_0BE@CKGJFCPC@dddd?0?5MMMM?5dd?0?5yyyy@
5A314 170 ??_C@_08JCCMCCIL@HH?3mm?3ss@
5A320 170 ??_C@_17MBGCMIPB@?$AAS?$AAu?$AAn@
5A328 170 ??_C@_17KBOMKBF@?$AAM?$AAo?$AAn@
5A330 170 ??_C@_17BMKGEGOJ@?$AAT?$AAu?$AAe@
5A338 170 ??_C@_17CJEDCEPE@?$AAW?$AAe?$AAd@
5A340 170 ??_C@_17PDPHAADD@?$AAT?$AAh?$AAu@
5A348 170 ??_C@_17HFOLPPLP@?$AAF?$AAr?$AAi@
5A350 170 ??_C@_17GGIBDPIH@?$AAS?$AAa?$AAt@
5A358 170 ??_C@_1O@IHNHDHPB@?$AAS?$AAu?$AAn?$AAd?$AAa?$AAy@
5A368 170 ??_C@_1O@MMNBFLIA@?$AAM?$AAo?$AAn?$AAd?$AAa?$AAy@
5A378 170 ??_C@_1BA@ENFBFFEK@?$AAT?$AAu?$AAe?$AAs?$AAd?$AAa?$AAy@
5A388 170 ??_C@_1BE@EBOGMDOH@?$AAW?$AAe?$AAd?$AAn?$AAe?$AAs?$AAd?$AAa?$AAy@
5A39C 170 ??_C@_1BC@HHMNLIHE@?$AAT?$AAh?$AAu?$AAr?$AAs?$AAd?$AAa?$AAy@
5A3B0 170 ??_C@_1O@PDICJHAG@?$AAF?$AAr?$AAi?$AAd?$AAa?$AAy@
5A3C0 170 ??_C@_1BC@ENMNNPAJ@?$AAS?$AAa?$AAt?$AAu?$AAr?$AAd?$AAa?$AAy@
5A3D4 170 ??_C@_17DKNBKCHM@?$AAJ?$AAa?$AAn@
5A3DC 170 ??_C@_17LMDJEKJN@?$AAF?$AAe?$AAb@
5A3E4 170 ??_C@_17CKNLEDEC@?$AAM?$AAa?$AAr@
5A3EC 170 ??_C@_17LFPOIHDD@?$AAA?$AAp?$AAr@
5A3F4 170 ??_C@_17PNNKMEED@?$AAM?$AAa?$AAy@
5A3FC 170 ??_C@_17KCJGOCPB@?$AAJ?$AAu?$AAn@
5A404 170 ??_C@_17IJPCKHK@?$AAJ?$AAu?$AAl@
5A40C 170 ??_C@_17ICPELBCN@?$AAA?$AAu?$AAg@
5A414 170 ??_C@_17HCHCOKMG@?$AAS?$AAe?$AAp@
5A41C 170 ??_C@_17FNLKOI@?$AAO?$AAc?$AAt@
5A424 170 ??_C@_17BBDMLCIG@?$AAN?$AAo?$AAv@
5A42C 170 ??_C@_17EGKACKIF@?$AAD?$AAe?$AAc@
5A434 170 ??_C@_1BA@EFMEIEBA@?$AAJ?$AAa?$AAn?$AAu?$AAa?$AAr?$AAy@
5A444 170 ??_C@_1BC@JGDDFFAM@?$AAF?$AAe?$AAb?$AAr?$AAu?$AAa?$AAr?$AAy@
5A458 170 ??_C@_1M@IKEENEDF@?$AAM?$AAa?$AAr?$AAc?$AAh@
5A464 170 ??_C@_1M@GJNLMHFD@?$AAA?$AAp?$AAr?$AAi?$AAl@
5A470 170 ??_C@_19EPFLPGAP@?$AAJ?$AAu?$AAn?$AAe@
5A47C 170 ??_C@_19BIFMLPCD@?$AAJ?$AAu?$AAl?$AAy@
5A488 170 ??_C@_1O@PAHLKOAC@?$AAA?$AAu?$AAg?$AAu?$AAs?$AAt@
5A498 170 ??_C@_1BE@DKAAMBJL@?$AAS?$AAe?$AAp?$AAt?$AAe?$AAm?$AAb?$AAe?$AAr@
5A4AC 170 ??_C@_1BA@EPANDLNG@?$AAO?$AAc?$AAt?$AAo?$AAb?$AAe?$AAr@
5A4BC 170 ??_C@_1BC@BGLIFPF@?$AAN?$AAo?$AAv?$AAe?$AAm?$AAb?$AAe?$AAr@
5A4D0 170 ??_C@_1BC@FEMKIFH@?$AAD?$AAe?$AAc?$AAe?$AAm?$AAb?$AAe?$AAr@
5A4E4 170 ??_C@_15ODEHAHHF@?$AAA?$AAM@
5A4EC 170 ??_C@_15CLMNNGEL@?$AAP?$AAM@
5A4F4 170 ??_C@_1BC@IEBCMHCM@?$AAM?$AAM?$AA?1?$AAd?$AAd?$AA?1?$AAy?$AAy@
5A508 170 ??_C@_1CI@KNAKOEBC@?$AAd?$AAd?$AAd?$AAd?$AA?0?$AA?5?$AAM?$AAM?$AAM?$AAM?$AA?5?$AAd?$AAd?$AA?0?$AA?5@
5A530 170 ??_C@_1BC@GDGBMEMK@?$AAH?$AAH?$AA?3?$AAm?$AAm?$AA?3?$AAs?$AAs@
5A544 170 ??_C@_1M@BMHNFIME@?$AAe?$AAn?$AA?9?$AAU?$AAS@
5A550 105 _over
5A55C 105 _under
5A568 173 ?ccs@?1???$__acrt_stdio_parse_mode@_W@@YA?AU__acrt_stdio_stream_mode@@QB_W@Z@4QB_WB
5A570 173 ?utf8_encoding@?1???$__acrt_stdio_parse_mode@_W@@YA?AU__acrt_stdio_stream_mode@@QB_W@Z@4QB_WB
5A57C 173 ?utf16_encoding@?1???$__acrt_stdio_parse_mode@_W@@YA?AU__acrt_stdio_stream_mode@@QB_W@Z@4QB_WB
5A58C 173 ?unicode_encoding@?1???$__acrt_stdio_parse_mode@_W@@YA?AU__acrt_stdio_stream_mode@@QB_W@Z@4QB_WB
5A5A0 238 ?module_names@?A0x391cf84c@@3QBQB_WB
5A5F8 238 ??_C@_1EA@JGEFHKEI@?$AAa?$AAp?$AAi?$AA?9?$AAm?$AAs?$AA?9?$AAw?$AAi?$AAn?$AA?9?$AAc?$AAo?$AAr?$AAe@
5A638 238 ??_C@_1DI@KMEPCBPN@?$AAa?$AAp?$AAi?$AA?9?$AAm?$AAs?$AA?9?$AAw?$AAi?$AAn?$AA?9?$AAc?$AAo?$AAr?$AAe@
5A670 238 ??_C@_1DI@IJCEHOCB@?$AAa?$AAp?$AAi?$AA?9?$AAm?$AAs?$AA?9?$AAw?$AAi?$AAn?$AA?9?$AAc?$AAo?$AAr?$AAe@
5A6A8 238 ??_C@_1EI@MPIAOHOC@?$AAa?$AAp?$AAi?$AA?9?$AAm?$AAs?$AA?9?$AAw?$AAi?$AAn?$AA?9?$AAc?$AAo?$AAr?$AAe@
5A6F0 238 ??_C@_1FK@FPHCKFIE@?$AAa?$AAp?$AAi?$AA?9?$AAm?$AAs?$AA?9?$AAw?$AAi?$AAn?$AA?9?$AAc?$AAo?$AAr?$AAe@
5A750 238 ??_C@_1EM@DILCGIIO@?$AAa?$AAp?$AAi?$AA?9?$AAm?$AAs?$AA?9?$AAw?$AAi?$AAn?$AA?9?$AAc?$AAo?$AAr?$AAe@
5A79C 238 ??_C@_1DM@LNCGDDPN@?$AAa?$AAp?$AAi?$AA?9?$AAm?$AAs?$AA?9?$AAw?$AAi?$AAn?$AA?9?$AAc?$AAo?$AAr?$AAe@
5A7D8 238 ??_C@_1DO@FPAPJEMD@?$AAa?$AAp?$AAi?$AA?9?$AAm?$AAs?$AA?9?$AAw?$AAi?$AAn?$AA?9?$AAc?$AAo?$AAr?$AAe@
5A818 238 ??_C@_1DK@NDHNAHIO@?$AAa?$AAp?$AAi?$AA?9?$AAm?$AAs?$AA?9?$AAw?$AAi?$AAn?$AA?9?$AAc?$AAo?$AAr?$AAe@
5A854 238 ??_C@_1DM@KGHDGBCM@?$AAa?$AAp?$AAi?$AA?9?$AAm?$AAs?$AA?9?$AAw?$AAi?$AAn?$AA?9?$AAc?$AAo?$AAr?$AAe@
5A890 238 ??_C@_1EO@IJIOEFOH@?$AAa?$AAp?$AAi?$AA?9?$AAm?$AAs?$AA?9?$AAw?$AAi?$AAn?$AA?9?$AAr?$AAt?$AAc?$AAo@
5A8E0 238 ??_C@_1FG@HHGEKANL@?$AAa?$AAp?$AAi?$AA?9?$AAm?$AAs?$AA?9?$AAw?$AAi?$AAn?$AA?9?$AAs?$AAe?$AAc?$AAu@
5A938 238 ??_C@_1EG@DBIOJECG@?$AAe?$AAx?$AAt?$AA?9?$AAm?$AAs?$AA?9?$AAw?$AAi?$AAn?$AA?9?$AAn?$AAt?$AAu?$AAs@
5A980 238 ??_C@_1EO@FIHMJCLF@?$AAe?$AAx?$AAt?$AA?9?$AAm?$AAs?$AA?9?$AAw?$AAi?$AAn?$AA?9?$AAn?$AAt?$AAu?$AAs@
5A9D0 238 ??_C@_1BC@DNHGCMLG@?$AAa?$AAd?$AAv?$AAa?$AAp?$AAi?$AA3?$AA2@
5A9E4 238 ??_C@_1BG@CJPGBMEF@?$AAk?$AAe?$AAr?$AAn?$AAe?$AAl?$AAb?$AAa?$AAs?$AAe@
5A9FC 238 ??_C@_1M@OAIMIKLP@?$AAn?$AAt?$AAd?$AAl?$AAl@
5AA08 238 ??_C@_1EG@DPGNFKGC@?$AAa?$AAp?$AAi?$AA?9?$AAm?$AAs?$AA?9?$AAw?$AAi?$AAn?$AA?9?$AAa?$AAp?$AAp?$AAm@
5AA50 238 ??_C@_1O@BCCLBEOE@?$AAu?$AAs?$AAe?$AAr?$AA3?$AA2@
5AA60 238 ??_C@_1DM@BPJLHKCE@?$AAa?$AAp?$AAi?$AA?9?$AAm?$AAs?$AA?9?$AAw?$AAi?$AAn?$AA?9?$AAc?$AAo?$AAr?$AAe@
5AA9C 238 ??_C@_1BA@IAIFMGEF@?$AAe?$AAx?$AAt?$AA?9?$AAm?$AAs?$AA?9@
5AAAC 238 ?candidate_modules@?1??try_get_AreFileApisANSI@@YAP6GHXZXZ@4QBW4module_id@?A0x391cf84c@@B
5AAB0 238 ??_C@_0BA@FHFNEAED@AreFileApisANSI@
5AAC0 238 ?candidate_modules@?1??try_get_CompareStringEx@@YAP6GHPB_WK0H0HPAU_nlsversioninfo@@PAXJ@ZXZ@4QBW4module_id@?A0x391cf84c@@B
5AAC8 238 ??_C@_0BA@IHGNDAEB@CompareStringEx@
5AAD8 238 ?candidate_modules@?1??try_get_GetTempPath2W@@YAP6GKKPA_W@ZXZ@4QBW4module_id@?A0x391cf84c@@B
5AAE0 238 ??_C@_0O@NNMIPI@GetTempPath2W@
5AAF0 238 ?candidate_modules@?1??try_get_InitializeCriticalSectionEx@@YAP6GHPAU_RTL_CRITICAL_SECTION@@KK@ZXZ@4QBW4module_id@?A0x391cf84c@@B
5AAF8 238 ?candidate_modules@?1??try_get_LCMapStringEx@@YAP6GHPB_WK0HPA_WHPAU_nlsversioninfo@@PAXJ@ZXZ@4QBW4module_id@?A0x391cf84c@@B
5AB00 238 ??_C@_0O@KKBNKAPF@LCMapStringEx@
5AB10 238 ?candidate_modules@?1??try_get_LocaleNameToLCID@@YAP6GKPB_WK@ZXZ@4QBW4module_id@?A0x391cf84c@@B
5AB18 238 ??_C@_0BB@HBDEELFH@LocaleNameToLCID@
5AB2C 238 ?candidate_modules@?1??try_get_AppPolicyGetProcessTerminationMethod@@YAP6GJPAXPAW4AppPolicyProcessTerminationMethod@@@ZXZ@4QBW4module_id@?A0x391cf84c@@B
5AB30 238 ??_C@_0CF@OJOFEIGO@AppPolicyGetProcessTerminationM@
5AB58 238 ?candidate_modules@?1??try_get_FlsAlloc@@YAP6GKP6GXPAX@Z@ZXZ@4QBW4module_id@?A0x391cf84c@@B
5AB60 238 ?candidate_modules@?1??try_get_FlsFree@@YAP6GHK@ZXZ@4QBW4module_id@?A0x391cf84c@@B
5AB68 238 ?candidate_modules@?1??try_get_FlsGetValue@@YAP6GPAXK@ZXZ@4QBW4module_id@?A0x391cf84c@@B
5AB70 238 ?candidate_modules@?1??try_get_FlsSetValue@@YAP6GHKPAX@ZXZ@4QBW4module_id@?A0x391cf84c@@B
5AB78 213 __sys_first_posix_error
5AB7C 213 __sys_last_posix_error
5AB80 213 __sys_posix_errlist
5AC28 213 __sys_errlist
5ACD8 213 ??_C@_08INEPGKHH@No?5error@
5ACE4 213 ??_C@_0BI@BJFCGOHL@Operation?5not?5permitted@
5ACFC 213 ??_C@_0BK@FMDHKPNF@No?5such?5file?5or?5directory@
5AD18 213 ??_C@_0BA@FKIAIBGA@No?5such?5process@
5AD28 213 ??_C@_0BK@FJBOAFDK@Interrupted?5function?5call@
5AD44 213 ??_C@_0BD@KKNFOBBD@Input?1output?5error@
5AD58 213 ??_C@_0BK@DPKMCKJ@No?5such?5device?5or?5address@
5AD74 213 ??_C@_0BC@MFFGCDFL@Arg?5list?5too?5long@
5AD88 213 ??_C@_0BC@HKPNECK@Exec?5format?5error@
5AD9C 213 ??_C@_0BE@NFGDDCEF@Bad?5file?5descriptor@
5ADB0 213 ??_C@_0BD@LOHELEP@No?5child?5processes@
5ADC4 213 ??_C@_0CB@EPFKGNAK@Resource?5temporarily?5unavailabl@
5ADE8 213 ??_C@_0BB@IMDKMPFB@Not?5enough?5space@
5ADFC 213 ??_C@_0BC@HFNFNKAI@Permission?5denied@
5AE10 213 ??_C@_0M@LOEHLCJD@Bad?5address@
5AE1C 213 ??_C@_0O@NIPGCINC@Unknown?5error@
5AE2C 213 ??_C@_0BA@BIBLIOEK@Resource?5device@
5AE3C 213 ??_C@_0M@NAAJNNGH@File?5exists@
5AE48 213 ??_C@_0O@OAMDNOCP@Improper?5link@
5AE58 213 ??_C@_0P@NLEIANHE@No?5such?5device@
5AE68 213 ??_C@_0BA@CJBACOOL@Not?5a?5directory@
5AE78 213 ??_C@_0P@NDHGCGKE@Is?5a?5directory@
5AE88 213 ??_C@_0BB@HMGGCEBG@Invalid?5argument@
5AE9C 213 ??_C@_0BO@IIFBODJE@Too?5many?5open?5files?5in?5system@
5AEBC 213 ??_C@_0BE@INBJMKGG@Too?5many?5open?5files@
5AED0 213 ??_C@_0CE@ONOKNLPF@Inappropriate?5I?1O?5control?5opera@
5AEF4 213 ??_C@_0P@LFMMIPAE@File?5too?5large@
5AF04 213 ??_C@_0BI@FEALHKLD@No?5space?5left?5on?5device@
5AF1C 213 ??_C@_0N@FEHLOILP@Invalid?5seek@
5AF2C 213 ??_C@_0BG@DDBFNKBH@Read?9only?5file?5system@
5AF44 213 ??_C@_0P@PKCJJLLM@Too?5many?5links@
5AF54 213 ??_C@_0M@LHEPIIOM@Broken?5pipe@
5AF60 213 ??_C@_0N@MMJPGLJK@Domain?5error@
5AF70 213 ??_C@_0BB@FCBJFCAJ@Result?5too?5large@
5AF84 213 ??_C@_0BK@JAEBMJJM@Resource?5deadlock?5avoided@
5AFA0 213 ??_C@_0BC@BEDIHIDK@Filename?5too?5long@
5AFB4 213 ??_C@_0BD@CLHBCGPB@No?5locks?5available@
5AFC8 213 ??_C@_0BJ@IHEHINLI@Function?5not?5implemented@
5AFE4 213 ??_C@_0BE@ICMCHPHH@Directory?5not?5empty@
5AFF8 213 ??_C@_0BG@KLEAJEFJ@Illegal?5byte?5sequence@
5B010 213 ??_C@_0P@LDMLAFHI@address?5in?5use@
5B020 213 ??_C@_0BG@DHPCNBJB@address?5not?5available@
5B038 213 ??_C@_0BN@LKKBCCDB@address?5family?5not?5supported@
5B058 213 ??_C@_0BP@KAIHPOGN@connection?5already?5in?5progress@
5B078 213 ??_C@_0M@PMMIEFCP@bad?5message@
5B084 213 ??_C@_0BD@MOLBPMEA@operation?5canceled@
5B098 213 ??_C@_0BD@MGNDDEGM@connection?5aborted@
5B0AC 213 ??_C@_0BD@PJLIIJEL@connection?5refused@
5B0C0 213 ??_C@_0BB@IECNJNOI@connection?5reset@
5B0D4 213 ??_C@_0BN@KDMIFEIP@destination?5address?5required@
5B0F4 213 ??_C@_0BB@DHFDFGDM@host?5unreachable@
5B108 213 ??_C@_0BD@JPHBMONG@identifier?5removed@
5B11C 213 ??_C@_0BG@KDKHOPCO@operation?5in?5progress@
5B134 213 ??_C@_0BC@DFIBIBIL@already?5connected@
5B148 213 ??_C@_0BO@EFGOJEF@too?5many?5symbolic?5link?5levels@
5B168 213 ??_C@_0N@IFLPBIOP@message?5size@
5B178 213 ??_C@_0N@KIIEAAIO@network?5down@
5B188 213 ??_C@_0O@FNPDBHEE@network?5reset@
5B198 213 ??_C@_0BE@IFNCKGE@network?5unreachable@
5B1AC 213 ??_C@_0BA@PFFCAOFK@no?5buffer?5space@
5B1BC 213 ??_C@_0BF@PBGGPKKE@no?5message?5available@
5B1D4 213 ??_C@_07PLECNNKG@no?5link@
5B1DC 213 ??_C@_0L@EDOLMPAK@no?5message@
5B1E8 213 ??_C@_0BD@EAMBFIDF@no?5protocol?5option@
5B1FC 213 ??_C@_0BE@MKFDAFMP@no?5stream?5resources@
5B210 213 ??_C@_0N@LGAPMMPI@not?5a?5stream@
5B220 213 ??_C@_0O@GLMIBBEG@not?5connected@
5B230 213 ??_C@_0BG@MPLKFPAE@state?5not?5recoverable@
5B248 213 ??_C@_0N@POEIPGGF@not?5a?5socket@
5B258 213 ??_C@_0O@NHEDABJP@not?5supported@
5B268 213 ??_C@_0BI@LNEGIFLN@operation?5not?5supported@
5B280 213 ??_C@_0BA@KGKGOOJA@value?5too?5large@
5B290 213 ??_C@_0L@BLPOFLNJ@owner?5dead@
5B29C 213 ??_C@_0P@FNPOCJBE@protocol?5error@
5B2AC 213 ??_C@_0BH@JPPPLHJB@protocol?5not?5supported@
5B2C4 213 ??_C@_0BE@MIEJDDNH@wrong?5protocol?5type@
5B2D8 213 ??_C@_0P@DIIFGFCG@stream?5timeout@
5B2E8 213 ??_C@_09KJPPMAOI@timed?5out@
5B2F4 213 ??_C@_0P@IPFDMIFL@text?5file?5busy@
5B304 213 ??_C@_0BG@OEMDKMEE@operation?5would?5block@
5B31C 213 __sys_nerr
5B320 85 ___newctype
5B620 85 ___newclmap
5B7A0 85 ___newcumap
5B920 85 __wctype
5BB24 196 ?dot_slash@?CB@???$common_spawnv@_W@@YAHHQB_WQBQB_W1@Z@4QB_WB
5BB2C 196 ?extensions@?CP@???$common_spawnv@_W@@YAHHQB_WQBQB_W1@Z@4QAY04$$CB_WA
5BB54 159 ?_mb_locale_names@@3QBQB_WB
5BB64 159 ??_C@_1M@HPNHIDJI@?$AAj?$AAa?$AA?9?$AAJ?$AAP@
5BB70 159 ??_C@_1M@BIBDDEMK@?$AAz?$AAh?$AA?9?$AAC?$AAN@
5BB7C 159 ??_C@_1M@JLOOOEGK@?$AAk?$AAo?$AA?9?$AAK?$AAR@
5BB88 159 ??_C@_1M@CLNBBOPM@?$AAz?$AAh?$AA?9?$AAT?$AAW@
5BB94 73 ??_C@_05DNEBIAHO@1?$CDINF@
5BB9C 73 ??_C@_06IMKFLFPG@1?$CDQNAN@
5BBA4 73 ??_C@_06PGGFOGJG@1?$CDSNAN@
5BBAC 73 ??_C@_05PHHOCPM@1?$CDIND@
5BBB4 118 ??_C@_15PJPFLCCM@?$AAu?$AAk@
5BBC0 142 ?LcidToLocaleNameTable@?A0x881e4c05@@3QBULcidToLocaleName@1@B
5C2E0 142 ??_C@_15EMKDOKLE@?$AAa?$AAr@
5C2E8 142 ??_C@_15KNPADPLH@?$AAb?$AAg@
5C2F0 142 ??_C@_15EDMHLDMO@?$AAc?$AAa@
5C2F8 142 ??_C@_1O@BPEAJADD@?$AAz?$AAh?$AA?9?$AAC?$AAH?$AAS@
5C308 142 ??_C@_15LJNHCMNK@?$AAc?$AAs@
5C310 142 ??_C@_15FOMCIDHG@?$AAd?$AAa@
5C318 142 ??_C@_15NBKABECB@?$AAd?$AAe@
5C320 142 ??_C@_15GHPEIIAO@?$AAe?$AAl@
5C328 142 ??_C@_15MNPNEAIF@?$AAe?$AAn@
5C330 142 ??_C@_15GPIOMPMH@?$AAe?$AAs@
5C338 142 ??_C@_15NGLOAKJC@?$AAf?$AAi@
5C340 142 ??_C@_15FBKGNKAM@?$AAf?$AAr@
5C348 142 ??_C@_15KGGCNEFK@?$AAh?$AAe@
5C350 142 ??_C@_15PGHLIDMF@?$AAh?$AAu@
5C358 142 ??_C@_15BIEMAPLM@?$AAi?$AAs@
5C360 142 ??_C@_15IFJLDHAF@?$AAi?$AAt@
5C368 142 ??_C@_15GEMIOCAG@?$AAj?$AAa@
5C370 142 ??_C@_15EPELEGJA@?$AAk?$AAo@
5C378 142 ??_C@_15NDDHIMN@?$AAn?$AAl@
5C380 142 ??_C@_15BPIGNHCD@?$AAn?$AAo@
5C388 142 ??_C@_15DEOPBLCG@?$AAp?$AAl@
5C390 142 ??_C@_15KBECGEFG@?$AAp?$AAt@
5C398 142 ??_C@_15GLJCBFMD@?$AAr?$AAo@
5C3A0 142 ??_C@_15FEDGKCDI@?$AAr?$AAu@
5C3A8 142 ??_C@_15GLKMLLHM@?$AAh?$AAr@
5C3B0 142 ??_C@_15CPKMFBDB@?$AAs?$AAk@
5C3B8 142 ??_C@_15BAAIOGMK@?$AAs?$AAq@
5C3C0 142 ??_C@_15INNPNOHD@?$AAs?$AAv@
5C3C8 142 ??_C@_15CABMMOGH@?$AAt?$AAh@
5C3D0 142 ??_C@_15BPLIHJJM@?$AAt?$AAr@
5C3D8 142 ??_C@_15NEOEKKDJ@?$AAu?$AAr@
5C3E0 142 ??_C@_15NFICGAJK@?$AAi?$AAd@
5C3E8 142 ??_C@_15HPJPHDM@?$AAb?$AAe@
5C3F0 142 ??_C@_15LCHLGJII@?$AAs?$AAl@
5C3F8 142 ??_C@_15PCFJPHHO@?$AAe?$AAt@
5C400 142 ??_C@_15HPFPGODN@?$AAl?$AAv@
5C408 142 ??_C@_15NFFGKGLG@?$AAl?$AAt@
5C410 142 ??_C@_15BDAKCCHN@?$AAf?$AAa@
5C418 142 ??_C@_15NFGIAIAJ@?$AAv?$AAi@
5C420 142 ??_C@_15LMKNDMHN@?$AAh?$AAy@
5C428 142 ??_C@_15IJBHMCFL@?$AAa?$AAz@
5C430 142 ??_C@_15EKOFJABL@?$AAe?$AAu@
5C438 142 ??_C@_15BGHADCNK@?$AAm?$AAk@
5C440 142 ??_C@_15JDNICKHM@?$AAa?$AAf@
5C448 142 ??_C@_15KPJEDBKD@?$AAk?$AAa@
5C450 142 ??_C@_15PDNFFFEO@?$AAf?$AAo@
5C458 142 ??_C@_15OMLEGLOC@?$AAh?$AAi@
5C460 142 ??_C@_15IDNNENKK@?$AAm?$AAs@
5C468 142 ??_C@_15MACJNBMH@?$AAk?$AAk@
5C470 142 ??_C@_15DKDJEOND@?$AAk?$AAy@
5C478 142 ??_C@_15DFGDLJBG@?$AAs?$AAw@
5C480 142 ??_C@_15BBFAICNG@?$AAu?$AAz@
5C488 142 ??_C@_15DKNDCGEA@?$AAt?$AAt@
5C490 142 ??_C@_15MGIFMDPL@?$AAp?$AAa@
5C498 142 ??_C@_15HCNDBBA@?$AAg?$AAu@
5C4A0 142 ??_C@_15FNBEIBON@?$AAt?$AAa@
5C4A8 142 ??_C@_15NCHGBGLK@?$AAt?$AAe@
5C4B0 142 ??_C@_15PHPHCBPF@?$AAk?$AAn@
5C4B8 142 ??_C@_15DLGBCKMP@?$AAm?$AAr@
5C4C0 142 ??_C@_15EABBLBFF@?$AAs?$AAa@
5C4C8 142 ??_C@_15CBKOMCOI@?$AAm?$AAn@
5C4D0 142 ??_C@_15CKDMCJAF@?$AAg?$AAl@
5C4D8 142 ??_C@_17CNJFBPG@?$AAk?$AAo?$AAk@
5C4E0 142 ??_C@_17FFBJICPL@?$AAs?$AAy?$AAr@
5C4E8 142 ??_C@_17KPNDCPAF@?$AAd?$AAi?$AAv@
5C4F0 142 ??_C@_1M@OKAHONE@?$AAa?$AAr?$AA?9?$AAS?$AAA@
5C4FC 142 ??_C@_1M@FFFIGIGK@?$AAb?$AAg?$AA?9?$AAB?$AAG@
5C508 142 ??_C@_1M@BJNKEDC@?$AAc?$AAa?$AA?9?$AAE?$AAS@
5C514 142 ??_C@_1M@IJJHFJHA@?$AAc?$AAs?$AA?9?$AAC?$AAZ@
5C520 142 ??_C@_1M@CLPEOBGI@?$AAd?$AAa?$AA?9?$AAD?$AAK@
5C52C 142 ??_C@_1M@MCMADGCB@?$AAd?$AAe?$AA?9?$AAD?$AAE@
5C538 142 ??_C@_1M@OOCKEMAM@?$AAe?$AAl?$AA?9?$AAG?$AAR@
5C544 142 ??_C@_1M@DDNJFGID@?$AAf?$AAi?$AA?9?$AAF?$AAI@
5C550 142 ??_C@_1M@GLIPPMAC@?$AAf?$AAr?$AA?9?$AAF?$AAR@
5C55C 142 ??_C@_1M@GFMCHPE@?$AAh?$AAe?$AA?9?$AAI?$AAL@
5C568 142 ??_C@_1M@MHLPGNKM@?$AAh?$AAu?$AA?9?$AAH?$AAU@
5C574 142 ??_C@_1M@LPDDNNPN@?$AAi?$AAs?$AA?9?$AAI?$AAS@
5C580 142 ??_C@_1M@MADIPODN@?$AAi?$AAt?$AA?9?$AAI?$AAT@
5C58C 142 ??_C@_1M@IHBJJGG@?$AAn?$AAl?$AA?9?$AAN?$AAL@
5C598 142 ??_C@_1M@EANAGDL@?$AAn?$AAb?$AA?9?$AAN?$AAO@
5C5A4 142 ??_C@_1M@NEIEMEGP@?$AAp?$AAl?$AA?9?$AAP?$AAL@
5C5B0 142 ??_C@_1M@BOCFIGEP@?$AAp?$AAt?$AA?9?$AAB?$AAR@
5C5BC 142 ??_C@_1M@IMPFOPBG@?$AAr?$AAo?$AA?9?$AAR?$AAO@
5C5C8 142 ??_C@_1M@IDNNEJMM@?$AAr?$AAu?$AA?9?$AAR?$AAU@
5C5D4 142 ??_C@_1M@LILEEOGM@?$AAh?$AAr?$AA?9?$AAH?$AAR@
5C5E0 142 ??_C@_1M@FKIFEHPB@?$AAs?$AAk?$AA?9?$AAS?$AAK@
5C5EC 142 ??_C@_1M@LJMAMNPJ@?$AAs?$AAq?$AA?9?$AAA?$AAL@
5C5F8 142 ??_C@_1M@GIAKDKJK@?$AAs?$AAv?$AA?9?$AAS?$AAE@
5C604 142 ??_C@_1M@MKJKIKCL@?$AAt?$AAh?$AA?9?$AAT?$AAH@
5C610 142 ??_C@_1M@MFLCCMPB@?$AAt?$AAr?$AA?9?$AAT?$AAR@
5C61C 142 ??_C@_1M@OIJHDKJN@?$AAu?$AAr?$AA?9?$AAP?$AAK@
5C628 142 ??_C@_1M@LHIPCIEK@?$AAi?$AAd?$AA?9?$AAI?$AAD@
5C634 142 ??_C@_1M@MFMOBGI@?$AAu?$AAk?$AA?9?$AAU?$AAA@
5C640 142 ??_C@_1M@OBGLJIPL@?$AAb?$AAe?$AA?9?$AAB?$AAY@
5C64C 142 ??_C@_1M@BCFAJEAD@?$AAs?$AAl?$AA?9?$AAS?$AAI@
5C658 142 ??_C@_1M@FKFFEDDN@?$AAe?$AAt?$AA?9?$AAE?$AAE@
5C664 142 ??_C@_1M@KGKKAACI@?$AAl?$AAv?$AA?9?$AAL?$AAV@
5C670 142 ??_C@_1M@IFGBIJO@?$AAl?$AAt?$AA?9?$AAL?$AAT@
5C67C 142 ??_C@_1M@FGEAHEDM@?$AAf?$AAa?$AA?9?$AAI?$AAR@
5C688 142 ??_C@_1M@KBMAIBFN@?$AAv?$AAi?$AA?9?$AAV?$AAN@
5C694 142 ??_C@_1M@GPCBKDJK@?$AAh?$AAy?$AA?9?$AAA?$AAM@
5C6A0 142 ??_C@_1BG@BECMDDJB@?$AAa?$AAz?$AA?9?$AAA?$AAZ?$AA?9?$AAL?$AAa?$AAt?$AAn@
5C6B8 142 ??_C@_1M@MAOFCAEA@?$AAe?$AAu?$AA?9?$AAE?$AAS@
5C6C4 142 ??_C@_1M@IGHABKPI@?$AAm?$AAk?$AA?9?$AAM?$AAK@
5C6D0 142 ??_C@_1M@IAIGNEJG@?$AAt?$AAn?$AA?9?$AAZ?$AAA@
5C6DC 142 ??_C@_1M@IIJCOJFA@?$AAx?$AAh?$AA?9?$AAZ?$AAA@
5C6E8 142 ??_C@_1M@LGPJHNJH@?$AAz?$AAu?$AA?9?$AAZ?$AAA@
5C6F4 142 ??_C@_1M@HOKAOIO@?$AAa?$AAf?$AA?9?$AAZ?$AAA@
5C700 142 ??_C@_1M@DPCLHLIE@?$AAk?$AAa?$AA?9?$AAG?$AAE@
5C70C 142 ??_C@_1M@BLKMHJBI@?$AAf?$AAo?$AA?9?$AAF?$AAO@
5C718 142 ??_C@_1M@LGGJAPPB@?$AAh?$AAi?$AA?9?$AAI?$AAN@
5C724 142 ??_C@_1M@FIKPIHFE@?$AAm?$AAt?$AA?9?$AAM?$AAT@
5C730 142 ??_C@_1M@HEGGPBFA@?$AAs?$AAe?$AA?9?$AAN?$AAO@
5C73C 142 ??_C@_1M@EIBJEEPA@?$AAm?$AAs?$AA?9?$AAM?$AAY@
5C748 142 ??_C@_1M@FHLBGMPP@?$AAk?$AAk?$AA?9?$AAK?$AAZ@
5C754 142 ??_C@_1M@NGJJLCGI@?$AAk?$AAy?$AA?9?$AAK?$AAG@
5C760 142 ??_C@_1M@GIENNBFC@?$AAs?$AAw?$AA?9?$AAK?$AAE@
5C76C 142 ??_C@_1BG@NDGMJIMJ@?$AAu?$AAz?$AA?9?$AAU?$AAZ?$AA?9?$AAL?$AAa?$AAt?$AAn@
5C784 142 ??_C@_1M@IDCCIHBC@?$AAt?$AAt?$AA?9?$AAR?$AAU@
5C790 142 ??_C@_1M@LOICPMOJ@?$AAb?$AAn?$AA?9?$AAI?$AAN@
5C79C 142 ??_C@_1M@KPKKNEAH@?$AAp?$AAa?$AA?9?$AAI?$AAN@
5C7A8 142 ??_C@_1M@PJGPPBOG@?$AAg?$AAu?$AA?9?$AAI?$AAN@
5C7B4 142 ??_C@_1M@KMKMOPHI@?$AAt?$AAa?$AA?9?$AAI?$AAN@
5C7C0 142 ??_C@_1M@KFEHEPAC@?$AAt?$AAe?$AA?9?$AAI?$AAN@
5C7CC 142 ??_C@_1M@CDCLMGHI@?$AAk?$AAn?$AA?9?$AAI?$AAN@
5C7D8 142 ??_C@_1M@MIODLDKF@?$AAm?$AAl?$AA?9?$AAI?$AAN@
5C7E4 142 ??_C@_1M@PBIEACPO@?$AAm?$AAr?$AA?9?$AAI?$AAN@
5C7F0 142 ??_C@_1M@NIDEAGPH@?$AAs?$AAa?$AA?9?$AAI?$AAN@
5C7FC 142 ??_C@_1M@FHIHCBIO@?$AAm?$AAn?$AA?9?$AAM?$AAN@
5C808 142 ??_C@_1M@JAIJPENP@?$AAc?$AAy?$AA?9?$AAG?$AAB@
5C814 142 ??_C@_1M@PHGFBEPN@?$AAg?$AAl?$AA?9?$AAE?$AAS@
5C820 142 ??_C@_1O@KPIPDNCP@?$AAk?$AAo?$AAk?$AA?9?$AAI?$AAN@
5C830 142 ??_C@_1O@KNHJLDJA@?$AAs?$AAy?$AAr?$AA?9?$AAS?$AAY@
5C840 142 ??_C@_1O@MKEKBLAH@?$AAd?$AAi?$AAv?$AA?9?$AAM?$AAV@
5C850 142 ??_C@_1O@OHDCKDDF@?$AAq?$AAu?$AAz?$AA?9?$AAB?$AAO@
5C860 142 ??_C@_1M@LEPJNLFD@?$AAn?$AAs?$AA?9?$AAZ?$AAA@
5C86C 142 ??_C@_1M@OMLEIIJB@?$AAm?$AAi?$AA?9?$AAN?$AAZ@
5C878 142 ??_C@_1M@PMPEAILG@?$AAa?$AAr?$AA?9?$AAI?$AAQ@
5C884 142 ??_C@_1M@CNKPNOEE@?$AAd?$AAe?$AA?9?$AAC?$AAH@
5C890 142 ??_C@_1M@LKMGMLKO@?$AAe?$AAn?$AA?9?$AAG?$AAB@
5C89C 142 ??_C@_1M@PGKJFFGL@?$AAe?$AAs?$AA?9?$AAM?$AAX@
5C8A8 142 ??_C@_1M@DNNANBDC@?$AAf?$AAr?$AA?9?$AAB?$AAE@
5C8B4 142 ??_C@_1M@HLGMDFHM@?$AAi?$AAt?$AA?9?$AAC?$AAH@
5C8C0 142 ??_C@_1M@CLLBGJH@?$AAn?$AAl?$AA?9?$AAB?$AAE@
5C8CC 142 ??_C@_1M@BODBOGLF@?$AAn?$AAn?$AA?9?$AAN?$AAO@
5C8D8 142 ??_C@_1M@HFFAHKAD@?$AAp?$AAt?$AA?9?$AAP?$AAT@
5C8E4 142 ??_C@_1BG@LNOAKHIE@?$AAs?$AAr?$AA?9?$AAS?$AAP?$AA?9?$AAL?$AAa?$AAt?$AAn@
5C8FC 142 ??_C@_1M@HBMHBGAK@?$AAs?$AAv?$AA?9?$AAF?$AAI@
5C908 142 ??_C@_1BG@DGCJGJBE@?$AAa?$AAz?$AA?9?$AAA?$AAZ?$AA?9?$AAC?$AAy?$AAr?$AAl@
5C920 142 ??_C@_1M@KEJDAAHB@?$AAs?$AAe?$AA?9?$AAS?$AAE@
5C92C 142 ??_C@_1M@HEIBJJAD@?$AAm?$AAs?$AA?9?$AAB?$AAN@
5C938 142 ??_C@_1BG@PBGJMCEM@?$AAu?$AAz?$AA?9?$AAU?$AAZ?$AA?9?$AAC?$AAy?$AAr?$AAl@
5C950 142 ??_C@_1O@LAOBCMDF@?$AAq?$AAu?$AAz?$AA?9?$AAE?$AAC@
5C960 142 ??_C@_1M@POEEMAIO@?$AAa?$AAr?$AA?9?$AAE?$AAG@
5C96C 142 ??_C@_1M@EFAKDEDL@?$AAz?$AAh?$AA?9?$AAH?$AAK@
5C978 142 ??_C@_1M@HKKIJHGI@?$AAd?$AAe?$AA?9?$AAA?$AAT@
5C984 142 ??_C@_1M@KBFBEHJF@?$AAe?$AAn?$AA?9?$AAA?$AAU@
5C990 142 ??_C@_1M@MNPLFAAH@?$AAe?$AAs?$AA?9?$AAE?$AAS@
5C99C 142 ??_C@_1M@HJOOJFMA@?$AAf?$AAr?$AA?9?$AAC?$AAA@
5C9A8 142 ??_C@_1BG@JPOFPNAB@?$AAs?$AAr?$AA?9?$AAS?$AAP?$AA?9?$AAC?$AAy?$AAr?$AAl@
5C9C0 142 ??_C@_1M@LNFOCMOB@?$AAs?$AAe?$AA?9?$AAF?$AAI@
5C9CC 142 ??_C@_1O@MGJBOAMB@?$AAq?$AAu?$AAz?$AA?9?$AAP?$AAE@
5C9DC 142 ??_C@_1M@GJINLBOK@?$AAa?$AAr?$AA?9?$AAL?$AAY@
5C9E8 142 ??_C@_1M@GGMNHJNL@?$AAz?$AAh?$AA?9?$AAS?$AAG@
5C9F4 142 ??_C@_1M@HOIKODND@?$AAd?$AAe?$AA?9?$AAL?$AAU@
5CA00 142 ??_C@_1M@DDOCCGFG@?$AAe?$AAn?$AA?9?$AAC?$AAA@
5CA0C 142 ??_C@_1M@BNOEMJLF@?$AAe?$AAs?$AA?9?$AAG?$AAT@
5CA18 142 ??_C@_1M@EOGNKEK@?$AAf?$AAr?$AA?9?$AAC?$AAH@
5CA24 142 ??_C@_1M@FLIDJFHL@?$AAh?$AAr?$AA?9?$AAB?$AAA@
5CA30 142 ??_C@_1O@FMCELNAJ@?$AAs?$AAm?$AAj?$AA?9?$AAN?$AAO@
5CA40 142 ??_C@_1M@JHGLJMGJ@?$AAa?$AAr?$AA?9?$AAD?$AAZ@
5CA4C 142 ??_C@_1M@JKKFDCNP@?$AAz?$AAh?$AA?9?$AAM?$AAO@
5CA58 142 ??_C@_1M@GEEFALPE@?$AAd?$AAe?$AA?9?$AAL?$AAI@
5CA64 142 ??_C@_1M@IGEOFBG@?$AAe?$AAn?$AA?9?$AAN?$AAZ@
5CA70 142 ??_C@_1M@KDBONEHP@?$AAe?$AAs?$AA?9?$AAC?$AAR@
5CA7C 142 ??_C@_1M@FHMDOHNN@?$AAf?$AAr?$AA?9?$AAL?$AAU@
5CA88 142 ??_C@_1BG@NFKKMAFG@?$AAb?$AAs?$AA?9?$AAB?$AAA?$AA?9?$AAL?$AAa?$AAt?$AAn@
5CAA0 142 ??_C@_1O@IMNBEMCI@?$AAs?$AAm?$AAj?$AA?9?$AAS?$AAE@
5CAB0 142 ??_C@_1M@DHHMBNDP@?$AAa?$AAr?$AA?9?$AAM?$AAA@
5CABC 142 ??_C@_1M@BNBLJCGH@?$AAe?$AAn?$AA?9?$AAI?$AAE@
5CAC8 142 ??_C@_1M@GEPAFMDL@?$AAe?$AAs?$AA?9?$AAP?$AAA@
5CAD4 142 ??_C@_1M@OJONDMDL@?$AAf?$AAr?$AA?9?$AAM?$AAC@
5CAE0 142 ??_C@_1BG@OBCNFJB@?$AAs?$AAr?$AA?9?$AAB?$AAA?$AA?9?$AAL?$AAa?$AAt?$AAn@
5CAF8 142 ??_C@_1O@KEMEEGPO@?$AAs?$AAm?$AAa?$AA?9?$AAN?$AAO@
5CB08 142 ??_C@_1M@ELMGFODK@?$AAa?$AAr?$AA?9?$AAT?$AAN@
5CB14 142 ??_C@_1M@BHDLHFAF@?$AAe?$AAn?$AA?9?$AAZ?$AAA@
5CB20 142 ??_C@_1M@BMGIGLIF@?$AAe?$AAs?$AA?9?$AAD?$AAO@
5CB2C 142 ??_C@_1BG@CMBHIPBE@?$AAs?$AAr?$AA?9?$AAB?$AAA?$AA?9?$AAC?$AAy?$AAr?$AAl@
5CB44 142 ??_C@_1O@HEDBLHNP@?$AAs?$AAm?$AAa?$AA?9?$AAS?$AAE@
5CB54 142 ??_C@_1M@DAGCADIM@?$AAa?$AAr?$AA?9?$AAO?$AAM@
5CB60 142 ??_C@_1M@FODLMICG@?$AAe?$AAn?$AA?9?$AAJ?$AAM@
5CB6C 142 ??_C@_1M@DNMLCIHB@?$AAe?$AAs?$AA?9?$AAV?$AAE@
5CB78 142 ??_C@_1O@EOKHMKJK@?$AAs?$AAm?$AAs?$AA?9?$AAF?$AAI@
5CB88 142 ??_C@_1M@CAFJMKOF@?$AAa?$AAr?$AA?9?$AAY?$AAE@
5CB94 142 ??_C@_1M@CBFHIJLI@?$AAe?$AAn?$AA?9?$AAC?$AAB@
5CBA0 142 ??_C@_1M@BGNFLDN@?$AAe?$AAs?$AA?9?$AAC?$AAO@
5CBAC 142 ??_C@_1O@JMPHMAMC@?$AAs?$AAm?$AAn?$AA?9?$AAF?$AAI@
5CBBC 142 ??_C@_1M@JLANABKE@?$AAa?$AAr?$AA?9?$AAS?$AAY@
5CBC8 142 ??_C@_1M@HPKGCFGN@?$AAe?$AAn?$AA?9?$AAB?$AAZ@
5CBD4 142 ??_C@_1M@OLJCMLGM@?$AAe?$AAs?$AA?9?$AAP?$AAE@
5CBE0 142 ??_C@_1M@MKKGFKLE@?$AAa?$AAr?$AA?9?$AAJ?$AAO@
5CBEC 142 ??_C@_1M@EKPGLDNI@?$AAe?$AAn?$AA?9?$AAT?$AAT@
5CBF8 142 ??_C@_1M@OONGHFHE@?$AAe?$AAs?$AA?9?$AAA?$AAR@
5CC04 142 ??_C@_1M@OOJFGBHE@?$AAa?$AAr?$AA?9?$AAL?$AAB@
5CC10 142 ??_C@_1M@GCEJHNEG@?$AAe?$AAn?$AA?9?$AAZ?$AAW@
5CC1C 142 ??_C@_1M@JNOCAHJI@?$AAe?$AAs?$AA?9?$AAE?$AAC@
5CC28 142 ??_C@_1M@JEFHPGGB@?$AAa?$AAr?$AA?9?$AAK?$AAW@
5CC34 142 ??_C@_1M@MLKIBJOJ@?$AAe?$AAn?$AA?9?$AAP?$AAH@
5CC40 142 ??_C@_1M@BDNIPEND@?$AAe?$AAs?$AA?9?$AAC?$AAL@
5CC4C 142 ??_C@_1M@MPNMEKBD@?$AAa?$AAr?$AA?9?$AAA?$AAE@
5CC58 142 ??_C@_1M@KBJALCPI@?$AAe?$AAs?$AA?9?$AAU?$AAY@
5CC64 142 ??_C@_1M@LLCCOAGA@?$AAa?$AAr?$AA?9?$AAB?$AAH@
5CC70 142 ??_C@_1M@PBFNCDEL@?$AAe?$AAs?$AA?9?$AAP?$AAY@
5CC7C 142 ??_C@_1M@EDGINPNP@?$AAa?$AAr?$AA?9?$AAQ?$AAA@
5CC88 142 ??_C@_1M@MKDBIIJI@?$AAe?$AAs?$AA?9?$AAB?$AAO@
5CC94 142 ??_C@_1M@CPKKEBLD@?$AAe?$AAs?$AA?9?$AAS?$AAV@
5CCA0 142 ??_C@_1M@NDBGMMJL@?$AAe?$AAs?$AA?9?$AAH?$AAN@
5CCAC 142 ??_C@_1M@JIJIBHDP@?$AAe?$AAs?$AA?9?$AAN?$AAI@
5CCB8 142 ??_C@_1M@CGFMKEEK@?$AAe?$AAs?$AA?9?$AAP?$AAR@
5CCC4 142 ??_C@_1O@ICJHKIIK@?$AAz?$AAh?$AA?9?$AAC?$AAH?$AAT@
5CCD4 142 ??_C@_15CLNEJCE@?$AAs?$AAr@
5CCE0 142 ?LocaleNameToIndexTable@?A0x881e4c05@@3QBULocaleNameIndex@1@B
5D400 142 ??_C@_1M@KAHEKEIG@?$AAa?$AAf?$AA?9?$AAz?$AAa@
5D40C 142 ??_C@_1M@GIECOABL@?$AAa?$AAr?$AA?9?$AAa?$AAe@
5D418 142 ??_C@_1M@BMLMEKGI@?$AAa?$AAr?$AA?9?$AAb?$AAh@
5D424 142 ??_C@_1M@DAPFDGGB@?$AAa?$AAr?$AA?9?$AAd?$AAz@
5D430 142 ??_C@_1M@FJNKGKIG@?$AAa?$AAr?$AA?9?$AAe?$AAg@
5D43C 142 ??_C@_1M@FLGKKCLO@?$AAa?$AAr?$AA?9?$AAi?$AAq@
5D448 142 ??_C@_1M@GNDIPALM@?$AAa?$AAr?$AA?9?$AAj?$AAo@
5D454 142 ??_C@_1M@DDMJFMGJ@?$AAa?$AAr?$AA?9?$AAk?$AAw@
5D460 142 ??_C@_1M@EJALMLHM@?$AAa?$AAr?$AA?9?$AAl?$AAb@
5D46C 142 ??_C@_1M@MOBDBLOC@?$AAa?$AAr?$AA?9?$AAl?$AAy@
5D478 142 ??_C@_1M@JAOCLHDH@?$AAa?$AAr?$AA?9?$AAm?$AAa@
5D484 142 ??_C@_1M@JHPMKJIE@?$AAa?$AAr?$AA?9?$AAo?$AAm@
5D490 142 ??_C@_1M@OEPGHFNH@?$AAa?$AAr?$AA?9?$AAq?$AAa@
5D49C 142 ??_C@_1M@KJDONENM@?$AAa?$AAr?$AA?9?$AAs?$AAa@
5D4A8 142 ??_C@_1M@DMJDKLKM@?$AAa?$AAr?$AA?9?$AAs?$AAy@
5D4B4 142 ??_C@_1M@OMFIPEDC@?$AAa?$AAr?$AA?9?$AAt?$AAn@
5D4C0 142 ??_C@_1M@IHMHGAON@?$AAa?$AAr?$AA?9?$AAy?$AAe@
5D4CC 142 ??_C@_1BG@KDCPGJGB@?$AAa?$AAz?$AA?9?$AAa?$AAz?$AA?9?$AAc?$AAy?$AAr?$AAl@
5D4E4 142 ??_C@_1BG@IBCKDDOE@?$AAa?$AAz?$AA?9?$AAa?$AAz?$AA?9?$AAl?$AAa?$AAt?$AAn@
5D4FC 142 ??_C@_1M@EGPFDCPD@?$AAb?$AAe?$AA?9?$AAb?$AAy@
5D508 142 ??_C@_1M@PCMGMCGC@?$AAb?$AAg?$AA?9?$AAb?$AAg@
5D514 142 ??_C@_1M@BJBMFGOB@?$AAb?$AAn?$AA?9?$AAi?$AAn@
5D520 142 ??_C@_1BG@EAKMMACD@?$AAb?$AAs?$AA?9?$AAb?$AAa?$AA?9?$AAl?$AAa?$AAt?$AAn@
5D538 142 ??_C@_1M@KGADAODK@?$AAc?$AAa?$AA?9?$AAe?$AAs@
5D544 142 ??_C@_1M@COAJPDHI@?$AAc?$AAs?$AA?9?$AAc?$AAz@
5D550 142 ??_C@_1M@DHBHFONH@?$AAc?$AAy?$AA?9?$AAg?$AAb@
5D55C 142 ??_C@_1M@IMGKELGA@?$AAd?$AAa?$AA?9?$AAd?$AAk@
5D568 142 ??_C@_1M@NNDGDNGA@?$AAd?$AAe?$AA?9?$AAa?$AAt@
5D574 142 ??_C@_1M@IKDBHEEM@?$AAd?$AAe?$AA?9?$AAc?$AAh@
5D580 142 ??_C@_1M@GFFOJMCJ@?$AAd?$AAe?$AA?9?$AAd?$AAe@
5D58C 142 ??_C@_1M@MDNLKBPM@?$AAd?$AAe?$AA?9?$AAl?$AAi@
5D598 142 ??_C@_1M@NJBEEJNL@?$AAd?$AAe?$AA?9?$AAl?$AAu@
5D5A4 142 ??_C@_1O@GNNELBAP@?$AAd?$AAi?$AAv?$AA?9?$AAm?$AAv@
5D5B4 142 ??_C@_1M@EJLEOGAE@?$AAe?$AAl?$AA?9?$AAg?$AAr@
5D5C0 142 ??_C@_1M@GMPONJN@?$AAe?$AAn?$AA?9?$AAa?$AAu@
5D5CC 142 ??_C@_1M@NIDIIPGF@?$AAe?$AAn?$AA?9?$AAb?$AAz@
5D5D8 142 ??_C@_1M@JEHMIMFO@?$AAe?$AAn?$AA?9?$AAc?$AAa@
5D5E4 142 ??_C@_1M@IGMJCDLA@?$AAe?$AAn?$AA?9?$AAc?$AAb@
5D5F0 142 ??_C@_1M@BNFIGBKG@?$AAe?$AAn?$AA?9?$AAg?$AAb@
5D5FC 142 ??_C@_1M@LKIFDIGP@?$AAe?$AAn?$AA?9?$AAi?$AAe@
5D608 142 ??_C@_1M@PJKFGCCO@?$AAe?$AAn?$AA?9?$AAj?$AAm@
5D614 142 ??_C@_1M@KPPKEPBO@?$AAe?$AAn?$AA?9?$AAn?$AAz@
5D620 142 ??_C@_1M@GMDGLDOB@?$AAe?$AAn?$AA?9?$AAp?$AAh@
5D62C 142 ??_C@_1M@ONGIBJNA@?$AAe?$AAn?$AA?9?$AAt?$AAt@
5D638 142 ??_C@_1M@LLODPCMM@?$AAe?$AAn?$AA?9?$AAu?$AAs@
5D644 142 ??_C@_1M@LAKFNPAN@?$AAe?$AAn?$AA?9?$AAz?$AAa@
5D650 142 ??_C@_1M@MFNHNHEO@?$AAe?$AAn?$AA?9?$AAz?$AAw@
5D65C 142 ??_C@_1M@EJEINPHM@?$AAe?$AAs?$AA?9?$AAa?$AAr@
5D668 142 ??_C@_1M@GNKPCCJA@?$AAe?$AAs?$AA?9?$AAb?$AAo@
5D674 142 ??_C@_1M@LEEGFONL@?$AAe?$AAs?$AA?9?$AAc?$AAl@
5D680 142 ??_C@_1M@KGPDPBDF@?$AAe?$AAs?$AA?9?$AAc?$AAo@
5D68C 142 ??_C@_1M@EIAHOHH@?$AAe?$AAs?$AA?9?$AAc?$AAr@
5D698 142 ??_C@_1M@LLPGMBIN@?$AAe?$AAs?$AA?9?$AAd?$AAo@
5D6A4 142 ??_C@_1M@DKHMKNJA@?$AAe?$AAs?$AA?9?$AAe?$AAc@
5D6B0 142 ??_C@_1M@GKGFPKAP@?$AAe?$AAs?$AA?9?$AAe?$AAs@
5D6BC 142 ??_C@_1M@LKHKGDLN@?$AAe?$AAs?$AA?9?$AAg?$AAt@
5D6C8 142 ??_C@_1M@HEIIGGJD@?$AAe?$AAs?$AA?9?$AAh?$AAn@
5D6D4 142 ??_C@_1M@FBDHPPGD@?$AAe?$AAs?$AA?9?$AAm?$AAx@
5D6E0 142 ??_C@_1M@DPAGLNDH@?$AAe?$AAs?$AA?9?$AAn?$AAi@
5D6EC 142 ??_C@_1M@MDGOPGDD@?$AAe?$AAs?$AA?9?$AAp?$AAa@
5D6F8 142 ??_C@_1M@EMAMGBGE@?$AAe?$AAs?$AA?9?$AAp?$AAe@
5D704 142 ??_C@_1M@IBMCAOEC@?$AAe?$AAs?$AA?9?$AAp?$AAr@
5D710 142 ??_C@_1M@FGMDIJED@?$AAe?$AAs?$AA?9?$AAp?$AAy@
5D71C 142 ??_C@_1M@IIDEOLLL@?$AAe?$AAs?$AA?9?$AAs?$AAv@
5D728 142 ??_C@_1M@GAOBIPA@?$AAe?$AAs?$AA?9?$AAu?$AAy@
5D734 142 ??_C@_1M@JKFFICHJ@?$AAe?$AAs?$AA?9?$AAv?$AAe@
5D740 142 ??_C@_1M@PNMLOJDF@?$AAe?$AAt?$AA?9?$AAe?$AAe@
5D74C 142 ??_C@_1M@GHHLIKEI@?$AAe?$AAu?$AA?9?$AAe?$AAs@
5D758 142 ??_C@_1M@PBNONODE@?$AAf?$AAa?$AA?9?$AAi?$AAr@
5D764 142 ??_C@_1M@JEEHPMIL@?$AAf?$AAi?$AA?9?$AAf?$AAi@
5D770 142 ??_C@_1M@LMDCNDBA@?$AAf?$AAo?$AA?9?$AAf?$AAo@
5D77C 142 ??_C@_1M@JKEOHLDK@?$AAf?$AAr?$AA?9?$AAb?$AAe@
5D788 142 ??_C@_1M@NOHADPMI@?$AAf?$AAr?$AA?9?$AAc?$AAa@
5D794 142 ??_C@_1M@KDHIHAEC@?$AAf?$AAr?$AA?9?$AAc?$AAh@
5D7A0 142 ??_C@_1M@MMBBFGAK@?$AAf?$AAr?$AA?9?$AAf?$AAr@
5D7AC 142 ??_C@_1M@PAFNENNF@?$AAf?$AAr?$AA?9?$AAl?$AAu@
5D7B8 142 ??_C@_1M@EOHDJGDD@?$AAf?$AAr?$AA?9?$AAm?$AAc@
5D7C4 142 ??_C@_1M@FAPLLOPF@?$AAg?$AAl?$AA?9?$AAe?$AAs@
5D7D0 142 ??_C@_1M@FOPBFLOO@?$AAg?$AAu?$AA?9?$AAi?$AAn@
5D7DC 142 ??_C@_1M@KBMCINPM@?$AAh?$AAe?$AA?9?$AAi?$AAl@
5D7E8 142 ??_C@_1M@BBPHKFPJ@?$AAh?$AAi?$AA?9?$AAi?$AAn@
5D7F4 142 ??_C@_1M@PMBNDPHD@?$AAh?$AAr?$AA?9?$AAb?$AAa@
5D800 142 ??_C@_1M@BPCKOEGE@?$AAh?$AAr?$AA?9?$AAh?$AAr@
5D80C 142 ??_C@_1M@GACBMHKE@?$AAh?$AAu?$AA?9?$AAh?$AAu@
5D818 142 ??_C@_1M@MILPAJJC@?$AAh?$AAy?$AA?9?$AAa?$AAm@
5D824 142 ??_C@_1M@BABBICEC@?$AAi?$AAd?$AA?9?$AAi?$AAd@
5D830 142 ??_C@_1M@BIKNHHPF@?$AAi?$AAs?$AA?9?$AAi?$AAs@
5D83C 142 ??_C@_1M@NMPCJPHE@?$AAi?$AAt?$AA?9?$AAc?$AAh@
5D848 142 ??_C@_1M@GHKGFEDF@?$AAi?$AAt?$AA?9?$AAi?$AAt@
5D854 142 ??_C@_1M@NIEJCJJA@?$AAj?$AAa?$AA?9?$AAj?$AAp@
5D860 142 ??_C@_1M@JILFNBIM@?$AAk?$AAa?$AA?9?$AAg?$AAe@
5D86C 142 ??_C@_1M@PACPMGPH@?$AAk?$AAk?$AA?9?$AAk?$AAz@
5D878 142 ??_C@_1M@IELFGMHA@?$AAk?$AAn?$AA?9?$AAi?$AAn@
5D884 142 ??_C@_1O@IBBJHCH@?$AAk?$AAo?$AAk?$AA?9?$AAi?$AAn@
5D894 142 ??_C@_1M@DMHAEOGC@?$AAk?$AAo?$AA?9?$AAk?$AAr@
5D8A0 142 ??_C@_1M@HBAHBIGA@?$AAk?$AAy?$AA?9?$AAk?$AAg@
5D8AC 142 ??_C@_1M@KPMILCJG@?$AAl?$AAt?$AA?9?$AAl?$AAt@
5D8B8 142 ??_C@_1M@BDEKKCA@?$AAl?$AAv?$AA?9?$AAl?$AAv@
5D8C4 142 ??_C@_1M@ELCKCCJJ@?$AAm?$AAi?$AA?9?$AAn?$AAz@
5D8D0 142 ??_C@_1M@CBOOLAPA@?$AAm?$AAk?$AA?9?$AAm?$AAk@
5D8DC 142 ??_C@_1M@GPHNBJKN@?$AAm?$AAl?$AA?9?$AAi?$AAn@
5D8E8 142 ??_C@_1M@PABJILIG@?$AAm?$AAn?$AA?9?$AAm?$AAn@
5D8F4 142 ??_C@_1M@FGBKKIPG@?$AAm?$AAr?$AA?9?$AAi?$AAn@
5D900 142 ??_C@_1M@NDBPDDAL@?$AAm?$AAs?$AA?9?$AAb?$AAn@
5D90C 142 ??_C@_1M@OPIHOOPI@?$AAm?$AAs?$AA?9?$AAm?$AAy@
5D918 142 ??_C@_1M@PPDBCNFM@?$AAm?$AAt?$AA?9?$AAm?$AAt@
5D924 142 ??_C@_1M@KDJDKMDD@?$AAn?$AAb?$AA?9?$AAn?$AAo@
5D930 142 ??_C@_1M@KFCFLMJP@?$AAn?$AAl?$AA?9?$AAb?$AAe@
5D93C 142 ??_C@_1M@KPOPDDGO@?$AAn?$AAl?$AA?9?$AAn?$AAl@
5D948 142 ??_C@_1M@LJKPEMLN@?$AAn?$AAn?$AA?9?$AAn?$AAo@
5D954 142 ??_C@_1M@BDGHHBFL@?$AAn?$AAs?$AA?9?$AAz?$AAa@
5D960 142 ??_C@_1M@IDEHOAP@?$AAp?$AAa?$AA?9?$AAi?$AAn@
5D96C 142 ??_C@_1M@HDBKGOGH@?$AAp?$AAl?$AA?9?$AAp?$AAl@
5D978 142 ??_C@_1M@LJLLCMEH@?$AAp?$AAt?$AA?9?$AAb?$AAr@
5D984 142 ??_C@_1M@NCMONAAL@?$AAp?$AAt?$AA?9?$AAp?$AAt@
5D990 142 ??_C@_1O@EAKMAJDN@?$AAq?$AAu?$AAz?$AA?9?$AAb?$AAo@
5D9A0 142 ??_C@_1O@BHHPIGDN@?$AAq?$AAu?$AAz?$AA?9?$AAe?$AAc@
5D9B0 142 ??_C@_1O@GBAPEKMJ@?$AAq?$AAu?$AAz?$AA?9?$AAp?$AAe@
5D9C0 142 ??_C@_1M@CLGLEFBO@?$AAr?$AAo?$AA?9?$AAr?$AAo@
5D9CC 142 ??_C@_1M@CEEDODME@?$AAr?$AAu?$AA?9?$AAr?$AAu@
5D9D8 142 ??_C@_1M@HPKKKMPP@?$AAs?$AAa?$AA?9?$AAi?$AAn@
5D9E4 142 ??_C@_1M@BKMAIGOJ@?$AAs?$AAe?$AA?9?$AAf?$AAi@
5D9F0 142 ??_C@_1M@NDPIFLFI@?$AAs?$AAe?$AA?9?$AAn?$AAo@
5D9FC 142 ??_C@_1M@DANKKHJ@?$AAs?$AAe?$AA?9?$AAs?$AAe@
5DA08 142 ??_C@_1M@PNBLONPJ@?$AAs?$AAk?$AA?9?$AAs?$AAk@
5DA14 142 ??_C@_1M@LFMODOAL@?$AAs?$AAl?$AA?9?$AAs?$AAi@
5DA20 142 ??_C@_1O@DFKOMPG@?$AAs?$AAm?$AAa?$AA?9?$AAn?$AAo@
5DA30 142 ??_C@_1O@NDKPBNNH@?$AAs?$AAm?$AAa?$AA?9?$AAs?$AAe@
5DA40 142 ??_C@_1O@PLLKBHAB@?$AAs?$AAm?$AAj?$AA?9?$AAn?$AAo@
5DA50 142 ??_C@_1O@CLEPOGCA@?$AAs?$AAm?$AAj?$AA?9?$AAs?$AAe@
5DA60 142 ??_C@_1O@DLGJGKMK@?$AAs?$AAm?$AAn?$AA?9?$AAf?$AAi@
5DA70 142 ??_C@_1O@OJDJGAJC@?$AAs?$AAm?$AAs?$AA?9?$AAf?$AAi@
5DA80 142 ??_C@_1M@BOFOGHPB@?$AAs?$AAq?$AA?9?$AAa?$AAl@
5DA8C 142 ??_C@_1BG@LJBBIPGB@?$AAs?$AAr?$AA?9?$AAb?$AAa?$AA?9?$AAc?$AAy?$AAr?$AAl@
5DAA4 142 ??_C@_1BG@JLBENFOE@?$AAs?$AAr?$AA?9?$AAb?$AAa?$AA?9?$AAl?$AAa?$AAt?$AAn@
5DABC 142 ??_C@_1BG@KODPNHE@?$AAs?$AAr?$AA?9?$AAs?$AAp?$AA?9?$AAc?$AAy?$AAr?$AAl@
5DAD4 142 ??_C@_1BG@CIOGKHPB@?$AAs?$AAr?$AA?9?$AAs?$AAp?$AA?9?$AAl?$AAa?$AAt?$AAn@
5DAEC 142 ??_C@_1M@NGFJLMAC@?$AAs?$AAv?$AA?9?$AAf?$AAi@
5DAF8 142 ??_C@_1M@MPJEJAJC@?$AAs?$AAv?$AA?9?$AAs?$AAe@
5DB04 142 ??_C@_1M@MPNDHLFK@?$AAs?$AAw?$AA?9?$AAk?$AAe@
5DB10 142 ??_C@_1O@KOHBJJI@?$AAs?$AAy?$AAr?$AA?9?$AAs?$AAy@
5DB20 142 ??_C@_1M@LDCEFHA@?$AAt?$AAa?$AA?9?$AAi?$AAn@
5DB2C 142 ??_C@_1M@CNJOFAK@?$AAt?$AAe?$AA?9?$AAi?$AAn@
5DB38 142 ??_C@_1M@GNAECACD@?$AAt?$AAh?$AA?9?$AAt?$AAh@
5DB44 142 ??_C@_1M@CHBIHOJO@?$AAt?$AAn?$AA?9?$AAz?$AAa@
5DB50 142 ??_C@_1M@GCCMIGPJ@?$AAt?$AAr?$AA?9?$AAt?$AAr@
5DB5C 142 ??_C@_1M@CELMCNBK@?$AAt?$AAt?$AA?9?$AAr?$AAu@
5DB68 142 ??_C@_1M@KLMCELGA@?$AAu?$AAk?$AA?9?$AAu?$AAa@
5DB74 142 ??_C@_1M@EPAJJAJF@?$AAu?$AAr?$AA?9?$AAp?$AAk@
5DB80 142 ??_C@_1BG@GEGPMCDJ@?$AAu?$AAz?$AA?9?$AAu?$AAz?$AA?9?$AAc?$AAy?$AAr?$AAl@
5DB98 142 ??_C@_1BG@EGGKJILM@?$AAu?$AAz?$AA?9?$AAu?$AAz?$AA?9?$AAl?$AAa?$AAt?$AAn@
5DBB0 142 ??_C@_1M@GFOCLFF@?$AAv?$AAi?$AA?9?$AAv?$AAn@
5DBBC 142 ??_C@_1M@CPAMEDFI@?$AAx?$AAh?$AA?9?$AAz?$AAa@
5DBC8 142 ??_C@_1O@EBKIFIGN@?$AAz?$AAh?$AA?9?$AAc?$AAh?$AAs@
5DBD8 142 ??_C@_1O@NMHPGANE@?$AAz?$AAh?$AA?9?$AAc?$AAh?$AAt@
5DBE8 142 ??_C@_1M@LPINJOMC@?$AAz?$AAh?$AA?9?$AAc?$AAn@
5DBF4 142 ??_C@_1M@OCJEJODD@?$AAz?$AAh?$AA?9?$AAh?$AAk@
5DC00 142 ??_C@_1M@DNDLJINH@?$AAz?$AAh?$AA?9?$AAm?$AAo@
5DC0C 142 ??_C@_1M@MBFDNDND@?$AAz?$AAh?$AA?9?$AAs?$AAg@
5DC18 142 ??_C@_1M@IMEPLEPE@?$AAz?$AAh?$AA?9?$AAt?$AAw@
5DC24 142 ??_C@_1M@BBGHNHJP@?$AAz?$AAu?$AA?9?$AAz?$AAa@
5DC30 72 ?equal_sign@?BD@???$construct_environment_block@_W@@YAHQBQB_WQAPA_W@Z@4QB_WB
5DC40 151 LOG_name
5DC50 71 _One
5DC60 71 _Bns
5DC70 71 _Zero
5DC80 71 _S
5DC90 71 _NegZero
5DC98 129 ??_C@_1BA@BALFACEM@?$AAC?$AAO?$AAN?$AAO?$AAU?$AAT?$AA$@
5DCB0 152 emask
5DCC0 152 CC
5DCD0 152 Magic
5DCE0 152 hi_mask
5DCF0 152 LOG10_2
5DD00 152 place_L
5DD20 152 One
5DD30 152 Zero
5DD40 152 Two52
5DD50 152 Infs
5DD60 152 NaN
5DD70 152 coeff
5DDB0 51 __infinity
5DDBA 51 __minfinity
5DDC4 51 __logemax
5DDCE 51 _log2max
5DDD8 51 _smallarg
5DDE2 51 _half
5DDEA 51 __OP_EXPjmptab
5DE10 49 __indefinite
5DE1A 49 __piby2
5DE24 49 __piby4
5DE2E 49 One
5DE36 49 Three
5DE3E 49 XAMtoTagTab
5DE50 79 One
5DE58 79 __DEFAULT_CW_in_mem
5DE5A 79 __pi_by_2_to_61
5DE64 79 DblMax
5DE6C 79 DblMin
5DE74 79 IeeeAdjO
5DE7C 79 IeeeAdjU
5DE84 79 _infinity
5DE8C 79 _zero
5DE94 145 ??_C@_03MGHMBJCF@log@
5DE98 145 ??_C@_05HGHHAHAP@log10@
5DEA0 145 ??_C@_03KHJOGHMM@exp@
5DEA4 145 ??_C@_03JGHBODFD@pow@
5DEA8 145 ??_C@_04FIHNOPOL@asin@
5DEB0 145 ??_C@_04PDIFKINK@acos@
5DEB8 145 ??_C@_04EIAKFFMI@sqrt@
5DEC0 153 ___acrt_log10_table_t
5E2D0 153 ___acrt_log10_table_cb
5E6E0 180 __real@3fe0000000000000
5E6E8 106 ?_names@?1??_get_fname@@9@4QBU<unnamed-type-_names>@?1??1@YAPADI@Z@B
5E7D0 106 ??_C@_04COOMCNPB@sinh@
5E7D8 106 ??_C@_04HPJJNFIM@cosh@
5E7E0 106 ??_C@_04FJHINJAO@tanh@
5E7E8 106 ??_C@_04MLLJIGOK@atan@
5E7F0 106 ??_C@_05KNGEOGJB@atan2@
5E7F8 106 ??_C@_03BLEJJJBH@sin@
5E7FC 106 ??_C@_03LALBNOCG@cos@
5E800 106 ??_C@_03IIINPABG@tan@
5E804 106 ??_C@_04GFPJNGEK@ceil@
5E80C 106 ??_C@_05PBJFFIGL@floor@
5E814 106 ??_C@_04ODHECPBC@fabs@
5E81C 106 ??_C@_04EHEDPDJG@modf@
5E824 106 ??_C@_05CEJMAHNP@ldexp@
5E82C 106 ??_C@_05KBKMEMPO@_cabs@
5E834 106 ??_C@_06MEIMCGCF@_hypot@
5E83C 106 ??_C@_04KEPJIHGP@fmod@
5E844 106 ??_C@_05GKKHEGJL@frexp@
5E84C 106 ??_C@_03MJLDFKDL@_y0@
5E850 106 ??_C@_03NAKIGLHK@_y1@
5E854 106 ??_C@_03ONILCKOB@_yn@
5E858 106 ??_C@_05JGDBENOH@_logb@
5E860 106 ??_C@_0L@KDOEJCKC@_nextafter@
5E870 223 __d_inf
5E878 223 __d_max
5E880 223 __d_mzero
5E88C 32 ??_7type_info@@6B@
5E890 15 two32
5E894 15 two63
5E898 15 _NaN
5E89C 42 ??_C@_09GPALILFO@bad?5int64@
5E8A8 42 ??_C@_06GGPPAHKI@0x?$CFllX@
5E8B0 42 ??_C@_04JAOJMBA@bnot@
5E8B8 42 ??_C@_04BKGNPECA@band@
5E8C0 42 ??_C@_03BBBGIIAC@bor@
5E8C4 42 ??_C@_04CKCGDDNF@bxor@
5E8CC 42 ??_C@_06ELFGPGBK@lshift@
5E8D4 42 ??_C@_06HMLHBBIJ@rshift@
5E8DC 42 ??_C@_07JILILBLL@arshift@
5E8E4 42 ??_C@_03CLCAEGCJ@new@
5E8E8 42 ??_C@_03BDGOHNNK@add@
5E8EC 42 ??_C@_03KCMAIMAP@sub@
5E8F0 42 ??_C@_03IMIFIBCN@mul@
5E8F4 42 ??_C@_03FEJMGOGI@div@
5E8F8 42 ??_C@_03FFONCNID@mod@
5E8FC 42 ??_C@_02HIIGGHJB@eq@
5E900 42 ??_C@_02KCAKIFL@lt@
5E904 42 ??_C@_02FJPJILEL@le@
5E908 42 ??_C@_04GPMDFGEJ@type@
5E910 42 ??_C@_05MEHDOBFN@__add@
5E918 42 ??_C@_05HFNNBAII@__sub@
5E920 42 ??_C@_05FLJIBNKK@__mul@
5E928 42 ??_C@_05IDIBPCOP@__div@
5E930 42 ??_C@_05ICPALBAE@__mod@
5E938 42 ??_C@_05MHFNBPAK@__unm@
5E940 42 ??_C@_04GIMIAOHA@__eq@
5E948 42 ??_C@_04BKGOMBLK@__lt@
5E950 42 ??_C@_04EJLHOCKK@__le@
5E958 42 ??_C@_0L@HDFPAPPH@__tostring@
5E964 42 ??_C@_08JOIMPOJO@tonumber@
5E970 42 ??_C@_07NHABFFHN@__index@
5E978 42 ??_C@_05OALCLICP@bit64@
5E980 42 _metatable_name
5E990 42 _metamethods
5E9F0 42 _funcs
5EA80 43 ??_C@_05GFCDIDHO@debug@
5EA88 43 ??_C@_09GPFEECNC@traceback@
5EA94 43 ??_C@_06NKNNMLDJ@export@
5EA9C 43 ??_C@_07PCNKBAGB@OnError@
5EAA4 43 ??_C@_1DK@IHPNMOKC@?$AAe?$AAr?$AAr?$AAo?$AAr?$AA?5?$AAo?$AAb?$AAj?$AAe?$AAc?$AAt?$AA?5?$AAi?$AAs@
5EAE0 43 ??_C@_0N@NJMIGDDL@CreationTime@
5EAF0 43 ??_C@_0P@MFHPCDDH@LastAccessTime@
5EB00 43 ??_C@_0O@FCFNCAHK@LastWriteTime@
5EB10 43 ??_C@_0L@FCILKIIG@ChangeTime@
5EB1C 43 ??_C@_08BHIEONMC@FileSize@
5EB28 43 ??_C@_0P@JBACEJLL@AllocationSize@
5EB38 43 ??_C@_05BOOEKJH@Flags@
5EB40 43 ??_C@_0O@DLGJHFNH@NumberOfLinks@
5EB50 43 ??_C@_05MHNOECFO@CRC32@
5EB58 43 ??_C@_08FDCJCDOL@FileName@
5EB64 43 ??_C@_0BC@COCBGKAE@AlternateFileName@
5EB78 43 ??_C@_0M@OHKMKKDH@Description@
5EB84 43 ??_C@_05HDCNEILF@Owner@
5EB8C 43 ??_C@_0BB@OKGMKOG@CustomColumnData@
5EBA0 43 ??_C@_11LOCGONAA@@
5EBA4 43 ??_C@_08JNHPECBG@UserData@
5EBB0 43 ??_C@_0M@BDCAMGGD@ExtUserData@
5EBBC 43 ??_C@_0N@LHFGLEGJ@FreeUserData@
5EBCC 43 ??_C@_0M@DFMHDHBL@GetFindData@
5EBD8 43 ??_C@_08FFPEEIHA@GetFiles@
5EBE4 43 ??_C@_0BC@IECOKJFL@GetFiles?4DestPath@
5EBF8 43 ??_C@_05LFOKGKBN@?$DMboot@
5EC00 43 ??_C@_15CBMDENPJ@?$AA?4?$AA?9@
5EC08 43 ??_C@_07KNEGBPNO@package@
5EC10 43 ??_C@_07GCEAJMEA@preload@
5EC18 43 ??_C@_19BCNABNAK@?$AA?4?$AAl?$AAu?$AAa@
5EC24 43 ??_C@_13BPINEIPE@?$AAr@
5EC28 43 ??_C@_1DC@PABHCCON@?$AAD?$AAe?$AAf?$AAa?$AAu?$AAl?$AAt?$AA?5?$AAs?$AAc?$AAr?$AAi?$AAp?$AAt?$AA?5@
5EC5C 43 ??_C@_03JEOKDCFP@far@
5EC60 43 ??_C@_0BE@HCPAIELH@ReloadDefaultScript@
5EC74 43 ??_C@_0L@OCPPMCCK@StructSize@
5EC80 43 ??_C@_06LBMCOACO@Buffer@
5EC88 43 ??_C@_06EPIAKPGD@OpMode@
5EC90 43 ??_C@_07GDADDFBD@Analyse@
5EC98 43 ??_C@_0BB@CKIGBGLB@GetOpenPanelInfo@
5ECAC 43 ??_C@_08KDMNIFGM@FreeSize@
5ECB8 43 ??_C@_08PAJOMFPO@HostFile@
5ECC4 43 ??_C@_06IBPEEEAJ@CurDir@
5ECCC 43 ??_C@_06PEPCFMNJ@Format@
5ECD4 43 ??_C@_0L@CMHIOLLB@PanelTitle@
5ECE0 43 ??_C@_09PMEOAIAA@InfoLines@
5ECEC 43 ??_C@_0BA@BLCGOCOG@InfoLinesNumber@
5ECFC 43 ??_C@_04OJAHODMC@Text@
5ED04 43 ??_C@_04DICKPMGH@Data@
5ED0C 43 ??_C@_0L@FPEHOFAI@DescrFiles@
5ED18 43 ??_C@_0BA@BBOGKOKF@PanelModesArray@
5ED28 43 ??_C@_0BB@LFNABPEF@PanelModesNumber@
5ED3C 43 ??_C@_0M@KDJPJFOF@ColumnTypes@
5ED48 43 ??_C@_0N@ILFJPGHI@ColumnWidths@
5ED58 43 ??_C@_0BC@KELOOKNK@StatusColumnTypes@
5ED6C 43 ??_C@_0BD@DNDIPKDK@StatusColumnWidths@
5ED80 43 ??_C@_0N@EHCEJHEE@ColumnTitles@
5ED90 43 ??_C@_0P@BEEDPJDK@StartPanelMode@
5EDA0 43 ??_C@_0O@NIFKFGBJ@StartSortMode@
5EDB0 43 ??_C@_0P@KMACBLNK@StartSortOrder@
5EDC0 43 ??_C@_06ONGFDHIA@KeyBar@
5EDC8 43 ??_C@_0P@PKDBPEJI@VirtualKeyCode@
5EDD8 43 ??_C@_0BA@MFFHAKP@ControlKeyState@
5EDE8 43 ??_C@_08DGDJEKCP@LongText@
5EDF4 43 ??_C@_0BE@OPMKBLIP@_ModuleShortcutData@
5EE08 43 ??_C@_0N@IHDKLODA@ShortcutData@
5EE18 43 ??_C@_05HIFJDKLD@array@
5EE20 43 ??_C@_01EFFIKLCJ@n@
5EE22 43 ??_C@_00CNPNBAHC@@
5EE24 43 ??_C@_04DNCDCIAE@Open@
5EE2C 43 ??_C@_04OPJIDECA@hDlg@
5EE34 43 ??_C@_06BNNOMDLO@Handle@
5EE3C 43 ??_C@_05LNOAKADA@panel@
5EE44 43 ??_C@_0L@JMPDJFBN@ClosePanel@
5EE50 43 ??_C@_07MBOMJGGF@Compare@
5EE58 43 ??_C@_09NANCCILE@Configure@
5EE64 43 ??_C@_0M@MMKKMEFA@DeleteFiles@
5EE70 43 ??_C@_0O@GLLEDHJA@MakeDirectory@
5EE80 43 ??_C@_0BD@PJNONGDB@MakeDirectory?4Name@
5EE94 43 ??_C@_0BC@COPMJGBI@ProcessPanelEvent@
5EEA8 43 ??_C@_0BA@DPJAKFGC@ProcessHostFile@
5EEB8 43 ??_C@_0BC@HOBKGBBM@ProcessPanelInput@
5EECC 43 ??_C@_08OBOOFGOD@PutFiles@
5EED8 43 ??_C@_0N@KCFEBPAO@SetDirectory@
5EEE8 43 ??_C@_0M@PNOHHCCH@SetFindList@
5EEF4 43 ??_C@_07EACELFAO@ExitFAR@
5EEFC 43 ??_C@_0O@OBCKADMD@GetPluginInfo@
5EF0C 43 ??_C@_0O@GDMHGAFH@CommandPrefix@
5EF1C 43 ??_C@_0O@PHBKMNMJ@DiskMenuGuids@
5EF2C 43 ??_C@_0BA@NLBDFPEO@DiskMenuStrings@
5EF3C 43 ??_C@_0BA@FOMPNLJF@PluginMenuGuids@
5EF4C 43 ??_C@_0BC@DJMJFBJC@PluginMenuStrings@
5EF60 43 ??_C@_0BC@ILBHAHCH@PluginConfigGuids@
5EF74 43 ??_C@_0BE@GAFPNGIP@PluginConfigStrings@
5EF88 43 ??_C@_0BD@DECJPBBK@ProcessEditorInput@
5EF9C 43 ??_C@_0BD@GEMPAGBO@ProcessEditorEvent@
5EFB0 43 ??_C@_04KOACHJEN@Type@
5EFB8 43 ??_C@_0N@EKPHGDMI@StringNumber@
5EFC8 43 ??_C@_07MOCFLHCN@FileEOL@
5EFD0 43 ??_C@_08DOHJINHB@CodePage@
5EFDC 43 ??_C@_0BD@GGKMLEJG@ProcessViewerEvent@
5EFF0 43 ??_C@_0BD@FNHBEIC@ProcessDialogEvent@
5F004 43 ??_C@_06CPBJDKAC@Param2@
5F00C 43 ??_C@_06EDEGJMB@Param1@
5F014 43 ??_C@_03MLMOILGK@Msg@
5F018 43 ??_C@_0BE@LHJGGGHN@ProcessSynchroEvent@
5F02C 43 ??_C@_0BB@PHIEFGHD@GetContentFields@
5F040 43 ??_C@_0P@DPJDPMPI@GetContentData@
5F050 43 ??_C@_0N@DDJEHLKE@?$DM_globalinfo@
5F060 43 ??_C@_1CA@IBKDMBNJ@?$AA_?$AAg?$AAl?$AAo?$AAb?$AAa?$AAl?$AAi?$AAn?$AAf?$AAo?$AA?4?$AAl?$AAu?$AAa@
5F080 43 ??_C@_0O@GJMOPLGM@GetGlobalInfo@
5F090 43 ??_C@_0O@CALOEOI@MinFarVersion@
5F0A0 43 ??_C@_07NGFJPNPN@Version@
5F0A8 43 ??_C@_04MJHIICBJ@Guid@
5F0B0 43 ??_C@_05PABKJLOM@Title@
5F0B8 43 ??_C@_06HHECMMLE@Author@
5F0C0 43 ??_C@_0BE@DONMOPMJ@ProcessConsoleInput@
5F0D4 43 _KEY_OBJECT
5F0E4 43 _COLLECTOR_GI
5F0FC 43 _COLLECTOR_OPI
5F114 43 _COLLECTOR_PI
5F12C 44 ??_C@_09KFKKEOOH@GetFilesW@
5F138 44 ??_C@_0BE@OGGJBMCE@insufficient?5memory@
5F14C 44 ??_C@_09MMBIJGAH@PutFilesW@
5F158 44 ??_C@_0N@HPKKMFEI@GetFindDataW@
5F168 44 ??_C@_0O@GNDAADHN@FreeFindDataW@
5F178 44 ??_C@_0O@BCOALCIL@SetDirectoryW@
5F188 44 _far_host_funcs
5F1B8 45 ??_C@_0BI@IDKIJMME@FARMANAGERVERSION_MAJOR@
5F1D0 45 ??_C@_0BI@DMLKEAFC@FARMANAGERVERSION_MINOR@
5F1E8 45 ??_C@_0BL@NMALNAFP@FARMANAGERVERSION_REVISION@
5F204 45 ??_C@_0BI@OLPFLLDD@FARMANAGERVERSION_BUILD@
5F21C 45 ??_C@_0BI@MOOFLFPC@FARMANAGERVERSION_STAGE@
5F234 45 ??_C@_0L@GBPPBJMK@CP_UTF16LE@
5F240 45 ??_C@_0L@GLGBDEMA@CP_UTF16BE@
5F24C 45 ??_C@_0L@MIDBGFJO@CP_UNICODE@
5F258 45 ??_C@_0O@MNMCMEJH@CP_REVERSEBOM@
5F268 45 ??_C@_0L@JDNPCEDH@CP_DEFAULT@
5F274 45 ??_C@_0M@OMCMFJHA@CP_REDETECT@
5F280 45 ??_C@_09MNAPNKKC@INDEXMASK@
5F28C 45 ??_C@_09BLFIDJLF@COLORMASK@
5F298 45 ??_C@_09ENNBLPJC@ALPHAMASK@
5F2A4 45 ??_C@_0L@EHFOPLFD@PANEL_NONE@
5F2B0 45 ??_C@_0N@LPMKALBG@PANEL_ACTIVE@
5F2C0 45 ??_C@_0O@HPKEABPN@PANEL_PASSIVE@
5F2D0 45 ??_C@_0L@GOEBPENN@PANEL_STOP@
5F2DC 45 ??_C@_0N@HLIFAAPJ@EEREDRAW_ALL@
5F2EC 45 ??_C@_0P@NHNDIKJ@CURRENT_EDITOR@
5F2FC 45 ??_C@_0BN@PPNDCHHA@EDITOR_COLOR_NORMAL_PRIORITY@
5F31C 45 ??_C@_0P@BIMDIMHA@UNDERLINE_NONE@
5F32C 45 ??_C@_0BB@EFOGLHEC@UNDERLINE_SINGLE@
5F340 45 ??_C@_0BB@BBCIKALO@UNDERLINE_DOUBLE@
5F354 45 ??_C@_0BA@LILEBLPI@UNDERLINE_CURLY@
5F364 45 ??_C@_0O@KNONKIHH@UNDERLINE_DOT@
5F374 45 ??_C@_0P@BDPMKNIM@UNDERLINE_DASH@
5F384 45 ??_C@_07MGGAEAFF@DI_TEXT@
5F38C 45 ??_C@_08HODBDEHE@DI_VTEXT@
5F398 45 ??_C@_0N@IGKKGFMF@DI_SINGLEBOX@
5F3A8 45 ??_C@_0N@EDCLIEAE@DI_DOUBLEBOX@
5F3B8 45 ??_C@_07DOLIFAEF@DI_EDIT@
5F3C0 45 ??_C@_0L@EOMEIIFM@DI_PSWEDIT@
5F3CC 45 ??_C@_0L@MGOIMBKF@DI_FIXEDIT@
5F3D8 45 ??_C@_09GGAEMAPJ@DI_BUTTON@
5F3E4 45 ??_C@_0M@MHFHGPHJ@DI_CHECKBOX@
5F3F0 45 ??_C@_0P@GIPCGMBE@DI_RADIOBUTTON@
5F400 45 ??_C@_0M@MAKBFNGC@DI_COMBOBOX@
5F40C 45 ??_C@_0L@ONDMPPPO@DI_LISTBOX@
5F418 45 ??_C@_0P@GDJDPEIK@DI_USERCONTROL@
5F428 45 ??_C@_08KAEGOLOB@DM_FIRST@
5F434 45 ??_C@_08MJMBFJHA@DM_CLOSE@
5F440 45 ??_C@_09KLJOCKAA@DM_ENABLE@
5F44C 45 ??_C@_0BA@KAMJGFDG@DM_ENABLEREDRAW@
5F45C 45 ??_C@_0O@FKGMMKLP@DM_GETDLGDATA@
5F46C 45 ??_C@_0O@HEGKCPOI@DM_GETDLGITEM@
5F47C 45 ??_C@_0O@BEHCGMCL@DM_GETDLGRECT@
5F48C 45 ??_C@_0L@ELBDNLFO@DM_GETTEXT@
5F498 45 ??_C@_06IKGPEGEJ@DM_KEY@
5F4A0 45 ??_C@_0O@DIPLLJEH@DM_MOVEDIALOG@
5F4B0 45 ??_C@_0O@EEEDHNPG@DM_SETDLGDATA@
5F4C0 45 ??_C@_0O@GKEFJIKB@DM_SETDLGITEM@
5F4D0 45 ??_C@_0M@GOFGHDFK@DM_SETFOCUS@
5F4DC 45 ??_C@_09ILPFEDOM@DM_REDRAW@
5F4E8 45 ??_C@_0L@LDOCOEIP@DM_SETTEXT@
5F4F4 45 ??_C@_0BE@LABEAIPD@DM_SETMAXTEXTLENGTH@
5F508 45 ??_C@_0O@BIFKIPIP@DM_SHOWDIALOG@
5F518 45 ??_C@_0M@JPHKGACH@DM_GETFOCUS@
5F524 45 ??_C@_0BA@NLMONBKJ@DM_GETCURSORPOS@
5F534 45 ??_C@_0BA@KPHABNOF@DM_SETCURSORPOS@
5F544 45 ??_C@_0O@LGEKFPKK@DM_SETTEXTPTR@
5F554 45 ??_C@_0M@NCOJHJKI@DM_SHOWITEM@
5F560 45 ??_C@_0O@GKKCFHIM@DM_ADDHISTORY@
5F570 45 ??_C@_0M@MCEMDFMD@DM_GETCHECK@
5F57C 45 ??_C@_0M@DDGACGLO@DM_SETCHECK@
5F588 45 ??_C@_0N@MEGOPFGK@DM_SET3STATE@
5F598 45 ??_C@_0M@GEPBDDNC@DM_LISTSORT@
5F5A4 45 ??_C@_0P@NFJNHAKH@DM_LISTGETITEM@
5F5B4 45 ??_C@_0BB@EEIMACNO@DM_LISTGETCURPOS@
5F5C8 45 ??_C@_0BB@GKMJCDEM@DM_LISTSETCURPOS@
5F5DC 45 ??_C@_0O@NOPCAHGJ@DM_LISTDELETE@
5F5EC 45 ??_C@_0L@BMEAECNG@DM_LISTADD@
5F5F8 45 ??_C@_0O@HBHDMHP@DM_LISTADDSTR@
5F608 45 ??_C@_0O@PDFCNPKN@DM_LISTUPDATE@
5F618 45 ??_C@_0O@GAAGMJJL@DM_LISTINSERT@
5F628 45 ??_C@_0BC@MIFCLOBD@DM_LISTFINDSTRING@
5F63C 45 ??_C@_0M@EEAEBLKC@DM_LISTINFO@
5F648 45 ??_C@_0P@PLJLJFPA@DM_LISTGETDATA@
5F658 45 ??_C@_0P@DGKKKCB@DM_LISTSETDATA@
5F668 45 ??_C@_0BB@CELMNLLN@DM_LISTSETTITLES@
5F67C 45 ??_C@_0BB@KPJPKCP@DM_LISTGETTITLES@
5F690 45 ??_C@_0BA@ICDJCFLE@DM_RESIZEDIALOG@
5F6A0 45 ??_C@_0BD@CNGGHGJF@DM_SETITEMPOSITION@
5F6B4 45 ??_C@_0BF@JMINBGBA@DM_GETDROPDOWNOPENED@
5F6CC 45 ??_C@_0BF@LJIGJNAO@DM_SETDROPDOWNOPENED@
5F6E4 45 ??_C@_0O@NPDKADMJ@DM_SETHISTORY@
5F6F4 45 ??_C@_0BD@BPHAAEIM@DM_GETITEMPOSITION@
5F708 45 ??_C@_0BC@BENFKLNH@DM_SETINPUTNOTIFY@
5F71C 45 ??_C@_0BH@CFMLLNNM@DM_SETMOUSEEVENTNOTIFY@
5F734 45 ??_C@_0BF@IAGIACOD@DM_EDITUNCHANGEDFLAG@
5F74C 45 ??_C@_0P@OJKNHIPN@DM_GETITEMDATA@
5F75C 45 ??_C@_0P@OGLDKOHO@DM_SETITEMDATA@
5F76C 45 ??_C@_0L@KNFAKFKE@DM_LISTSET@
5F778 45 ??_C@_0BB@EPMFHAFO@DM_GETCURSORSIZE@
5F78C 45 ??_C@_0BB@DANLMDCJ@DM_SETCURSORSIZE@
5F7A0 45 ??_C@_0BD@LAOOKGHD@DM_LISTGETDATASIZE@
5F7B4 45 ??_C@_0BA@BHGANJAP@DM_GETSELECTION@
5F7C4 45 ??_C@_0BA@GDNOBFED@DM_SETSELECTION@
5F7D4 45 ??_C@_0BD@FIHDGIGO@DM_GETEDITPOSITION@
5F7E8 45 ??_C@_0BD@GKGFBKHH@DM_SETEDITPOSITION@
5F7FC 45 ??_C@_0BE@MCECGHBC@DM_SETCOMBOBOXEVENT@
5F810 45 ??_C@_0BE@KGBLNJKA@DM_GETCOMBOBOXEVENT@
5F824 45 ??_C@_0BD@CJEPBACF@DM_GETCONSTTEXTPTR@
5F838 45 ??_C@_0BD@HOOHICEG@DM_GETDLGITEMSHORT@
5F84C 45 ??_C@_0BD@EMPBPAFP@DM_SETDLGITEMSHORT@
5F860 45 ??_C@_0BB@GAPFMPKE@DM_GETDIALOGINFO@
5F874 45 ??_C@_0BC@KJOLMFGG@DM_GETDIALOGTITLE@
5F888 45 ??_C@_08COMJOMAC@DN_FIRST@
5F894 45 ??_C@_0M@NNNAPNMA@DN_BTNCLICK@
5F8A0 45 ??_C@_0BC@MJFJAANN@DN_CTLCOLORDIALOG@
5F8B4 45 ??_C@_0BD@HFGBIBBL@DN_CTLCOLORDLGITEM@
5F8C8 45 ??_C@_0BD@JMFJPHPD@DN_CTLCOLORDLGLIST@
5F8DC 45 ??_C@_0O@NKBDPILK@DN_DRAWDIALOG@
5F8EC 45 ??_C@_0P@KGKEDPBI@DN_DRAWDLGITEM@
5F8FC 45 ??_C@_0O@JMKNGFLE@DN_EDITCHANGE@
5F90C 45 ??_C@_0M@JHFIBKOO@DN_GOTFOCUS@
5F918 45 ??_C@_07NJJEMKPA@DN_HELP@
5F920 45 ??_C@_09EDGJFAK@DN_HOTKEY@
5F92C 45 ??_C@_0O@BJECHBCA@DN_INITDIALOG@
5F93C 45 ??_C@_0N@CHLLLNBO@DN_KILLFOCUS@
5F94C 45 ??_C@_0O@CLPABIGO@DN_LISTCHANGE@
5F95C 45 ??_C@_0L@MLMFBHN@DN_DRAGGED@
5F968 45 ??_C@_0BB@BOOOCAEG@DN_RESIZECONSOLE@
5F97C 45 ??_C@_0BC@FHPPFLKG@DN_DRAWDIALOGDONE@
5F990 45 ??_C@_0O@EONPBNNP@DN_LISTHOTKEY@
5F9A0 45 ??_C@_08MDDLDGPO@DN_INPUT@
5F9AC 45 ??_C@_0BA@FGOGLDBC@DN_CONTROLINPUT@
5F9BC 45 ??_C@_08EHEOFOJD@DN_CLOSE@
5F9C8 45 ??_C@_0M@POIFBPFN@DN_GETVALUE@
5F9D4 45 ??_C@_0BC@MHCBFAAO@DN_DROPDOWNOPENED@
5F9E8 45 ??_C@_0BD@NGEKAPIF@DN_DRAWDLGITEMDONE@
5F9FC 45 ??_C@_07DIJJNCBA@DM_USER@
5FA04 45 ??_C@_0BB@HLBBGMAN@BSTATE_UNCHECKED@
5FA18 45 ??_C@_0P@FALAMPGP@BSTATE_CHECKED@
5FA28 45 ??_C@_0O@KBIFGGHO@BSTATE_3STATE@
5FA38 45 ??_C@_0O@ILJOJGLD@BSTATE_TOGGLE@
5FA48 45 ??_C@_08PPADCPCM@CBET_KEY@
5FA54 45 ??_C@_0L@KHCLMGFJ@CBET_MOUSE@
5FA60 45 ??_C@_0BA@KNHGEBNE@PTYPE_FILEPANEL@
5FA70 45 ??_C@_0BA@LPPHNHIG@PTYPE_TREEPANEL@
5FA80 45 ??_C@_0BB@JBINOKAI@PTYPE_QVIEWPANEL@
5FA94 45 ??_C@_0BA@NKMDEBG@PTYPE_INFOPANEL@
5FAA4 45 ??_C@_0L@OPHJOKKE@SM_DEFAULT@
5FAB0 45 ??_C@_0M@JGBFGGEA@SM_UNSORTED@
5FABC 45 ??_C@_07KIFHAGIL@SM_NAME@
5FAC4 45 ??_C@_0M@OAFEBGNH@SM_FULLNAME@
5FAD0 45 ??_C@_06GJJJNNFE@SM_EXT@
5FAD8 45 ??_C@_08FICJBKFN@SM_MTIME@
5FAE4 45 ??_C@_08GCCDHLCN@SM_CTIME@
5FAF0 45 ??_C@_08CPOLNKCG@SM_ATIME@
5FAFC 45 ??_C@_07OMPKMIKC@SM_SIZE@
5FB04 45 ??_C@_08BCBPOLMA@SM_DESCR@
5FB10 45 ??_C@_08MEAGCMBB@SM_OWNER@
5FB1C 45 ??_C@_0BC@NKDBNAHD@SM_COMPRESSEDSIZE@
5FB30 45 ??_C@_0M@PKNLKFI@SM_NUMLINKS@
5FB3C 45 ??_C@_0O@CCKEKPHL@SM_NUMSTREAMS@
5FB4C 45 ??_C@_0P@PKGMDPMD@SM_STREAMSSIZE@
5FB5C 45 ??_C@_0M@KALDNPOO@SM_NAMEONLY@
5FB68 45 ??_C@_09KFKGJDHC@SM_CHTIME@
5FB74 45 ??_C@_08DOEDKINA@SM_COUNT@
5FB80 45 ??_C@_07EOOHOKCC@SM_USER@
5FB88 45 ??_C@_0P@FEMAMJLE@EEC_OPEN_ERROR@
5FB98 45 ??_C@_0N@GLMELIKF@EEC_MODIFIED@
5FBA8 45 ??_C@_0BB@HALKEFOL@EEC_NOT_MODIFIED@
5FBBC 45 ??_C@_0BI@CNPFKHKO@EEC_LOADING_INTERRUPTED@
5FBD4 45 ??_C@_0BK@PHBCABMB@ACTL_GETFARMANAGERVERSION@
5FBF0 45 ??_C@_0N@DPABJDML@ACTL_WAITKEY@
5FC00 45 ??_C@_0O@CEHHJAFD@ACTL_GETCOLOR@
5FC10 45 ??_C@_0BD@OKPAACIK@ACTL_GETARRAYCOLOR@
5FC24 45 ??_C@_0BD@DIFEEKNN@ACTL_GETWINDOWINFO@
5FC38 45 ??_C@_0BE@PJBIPKOD@ACTL_GETWINDOWCOUNT@
5FC4C 45 ??_C@_0BG@MNKPOEEN@ACTL_SETCURRENTWINDOW@
5FC64 45 ??_C@_0M@IHHFGPPA@ACTL_COMMIT@
5FC70 45 ??_C@_0BA@CLHFKJJP@ACTL_GETFARHWND@
5FC80 45 ??_C@_0BD@JFOOLBPN@ACTL_SETARRAYCOLOR@
5FC94 45 ??_C@_0P@JECKFIA@ACTL_REDRAWALL@
5FCA4 45 ??_C@_0N@DHPLJLHO@ACTL_SYNCHRO@
5FCB4 45 ??_C@_0BG@IJPADENB@ACTL_SETPROGRESSSTATE@
5FCCC 45 ??_C@_0BG@ICJFAPHK@ACTL_SETPROGRESSVALUE@
5FCE4 45 ??_C@_09HNDBKLDC@ACTL_QUIT@
5FCF0 45 ??_C@_0BA@LJCPDIKK@ACTL_GETFARRECT@
5FD00 45 ??_C@_0BC@FELBEIDG@ACTL_GETCURSORPOS@
5FD14 45 ??_C@_0BC@CAAPIEHK@ACTL_SETCURSORPOS@
5FD28 45 ??_C@_0BE@NPJGMDBM@ACTL_PROGRESSNOTIFY@
5FD3C 45 ??_C@_0BD@IPKOEBIA@ACTL_GETWINDOWTYPE@
5FD50 45 ??_C@_09CEDFMINA@MSSC_POST@
5FD5C 45 ??_C@_0L@MOADGAEB@MSSC_CHECK@
5FD68 45 ??_C@_0BA@MMOAIEKP@MACROAREA_OTHER@
5FD78 45 ??_C@_0BA@DEBOOAEB@MACROAREA_SHELL@
5FD88 45 ??_C@_0BB@JIMPEHCD@MACROAREA_VIEWER@
5FD9C 45 ??_C@_0BB@KILFBFJH@MACROAREA_EDITOR@
5FDB0 45 ??_C@_0BB@CADENPFI@MACROAREA_DIALOG@
5FDC4 45 ??_C@_0BB@MLMLHIGE@MACROAREA_SEARCH@
5FDD8 45 ??_C@_0BA@KKMKOLIK@MACROAREA_DISKS@
5FDE8 45 ??_C@_0BD@IGOOIJP@MACROAREA_MAINMENU@
5FDFC 45 ??_C@_0P@LFLMAHBF@MACROAREA_MENU@
5FE0C 45 ??_C@_0P@DKPKIEO@MACROAREA_HELP@
5FE1C 45 ??_C@_0BE@MDJPICHC@MACROAREA_INFOPANEL@
5FE30 45 ??_C@_0BF@NLJMHMPP@MACROAREA_QVIEWPANEL@
5FE48 45 ??_C@_0BE@HBMEGBOC@MACROAREA_TREEPANEL@
5FE5C 45 ??_C@_0BF@FCHKCGLL@MACROAREA_FINDFOLDER@
5FE74 45 ??_C@_0BD@JCFMJGDE@MACROAREA_USERMENU@
5FE88 45 ??_C@_0BO@OMLEPJPM@MACROAREA_SHELLAUTOCOMPLETION@
5FEA8 45 ??_C@_0BP@OIHAIGBK@MACROAREA_DIALOGAUTOCOMPLETION@
5FEC8 45 ??_C@_0BC@EIJFKPMK@MACROAREA_GRABBER@
5FEDC 45 ??_C@_0BC@GNLOCEJP@MACROAREA_DESKTOP@
5FEF0 45 ??_C@_0BB@JPEEDDOG@MACROAREA_COMMON@
5FF04 45 ??_C@_0BD@DIKEKAIJ@MACROSTATE_NOMACRO@
5FF18 45 ??_C@_0BF@PCDEFEGP@MACROSTATE_EXECUTING@
5FF30 45 ??_C@_0BM@EJOFDENO@MACROSTATE_EXECUTING_COMMON@
5FF4C 45 ??_C@_0BF@BGODKPBB@MACROSTATE_RECORDING@
5FF64 45 ??_C@_0BM@OICPADFE@MACROSTATE_RECORDING_COMMON@
5FF80 45 ??_C@_0N@CGFFMLBC@MPEC_SUCCESS@
5FF90 45 ??_C@_0L@FJDDLDNN@MPEC_ERROR@
5FF9C 45 ??_C@_0N@IBOAADDD@FMVT_UNKNOWN@
5FFAC 45 ??_C@_0N@BDMFKEKE@FMVT_INTEGER@
5FFBC 45 ??_C@_0M@LFMLDDKI@FMVT_STRING@
5FFC8 45 ??_C@_0M@CKDAIOEN@FMVT_DOUBLE@
5FFD4 45 ??_C@_0N@MHKOBOGF@FMVT_BOOLEAN@
5FFE4 45 ??_C@_0M@GKPDICDA@FMVT_BINARY@
5FFF0 45 ??_C@_0N@FMHCFNDF@FMVT_POINTER@
60000 45 ??_C@_08DDPDBBNO@FMVT_NIL@
6000C 45 ??_C@_0L@DJIKMOJA@FMVT_ARRAY@
60018 45 ??_C@_0L@PMDDFEBD@FMVT_PANEL@
60024 45 ??_C@_0L@ELHBHIEH@FMVT_ERROR@
60030 45 ??_C@_0O@OGHFLIKM@WTYPE_UNKNOWN@
60040 45 ??_C@_0O@DCGKMPOM@WTYPE_DESKTOP@
60050 45 ??_C@_0N@FNCFCPIG@WTYPE_PANELS@
60060 45 ??_C@_0N@EJKMDMBK@WTYPE_VIEWER@
60070 45 ??_C@_0N@HJNGGOKO@WTYPE_EDITOR@
60080 45 ??_C@_0N@PBFHKEGB@WTYPE_DIALOG@
60090 45 ??_C@_0M@OMKLELFA@WTYPE_VMENU@
6009C 45 ??_C@_0L@BCEMNGOG@WTYPE_HELP@
600A8 45 ??_C@_0P@MMIDEOJJ@WTYPE_COMBOBOX@
600B8 45 ??_C@_0O@BHEBEELJ@WTYPE_GRABBER@
600C8 45 ??_C@_0M@NFHHCILL@WTYPE_HMENU@
600D4 45 ??_C@_0BA@IPEAOBGN@TBPS_NOPROGRESS@
600E4 45 ??_C@_0BD@HMEHMDAL@TBPS_INDETERMINATE@
600F8 45 ??_C@_0M@KHLNKPHE@TBPS_NORMAL@
60104 45 ??_C@_0L@DFDPCOFD@TBPS_ERROR@
60110 45 ??_C@_0M@GHGAPHPP@TBPS_PAUSED@
6011C 45 ??_C@_0O@MCNCFBLF@VSMT_VIEWMODE@
6012C 45 ??_C@_09FLKONCNO@VSMT_WRAP@
60138 45 ??_C@_0O@INKALKJK@VSMT_WORDWRAP@
60148 45 ??_C@_08FNEFFFEL@VMT_TEXT@
60154 45 ??_C@_07FLIHDEDA@VMT_HEX@
6015C 45 ??_C@_08BDDNDBMJ@VMT_DUMP@
60168 45 ??_C@_07OJCLGDHJ@VE_READ@
60170 45 ??_C@_08JIBCCIDC@VE_CLOSE@
6017C 45 ??_C@_0M@FEFKOOMJ@VE_GOTFOCUS@
60188 45 ??_C@_0N@ICHCAKIB@VE_KILLFOCUS@
60198 45 ??_C@_07BLBPFFLB@EE_READ@
601A0 45 ??_C@_07KJGPGPOC@EE_SAVE@
601A8 45 ??_C@_09NPOPIKMK@EE_REDRAW@
601B4 45 ??_C@_08NFPFGIG@EE_CLOSE@
601C0 45 ??_C@_0M@CPNMNBMF@EE_GOTFOCUS@
601CC 45 ??_C@_0N@ILLPMAJF@EE_KILLFOCUS@
601DC 45 ??_C@_09MIOGFFI@EE_CHANGE@
601E8 45 ??_C@_0P@MBHAHBBG@DE_DLGPROCINIT@
601F8 45 ??_C@_0BC@BMFEJAMO@DE_DEFDLGPROCINIT@
6020C 45 ??_C@_0O@ICBCOJCG@DE_DLGPROCEND@
6021C 45 ??_C@_0BB@MNODJNPE@SE_COMMONSYNCHRO@
60230 45 ??_C@_0BB@OCFEAMIC@SE_FOLDERCHANGED@
60244 45 ??_C@_0N@HKGMPMJE@ESPT_TABSIZE@
60254 45 ??_C@_0BA@GOKHPFCK@ESPT_EXPANDTABS@
60264 45 ??_C@_0BA@KOADDMLI@ESPT_AUTOINDENT@
60274 45 ??_C@_0BF@LPNONOMF@ESPT_CURSORBEYONDEOL@
6028C 45 ??_C@_0BC@OECOCGLJ@ESPT_CHARCODEBASE@
602A0 45 ??_C@_0O@PIAOJINE@ESPT_CODEPAGE@
602B0 45 ??_C@_0BG@HAPABMJH@ESPT_SAVEFILEPOSITION@
602C8 45 ??_C@_0O@KCPDJCKC@ESPT_LOCKMODE@
602D8 45 ??_C@_0BA@EIGIAOHM@ESPT_SETWORDDIV@
602E8 45 ??_C@_0BA@FGEHLJDF@ESPT_GETWORDDIV@
602F8 45 ??_C@_0BE@MACJBCFP@ESPT_SHOWWHITESPACE@
6030C 45 ??_C@_0M@FICNFPPA@ESPT_SETBOM@
60318 45 ??_C@_09FLEMPKKP@EUR_BEGIN@
60324 45 ??_C@_07DDJDFJCN@EUR_END@
6032C 45 ??_C@_08FCONALGE@EUR_UNDO@
60338 45 ??_C@_08DHMMFAHF@EUR_REDO@
60344 45 ??_C@_0O@PKOIFEBO@EXPAND_NOTABS@
60354 45 ??_C@_0P@MLHPCNDM@EXPAND_ALLTABS@
60364 45 ??_C@_0P@OONGIIBL@EXPAND_NEWTABS@
60374 45 ??_C@_0BD@DKHPEOHH@EOPT_EXPANDALLTABS@
60388 45 ??_C@_0BG@BOINMDEK@EOPT_PERSISTENTBLOCKS@
603A0 45 ??_C@_0BG@PIIHHCAN@EOPT_DELREMOVESBLOCKS@
603B8 45 ??_C@_0BA@KPJEAKBD@EOPT_AUTOINDENT@
603C8 45 ??_C@_0BG@MBPADLG@EOPT_SAVEFILEPOSITION@
603E0 45 ??_C@_0BI@PFHCGCAI@EOPT_AUTODETECTCODEPAGE@
603F8 45 ??_C@_0BF@IMCOEIAL@EOPT_CURSORBEYONDEOL@
60410 45 ??_C@_0BH@CJPAGGLC@EOPT_EXPANDONLYNEWTABS@
60428 45 ??_C@_0BE@DDKCDJDC@EOPT_SHOWWHITESPACE@
6043C 45 ??_C@_08HMMLONBH@EOPT_BOM@
60448 45 ??_C@_0BD@CLLAKGOA@EOPT_SHOWLINEBREAK@
6045C 45 ??_C@_0BC@JCJEPKEC@EOPT_SHOWTITLEBAR@
60470 45 ??_C@_0BA@KPGMOBKI@EOPT_SHOWKEYBAR@
60480 45 ??_C@_0BD@EFCFEAD@EOPT_SHOWSCROLLBAR@
60494 45 ??_C@_0L@BJCBJJNB@BTYPE_NONE@
604A0 45 ??_C@_0N@OPHHGFPF@BTYPE_STREAM@
604B0 45 ??_C@_0N@EMEGNPLI@BTYPE_COLUMN@
604C0 45 ??_C@_0BB@BNPDAPGB@ECSTATE_MODIFIED@
604D4 45 ??_C@_0O@GBBGHDFM@ECSTATE_SAVED@
604E4 45 ??_C@_0P@BECIAJAM@ECSTATE_LOCKED@
604F4 45 ??_C@_0P@DOBJCNIG@ECTYPE_CHANGED@
60504 45 ??_C@_0N@MDEFMEEA@ECTYPE_ADDED@
60514 45 ??_C@_0P@NMOJJPOB@ECTYPE_DELETED@
60524 45 ??_C@_08HHHKLJPB@PLT_PATH@
60530 45 ??_C@_08KBAMIIFB@PFM_GUID@
6053C 45 ??_C@_0P@KKEMMPNI@PFM_MODULENAME@
6054C 45 ??_C@_09BOODOHKD@FFT_PANEL@
60558 45 ??_C@_0N@GMEDAGNH@FFT_FINDFILE@
60568 45 ??_C@_08KKCPIPGP@FFT_COPY@
60574 45 ??_C@_0L@EKPDMFDD@FFT_SELECT@
60580 45 ??_C@_0L@LGPEDLLD@FFT_CUSTOM@
6058C 45 ??_C@_0M@OIOMMFOE@FST_UNKNOWN@
60598 45 ??_C@_0L@GGGOEGKJ@FST_SUBKEY@
605A4 45 ??_C@_09LFEEAJIC@FST_QWORD@
605B0 45 ??_C@_0L@LPMPBKDL@FST_STRING@
605BC 45 ??_C@_08EJJJCLIG@FST_DATA@
605C8 45 ??_C@_09OBBBBFPE@FSSF_ROOT@
605D4 45 ??_C@_0BB@HDKCPBIO@FSSF_HISTORY_CMD@
605E8 45 ??_C@_0BE@BLPOFODL@FSSF_HISTORY_FOLDER@
605FC 45 ??_C@_0BC@NJCJCCNH@FSSF_HISTORY_VIEW@
60610 45 ??_C@_0BC@CODELNPP@FSSF_HISTORY_EDIT@
60624 45 ??_C@_0BG@IFGEMJIF@FSSF_HISTORY_EXTERNAL@
6063C 45 ??_C@_0BG@DGAKDKFK@FSSF_FOLDERSHORTCUT_0@
60654 45 ??_C@_0BG@CPBBALBL@FSSF_FOLDERSHORTCUT_1@
6066C 45 ??_C@_0BG@EDMFINI@FSSF_FOLDERSHORTCUT_2@
60684 45 ??_C@_0BG@BNCHGJJJ@FSSF_FOLDERSHORTCUT_3@
6069C 45 ??_C@_0BG@FCGGPPFO@FSSF_FOLDERSHORTCUT_4@
606B4 45 ??_C@_0BG@ELHNMOBP@FSSF_FOLDERSHORTCUT_5@
606CC 45 ??_C@_0BG@GAFAJNNM@FSSF_FOLDERSHORTCUT_6@
606E4 45 ??_C@_0BG@HJELKMJN@FSSF_FOLDERSHORTCUT_7@
606FC 45 ??_C@_0BG@PONDLAFC@FSSF_FOLDERSHORTCUT_8@
60714 45 ??_C@_0BG@OHMIIBBD@FSSF_FOLDERSHORTCUT_9@
6072C 45 ??_C@_0BD@PBIEGEHP@FSSF_CONFIRMATIONS@
60740 45 ??_C@_0M@PIGDMPJB@FSSF_SYSTEM@
6074C 45 ??_C@_0L@LBFNJGFB@FSSF_PANEL@
60758 45 ??_C@_0M@KJLIHDEL@FSSF_EDITOR@
60764 45 ??_C@_0M@KEMGKEOF@FSSF_SCREEN@
60770 45 ??_C@_0M@CBDJLJIE@FSSF_DIALOG@
6077C 45 ??_C@_0P@OCDADNBF@FSSF_INTERFACE@
6078C 45 ??_C@_0BB@GBBEBNKE@FSSF_PANELLAYOUT@
607A0 45 ??_C@_0M@JCGHGLJF@PSL_ROAMING@
607AC 45 ??_C@_09EDBNDHCM@PSL_LOCAL@
607B8 45 ??_C@_07BPEFOPGM@FCT_ANY@
607C0 45 ??_C@_0L@CDAEILNM@FCT_STREAM@
607CC 45 ??_C@_0L@IADFDBJB@FCT_COLUMN@
607D8 45 ??_C@_0O@KJFMBLFE@LINK_HARDLINK@
607E8 45 ??_C@_0O@OOAFIIDA@LINK_JUNCTION@
607F8 45 ??_C@_0O@FIAPLKLH@LINK_VOLMOUNT@
60808 45 ??_C@_0BB@JDBEPJDK@LINK_SYMLINKFILE@
6081C 45 ??_C@_0BA@GFPIOFMG@LINK_SYMLINKDIR@
6082C 45 ??_C@_0N@PJENIJFN@LINK_SYMLINK@
6083C 45 ??_C@_08HNOHKPBK@CPM_FULL@
60848 45 ??_C@_08LAEGFKJE@CPM_REAL@
60854 45 ??_C@_0L@NPJNPCJM@CPM_NATIVE@
60860 45 ??_C@_0L@NCFOENCC@VS_RELEASE@
6086C 45 ??_C@_08BDGLHPMJ@VS_ALPHA@
60878 45 ??_C@_07OKFPMINB@VS_BETA@
60880 45 ??_C@_05MMFLPJEB@VS_RC@
60888 45 ??_C@_0L@IIIJLOAF@VS_SPECIAL@
60894 45 ??_C@_0L@EAMAICHL@VS_PRIVATE@
608A0 45 ??_C@_0BC@OOKLINPG@OPEN_LEFTDISKMENU@
608B4 45 ??_C@_0BB@CEFDHHLF@OPEN_PLUGINSMENU@
608C8 45 ??_C@_0O@IEJHJCNB@OPEN_FINDLIST@
608D8 45 ??_C@_0O@OGDCDPNG@OPEN_SHORTCUT@
608E8 45 ??_C@_0BB@JHCCMIPF@OPEN_COMMANDLINE@
608FC 45 ??_C@_0M@DMJLHMGM@OPEN_EDITOR@
60908 45 ??_C@_0M@MOBCONI@OPEN_VIEWER@
60914 45 ??_C@_0P@LCDNLGDE@OPEN_FILEPANEL@
60924 45 ??_C@_0M@LEBKLGKD@OPEN_DIALOG@
60930 45 ??_C@_0N@CBHPGAKB@OPEN_ANALYSE@
60940 45 ??_C@_0BD@NFNGGFHI@OPEN_RIGHTDISKMENU@
60954 45 ??_C@_0P@FOKOAMLC@OPEN_FROMMACRO@
60964 45 ??_C@_0O@NEDDJIHC@OPEN_LUAMACRO@
60974 45 ??_C@_0P@GBMLNMMI@MCT_MACROPARSE@
60984 45 ??_C@_0P@GNPFPCF@MCT_LOADMACROS@
60994 45 ??_C@_0P@HMDDACMI@MCT_ENUMMACROS@
609A4 45 ??_C@_0BA@MOCJHMJK@MCT_WRITEMACROS@
609B4 45 ??_C@_0N@IGJGAHKE@MCT_GETMACRO@
609C4 45 ??_C@_0BC@NFGGBILF@MCT_RECORDEDMACRO@
609D8 45 ??_C@_0N@OLCKOJMI@MCT_DELMACRO@
609E8 45 ??_C@_0BC@NALHIHJ@MCT_RUNSTARTMACRO@
609FC 45 ??_C@_0P@HOMHAEFB@MCT_EXECSTRING@
60A0C 45 ??_C@_0O@CDBDPKIC@MCT_PANELSORT@
60A1C 45 ??_C@_0BH@PKKJIOHM@MCT_GETCUSTOMSORTMODES@
60A34 45 ??_C@_0N@FOPIOCHO@MCT_ADDMACRO@
60A44 45 ??_C@_0N@BHFJFHA@MCT_KEYMACRO@
60A54 45 ??_C@_0BB@LPDAOGB@MCT_CANPANELSORT@
60A68 45 ??_C@_0BC@IOECJI@MPRT_NORMALFINISH@
60A7C 45 ??_C@_0BB@PMCBIGCA@MPRT_ERRORFINISH@
60A90 45 ??_C@_0BA@BCBAEEOI@MPRT_ERRORPARSE@
60AA0 45 ??_C@_09EJDAADCN@MPRT_KEYS@
60AAC 45 ??_C@_0L@GEHHCKFA@MPRT_PRINT@
60AB8 45 ??_C@_0BA@OBIDLEIM@MPRT_PLUGINCALL@
60AC8 45 ??_C@_0BA@EJFFOAMM@MPRT_PLUGINMENU@
60AD8 45 ??_C@_0BC@LEDOPMKI@MPRT_PLUGINCONFIG@
60AEC 45 ??_C@_0BD@HHINMPPI@MPRT_PLUGINCOMMAND@
60B00 45 ??_C@_0O@IEMNLPAB@MPRT_USERMENU@
60B10 45 ??_C@_0BA@GEAFHJNF@MPRT_HASNOMACRO@
60B20 45 ??_C@_0BG@CFAMIEEL@MPRT_FILEASSOCIATIONS@
60B38 45 ??_C@_0BD@KCLJBHEE@MPRT_FILEHIGHLIGHT@
60B4C 45 ??_C@_0BE@CMBCILNB@MPRT_FILEPANELMODES@
60B60 45 ??_C@_0BF@IOMMKCJG@MPRT_FOLDERSHORTCUTS@
60B78 45 ??_C@_0BE@DLKAANM@MPRT_FILEMASKGROUPS@
60B8C 45 ??_C@_0BC@PNCKAHJO@FE_CHANGEVIEWMODE@
60BA0 45 ??_C@_09DENIDBMJ@FE_REDRAW@
60BAC 45 ??_C@_07CLNPDBLG@FE_IDLE@
60BB4 45 ??_C@_08DENCGKED@FE_CLOSE@
60BC0 45 ??_C@_08MOMCCKPB@FE_BREAK@
60BCC 45 ??_C@_0L@LELAIPLL@FE_COMMAND@
60BD8 45 ??_C@_0M@FIECADDF@FE_GOTFOCUS@
60BE4 45 ??_C@_0N@DGHFKMFL@FE_KILLFOCUS@
60BF4 45 ??_C@_0BE@PONEECEM@FE_CHANGESORTPARAMS@
60C08 45 ??_C@_0N@FIGAFONE@FCF_FG_INDEX@
60C18 45 ??_C@_0N@FIMAPNI@FCF_BG_INDEX@
60C28 45 ??_C@_0BH@EEBFHHBK@FCF_FG_UNDERLINE_INDEX@
60C40 45 ??_C@_0O@HCBKLBMD@FCF_INDEXMASK@
60C50 45 ??_C@_0M@HNDHDHHO@FCF_FG_4BIT@
60C5C 45 ??_C@_0M@PJHNDJIE@FCF_BG_4BIT@
60C68 45 ??_C@_0N@HMKJBHOA@FCF_4BITMASK@
60C78 45 ??_C@_0BC@HCOAIAEK@FCF_INHERIT_STYLE@
60C8C 45 ??_C@_0BB@PJFLJJLD@FCF_RAWATTR_MASK@
60CA0 45 ??_C@_0M@LFMGCKHG@FCF_FG_BOLD@
60CAC 45 ??_C@_0O@FAPDECBF@FCF_FG_ITALIC@
60CBC 45 ??_C@_0P@JCHCFPOK@FCF_FG_U_DATA0@
60CCC 45 ??_C@_0P@ILGJGOKL@FCF_FG_U_DATA1@
60CDC 45 ??_C@_0BA@DJMNLMK@FCF_FG_OVERLINE@
60CEC 45 ??_C@_0BB@NJMJIPGP@FCF_FG_STRIKEOUT@
60D00 45 ??_C@_0N@HJOMADOA@FCF_FG_FAINT@
60D10 45 ??_C@_0N@NHLHILNJ@FCF_FG_BLINK@
60D20 45 ??_C@_0M@MAEDKKJP@FCF_INVERSE@
60D2C 45 ??_C@_0BB@MMNAFGJO@FCF_FG_INVISIBLE@
60D40 45 ??_C@_0P@KAEEDNGI@FCF_FG_U_DATA2@
60D50 45 ??_C@_0BG@FOODJOEH@FCF_FG_UNDERLINE_MASK@
60D68 45 ??_C@_0P@EKEFPCFF@FCF_STYLE_MASK@
60D78 45 ??_C@_08BKNBBLHK@FCF_NONE@
60D84 45 ??_C@_08FKIDFHCM@CDF_NONE@
60D90 45 ??_C@_0N@ELMEMNDH@FMSG_WARNING@
60DA0 45 ??_C@_0P@HHIGLJAP@FMSG_ERRORTYPE@
60DB0 45 ??_C@_0BE@FHOOILPH@FMSG_KEEPBACKGROUND@
60DC4 45 ??_C@_0P@KBEMNNEP@FMSG_LEFTALIGN@
60DD4 45 ??_C@_0O@FOIOKDHJ@FMSG_ALLINONE@
60DE4 45 ??_C@_0L@BGALGPOK@FMSG_MB_OK@
60DF0 45 ??_C@_0BB@JGAPGIEP@FMSG_MB_OKCANCEL@
60E04 45 ??_C@_0BJ@BKJADAHA@FMSG_MB_ABORTRETRYIGNORE@
60E20 45 ??_C@_0O@GPCAPHCL@FMSG_MB_YESNO@
60E30 45 ??_C@_0BE@IBNOLCGP@FMSG_MB_YESNOCANCEL@
60E44 45 ??_C@_0BE@OCLAIENB@FMSG_MB_RETRYCANCEL@
60E58 45 ??_C@_09NEGPLEAH@FMSG_NONE@
60E64 45 ??_C@_0N@DHJCDIKM@DIF_BOXCOLOR@
60E74 45 ??_C@_09IAEPIICA@DIF_GROUP@
60E80 45 ??_C@_0N@GCKJNBCM@DIF_LEFTTEXT@
60E90 45 ??_C@_0P@BGPBEDHH@DIF_MOVESELECT@
60EA0 45 ??_C@_0BC@PDKFKKEI@DIF_SHOWAMPERSAND@
60EB4 45 ??_C@_0BA@BLCOKAAO@DIF_CENTERGROUP@
60EC4 45 ??_C@_0P@MKFBJPOB@DIF_NOBRACKETS@
60ED4 45 ??_C@_0BF@JBCDBJCL@DIF_MANUALADDHISTORY@
60EEC 45 ??_C@_0O@JKNMBNLA@DIF_SEPARATOR@
60EFC 45 ??_C@_0P@CGILDLOA@DIF_SEPARATOR2@
60F0C 45 ??_C@_0L@NBPFNGLB@DIF_EDITOR@
60F18 45 ??_C@_0BE@PFICAGJF@DIF_LISTNOAMPERSAND@
60F2C 45 ??_C@_0O@FFJNBMAD@DIF_LISTNOBOX@
60F3C 45 ??_C@_0M@IPFBMFDN@DIF_HISTORY@
60F48 45 ??_C@_0P@EGFAEEDC@DIF_BTNNOCLOSE@
60F58 45 ??_C@_0P@KOJCCCGB@DIF_CENTERTEXT@
60F68 45 ??_C@_0BC@ODEMBOPK@DIF_SEPARATORUSER@
60F7C 45 ??_C@_0O@IKJBMPOF@DIF_SETSHIELD@
60F8C 45 ??_C@_0P@EEJEDBLH@DIF_EDITEXPAND@
60F9C 45 ??_C@_0BB@EIMEKEFP@DIF_DROPDOWNLIST@
60FB0 45 ??_C@_0BD@MNGIOLFF@DIF_USELASTHISTORY@
60FC4 45 ??_C@_0N@MOCGNIKC@DIF_MASKEDIT@
60FD4 45 ??_C@_0BD@LPDHCLJI@DIF_LISTTRACKMOUSE@
60FE8 45 ??_C@_0BK@LEFIBDOA@DIF_LISTTRACKMOUSEINFOCUS@
61004 45 ??_C@_0BC@JNLDMGBD@DIF_SELECTONENTRY@
61018 45 ??_C@_0L@KKNJDNBK@DIF_3STATE@
61024 45 ??_C@_0N@GBGHICKO@DIF_EDITPATH@
61034 45 ??_C@_0BB@NPNALIGO@DIF_LISTWRAPMODE@
61048 45 ??_C@_0BD@MFOKKGGF@DIF_NOAUTOCOMPLETE@
6105C 45 ??_C@_0BG@MONEJILE@DIF_LISTAUTOHIGHLIGHT@
61074 45 ??_C@_0BA@JNOKLHOL@DIF_LISTNOCLOSE@
61084 45 ??_C@_0BB@GMKDKOOP@DIF_EDITPATHEXEC@
61098 45 ??_C@_0L@EPNFOPAK@DIF_HIDDEN@
610A4 45 ??_C@_0N@KOGKCAKJ@DIF_READONLY@
610B4 45 ??_C@_0M@NLLDINIM@DIF_NOFOCUS@
610C0 45 ??_C@_0M@HCFLMDHK@DIF_DISABLE@
610CC 45 ??_C@_0BC@CHAAKEJO@DIF_DEFAULTBUTTON@
610E0 45 ??_C@_09LCJIOEMN@DIF_FOCUS@
610EC 45 ??_C@_0O@KJADCBBN@DIF_RIGHTTEXT@
610FC 45 ??_C@_0N@LAEOODAD@DIF_WORDWRAP@
6110C 45 ??_C@_0N@JLCDODNO@DIF_HOMEITEM@
6111C 45 ??_C@_08KFOHCPDE@DIF_NONE@
61128 45 ??_C@_0N@EDHAFIIL@LIF_SELECTED@
61138 45 ??_C@_0M@BMGIEAIL@LIF_CHECKED@
61144 45 ??_C@_0O@KJIFADIG@LIF_SEPARATOR@
61154 45 ??_C@_0M@HEFHLFIE@LIF_DISABLE@
61160 45 ??_C@_0L@PKDDGEEG@LIF_GRAYED@
6116C 45 ??_C@_0L@PFBGAOEP@LIF_HIDDEN@
61178 45 ??_C@_0BD@HEPCOIEH@LIF_DELETEUSERDATA@
6118C 45 ??_C@_08BODPINCM@LIF_NONE@
61198 45 ??_C@_0BC@BGAENNBJ@LIFIND_EXACTMATCH@
611AC 45 ??_C@_0M@FPOGKIGO@LIFIND_NONE@
611B8 45 ??_C@_0BA@OOIEKCFB@LINFO_SHOWNOBOX@
611C8 45 ??_C@_0BE@DECCEGNO@LINFO_AUTOHIGHLIGHT@
611DC 45 ??_C@_0BH@BADLEILJ@LINFO_REVERSEHIGHLIGHT@
611F4 45 ??_C@_0P@KLBMHNCG@LINFO_WRAPMODE@
61204 45 ??_C@_0BE@OHJCOKAE@LINFO_SHOWAMPERSAND@
61218 45 ??_C@_0L@EPACPANF@LINFO_NONE@
61224 45 ??_C@_0N@OLGDMHKL@FDLG_WARNING@
61234 45 ??_C@_0BB@DKMEBDJJ@FDLG_SMALLDIALOG@
61248 45 ??_C@_0BC@ONGLDAJN@FDLG_NODRAWSHADOW@
6125C 45 ??_C@_0BB@NPLEEAKK@FDLG_NODRAWPANEL@
61270 45 ??_C@_0BG@GHNOOENB@FDLG_KEEPCONSOLETITLE@
61288 45 ??_C@_0O@MKFABCNE@FDLG_NONMODAL@
61298 45 ??_C@_09NNFHCBNL@FDLG_NONE@
612A4 45 ??_C@_0N@JOOGIBAO@MIF_SELECTED@
612B4 45 ??_C@_0M@IHMNAMOE@MIF_CHECKED@
612C0 45 ??_C@_0O@DEIKOCPA@MIF_SEPARATOR@
612D0 45 ??_C@_0M@OPPCPJOL@MIF_DISABLE@
612DC 45 ??_C@_0L@DLLNLLIG@MIF_GRAYED@
612E8 45 ??_C@_0L@DEJINBIP@MIF_HIDDEN@
612F4 45 ??_C@_08JEEJJGP@MIF_NONE@
61300 45 ??_C@_0BE@FALMPPJK@FMENU_SHOWAMPERSAND@
61314 45 ??_C@_0P@HICDNKDJ@FMENU_WRAPMODE@
61324 45 ??_C@_0BE@IDAMFDEA@FMENU_AUTOHIGHLIGHT@
61338 45 ??_C@_0BL@OKAIKPMN@FMENU_REVERSEAUTOHIGHLIGHT@
61354 45 ??_C@_0BJ@FCEONOJC@FMENU_CHANGECONSOLETITLE@
61370 45 ??_C@_0BA@GDFPJAAD@FMENU_SHOWNOBOX@
61380 45 ??_C@_0BD@PMEPMEOJ@FMENU_SHOWSHORTBOX@
61394 45 ??_C@_0BE@PDNJFEDO@FMENU_SHOWSINGLEBOX@
613A8 45 ??_C@_0BD@JBJJGCBE@FMENU_NODRAWSHADOW@
613BC 45 ??_C@_0L@DGFIEOMD@FMENU_NONE@
613C8 45 ??_C@_0O@JEAJLDHC@PPIF_SELECTED@
613D8 45 ??_C@_0BC@LPBDBIOM@PPIF_PROCESSDESCR@
613EC 45 ??_C@_09OIFMMGNJ@PPIF_NONE@
613F8 45 ??_C@_0BC@BONLDOOD@PFLAGS_SHOWHIDDEN@
6140C 45 ??_C@_0BB@BCAJEJEH@PFLAGS_HIGHLIGHT@
61420 45 ??_C@_0BI@BFAFODJ@PFLAGS_REVERSESORTORDER@
61438 45 ??_C@_0BF@KJNCJPKN@PFLAGS_USESORTGROUPS@
61450 45 ??_C@_0BF@LBBAIOCD@PFLAGS_SELECTEDFIRST@
61468 45 ??_C@_0BB@KDANIJNM@PFLAGS_REALNAMES@
6147C 45 ??_C@_0BB@ILEHDKFJ@PFLAGS_PANELLEFT@
61490 45 ??_C@_0BI@EHHAJLOH@PFLAGS_DIRECTORIESFIRST@
614A8 45 ??_C@_0BA@KJEPHDOM@PFLAGS_USECRC32@
614B8 45 ??_C@_0O@DBPJGING@PFLAGS_PLUGIN@
614C8 45 ??_C@_0P@MLDEBNPK@PFLAGS_VISIBLE@
614D8 45 ??_C@_0N@EOFAELOJ@PFLAGS_FOCUS@
614E8 45 ??_C@_0BI@EOCCAHFA@PFLAGS_ALTERNATIVENAMES@
61500 45 ??_C@_0BA@GHMDCHHI@PFLAGS_SHORTCUT@
61510 45 ??_C@_0M@NEMAHHGP@PFLAGS_NONE@
6151C 45 ??_C@_0M@IDNADAFL@VF_NONMODAL@
61528 45 ??_C@_0BB@OCDDPIKL@VF_DELETEONCLOSE@
6153C 45 ??_C@_0N@LDHALKKM@VF_ENABLE_F6@
6154C 45 ??_C@_0BC@DLGKMECC@VF_DISABLEHISTORY@
61560 45 ??_C@_0BD@DHJCMLFI@VF_IMMEDIATERETURN@
61574 45 ??_C@_0BJ@OGNFHEJG@VF_DELETEONLYFILEONCLOSE@
61590 45 ??_C@_07CJJFHP@VF_NONE@
61598 45 ??_C@_0M@PIFGAPFH@EF_NONMODAL@
615A4 45 ??_C@_0N@DBHFPBEO@EF_CREATENEW@
615B4 45 ??_C@_0N@LKLNHALI@EF_ENABLE_F6@
615C4 45 ??_C@_0BC@PPEPEFFI@EF_DISABLEHISTORY@
615D8 45 ??_C@_0BB@KGPIDKFC@EF_DELETEONCLOSE@
615EC 45 ??_C@_0BD@IHIGHGPL@EF_IMMEDIATERETURN@
61600 45 ??_C@_0BJ@ILCPOFKL@EF_DELETEONLYFILEONCLOSE@
6161C 45 ??_C@_09IJMPFPLB@EF_LOCKED@
61628 45 ??_C@_0BC@GFHJGKD@EF_DISABLESAVEPOS@
6163C 45 ??_C@_0BB@NILAHAFO@EF_OPENMODE_MASK@
61650 45 ??_C@_0BC@GAIDEJIA@EF_OPENMODE_QUERY@
61664 45 ??_C@_0BG@BFKJJBAG@EF_OPENMODE_NEWIFOPEN@
6167C 45 ??_C@_0BI@KGOKGPEI@EF_OPENMODE_USEEXISTING@
61694 45 ??_C@_0BI@EJBKKDJ@EF_OPENMODE_BREAKIFOPEN@
616AC 45 ??_C@_0BJ@MOLGCBMH@EF_OPENMODE_RELOADIFOPEN@
616C8 45 ??_C@_07MBPCONNA@EN_NONE@
616D0 45 ??_C@_0BC@HHNGCBAM@FHELP_NOSHOWERROR@
616E4 45 ??_C@_0P@GANNLHEJ@FHELP_SELFHELP@
616F4 45 ??_C@_0O@FLGGLFLC@FHELP_FARHELP@
61704 45 ??_C@_0BB@KNKDPNI@FHELP_CUSTOMFILE@
61718 45 ??_C@_0BB@IHFFPJJA@FHELP_CUSTOMPATH@
6172C 45 ??_C@_0L@OOIMFPBD@FHELP_GUID@
61738 45 ??_C@_0BC@PNPOIHMG@FHELP_USECONTENTS@
6174C 45 ??_C@_0L@MAGMKNFN@FHELP_NONE@
61758 45 ??_C@_0BE@GEGKIINM@KMFLAGS_SILENTCHECK@
6176C 45 ??_C@_0BM@BBOPLPKC@KMFLAGS_NOSENDKEYSTOPLUGINS@
61788 45 ??_C@_0BF@PHHPAAOK@KMFLAGS_ENABLEOUTPUT@
617A0 45 ??_C@_0BB@NCECNBPK@KMFLAGS_LANGMASK@
617B4 45 ??_C@_0M@HFBACHCP@KMFLAGS_LUA@
617C0 45 ??_C@_0BD@JHNPMIGP@KMFLAGS_MOONSCRIPT@
617D4 45 ??_C@_0N@GIJCDFJI@KMFLAGS_NONE@
617E4 45 ??_C@_0O@GKOLBMFK@AKMFLAGS_NONE@
617F4 45 ??_C@_0P@LMBMJIMF@FSETCLR_REDRAW@
61804 45 ??_C@_0N@LCOHPDHN@FSETCLR_NONE@
61814 45 ??_C@_0N@MLMCEKPH@WIF_MODIFIED@
61824 45 ??_C@_0M@ICPAPCOF@WIF_CURRENT@
61830 45 ??_C@_09FPGEBDGO@WIF_MODAL@
6183C 45 ??_C@_08DAKKFBIA@WIF_NONE@
61848 45 ??_C@_0BG@JMJAOELH@VOPT_SAVEFILEPOSITION@
61860 45 ??_C@_0BI@NCAHLEBN@VOPT_AUTODETECTCODEPAGE@
61878 45 ??_C@_0BC@FGLBHLDI@VOPT_SHOWTITLEBAR@
6188C 45 ??_C@_0BA@GAIDGLME@VOPT_SHOWKEYBAR@
6189C 45 ??_C@_0BD@LEEGOJKA@VOPT_SHOWSCROLLBAR@
618B0 45 ??_C@_0P@NEIKPMJJ@VOPT_QUICKVIEW@
618C0 45 ??_C@_09FIOJMNJ@VOPT_NONE@
618CC 45 ??_C@_0N@ILNDJNNO@VSMFL_REDRAW@
618DC 45 ??_C@_0L@DLLCFLOD@VSMFL_NONE@
618E8 45 ??_C@_0N@GHEHKHJN@VSP_NOREDRAW@
618F8 45 ??_C@_0M@LHNGMHFO@VSP_PERCENT@
61904 45 ??_C@_0N@JGGGCNIP@VSP_RELATIVE@
61914 45 ??_C@_0BA@JKDMJLJG@VSP_NORETNEWPOS@
61924 45 ??_C@_08MOKEMBNE@VSP_NONE@
61930 45 ??_C@_08FAPBJAKB@VMF_WRAP@
6193C 45 ??_C@_0N@GHBDMLON@VMF_WORDWRAP@
6194C 45 ??_C@_08KDJLELDJ@VMF_NONE@
61958 45 ??_C@_0BB@EDGIEBDF@ECF_TABMARKFIRST@
6196C 45 ??_C@_0BD@DKGCCJNG@ECF_TABMARKCURRENT@
61980 45 ??_C@_0P@BAFEMBAJ@ECF_AUTODELETE@
61990 45 ??_C@_08CDFMCHLP@ECF_NONE@
6199C 45 ??_C@_0BA@KNNLMGCA@FIB_ENABLEEMPTY@
619AC 45 ??_C@_0N@DLDJCGJI@FIB_PASSWORD@
619BC 45 ??_C@_0O@DOHEGELC@FIB_EXPANDENV@
619CC 45 ??_C@_0BF@CEMIHIOK@FIB_NOUSELASTHISTORY@
619E4 45 ??_C@_0M@KJOJJDIM@FIB_BUTTONS@
619F0 45 ??_C@_0BA@COBBDHNL@FIB_NOAMPERSAND@
61A00 45 ??_C@_0N@LBOCEEGH@FIB_EDITPATH@
61A10 45 ??_C@_0BB@DCODFLEL@FIB_EDITPATHEXEC@
61A24 45 ??_C@_08HPFOCDKB@FIB_NONE@
61A30 45 ??_C@_0L@NMBLFMBN@FPF_LOADED@
61A3C 45 ??_C@_08GKECKCCJ@FPF_ANSI@
61A48 45 ??_C@_08OIOFCNLC@FPF_NONE@
61A54 45 ??_C@_0L@HODJIPGA@PN_CMPNAME@
61A60 45 ??_C@_0P@KDEENAHJ@PN_CMPNAMELIST@
61A70 45 ??_C@_0BA@BJCCEIOI@PN_GENERATENAME@
61A80 45 ??_C@_0N@FEGPCCPJ@PN_CHECKMASK@
61A90 45 ??_C@_0M@NOOLKEBH@PN_SKIPPATH@
61A9C 45 ??_C@_0BE@OPDBOAAE@PN_SHOWERRORMESSAGE@
61AB0 45 ??_C@_07PFKJNCJP@PN_NONE@
61AB8 45 ??_C@_0BG@GOMJDMCK@XLAT_SWITCHKEYBLAYOUT@
61AD0 45 ??_C@_0BE@KOIJDNLA@XLAT_SWITCHKEYBBEEP@
61AE4 45 ??_C@_0BH@KBFAFPNA@XLAT_USEKEYBLAYOUTNAME@
61AFC 45 ??_C@_0BH@IANKLOAC@XLAT_CONVERTALLCMDLINE@
61B14 45 ??_C@_09JCNLKBBK@XLAT_NONE@
61B20 45 ??_C@_0N@PJEDCNNJ@FRS_RETUPDIR@
61B30 45 ??_C@_09GHEPLOHO@FRS_RECUR@
61B3C 45 ??_C@_0BA@JCPHOEAE@FRS_SCANSYMLINK@
61B4C 45 ??_C@_08JPCGJJKG@FRS_NONE@
61B58 45 ??_C@_0P@LJPBHEIE@MLF_SHOWERRMSG@
61B68 45 ??_C@_0BF@LMAGFLHF@MLF_DONOTUPDATEPANEL@
61B80 45 ??_C@_0P@EPFBLPAE@MLF_HOLDTARGET@
61B90 45 ??_C@_08EBKEJHAL@MLF_NONE@
61B9C 45 ??_C@_0M@JDMKDBDH@FFFS_COMMAS@
61BA8 45 ??_C@_0P@JPMLNBKL@FFFS_FLOATSIZE@
61BB8 45 ??_C@_0BE@NPKCCEJ@FFFS_SHOWBYTESINDEX@
61BCC 45 ??_C@_0O@FPIOAIMC@FFFS_ECONOMIC@
61BDC 45 ??_C@_0O@HFIGPFIH@FFFS_THOUSAND@
61BEC 45 ??_C@_0BC@LLLANJJO@FFFS_MINSIZEINDEX@
61C00 45 ??_C@_0BH@PEGBPJKE@FFFS_MINSIZEINDEX_MASK@
61C18 45 ??_C@_09PBPAKNEI@FFFS_NONE@
61C24 45 ??_C@_0L@NHEJGKCF@PF_PRELOAD@
61C30 45 ??_C@_0BB@GCINAIGN@PF_DISABLEPANELS@
61C44 45 ??_C@_09OENCMPGE@PF_EDITOR@
61C50 45 ??_C@_09NEKIJNNA@PF_VIEWER@
61C5C 45 ??_C@_0P@MBLBBCNK@PF_FULLCMDLINE@
61C6C 45 ??_C@_09GMFDAFKL@PF_DIALOG@
61C78 45 ??_C@_07MGEGJMPI@PF_NONE@
61C80 45 ??_C@_0BD@EGELEIIG@IPLFLAGS_SEPARATOR@
61C94 45 ??_C@_0O@JBNJFHHK@IPLFLAGS_NONE@
61CA4 45 ??_C@_0BD@KGHJOBGM@PMFLAGS_FULLSCREEN@
61CB8 45 ??_C@_0BH@GDAAKEMH@PMFLAGS_DETAILEDSTATUS@
61CD0 45 ??_C@_0BI@BMHIBDMH@PMFLAGS_ALIGNEXTENSIONS@
61CE8 45 ??_C@_0BH@KOFCBJBO@PMFLAGS_CASECONVERSION@
61D00 45 ??_C@_0N@DLFMCMOB@PMFLAGS_NONE@
61D10 45 ??_C@_0BD@PBMGDJEM@OPIF_DISABLEFILTER@
61D24 45 ??_C@_0BH@FHBKALPD@OPIF_DISABLESORTGROUPS@
61D3C 45 ??_C@_0BJ@NGLIANCL@OPIF_DISABLEHIGHLIGHTING@
61D58 45 ??_C@_0N@JANKJMLP@OPIF_ADDDOTS@
61D68 45 ??_C@_0BC@HOFHNJIG@OPIF_RAWSELECTION@
61D7C 45 ??_C@_0P@OFEDJCO@OPIF_REALNAMES@
61D8C 45 ??_C@_0BD@FPGMNAPD@OPIF_SHOWNAMESONLY@
61DA0 45 ??_C@_0BJ@NMIFAPJD@OPIF_SHOWRIGHTALIGNNAMES@
61DBC 45 ??_C@_0BG@HGPMKHIE@OPIF_SHOWPRESERVECASE@
61DD4 45 ??_C@_0BE@GJEJHNKJ@OPIF_COMPAREFATTIME@
61DE8 45 ??_C@_0BB@PELHBPAM@OPIF_EXTERNALGET@
61DFC 45 ??_C@_0BB@CFFPNDFK@OPIF_EXTERNALPUT@
61E10 45 ??_C@_0BE@LKEMICNM@OPIF_EXTERNALDELETE@
61E24 45 ??_C@_0BD@JIMJPFEP@OPIF_EXTERNALMKDIR@
61E38 45 ??_C@_0BJ@CALDMPLF@OPIF_USEATTRHIGHLIGHTING@
61E54 45 ??_C@_0O@JHHHMHIG@OPIF_USECRC32@
61E64 45 ??_C@_0BB@PFDFAFHG@OPIF_USEFREESIZE@
61E78 45 ??_C@_0O@FJPLJDBC@OPIF_SHORTCUT@
61E88 45 ??_C@_0BE@ODCDDPEB@OPIF_RECURSIVEPANEL@
61E9C 45 ??_C@_0BH@DLBOIHGG@OPIF_DELETEFILEONCLOSE@
61EB4 45 ??_C@_0BG@FIBHOIED@OPIF_DELETEDIRONCLOSE@
61ECC 45 ??_C@_09DOPJBMLM@OPIF_NONE@
61ED8 45 ??_C@_0L@GEHHKNBL@OPM_SILENT@
61EE4 45 ??_C@_08EKEBOKEP@OPM_FIND@
61EF0 45 ??_C@_08EHBLNDLO@OPM_VIEW@
61EFC 45 ??_C@_08LAAGEMJG@OPM_EDIT@
61F08 45 ??_C@_0N@NDGKAFDM@OPM_TOPLEVEL@
61F18 45 ??_C@_09EBKAPHPA@OPM_DESCR@
61F24 45 ??_C@_0O@OPDAGBBE@OPM_QUICKVIEW@
61F34 45 ??_C@_08LCEGJCAC@OPM_PGDN@
61F40 45 ??_C@_0N@HKCLLJDG@OPM_COMMANDS@
61F50 45 ??_C@_08EGEBMPBD@OPM_NONE@
61F5C 45 ??_C@_0M@MIGJPBPE@FOSF_ACTIVE@
61F68 45 ??_C@_09FMOOJHDF@FOSF_NONE@
61F74 45 ??_C@_09HNBBLIGN@PCIF_NONE@
61F80 45 ??_C@_0BA@MAEBFMHC@FOREGROUND_BLUE@
61F90 45 ??_C@_0BB@PDFNMAI@FOREGROUND_GREEN@
61FA4 45 ??_C@_0P@PBJHCFGA@FOREGROUND_RED@
61FB4 45 ??_C@_0BF@OOGEJCC@FOREGROUND_INTENSITY@
61FCC 45 ??_C@_0BA@PIFINJCK@BACKGROUND_BLUE@
61FDC 45 ??_C@_0BB@GKLNBMEL@BACKGROUND_GREEN@
61FF0 45 ??_C@_0P@DANALJMC@BACKGROUND_RED@
62000 45 ??_C@_0BF@NIGKKPCF@BACKGROUND_INTENSITY@
62018 45 ??_C@_0N@FEFOEFHG@CTRL_C_EVENT@
62028 45 ??_C@_0BB@ELEIIFAE@CTRL_BREAK_EVENT@
6203C 45 ??_C@_0BB@KMPDMOKK@CTRL_CLOSE_EVENT@
62050 45 ??_C@_0BC@MCKCEPAL@CTRL_LOGOFF_EVENT@
62064 45 ??_C@_0BE@BCNEFGKM@CTRL_SHUTDOWN_EVENT@
62078 45 ??_C@_0BC@BBOPHMOM@ENABLE_LINE_INPUT@
6208C 45 ??_C@_0BC@JPFKLHOC@ENABLE_ECHO_INPUT@
620A0 45 ??_C@_0BH@EHINFMOF@ENABLE_PROCESSED_INPUT@
620B8 45 ??_C@_0BE@BLAHACNB@ENABLE_WINDOW_INPUT@
620CC 45 ??_C@_0BD@BJECBJPO@ENABLE_MOUSE_INPUT@
620E0 45 ??_C@_0BD@KJBPOMPN@ENABLE_INSERT_MODE@
620F4 45 ??_C@_0BH@BJKMFKAO@ENABLE_QUICK_EDIT_MODE@
6210C 45 ??_C@_0BG@CBCHHIEH@ENABLE_EXTENDED_FLAGS@
62124 45 ??_C@_0BF@PEBFEBKN@ENABLE_AUTO_POSITION@
6213C 45 ??_C@_0BI@MHKNPIFM@ENABLE_PROCESSED_OUTPUT@
62154 45 ??_C@_0BK@CDKLKCHJ@ENABLE_WRAP_AT_EOL_OUTPUT@
62170 45 ??_C@_09JBABGNAE@KEY_EVENT@
6217C 45 ??_C@_0M@CPILDGOO@MOUSE_EVENT@
62188 45 ??_C@_0BJ@OHDOHJKG@WINDOW_BUFFER_SIZE_EVENT@
621A4 45 ??_C@_0L@MPODFLFH@MENU_EVENT@
621B0 45 ??_C@_0M@LNGHCCGJ@FOCUS_EVENT@
621BC 45 ??_C@_0M@MKBGBFGO@CAPSLOCK_ON@
621C8 45 ??_C@_0N@EMEOEKDA@ENHANCED_KEY@
621D8 45 ??_C@_0BC@GDHABBAP@RIGHT_ALT_PRESSED@
621EC 45 ??_C@_0BB@MCADLJJO@LEFT_ALT_PRESSED@
62200 45 ??_C@_0BD@NEHHNAHO@RIGHT_CTRL_PRESSED@
62214 45 ??_C@_0BC@FDNOAAAE@LEFT_CTRL_PRESSED@
62228 45 ??_C@_0O@OGDFJMBK@SHIFT_PRESSED@
62238 45 ??_C@_0L@IMGKKBIM@NUMLOCK_ON@
62244 45 ??_C@_0O@LAHFNPLG@SCROLLLOCK_ON@
62254 45 ??_C@_0BN@HACKHGAB@FROM_LEFT_1ST_BUTTON_PRESSED@
62274 45 ??_C@_0BJ@JECFAJNJ@RIGHTMOST_BUTTON_PRESSED@
62290 45 ??_C@_0BN@BJCFPKCG@FROM_LEFT_2ND_BUTTON_PRESSED@
622B0 45 ??_C@_0BN@PMJNFPGM@FROM_LEFT_3RD_BUTTON_PRESSED@
622D0 45 ??_C@_0BN@CNMHAAPD@FROM_LEFT_4TH_BUTTON_PRESSED@
622F0 45 ??_C@_0M@KKBDEELB@MOUSE_MOVED@
622FC 45 ??_C@_0N@EDCKBGJE@DOUBLE_CLICK@
6230C 45 ??_C@_0O@GABDOPO@MOUSE_WHEELED@
6231C 45 ??_C@_0P@IPJNMAP@MOUSE_HWHEELED@
6232C 45 ??_C@_0BA@OOKCCMHH@KEY_WOW64_32KEY@
6233C 45 ??_C@_0BA@DBCPEIGE@KEY_WOW64_64KEY@
62350 45 _Keys
62F20 45 _Vals
646B0 47 ??_C@_06ICDCBJPI@Colors@
646B8 47 ??_C@_05GALAPKHH@Guids@
646C0 47 _colors
65620 47 _guids
66B20 48 ??_C@_01EEMJAFIK@?6@
66B24 48 ??_C@_0BB@BJDGDOHH@cannot?5?$CFs?5?$CFs?3?5?$CFs@
66B38 48 ??_C@_03PKPBNCAL@?o?$LL?$LP@
66B3C 48 ??_C@_06CCPPALKB@?$DNstdin@
66B44 48 ??_C@_01EOFPKCAF@?$EA@
66B48 48 ??_C@_04PMOCAHAA@open@
66B50 48 ??_C@_15JJPIMNBO@?$AAr?$AAb@
66B58 48 ??_C@_06IEGCHAII@reopen@
66B60 48 ??_C@_04POLDLDMI@read@
66B68 48 ??_C@_02LOCGON@?$AA?$AA@
66B6C 274 ??_C@_09KIEPBIJC@far_regex@
66B78 274 ??_C@_0BO@PBOFMCLL@attempt?5to?5access?5freed?5regex@
66B98 274 ??_C@_07IHINEPFG@?$CFs?5?$CI?$CFp?$CJ@
66BA0 274 ??_C@_01KMDKNFGN@?1@
66BA4 274 ??_C@_0BE@BBBEAHLK@RECTL_CREATE?5failed@
66BB8 274 ??_C@_0BL@HEFMPIBG@invalid?5regular?5expression@
66BD4 274 ??_C@_0BK@JCLHPPNA@cannot?5add?5?$CFd?5stack?5slots@
66BF0 274 ??_C@_0BM@MOHHGMBK@string?5or?5table?5or?5function@
66C0C 274 ??_C@_0CG@IDFLGMFM@replace?5string?3?5invalid?5capture@
66C34 274 ??_C@_0BJ@IMAIDFKH@invalid?5replacement?5type@
66C50 274 ??_C@_0BE@KPDOHKBE@invalid?5return?5type@
66C64 274 ??_C@_04CKFJHKAP@find@
66C6C 274 ??_C@_06DPFCLDIO@gmatch@
66C74 274 ??_C@_04GOLEAPFD@gsub@
66C7C 274 ??_C@_05FNONLPDI@match@
66C84 274 ??_C@_04MGEIEJAD@exec@
66C8C 274 ??_C@_05GFGPIPHI@findW@
66C94 274 ??_C@_07PPMFDHAH@gmatchW@
66C9C 274 ??_C@_05HPGHPNC@gsubW@
66CA4 274 ??_C@_06NNKFJOLC@matchW@
66CAC 274 ??_C@_05GMDFNCGA@execW@
66CB4 274 ??_C@_0O@OJAOCNID@bracketscount@
66CC4 274 ??_C@_04BDLIKKMN@__gc@
66CCC 274 ??_C@_05FGAODPCE@regex@
66CD8 274 _regex_methods
66D48 274 _regex_functions
66DA8 278 ??_C@_0BC@PMGNICBE@MacroPluginReturn@
66DBC 278 ??_C@_02JIEIHMJD@wl@
66DC0 278 ??_C@_15PMCGDJNJ@?$AAO?$AAK@
66DC8 278 ??_C@_1BC@GBFPAMBP@?$AAL?$AAu?$AAa?$AAM?$AAa?$AAc?$AAr?$AAo@
66DE0 278 ??_C@_1FA@DAFHIDEP@?$AAt?$AAo?$AAo?$AA?5?$AAm?$AAa?$AAn?$AAy?$AA?5?$AAv?$AAa?$AAl?$AAu?$AAe?$AAs@
66E30 278 ??_C@_0BN@ICDOMFBB@invalid?5argument?5?$CD?$CFd?5to?5?8?$CFs?8@
66E50 278 ??_C@_0BB@FCMFBGOM@invalid?5argument@
66E64 278 _LuamacroGuid
66E74 279 ??_C@_0BA@MDNLMOMP@far_usercontrol@
66E84 279 ??_C@_0BH@DOPNHMGD@bounds?5checking?5failed@
66E9C 279 ??_C@_09LDLEBFOB@rawhandle@
66EA8 279 ??_C@_04IMAAEPPE@Char@
66EB0 279 ??_C@_0L@PLFFHFAH@Attributes@
66EBC 279 ??_C@_0BD@BPIMECDH@X?5must?5be?5positive@
66ED0 279 ??_C@_0BD@MIGOMCGP@Y?5must?5be?5positive@
66EE4 279 ??_C@_05MNDELLDN@__len@
66EEC 279 ??_C@_0L@GADKNKH@__newindex@
66EF8 279 ??_C@_0BC@KFJDHEIC@CreateUserControl@
66F0C 279 _usercontrol_methods
66F34 279 _usercontrol_functions
66F44 283 ??_C@_07PHPIFDKI@LBUTTON@
66F4C 283 ??_C@_07JOMJHALB@RBUTTON@
66F54 283 ??_C@_06JHILMIHF@CANCEL@
66F5C 283 ??_C@_07DLFCFDDG@MBUTTON@
66F64 283 ??_C@_08OPILMHEG@XBUTTON1@
66F70 283 ??_C@_08MEKGJEIF@XBUTTON2@
66F7C 283 ??_C@_04FJBHJJME@BACK@
66F84 283 ??_C@_03CJMDHCGG@TAB@
66F88 283 ??_C@_05PONODPI@CLEAR@
66F90 283 ??_C@_06LJMOENAO@RETURN@
66F98 283 ??_C@_05OAHIEJBI@SHIFT@
66FA0 283 ??_C@_07DBEDOPMC@CONTROL@
66FA8 283 ??_C@_04IILMDFMO@MENU@
66FB0 283 ??_C@_05DIAHPDGL@PAUSE@
66FB8 283 ??_C@_07OPCFNGJB@CAPITAL@
66FC0 283 ??_C@_04KGDAIAGM@KANA@
66FC8 283 ??_C@_05PPKJGOLB@JUNJA@
66FD0 283 ??_C@_05JEIAEFOF@FINAL@
66FD8 283 ??_C@_05CHABPOPI@HANJA@
66FE0 283 ??_C@_06CDPDIIDH@ESCAPE@
66FE8 283 ??_C@_0L@ODNCKDCK@NONCONVERT@
66FF4 283 ??_C@_06INBBKPI@ACCEPT@
66FFC 283 ??_C@_0L@HEHNEBED@MODECHANGE@
67008 283 ??_C@_05CAEOFMEP@SPACE@
67010 283 ??_C@_05BFDHCIJM@PRIOR@
67018 283 ??_C@_04MOKMKBJN@NEXT@
67020 283 ??_C@_03JMGAKCCH@END@
67024 283 ??_C@_04GHGFPGNC@HOME@
6702C 283 ??_C@_04KCNEHMIH@LEFT@
67034 283 ??_C@_02NAHCJHOC@UP@
67038 283 ??_C@_05PMAFOJDE@RIGHT@
67040 283 ??_C@_04FANAOELO@DOWN@
67048 283 ??_C@_06LCPJPOPK@SELECT@
67050 283 ??_C@_05ECKPOFCN@PRINT@
67058 283 ??_C@_07LBDEDADF@EXECUTE@
67060 283 ??_C@_08EMOKHGD@SNAPSHOT@
6706C 283 ??_C@_06OEMEAEKN@INSERT@
67074 283 ??_C@_06FKDAMKFP@DELETE@
6707C 283 ??_C@_04DOKPJKJF@HELP@
67084 283 ??_C@_01GBGANLPD@0@
67088 283 ??_C@_01HIHLOKLC@1@
6708C 283 ??_C@_01FDFGLJHB@2@
67090 283 ??_C@_01EKENIIDA@3@
67094 283 ??_C@_01FAMBOPH@4@
67098 283 ??_C@_01BMBHCPLG@5@
6709C 283 ??_C@_01DHDKHMHF@6@
670A0 283 ??_C@_01COCBENDE@7@
670A4 283 ??_C@_01KJLJFBPL@8@
670A8 283 ??_C@_01LAKCGALK@9@
670AC 283 ??_C@_01FHEEJDEE@A@
670B0 283 ??_C@_01HMGJMAIH@B@
670B4 283 ??_C@_01GFHCPBMG@C@
670B8 283 ??_C@_01CKDDGHAB@D@
670BC 283 ??_C@_01DDCIFGEA@E@
670C0 283 ??_C@_01BIAFAFID@F@
670C4 283 ??_C@_01BBODEMC@G@
670C8 283 ??_C@_01IGIGCIAN@H@
670CC 283 ??_C@_01JPJNBJEM@I@
670D0 283 ??_C@_01LELAEKIP@J@
670D4 283 ??_C@_01KNKLHLMO@K@
670D8 283 ??_C@_01OCOKONAJ@L@
670DC 283 ??_C@_01PLPBNMEI@M@
670E0 283 ??_C@_01NANMIPIL@N@
670E4 283 ??_C@_01MJMHLOMK@O@
670E8 283 ??_C@_01EJNLAFE@P@
670EC 283 ??_C@_01BNIGIBBF@Q@
670F0 283 ??_C@_01DGKLNCNG@R@
670F4 283 ??_C@_01CPLAODJH@S@
670F8 283 ??_C@_01GAPBHFFA@T@
670FC 283 ??_C@_01HJOKEEBB@U@
67100 283 ??_C@_01FCMHBHNC@V@
67104 283 ??_C@_01ELNMCGJD@W@
67108 283 ??_C@_01MMEEDKFM@X@
6710C 283 ??_C@_01NFFPALBN@Y@
67110 283 ??_C@_01POHCFINO@Z@
67114 283 ??_C@_04ODLFFOHF@LWIN@
6711C 283 ??_C@_04DMGFHHJG@RWIN@
67124 283 ??_C@_04GKGJFGJO@APPS@
6712C 283 ??_C@_05DJAECLDN@SLEEP@
67134 283 ??_C@_07NHIPMMJH@NUMPAD0@
6713C 283 ??_C@_07MOJEPNNG@NUMPAD1@
67144 283 ??_C@_07OFLJKOBF@NUMPAD2@
6714C 283 ??_C@_07PMKCJPFE@NUMPAD3@
67154 283 ??_C@_07LDODAJJD@NUMPAD4@
6715C 283 ??_C@_07KKPIDINC@NUMPAD5@
67164 283 ??_C@_07IBNFGLBB@NUMPAD6@
6716C 283 ??_C@_07JIMOFKFA@NUMPAD7@
67174 283 ??_C@_07BPFGEGJP@NUMPAD8@
6717C 283 ??_C@_07GENHHNO@NUMPAD9@
67184 283 ??_C@_08LDEOAAGM@MULTIPLY@
67190 283 ??_C@_03BOJFLAKG@ADD@
67194 283 ??_C@_09POPINEFK@SEPARATOR@
671A0 283 ??_C@_08MGBEENML@SUBTRACT@
671AC 283 ??_C@_07LJPMJDLL@DECIMAL@
671B4 283 ??_C@_06FBFCJJMP@DIVIDE@
671BC 283 ??_C@_02LCPENACN@F1@
671C0 283 ??_C@_02JJNJIDOO@F2@
671C4 283 ??_C@_02IAMCLCKP@F3@
671C8 283 ??_C@_02MPIDCEGI@F4@
671CC 283 ??_C@_02NGJIBFCJ@F5@
671D0 283 ??_C@_02PNLFEGOK@F6@
671D4 283 ??_C@_02OEKOHHKL@F7@
671D8 283 ??_C@_02GDDGGLGE@F8@
671DC 283 ??_C@_02HKCNFKCF@F9@
671E0 283 ??_C@_03JKCLJOFG@F10@
671E4 283 ??_C@_03IDDAKPBH@F11@
671E8 283 ??_C@_03KIBNPMNE@F12@
671EC 283 ??_C@_03LBAGMNJF@F13@
671F0 283 ??_C@_03POEHFLFC@F14@
671F4 283 ??_C@_03OHFMGKBD@F15@
671F8 283 ??_C@_03MMHBDJNA@F16@
671FC 283 ??_C@_03NFGKAIJB@F17@
67200 283 ??_C@_03FCPCBEFO@F18@
67204 283 ??_C@_03ELOJCFBP@F19@
67208 283 ??_C@_03JIGNCAAP@F20@
6720C 283 ??_C@_03IBHGBBEO@F21@
67210 283 ??_C@_03KKFLECIN@F22@
67214 283 ??_C@_03LDEAHDMM@F23@
67218 283 ??_C@_03PMABOFAL@F24@
6721C 283 ??_C@_07FLMEHHJP@NUMLOCK@
67224 283 ??_C@_06FNIKALAE@SCROLL@
6722C 283 ??_C@_0O@DBBJDALK@OEM_NEC_EQUAL@
6723C 283 ??_C@_0P@JKGCFGCD@OEM_FJ_MASSHOU@
6724C 283 ??_C@_0P@NIEOFNLG@OEM_FJ_TOUROKU@
6725C 283 ??_C@_0M@IBEHGLCM@OEM_FJ_LOYA@
67268 283 ??_C@_0M@FOJHECMP@OEM_FJ_ROYA@
67274 283 ??_C@_06EPHNCIMI@LSHIFT@
6727C 283 ??_C@_06HIJMMPFL@RSHIFT@
67284 283 ??_C@_08IKMONEBG@LCONTROL@
67290 283 ??_C@_08OOMMENPF@RCONTROL@
6729C 283 ??_C@_05IHMGKJGH@LMENU@
672A4 283 ??_C@_05LOBKMKIM@RMENU@
672AC 283 ??_C@_0N@OAJIELLG@BROWSER_BACK@
672BC 283 ??_C@_0BA@ENOAJOGH@BROWSER_FORWARD@
672CC 283 ??_C@_0BA@GDNDIDGJ@BROWSER_REFRESH@
672DC 283 ??_C@_0N@HKPDGANH@BROWSER_STOP@
672EC 283 ??_C@_0P@BEAEBJDD@BROWSER_SEARCH@
672FC 283 ??_C@_0BC@BOMJIH@BROWSER_FAVORITES@
67310 283 ??_C@_0N@NOOKCEKA@BROWSER_HOME@
67320 283 ??_C@_0M@ENOHKBMG@VOLUME_MUTE@
6732C 283 ??_C@_0M@JOOBBDNO@VOLUME_DOWN@
67338 283 ??_C@_09MGPMNMJC@VOLUME_UP@
67344 283 ??_C@_0BB@KLAENPA@MEDIA_NEXT_TRACK@
67358 283 ??_C@_0BB@CMOIJKPH@MEDIA_PREV_TRACK@
6736C 283 ??_C@_0L@KBJOCDHK@MEDIA_STOP@
67378 283 ??_C@_0BB@HAEMIJHO@MEDIA_PLAY_PAUSE@
6738C 283 ??_C@_0M@GCIKMBID@LAUNCH_MAIL@
67398 283 ??_C@_0BE@FADJJAPM@LAUNCH_MEDIA_SELECT@
673AC 283 ??_C@_0M@MGLJIDDM@LAUNCH_APP1@
673B8 283 ??_C@_0M@ONJENAPP@LAUNCH_APP2@
673C4 283 ??_C@_05OIODNPAD@OEM_1@
673CC 283 ??_C@_08LDJEIPBH@OEM_PLUS@
673D8 283 ??_C@_09CLPFJEOD@OEM_COMMA@
673E4 283 ??_C@_09OGMLCNMG@OEM_MINUS@
673F0 283 ??_C@_0L@DNNMNDGM@OEM_PERIOD@
673FC 283 ??_C@_05MDMOIMMA@OEM_2@
67404 283 ??_C@_05NKNFLNIB@OEM_3@
6740C 283 ??_C@_05JFJECLEG@OEM_4@
67414 283 ??_C@_05IMIPBKAH@OEM_5@
6741C 283 ??_C@_05KHKCEJME@OEM_6@
67424 283 ??_C@_05LOLJHIIF@OEM_7@
6742C 283 ??_C@_05DJCBGEEK@OEM_8@
67434 283 ??_C@_07PEFKMFIE@OEM_102@
6743C 283 ??_C@_0L@EFLJCPAM@PROCESSKEY@
67448 283 ??_C@_06HOICDKCB@PACKET@
67450 283 ??_C@_09CAKPMKHM@OEM_RESET@
6745C 283 ??_C@_08INMNLJCK@OEM_JUMP@
67468 283 ??_C@_07JNOAEEG@OEM_PA1@
67470 283 ??_C@_07CCPDFHIF@OEM_PA2@
67478 283 ??_C@_07DLOIGGME@OEM_PA3@
67480 283 ??_C@_0L@OCAIHDP@OEM_WSCTRL@
6748C 283 ??_C@_04BNGOAFAJ@ATTN@
67494 283 ??_C@_05HGAHFFFL@CRSEL@
6749C 283 ??_C@_05OKOOKOOH@EXSEL@
674A4 283 ??_C@_05CCFENDFJ@EREOF@
674AC 283 ??_C@_04MKCNCBEG@PLAY@
674B4 283 ??_C@_04LGBIGMFG@ZOOM@
674BC 283 ??_C@_06LJIOOKLP@NONAME@
674C4 283 ??_C@_03KCLDMPAE@PA1@
674C8 283 ??_C@_09MBBEHOCK@OEM_CLEAR@
674D4 283 ??_C@_09GJGOMOL@lua51?4dll@
674E0 283 ??_C@_0M@PLOBHAKE@luaopen_bit@
674EC 283 ??_C@_0M@IALDMMNC@luaopen_ffi@
674F8 283 ??_C@_0M@DOFFFIEL@luaopen_jit@
67504 283 ??_C@_0BK@FFJEICME@integer?5or?5light?5userdata@
67520 283 ??_C@_0BD@PNJHLBDA@invalid?5flag?3?5?$CC?$CFs?$CC@
67534 283 ??_C@_0N@JJLBBDOC@invalid?5flag@
67544 283 ??_C@_0BJ@MIKGPOKL@invalid?5flag?5combination@
67560 283 ??_C@_08KJKIOMBF@3?40?40?4?$CFd@
6756C 283 ??_C@_0P@EANMLDOP@MousePositionX@
6757C 283 ??_C@_0P@FJMHICKO@MousePositionY@
6758C 283 ??_C@_0M@BJAICPIE@ButtonState@
67598 283 ??_C@_0L@EMFBJIPA@EventFlags@
675A4 283 ??_C@_07EEJLMCNH@CurLine@
675AC 283 ??_C@_06EDBJMJDC@CurPos@
675B4 283 ??_C@_09EGONKHKB@CurTabPos@
675C0 283 ??_C@_0O@OKGGHEJK@TopScreenLine@
675D0 283 ??_C@_07GDAKJHLE@LeftPos@
675D8 283 ??_C@_08LLJICOLD@Overtype@
675E4 283 ??_C@_0L@GEIEADPN@ModuleName@
675F0 283 ??_C@_09HOIHBHIM@ModuleDir@
675FC 283 ??_C@_0L@JLHCLFBG@PluginGuid@
67608 283 ??_C@_08GGMFPBHM@EditorID@
67614 283 ??_C@_0M@CPDBGLHN@WindowSizeX@
67620 283 ??_C@_0M@DGCKFKDM@WindowSizeY@
6762C 283 ??_C@_0L@PMKENHMA@TotalLines@
67638 283 ??_C@_09HKBEFIPN@BlockType@
67644 283 ??_C@_0P@GAEEHNHE@BlockStartLine@
67654 283 ??_C@_07KHIHFBFN@Options@
6765C 283 ??_C@_07FLDNELFM@TabSize@
67664 283 ??_C@_0O@EBLDFOPH@BookmarkCount@
67674 283 ??_C@_0BF@ODFKBFAK@SessionBookmarkCount@
6768C 283 ??_C@_08CPAOHJDL@CurState@
67698 283 ??_C@_0N@DAJMJAE@StringLength@
676A8 283 ??_C@_08JPMALCFA@SelStart@
676B4 283 ??_C@_06JLEHDHII@SelEnd@
676BC 283 ??_C@_0L@IFNFGDGN@StringText@
676C8 283 ??_C@_09IBGOAAEM@StringEOL@
676D4 283 ??_C@_01LOCGONAA@?$AA@
676D8 283 ??_C@_06MFLCIING@redraw@
676E0 283 ??_C@_07HICINA@restore@
676E8 283 ??_C@_0CG@LAKEGANL@must?5be?5?8redraw?8?0?5?8restore?8?0?5or@
67710 283 ??_C@_04LIDDHMOL@Line@
67718 283 ??_C@_06OIIFPIKD@Cursor@
67720 283 ??_C@_0L@GDDEHGKI@ScreenLine@
6772C 283 ??_C@_0O@CIAFMMMB@BlockStartPos@
6773C 283 ??_C@_0L@EKLJJHPF@BlockWidth@
67748 283 ??_C@_0M@NKKGBDGK@BlockHeight@
67754 283 ??_C@_09JFPCGCOC@StartLine@
67760 283 ??_C@_08JBNOANJG@StartPos@
6776C 283 ??_C@_07DCKCOCOC@EndLine@
67774 283 ??_C@_06KGHIGMHC@EndPos@
6777C 283 ??_C@_0BA@HNIJJEO@ForegroundColor@
6778C 283 ??_C@_0BA@DPMBBMBG@BackgroundColor@
6779C 283 ??_C@_0O@NHKEGDJF@GUID?5required@
677AC 283 ??_C@_0BJ@BMOGHFAN@table?5or?5number?5expected@
677C8 283 ??_C@_08KGEIBGG@Priority@
677D4 283 ??_C@_05PDOBBJNA@Color@
677DC 283 ??_C@_09KDLBEGCN@EventType@
677E8 283 ??_C@_07HPHPOAEG@KeyDown@
677F0 283 ??_C@_0M@FGGHEADP@RepeatCount@
677FC 283 ??_C@_0BA@KCCLHPM@VirtualScanCode@
6780C 283 ??_C@_0M@PBJKDIHH@UnicodeChar@
67818 283 ??_C@_05GIPJKPFG@SizeX@
67820 283 ??_C@_05HBOCJOBH@SizeY@
67828 283 ??_C@_09GEJJJAHL@CommandId@
67834 283 ??_C@_08GPNNBNIL@SetFocus@
67840 283 ??_C@_0BO@EOHOBIOL@invalid?5?8EventType?8?5specified@
67860 283 ??_C@_0M@BEDENHPD@invalid?5key@
6786C 283 ??_C@_19IBCFILMC@?$AAM?$AAe?$AAn?$AAu@
67878 283 ??_C@_0BN@JBAMKCCJ@must?5be?5table?0?5string?5or?5nil@
67898 283 ??_C@_09FDAFFNEA@MaxHeight@
678A4 283 ??_C@_06DDHCBBGN@Bottom@
678AC 283 ??_C@_09CFELDMD@HelpTopic@
678B8 283 ??_C@_0M@GGMLPAIK@SelectIndex@
678C4 283 ??_C@_02HOGEDOAB@Id@
678C8 283 ??_C@_05LCLENNFI@table@
678D0 283 ??_C@_06ICGJLFIM@string@
678D8 283 ??_C@_07FJOBMBFC@checked@
678E0 283 ??_C@_09MOAJOJKN@separator@
678EC 283 ??_C@_07DBNODEFN@disable@
678F4 283 ??_C@_06JHIAOIKD@grayed@
678FC 283 ??_C@_06JIKFICKK@hidden@
67904 283 ??_C@_08CJLOJPNI@selected@
67910 283 ??_C@_08MMCKBNNI@AccelKey@
6791C 283 ??_C@_08PNHLLJE@BreakKey@
67928 283 ??_C@_15FMBEJGOH@?$AAO?$AAk@
67930 283 ??_C@_1BC@IBCAPFAE@?$AAO?$AAk?$AAC?$AAa?$AAn?$AAc?$AAe?$AAl@
67944 283 ??_C@_1CC@HODOHOHB@?$AAA?$AAb?$AAo?$AAr?$AAt?$AAR?$AAe?$AAt?$AAr?$AAy?$AAI?$AAg?$AAn?$AAo?$AAr@
67968 283 ??_C@_1M@GGPOIMAD@?$AAY?$AAe?$AAs?$AAN?$AAo@
67974 283 ??_C@_1BI@BNDFIGCI@?$AAY?$AAe?$AAs?$AAN?$AAo?$AAC?$AAa?$AAn?$AAc?$AAe?$AAl@
6798C 283 ??_C@_1BI@KMMIHPHF@?$AAR?$AAe?$AAt?$AAr?$AAy?$AAC?$AAa?$AAn?$AAc?$AAe?$AAl@
679A4 283 ??_C@_1DG@LMKDDADI@?$AA?$DM?$AAn?$AAo?$AAn?$AA?9?$AAs?$AAt?$AAr?$AAi?$AAn?$AAg?$AA?5?$AAe?$AAr?$AAr@
679DC 283 ??_C@_15IEGBJKPD@?$AA?3?$AA?6@
679E4 283 ??_C@_19FFLPMPBO@?$AA?6?$AA?5?$AA?5?$AA?5@
679F0 283 ??_C@_15JCKODCLA@?$AA?6?$AA?7@
679F8 283 ??_C@_1M@ILHOPKA@?$AAE?$AAr?$AAr?$AAo?$AAr@
67A04 283 ??_C@_08FNIIFOJC@tostring@
67A10 283 ??_C@_0BJ@JOELOGM@cannot?5convert?5to?5string@
67A2C 283 ??_C@_1BA@HHOMBECE@?$AAM?$AAe?$AAs?$AAs?$AAa?$AAg?$AAe@
67A3C 283 ??_C@_17PAGBAIDI@?$AA?$DL?$AAO?$AAK@
67A44 283 ??_C@_09ENKGJCEC@OwnerGuid@
67A50 283 ??_C@_0N@CCPLCIHE@PluginHandle@
67A60 283 ??_C@_0N@HEHBMBNM@PluginObject@
67A70 283 ??_C@_09BKHPOLGD@PanelType@
67A7C 283 ??_C@_04GOOOJOPP@left@
67A84 283 ??_C@_03FGFCOCMD@top@
67A88 283 ??_C@_05DHJDAOHK@right@
67A90 283 ??_C@_06PMMPCIPB@bottom@
67A98 283 ??_C@_09MCEJMINN@PanelRect@
67AA4 283 ??_C@_0M@DDGFKGKJ@ItemsNumber@
67AB0 283 ??_C@_0BE@EOBAHHNK@SelectedItemsNumber@
67AC4 283 ??_C@_0M@JMILNLLF@CurrentItem@
67AD0 283 ??_C@_0N@CDHIFJIH@TopPanelItem@
67AE0 283 ??_C@_08IMMBLBLF@ViewMode@
67AEC 283 ??_C@_08CENECNJD@SortMode@
67AF8 283 ??_C@_04FABLJDN@Name@
67B00 283 ??_C@_05LOJBNELM@Param@
67B08 283 ??_C@_04PBAHLACE@File@
67B10 283 ??_C@_08HGEAFCFN@PluginId@
67B1C 283 ??_C@_0BA@MLHECKCE@table?5or?5string@
67B2C 283 ??_C@_0BD@CKJHMJBG@non?9positive?5index@
67B40 283 ??_C@_0BA@GNKNKKDM@number?5or?5table@
67B50 283 ??_C@_0L@COJBHOFD@?$CFs?5?$CIfreed?$CJ@
67B5C 283 ??_C@_0CI@DDAJHJKO@?$CFs?5?9?5unsupported?5type?5in?5dialog@
67B84 283 ??_C@_0CD@JIANOKII@unsupported?5flag?5in?5dialog?5item@
67BA8 283 ??_C@_0CB@EOGFCCCC@value?5at?5index?5?$CFd?5is?5not?5a?5tabl@
67BCC 283 ??_C@_0O@FEBHKEHB@closed?5dialog@
67BDC 283 ??_C@_0BK@NEMPGLFN@operation?5not?5implemented@
67BF8 283 ??_C@_04KPCPLBPL@Left@
67C00 283 ??_C@_03PGGAENPN@Top@
67C04 283 ??_C@_05DADPALEM@Right@
67C0C 283 ??_C@_0CL@PHAHDJJO@element?5?$CD?$CFd?5in?5argument?5?$CD?$CFd?5is?5@
67C38 283 ??_C@_0L@CECHCPAP@StartIndex@
67C44 283 ??_C@_05IJGIMMHE@Count@
67C4C 283 ??_C@_07NOCIGAPP@Pattern@
67C54 283 ??_C@_09IMOCKOO@SelectPos@
67C60 283 ??_C@_06DJONBJOP@TopPos@
67C68 283 ??_C@_09OGCBKCAK@MaxLength@
67C74 283 ??_C@_05FNNGFGLF@Index@
67C7C 283 ??_C@_07GHGHLGFI@GetType@
67C84 283 ??_C@_07MMLMCDAI@ValType@
67C8C 283 ??_C@_05LPIJGKJ@Value@
67C94 283 ??_C@_0L@LPFMIAHH@helpstring@
67CA0 283 ??_C@_0P@NABDHFON@getvaluestring@
67CB0 283 ??_C@_0BA@BNIMMMLB@optional?5string@
67CC0 283 ??_C@_0BJ@IINAPFDG@Items?$FL?$CFd?$FN?5is?5not?5a?5table@
67CDC 283 ??_C@_0CC@GBOJFNBI@error?5occured?5in?5dialog?5procedu@
67D00 283 ??_C@_0M@EHMONPJO@?$CFs?5?$CIclosed?$CJ@
67D0C 283 ??_C@_08GDAJJKGC@ViewerID@
67D18 283 ??_C@_07MJHBHMFM@FilePos@
67D20 283 ??_C@_07FBAHDBGN@CurMode@
67D28 283 ??_C@_06IMBBKDFH@iParam@
67D30 283 ??_C@_1BE@CGKCNEEP@?$AAI?$AAn?$AAp?$AAu?$AAt?$AA?5?$AAB?$AAo?$AAx@
67D44 283 ??_C@_1CA@PCDNIBFH@?$AAE?$AAn?$AAt?$AAe?$AAr?$AA?5?$AAt?$AAh?$AAe?$AA?5?$AAt?$AAe?$AAx?$AAt?$AA?3@
67D64 283 ??_C@_0BG@GAFLOAPP@command?5not?5supported@
67D7C 283 ??_C@_15GALJLHBD@?$AA?$DO?$AA?$DO@
67D84 283 ??_C@_0BN@BHCFKHD@integer?5or?5function?5expected@
67DA4 283 ??_C@_09MIJAKHKB@Completed@
67DB0 283 ??_C@_05KGEAEGFG@Total@
67DB8 283 ??_C@_0P@DJOANNIK@?$CFd?4?$CFd?4?$CFd?4?$CFd?4?$CFd@
67DC8 283 ??_C@_03FCCPIJGJ@Pos@
67DCC 283 ??_C@_08NNKIOIN@TypeName@
67DD8 283 ??_C@_07ONPPLIAF@ErrCode@
67DE0 283 ??_C@_07LJDOKIBM@ErrPosX@
67DE8 283 ??_C@_07KACFJJFN@ErrPosY@
67DF0 283 ??_C@_06HBEFEBCM@ErrSrc@
67DF8 283 ??_C@_06LDIMCHFC@?$CF?$CKs?$CFs?5@
67E00 283 ??_C@_0CC@JIGPFMKG@global?5?$GAtostring?8?5is?5not?5functi@
67E24 283 ??_C@_0CH@OINAPBOJ@tostring?$CI?$CJ?5returned?5a?5non?9strin@
67E4C 283 ??_C@_06GBEMGMMA@?$CF?$CKd?$CFs?5@
67E54 283 ??_C@_04CIMGMMMG@text@
67E5C 283 ??_C@_03CAOIPBNL@arg@
67E60 283 ??_C@_0ME@JDKAEDFJ@local?5items?0n?$DN?4?4?4?6local?5bottom?$DN@
67F24 283 ??_C@_0CG@FGNNCNLL@attempt?5to?5access?5invalid?5file?5@
67F4C 283 ??_C@_07BJOIOONN@Strings@
67F54 283 ??_C@_08FGAFMHLF@DiskMenu@
67F60 283 ??_C@_0L@NHENMPLN@PluginMenu@
67F6C 283 ??_C@_0N@IEACHFBM@PluginConfig@
67F7C 283 ??_C@_05GCJGCMFJ@PInfo@
67F84 283 ??_C@_05HMEFBOHK@GInfo@
67F8C 283 ??_C@_0N@GAMEMCEE@invalid?5GUID@
67F9C 283 ??_C@_0CD@KKKOPJE@the?5?8Width?8?5argument?5exceeds?510@
67FC0 283 ??_C@_0BP@NJEEOHDB@attempt?5to?5access?5closed?5timer@
67FE0 283 ??_C@_05LGELBCGM@Close@
67FE8 283 ??_C@_07DOAOMMKG@Enabled@
67FF0 283 ??_C@_08KDKDEPAG@Interval@
67FFC 283 ??_C@_07CIINKFND@OnTimer@
68004 283 ??_C@_06EFCDMIMC@Closed@
6800C 283 ??_C@_0CE@LHJCBGGH@attempt?5to?5call?5non?9existent?5me@
68030 283 ??_C@_0BO@PNFLEJKN@attempt?5to?5access?5a?5closed?5?$CFs@
68050 283 ??_C@_04OKOFBOPB@Time@
68058 283 ??_C@_04LADJNOK@Lock@
68060 283 ??_C@_0P@LKPINHLK@FreeFileFilter@
68070 283 ??_C@_0BA@JGEOEAE@OpenFiltersMenu@
68080 283 ??_C@_0BB@OPPOFOAK@StartingToFilter@
68094 283 ??_C@_0P@JDMCHDIM@IsFileInFilter@
680A4 283 ??_C@_04MIIPNNEF@send@
680AC 283 ??_C@_0L@PFECIMEE@AddHistory@
680B8 283 ??_C@_0BC@LDKJNMAI@EditUnchangedFlag@
680CC 283 ??_C@_06CKGENIKG@Enable@
680D4 283 ??_C@_0N@JPMCPEMC@EnableRedraw@
680E4 283 ??_C@_08MDMHFLBC@GetCheck@
680F0 283 ??_C@_0BB@IGDCGOCA@GetComboboxEvent@
68104 283 ??_C@_0BA@MMJGOBPE@GetConstTextPtr@
68114 283 ??_C@_0N@MEBHNFCP@GetCursorPos@
68124 283 ??_C@_0O@NOIFKLON@GetCursorSize@
68134 283 ??_C@_0O@PBLFBEBH@GetDialogInfo@
68144 283 ??_C@_0P@GOJGEDCJ@GetDialogTitle@
68154 283 ??_C@_0L@EENDOHD@GetDlgData@
68160 283 ??_C@_0L@CKELNLCE@GetDlgItem@
6816C 283 ??_C@_0L@EKFDJIOH@GetDlgRect@
68178 283 ??_C@_0BC@OEJBJICF@GetDropdownOpened@
6818C 283 ??_C@_0BA@GGBPNGHE@GetEditPosition@
6819C 283 ??_C@_08JOPBAOPG@GetFocus@
681A8 283 ??_C@_0M@CIMINJAC@GetItemData@
681B4 283 ??_C@_0BA@CBBMLKJG@GetItemPosition@
681C4 283 ??_C@_0N@KIILHCLH@GetSelection@
681D4 283 ??_C@_07CAGCCMNH@GetText@
681DC 283 ??_C@_03CCEPDEKL@Key@
681E0 283 ??_C@_07BGMCDFGF@ListAdd@
681E8 283 ??_C@_0L@OAOBDED@ListAddStr@
681F4 283 ??_C@_0L@HHNJIHGL@ListDelete@
68200 283 ??_C@_0P@FJJDFANJ@ListFindString@
68210 283 ??_C@_0O@LCEDOMMM@ListGetCurPos@
68220 283 ??_C@_0M@EBHJNEPK@ListGetData@
6822C 283 ??_C@_0BA@OEAMKHGA@ListGetDataSize@
6823C 283 ??_C@_0M@GPHPDBKN@ListGetItem@
68248 283 ??_C@_0O@FMAELLAD@ListGetTitles@
68258 283 ??_C@_08IDOCFPEB@ListInfo@
68264 283 ??_C@_0L@MJCNEJJJ@ListInsert@
68270 283 ??_C@_07KHNCNCBH@ListSet@
68278 283 ??_C@_0O@JMAGMNFO@ListSetCurPos@
68288 283 ??_C@_0M@LJIIOLCL@ListSetData@
68294 283 ??_C@_0O@HCEBJKJB@ListSetTitles@
682A4 283 ??_C@_08KDBHHHDB@ListSort@
682B0 283 ??_C@_0L@FKHJFPKP@ListUpdate@
682BC 283 ??_C@_0L@JBNADJEF@MoveDialog@
682C8 283 ??_C@_06KAPLBEK@Redraw@
682D0 283 ??_C@_0N@LNDCLEEA@ResizeDialog@
682E0 283 ??_C@_09KHJDLNNC@Set3State@
682EC 283 ??_C@_08DCOLEIGP@SetCheck@
682F8 283 ??_C@_0BB@OCGLNAJC@SetComboboxEvent@
6830C 283 ??_C@_0N@LAKJBJGD@SetCursorPos@
6831C 283 ??_C@_0O@KBJLBIJK@SetCursorSize@
6832C 283 ??_C@_0L@BKGCIJDK@SetDlgData@
68338 283 ??_C@_0L@DEGEGMGN@SetDlgItem@
68344 283 ??_C@_0BC@MBJKBDDL@SetDropdownOpened@
68358 283 ??_C@_0BA@FEAJKEGN@SetEditPosition@
68368 283 ??_C@_0L@EANKNIAB@SetHistory@
68374 283 ??_C@_0P@BLLJBBDC@SetInputNotify@
68384 283 ??_C@_0M@CHNGAPIB@SetItemData@
68390 283 ??_C@_0BA@BDAKMIIP@SetItemPosition@
683A0 283 ??_C@_0BB@NOLAAMAO@SetMaxTextLength@
683B4 283 ??_C@_0N@NMDFLOPL@SetSelection@
683C4 283 ??_C@_07NIJDBDAG@SetText@
683CC 283 ??_C@_0L@IJJICLFM@SetTextPtr@
683D8 283 ??_C@_0L@LBHBAPIN@ShowDialog@
683E4 283 ??_C@_08BFAPDNEL@ShowItem@
683F0 283 ??_C@_04ODLBFFJE@User@
683F8 283 ??_C@_06EKGJCCJF@Commit@
68400 283 ??_C@_0O@NNOCACEH@GetArrayColor@
68410 283 ??_C@_08JOPFJIPE@GetColor@
6841C 283 ??_C@_0L@KIOAPMEH@GetFarHwnd@
68428 283 ??_C@_0BF@BCJEFAMJ@GetFarManagerVersion@
68440 283 ??_C@_0L@DKLKGNHC@GetFarRect@
6844C 283 ??_C@_0P@EBGPEOOG@GetWindowCount@
6845C 283 ??_C@_0O@MJCLGACC@GetWindowInfo@
6846C 283 ??_C@_0O@HONBGLHP@GetWindowType@
6847C 283 ??_C@_0P@LHMBJAEL@ProgressNotify@
6848C 283 ??_C@_04GMBKPCGK@Quit@
68494 283 ??_C@_09LLEBKDMD@RedrawAll@
684A0 283 ??_C@_0O@KCPMLBDA@SetArrayColor@
684B0 283 ??_C@_0BB@OHNGOGGC@SetCurrentWindow@
684C4 283 ??_C@_0BB@GLJIAKFE@SetProgressState@
684D8 283 ??_C@_0BB@GAPNDBPP@SetProgressValue@
684EC 283 ??_C@_07JPGKDGEG@Synchro@
684F4 283 ??_C@_07JHJADOPD@Waitkey@
684FC 283 ??_C@_06JBKGCNBB@Delete@
68504 283 ??_C@_04PAFOOALK@Enum@
6850C 283 ??_C@_04HJMOFLDF@Free@
68514 283 ??_C@_03NNDHPFFO@Get@
68518 283 ??_C@_03CEMDFJG@Set@
6851C 283 ??_C@_0N@OELJMCEC@CreateSubkey@
6852C 283 ??_C@_0L@CPCKAMD@OpenSubkey@
68538 283 ??_C@_08EGJLHNCO@AddColor@
68544 283 ??_C@_0BD@DOFEEDDC@AddSessionBookmark@
68558 283 ??_C@_0BG@IGFHDIIN@ClearSessionBookmarks@
68570 283 ??_C@_08PDEJHGJI@DelColor@
6857C 283 ??_C@_0M@LPIECDD@DeleteBlock@
68588 283 ??_C@_0L@BCLIBKOC@DeleteChar@
68594 283 ??_C@_0BG@KOELEFCN@DeleteSessionBookmark@
685AC 283 ??_C@_0N@EKENACAE@DeleteString@
685BC 283 ??_C@_06MJDIICIN@Editor@
685C4 283 ??_C@_0L@HDLPOLMA@ExpandTabs@
685D0 283 ??_C@_0N@MGAOADJN@GetBookmarks@
685E0 283 ??_C@_0M@FECPLAMN@GetFileName@
685EC 283 ??_C@_07NAJNLNAF@GetInfo@
685F4 283 ??_C@_0BE@LBJJGOGD@GetSessionBookmarks@
68608 283 ??_C@_09HBLKHMEA@GetString@
68614 283 ??_C@_0L@IDFHDAHP@GetStringW@
68620 283 ??_C@_08JNAOBKMI@GetTitle@
6862C 283 ??_C@_0N@ICPGLOEG@InsertString@
6863C 283 ??_C@_0L@JMOIGJIA@InsertText@
68648 283 ??_C@_0M@BINOKANK@InsertTextW@
68654 283 ??_C@_0BE@CNGODNDI@NextSessionBookmark@
68668 283 ??_C@_0BE@IEBIGOAP@PrevSessionBookmark@
6867C 283 ??_C@_0N@FNCEPAJJ@ProcessInput@
6868C 283 ??_C@_09KINLOJJJ@ReadInput@
68698 283 ??_C@_09DBPLBJBJ@RealToTab@
686A4 283 ??_C@_08FBDDPFPJ@SaveFile@
686B0 283 ??_C@_06HJGPBJLE@Select@
686B8 283 ??_C@_09PPEOOGEC@SetKeyBar@
686C4 283 ??_C@_08CCKJEGOF@SetParam@
686D0 283 ??_C@_0M@GKIFPNAD@SetPosition@
686DC 283 ??_C@_09FPPPFNNC@SetString@
686E8 283 ??_C@_0L@JNHIIHDG@SetStringW@
686F4 283 ??_C@_08GMCCAJLF@SetTitle@
68700 283 ??_C@_0BF@LIMPGNED@SubscribeChangeEvent@
68718 283 ??_C@_09JFBCONJH@TabToReal@
68724 283 ??_C@_08IBJJAHJG@UndoRedo@
68730 283 ??_C@_07JMDLHPJF@SetMode@
68738 283 ??_C@_06PJECNADJ@Viewer@
68740 283 ??_C@_0P@OAACIGEB@BeginSelection@
68750 283 ??_C@_0BB@PJGDGIKA@CheckPanelsExist@
68764 283 ??_C@_0P@DFBDDHFA@ClearSelection@
68774 283 ??_C@_0N@BHLDKHDJ@EndSelection@
68784 283 ??_C@_0L@KOHCMOPM@GetCmdLine@
68790 283 ??_C@_0O@NLDIMJEA@GetCmdLinePos@
687A0 283 ??_C@_0BE@CBPLLCEH@GetCmdLineSelection@
687B4 283 ??_C@_0P@CMFANDFM@GetColumnTypes@
687C4 283 ??_C@_0BA@DJGLDCBG@GetColumnWidths@
687D4 283 ??_C@_0BE@JPAIJBCI@GetCurrentPanelItem@
687E8 283 ??_C@_0BC@NGKPIKGL@GetPanelDirectory@
687FC 283 ??_C@_0P@GODLFFFJ@GetPanelFormat@
6880C 283 ??_C@_0BB@LCMBHPNI@GetPanelHostFile@
68820 283 ??_C@_0N@HPIPGDFA@GetPanelInfo@
68830 283 ??_C@_0N@HAFLAIHA@GetPanelItem@
68840 283 ??_C@_0P@HCBKDPMP@GetPanelPrefix@
68850 283 ??_C@_0BF@MEMFMMGB@GetSelectedPanelItem@
68868 283 ??_C@_0O@HEGDGAJG@GetUserScreen@
68878 283 ??_C@_0O@EHOCCHAL@InsertCmdLine@
68888 283 ??_C@_0O@OMMHIHHH@IsActivePanel@
68898 283 ??_C@_0M@LCEPDNPK@RedrawPanel@
688A4 283 ??_C@_0P@OPKJJMLB@SetActivePanel@
688B4 283 ??_C@_0L@LAFNHJLF@SetCmdLine@
688C0 283 ??_C@_0O@KECGHKDH@SetCmdLinePos@
688D0 283 ??_C@_0BE@IPNAPCDL@SetCmdLineSelection@
688E4 283 ??_C@_0BE@PAPEKLCP@SetDirectoriesFirst@
688F8 283 ??_C@_0BC@PDKEABHF@SetPanelDirectory@
6890C 283 ??_C@_0M@CMMMGIDG@SetSortMode@
68918 283 ??_C@_0N@HCHLALN@SetSortOrder@
68928 283 ??_C@_0O@LHNNDOB@SetUserScreen@
68938 283 ??_C@_0M@IENJPEBA@SetViewMode@
68944 283 ??_C@_0M@EICBHAOA@UpdatePanel@
68950 283 ??_C@_0L@HHLOIHOP@AdvControl@
6895C 283 ??_C@_0BD@ELMHPHAC@CPluginStartupInfo@
68970 283 ??_C@_09DNGCGHFD@CheckMask@
6897C 283 ??_C@_07OAFAHEKD@CmpName@
68984 283 ??_C@_0M@NAFOKOHB@CmpNameList@
68990 283 ??_C@_0M@IFKFGKML@ColorDialog@
6899C 283 ??_C@_0M@HKHGOOHG@ConvertPath@
689A8 283 ??_C@_0BA@EOCNNPOG@CopyToClipboard@
689B8 283 ??_C@_0BB@BICELPOF@CreateFileFilter@
689CC 283 ??_C@_0P@HMKEDHIE@CreateSettings@
689DC 283 ??_C@_0P@LLHCLNLD@DetectCodePage@
689EC 283 ??_C@_0L@DLFLHLOO@DialogFree@
689F8 283 ??_C@_0L@PJAHNOGM@DialogInit@
68A04 283 ??_C@_09DBEDLMHB@DialogRun@
68A10 283 ??_C@_08KJBLDCDF@FarClock@
68A1C 283 ??_C@_0BD@KCMHFGFP@FileTimeResolution@
68A30 283 ??_C@_0L@DACPHGGH@FindPlugin@
68A3C 283 ??_C@_0BB@IJHIBGJA@ForcedLoadPlugin@
68A50 283 ??_C@_0P@BGLLKGOI@FormatFileSize@
68A60 283 ??_C@_0L@HABDNHIM@FreeScreen@
68A6C 283 ??_C@_0N@GOMOBHDB@FreeSettings@
68A7C 283 ??_C@_0N@LDONHOE@GenerateName@
68A8C 283 ??_C@_0BE@DJLJEKBK@GetCurrentDirectory@
68AA0 283 ??_C@_0L@MCFABBED@GetDirList@
68AAC 283 ??_C@_0N@MOMBJEKA@GetFileOwner@
68ABC 283 ??_C@_0BB@OPAJHEIC@GetLuafarVersion@
68AD0 283 ??_C@_06KCCBBIBJ@GetMsg@
68AD8 283 ??_C@_0BB@JBNBALEM@GetNumberOfLinks@
68AEC 283 ??_C@_0M@KFCNKLDK@GetPathRoot@
68AF8 283 ??_C@_0BB@HIDBFOJJ@GetPluginDirList@
68B0C 283 ??_C@_0BF@KLOGLFMF@GetPluginInformation@
68B24 283 ??_C@_0L@JIDCIJHM@GetPlugins@
68B30 283 ??_C@_0BE@EPGHGPJC@GetReparsePointInfo@
68B44 283 ??_C@_08IAADAJIH@InputBox@
68B50 283 ??_C@_0BC@FJDIKOMH@InputRecordToName@
68B64 283 ??_C@_0P@IKAEEPOB@IsPluginLoaded@
68B74 283 ??_C@_08DNJCLFF@LIsAlpha@
68B80 283 ??_C@_0M@LKJIEECA@LIsAlphanum@
68B8C 283 ??_C@_08MAHKICD@LIsLower@
68B98 283 ??_C@_08FHLJMDJK@LIsUpper@
68BA4 283 ??_C@_09LPKAHGM@LLowerBuf@
68BB0 283 ??_C@_08HGLFNLMB@LStricmp@
68BBC 283 ??_C@_09GALOFBAC@LStrnicmp@
68BC8 283 ??_C@_09GLKFOOEP@LUpperBuf@
68BD4 283 ??_C@_0L@CHJBHF@LoadPlugin@
68BE0 283 ??_C@_08KAFLEHAN@MacroAdd@
68BEC 283 ??_C@_0L@KBAKOGFP@MacroCheck@
68BF8 283 ??_C@_0M@KFMHCNNB@MacroDelete@
68C04 283 ??_C@_0N@COEPENFH@MacroExecute@
68C14 283 ??_C@_0N@PNLHCOIE@MacroGetArea@
68C24 283 ??_C@_0BC@MJDKBAPF@MacroGetLastError@
68C38 283 ??_C@_0O@KGHDMPAJ@MacroGetState@
68C48 283 ??_C@_0N@GHGEMEN@MacroLoadAll@
68C58 283 ??_C@_09KGKKBHMO@MacroPost@
68C64 283 ??_C@_0N@NAGBAPAE@MacroSaveAll@
68C74 283 ??_C@_0O@BJEAJNBH@MakeMenuItems@
68C84 283 ??_C@_04IFEHPILC@Menu@
68C8C 283 ??_C@_07BEIHKDLJ@Message@
68C94 283 ??_C@_06DKBBJCCG@MkLink@
68C9C 283 ??_C@_06ILCHIEBO@MkTemp@
68CA4 283 ??_C@_0BC@FFNOIDFI@NameToInputRecord@
68CB8 283 ??_C@_0BD@PLIHDKFC@PasteFromClipboard@
68CCC 283 ??_C@_0BC@BIIKJLKB@PluginStartupInfo@
68CE0 283 ??_C@_0M@KPPMMAOL@ProcessName@
68CEC 283 ??_C@_0BA@CLEHBIPM@RecursiveSearch@
68CFC 283 ??_C@_0O@CGLFPNOD@RestoreScreen@
68D0C 283 ??_C@_0BB@HLFLDCHO@RunDefaultScript@
68D20 283 ??_C@_0L@PGGGPLFK@SaveScreen@
68D2C 283 ??_C@_0P@HLOFPDFP@SendDlgMessage@
68D3C 283 ??_C@_04JLAJABDJ@Show@
68D44 283 ??_C@_08DAHHHDJC@ShowHelp@
68D50 283 ??_C@_0BK@EBIPEKDH@SubscribeDialogDrawEvents@
68D6C 283 ??_C@_05NHFJDMOA@Timer@
68D74 283 ??_C@_0N@CCDDAJK@TruncPathStr@
68D84 283 ??_C@_08BNEIIKEJ@TruncStr@
68D90 283 ??_C@_0N@DHIONCLI@UnloadPlugin@
68DA0 283 ??_C@_04OCDKHGII@XLat@
68DA8 283 ??_C@_04CPPPJGME@Host@
68DB0 283 ??_C@_0N@ECMJOJJG@MacroCallFar@
68DC0 283 ??_C@_0P@DBMLFHLH@MacroCallToLua@
68DD0 283 ??_C@_06GIFLLBB@editor@
68DD8 283 ??_C@_06DGPPOJKF@viewer@
68DE0 283 ??_C@_04COKMOKNF@actl@
68DE8 283 ??_C@_01DICPFPGM@k@
68DEC 283 ??_C@_06BPGFKLEK@__mode@
68DF4 283 ??_C@_1CC@OPOAGCKN@?$AA?2?$AAl?$AAu?$AAa?$AAf?$AAa?$AAr?$AA_?$AAi?$AAn?$AAi?$AAt?$AA?4?$AAl?$AAu@
68E18 283 ??_C@_1BG@BDOBMIBP@?$AAF?$AAA?$AAR?$AAP?$AAR?$AAO?$AAF?$AAI?$AAL?$AAE@
68E30 283 ??_C@_02KFNNKBCK@io@
68E34 283 ??_C@_02EHCHIAMF@os@
68E38 283 ??_C@_04CFDJAKFL@math@
68E40 283 ??_C@_07GAJMMAJO@unicode@
68E48 283 ??_C@_04LHHHFLPP@utf8@
68E50 283 ??_C@_03JECLAOEA@win@
68E54 283 ??_C@_04GKIAMGJJ@lpeg@
68E5C 283 ??_C@_04GGLOKIEE@dump@
68E64 283 ??_C@_03HOKODIMJ@rep@
68E68 283 ??_C@_05NDNJFBEF@cfind@
68E70 283 ??_C@_03EDMBFDDG@bit@
68E74 283 ??_C@_03IGHFHLNJ@jit@
68E78 283 ??_C@_08LBNNGFKE@_PRELOAD@
68E84 283 ??_C@_03DIJDOPEA@ffi@
68E88 283 ??_C@_06ONNDGCDK@dofile@
68E90 283 ??_C@_08BNNFLGCJ@loadfile@
68E9C 283 ??_C@_06JLGJNGCD@luafar@
68EA4 283 ??_C@_03OFAPEBGM@?$CFs?6@
68EA8 283 _filefilter_methods
68EE0 283 _SettingsType
68EF0 283 _VirtualKeyStrings
692F0 283 _FarGuid
69300 283 _FAR_FLAGSTABLE
6930C 283 _SettingsHandles
69320 283 ?key@?3??far_Menu@@9@9
69328 283 _actl_funcs
693D0 283 _SavedScreenType
693E0 283 _editor_funcs
69528 283 _panel_funcs
69640 283 _far_Dialog
69848 283 _FarTimerType
69854 283 _FarTimerQueueKey
69864 283 ?C@?3??far_InputRecordToName@@9@9
69870 283 _api_functions
698E0 283 _far_funcs
69B70 283 _lualibs_extra
69BA0 283 _FAR_DN_STORAGE
69BB0 283 _utf8_reformat
69D00 283 _lualibs
69D70 283 _timer_methods
69D98 283 _dialog_methods
69FC0 283 _FarFileFilterType
69FD0 283 _viewer_funcs
6A020 283 _Settings_methods
6A070 283 _FAR_VIRTUALKEYS
6A080 283 ?A@?3??far_InputRecordToName@@9@9
6A088 283 _FarDialogType
6A094 283 _AddMacroDataType
6A0A4 283 ?S@?3??far_InputRecordToName@@9@9
6A0AC 283 _PluginHandleType
6A0BC 285 ??_C@_02HIBBOKEN@?2r@
6A0C0 285 ??_C@_04MPDIABOK@?2000@
6A0C8 285 ??_C@_05GGBDHNF@?9?$CL?5?$CD0@
6A0D0 285 ??_C@_0CA@COOMGCAO@invalid?5format?5?$CIrepeated?5flags?$CJ@
6A0F0 285 ??_C@_0CN@KALFEKPN@invalid?5format?5?$CIwidth?5or?5precis@
6A120 285 ??_C@_0CC@KIPBEOBI@invalid?5option?5?8?$CF?$CF?$CFc?8?5to?5?8forma@
6A144 285 ??_C@_06DLEPGFEF@format@
6A14C 285 ??_C@_09GCBMKPBD@utf8valid@
6A158 285 _uniclib
6A170 280 ??_C@_0BK@JFJLKBCI@string?5is?5not?5valid?5UTF?98@
6A18C 280 ??_C@_0BE@LDJANOJE@?$CFs?5expected?0?5got?5?$CFs@
6A1A0 280 ??_C@_0BD@MJACNLBA@invalid?5UTF?98?5code@
6A1B4 280 ??_C@_0BP@MEEJFMAG@initial?5position?5out?5of?5string@
6A1D4 280 ??_C@_0BN@IINPNO@final?5position?5out?5of?5string@
6A1F4 280 ??_C@_0N@FCPHIMMG@out?5of?5range@
6A204 280 ??_C@_0BG@DFAIEAEC@string?5slice?5too?5long@
6A21C 280 ??_C@_0BD@JFBPAFFP@value?5out?5of?5range@
6A230 280 ??_C@_0O@FJKLBAIJ@number?1string@
6A240 280 ??_C@_0BE@MHMGJPCL@invalid?5escape?5?8?$CFc?8@
6A254 280 ??_C@_0O@BGLHAEFA@invalid?5index@
6A264 280 ??_C@_0BG@OBAFCJJL@position?5out?5of?5range@
6A27C 280 ??_C@_0CI@HDBIKOFJ@initial?5position?5is?5a?5continuat@
6A2A4 280 ??_C@_0BL@JNACDPC@invalid?5capture?5index?5?$CF?$CF?$CFd@
6A2C0 280 ??_C@_0BI@ECNPHIBF@invalid?5pattern?5capture@
6A2D8 280 ??_C@_0CD@PLJBIEHA@malformed?5pattern?5?$CIends?5with?5?8?$CF@
6A2FC 280 ??_C@_0CA@CFGACOGB@malformed?5pattern?5?$CImissing?5?8?$FN?8?$CJ@
6A31C 280 ??_C@_0CP@FCNHBCLO@malformed?5pattern?5?$CImissing?5argu@
6A34C 280 ??_C@_0BC@IMEAEJPD@too?5many?5captures@
6A360 280 ??_C@_0BE@LPFFPFJG@pattern?5too?5complex@
6A374 280 ??_C@_0CD@LOJJMDBH@missing?5?8?$FL?8?5after?5?8?$CF?$CFf?8?5in?5patt@
6A398 280 ??_C@_0BG@LEHNKOGD@invalid?5capture?5index@
6A3B0 280 ??_C@_0BD@BFKNEALP@unfinished?5capture@
6A3C4 280 ??_C@_0L@NLFJOONJ@?$FO$?$CK?$CL?$DP?4?$CI?$FL?$CF?9@
6A3D0 280 ??_C@_0CK@KLCOLAN@invalid?5use?5of?5?8?$CFc?8?5in?5replacem@
6A3FC 280 ??_C@_0CB@LPDIHGGA@invalid?5replacement?5value?5?$CIa?5?$CFs@
6A420 280 ??_C@_0BP@PPPOBACA@string?1function?1table?5expected@
6A440 280 ??_C@_03MPMOBIFF@?o?$LP?$LN@
6A444 280 ??_C@_0CH@JGFKPGO@replacement?5string?5must?5be?5vali@
6A46C 280 ??_C@_06KLHHMIGM@offset@
6A474 280 ??_C@_05CFHFIAJO@codes@
6A47C 280 ??_C@_09HHCEKEIA@codepoint@
6A488 280 ??_C@_03BKCJCHLK@len@
6A48C 280 ??_C@_07KOIEOCCE@reverse@
6A494 280 ??_C@_05IPJEPLHL@lower@
6A49C 280 ??_C@_05NECKJAMC@upper@
6A4A4 280 ??_C@_05PHLGJONK@title@
6A4AC 280 ??_C@_04MLGPBLN@fold@
6A4B4 280 ??_C@_04IHGKJMLH@byte@
6A4BC 280 ??_C@_04ENMBGAPA@char@
6A4C4 280 ??_C@_06CHNIFGOF@escape@
6A4CC 280 ??_C@_06OAOPNKHP@insert@
6A4D4 280 ??_C@_06LEMKAMD@remove@
6A4DC 280 ??_C@_07BAPMOMKI@charpos@
6A4E4 280 ??_C@_04CJGEDOF@next@
6A4EC 280 ??_C@_05IGKADHGO@width@
6A4F4 280 ??_C@_0L@OLBIGGEG@widthindex@
6A500 280 ??_C@_08GEDFKPFE@ncasecmp@
6A50C 280 ??_C@_07MGLHPHCG@isvalid@
6A514 280 ??_C@_0O@EKJNIPO@invalidoffset@
6A524 280 ??_C@_05CCAMFJOL@clean@
6A52C 280 ??_C@_05GMHJFBH@isnfc@
6A534 280 ??_C@_0O@CLHHHHJA@normalize_nfc@
6A544 280 ??_C@_0M@GMACFGDH@charpattern@
6A550 280 ?limits@?1??utf8_decode@@9@9
6A570 280 _utf8_code_unit_len
6A580 280 _UTF8PATT
6A594 286 ??_C@_05DFJCHPDH@input@
6A59C 286 ??_C@_06DKIGHACF@output@
6A5A4 286 ??_C@_06DJHOIPC@?$CFs?3?5?$CFs@
6A5AC 286 ??_C@_02DKCKIIND@?$CFs@
6A5B0 286 ??_C@_05KCHOJJD@FILE?$CK@
6A5B8 286 ??_C@_0M@IBKPHHKH@closed?5file@
6A5C4 286 ??_C@_04DAMGJPCA@file@
6A5CC 286 ??_C@_0BN@LPOOHAOM@attempt?5to?5use?5a?5closed?5file@
6A5EC 286 ??_C@_0BL@PEFGCPAG@cannot?5close?5standard?5file@
6A608 286 ??_C@_07DMJMBBKE@__close@
6A610 286 ??_C@_0O@PLFAPHPG@file?5?$CIclosed?$CJ@
6A620 286 ??_C@_09BPMAMLLD@file?5?$CI?$CFp?$CJ@
6A62C 286 ??_C@_17OBBFBLGE@?$AAr?$AAw?$AAa@
6A634 286 ??_C@_0CP@DHGANCPP@invalid?5mode?5?8?$CFs?8?5?$CIshould?5match@
6A664 286 ??_C@_0BL@JMNLNGCA@standard?5?$CFs?5file?5is?5closed@
6A680 286 ??_C@_13CIFDLIMG@?$AAw@
6A684 286 ??_C@_03DLDNIBIK@?$CFlf@
6A688 286 ??_C@_0BD@IOJAAODF@too?5many?5arguments@
6A69C 286 ??_C@_0P@PJFAGLMH@invalid?5option@
6A6AC 286 ??_C@_0P@CENJCLHM@invalid?5format@
6A6BC 286 ??_C@_0BH@PBGIDLEF@file?5is?5already?5closed@
6A6D4 286 ??_C@_05CGOEHEFE@?$CF?414g@
6A6DC 286 ??_C@_03KCHOJKKI@set@
6A6E0 286 ??_C@_03LIBLMJMB@cur@
6A6E4 286 ??_C@_03JBJLGPFL@end@
6A6E8 286 ??_C@_0BP@MGCOJADF@not?5an?5integer?5in?5proper?5range@
6A708 286 ??_C@_02KAJCLHKP@no@
6A70C 286 ??_C@_04PLMLMMEO@full@
6A714 286 ??_C@_04HJPCFDOP@line@
6A71C 286 ??_C@_0DB@KKADAMFH@rawhandle?5is?5only?5available?5in?5@
6A750 286 ??_C@_05LBOHBHFK@close@
6A758 286 ??_C@_05GLCAEPFP@flush@
6A760 286 ??_C@_05DENOCHIP@lines@
6A768 286 ??_C@_05IACAFMHP@popen@
6A770 286 ??_C@_07FKJPAINK@tmpfile@
6A778 286 ??_C@_05NGFEDHGN@write@
6A780 286 ??_C@_04EDECCOGL@seek@
6A788 286 ??_C@_07HHBPNGAN@setvbuf@
6A790 286 ??_C@_05MHOFLBOO@stdin@
6A798 286 ??_C@_06DJDOIFHB@stdout@
6A7A0 286 ??_C@_06FJGNEBG@stderr@
6A7A8 286 _flib
6A800 286 _iolib
6A860 286 ?mode@?1??f_seek@@9@9
6A86C 286 ?modenames@?1??f_seek@@9@9
6A87C 286 ?modenames@?1??f_setvbuf@@9@9
6A88C 286 ?mode@?1??f_setvbuf@@9@9
6A898 287 ??_C@_0BN@GMPFCLAN@unable?5to?5get?5ModuleFileName@
6A8B8 287 ??_C@_13MGDFOILI@?$AA?$CB@
6A8BC 287 ??_C@_09GMLHALBF@LOADLIB?3?5@
6A8C8 287 ??_C@_04HDOCAJNK@?$CFs?$CFs@
6A8D0 287 ??_C@_08HNNNOMMJ@_LOADLIB@
6A8DC 287 ??_C@_04HKFDNBLD@init@
6A8E4 287 ??_C@_13FPGAJAPJ@?$AA?2@
6A8E8 287 ??_C@_13JOFGPIOO@?$AA?4@
6A8EC 287 ??_C@_0BO@COFCKCAL@?8package?4?$CFs?8?5must?5be?5a?5string@
6A90C 287 ??_C@_0CE@EPEHLLIH@?8package?4?$CFs?8?5contains?5invalid?5U@
6A930 287 ??_C@_13HGPDMIBE@?$AA?$DP@
6A934 287 ??_C@_0P@NEBKIMDC@?6?7no?5file?5?8?$CFs?8@
6A944 287 ??_C@_0CO@KHMIPLKM@error?5loading?5module?5?8?$CFs?8?5from?5@
6A974 287 ??_C@_04LNEJFJGI@path@
6A97C 287 ??_C@_01IDAFKMJL@_@
6A980 287 ??_C@_01LFCBOECM@?4@
6A984 287 ??_C@_0L@KHKMBFOE@luaopen_?$CFs@
6A990 287 ??_C@_05EEMJHCCC@cpath@
6A998 287 ??_C@_0BO@KOILFIGK@?6?7no?5module?5?8?$CFs?8?5in?5file?5?8?$CFs?8@
6A9B8 287 ??_C@_0CC@CCJHFBLH@?8package?4preload?8?5must?5be?5a?5tab@
6A9DC 287 ??_C@_0CB@NPNABMBF@?6?7no?5field?5package?4preload?$FL?8?$CFs?8@
6AA00 287 ??_C@_07PINPBNPB@_LOADED@
6AA08 287 ??_C@_0CL@DIEJCPFH@loop?5or?5previous?5error?5loading?5@
6AA34 287 ??_C@_07JAOCDFCG@loaders@
6AA3C 287 ??_C@_0CC@IGEJMOFI@?8package?4loaders?8?5must?5be?5a?5tab@
6AA60 287 ??_C@_0BJ@HFHHABH@module?5?8?$CFs?8?5not?5found?3?$CFs@
6AA7C 287 ??_C@_01INIBCBCB@f@
6AA80 287 ??_C@_0CI@GKOMOAFD@?8module?8?5not?5called?5from?5a?5Lua?5@
6AAA8 287 ??_C@_02CCIJHOCI@_M@
6AAAC 287 ??_C@_05ICMCJINN@_NAME@
6AAB4 287 ??_C@_08HONLOGDK@_PACKAGE@
6AAC0 287 ??_C@_0BO@CBJIAGLF@name?5conflict?5for?5module?5?8?$CFs?8@
6AAE0 287 ??_C@_17KOAMMDLI@?$AA?$DL?$AA?$AB?$AA?$DL@
6AAE8 287 ??_C@_15HKKNGJC@?$AA?$DL?$AA?$DL@
6AAF0 287 ??_C@_13GGAHEHIG@?$AA?$AB@
6AAF4 287 ??_C@_07KOEABFCN@loadlib@
6AAFC 287 ??_C@_06LNOHAKGK@seeall@
6AB04 287 ??_C@_06BIEEJMKO@module@
6AB0C 287 ??_C@_07FFLLPPLH@require@
6AB18 287 ??_C@_1HE@JLDBNBHO@?$AA?4?$AA?2?$AA?$DP?$AA?4?$AAl?$AAu?$AAa?$AA?$DL?$AA?$CB?$AA?2?$AAl?$AAu?$AAa?$AA?2?$AA?$DP@
6AB8C 287 ??_C@_1BC@ILFFIBFI@?$AAL?$AAU?$AAA?$AA_?$AAP?$AAA?$AAT?$AAH@
6ABA0 287 ??_C@_1DM@FGPGEDD@?$AA?4?$AA?2?$AA?$DP?$AA?4?$AAd?$AAl?$AAl?$AA?$DL?$AA?$CB?$AA?2?$AA?$DP?$AA?4?$AAd?$AAl?$AAl@
6ABDC 287 ??_C@_1BE@EFNILHBI@?$AAL?$AAU?$AAA?$AA_?$AAC?$AAP?$AAA?$AAT?$AAH@
6ABF0 287 ??_C@_1BE@CKNDCMBB@?$AA?2?$AA?6?$AA?$DL?$AA?6?$AA?$DP?$AA?6?$AA?$CB?$AA?6?$AA?9@
6AC04 287 ??_C@_06HEJKKHEK@config@
6AC0C 287 ??_C@_06IILMCCFO@loaded@
6AC14 287 _pk_funcs
6AC2C 287 _sentinel_
6AC30 287 _ll_funcs
6AC50 287 _loaders
6AC64 289 ??_C@_0BB@BLJKPILH@system?5error?5?$CFd?6@
6AC78 289 ??_C@_0BJ@MEAJDMDL@invalid?5multibyte?5string@
6AC94 289 ??_C@_0BG@ELIKBHAO@invalid?5UTF?916?5string@
6ACAC 289 ??_C@_0M@KJGJBDLL@MaxCharSize@
6ACB8 289 ??_C@_0M@IMOFNPBB@DefaultChar@
6ACC4 289 ??_C@_08HIIJAENB@LeadByte@
6ACD0 289 ??_C@_0BD@CBNPFFPH@UnicodeDefaultChar@
6ACE4 289 ??_C@_0N@DJCOCBOB@CodePageName@
6ACF4 289 ??_C@_0N@IFJMFGJK@unknown?5type@
6AD04 289 ??_C@_0BC@GPFCFLGN@no?5root?5directory@
6AD18 289 ??_C@_09HPGMKNKO@removable@
6AD24 289 ??_C@_05OFLEIIDM@fixed@
6AD2C 289 ??_C@_06IMIHEKN@remote@
6AD34 289 ??_C@_05POABADMF@cdrom@
6AD3C 289 ??_C@_07BHCBOAMP@ramdisk@
6AD44 289 ??_C@_0L@PLJFMBIJ@MemoryLoad@
6AD50 289 ??_C@_09MMAOIBBJ@TotalPhys@
6AD5C 289 ??_C@_09KFOEOLH@AvailPhys@
6AD68 289 ??_C@_0O@PEEMGPEP@TotalPageFile@
6AD78 289 ??_C@_0O@LLHOKNF@AvailPageFile@
6AD88 289 ??_C@_0N@LCJEOHMM@TotalVirtual@
6AD98 289 ??_C@_0N@EGHLANBF@AvailVirtual@
6ADA8 289 ??_C@_0BF@KKNLCGDE@AvailExtendedVirtual@
6ADC0 289 ??_C@_0P@KJDDGAFH@FileAttributes@
6ADD0 289 ??_C@_0BE@DEHGONAH@EnumSystemCodePages@
6ADE4 289 ??_C@_06FMJLOCAF@GetACP@
6ADEC 289 ??_C@_0N@EBDGNADB@GetConsoleCP@
6ADFC 289 ??_C@_0BD@LLGELLLN@GetConsoleOutputCP@
6AE10 289 ??_C@_09HLFMNDA@GetCPInfo@
6AE1C 289 ??_C@_0O@PIBBCLJF@GetCurrentDir@
6AE2C 289 ??_C@_0N@IIBOJKJ@GetDriveType@
6AE3C 289 ??_C@_0M@KHMMJMNI@GetFileAttr@
6AE48 289 ??_C@_0M@ONGMCNNE@GetKeyState@
6AE54 289 ??_C@_0BH@KKAFOIJJ@GetLogicalDriveStrings@
6AE6C 289 ??_C@_08OMCNFONF@GetOEMCP@
6AE78 289 ??_C@_0BD@IHIHPGDL@GlobalMemoryStatus@
6AE8C 289 ??_C@_04NOFELICG@lenW@
6AE94 289 ??_C@_0BE@HCIKGJGE@MultiByteToWideChar@
6AEA8 289 ??_C@_09EPINLGBH@OemToUtf8@
6AEB4 289 ??_C@_0BC@NFCPMJFM@OutputDebugString@
6AEC8 289 ??_C@_0L@PMCLJMMJ@SearchPath@
6AED4 289 ??_C@_0N@DFIIBMHN@SetConsoleCP@
6AEE4 289 ??_C@_0BD@EBEOINFF@SetConsoleOutputCP@
6AEF8 289 ??_C@_0O@IHAPJIOC@SetCurrentDir@
6AF08 289 ??_C@_0M@KINCEKFL@SetFileAttr@
6AF14 289 ??_C@_0BA@MNJFBAJH@SHGetFolderPath@
6AF24 289 ??_C@_05PFDOMJEF@Sleep@
6AF2C 289 ??_C@_04GFOHBGIO@subW@
6AF34 289 ??_C@_06FHFOAHML@system@
6AF3C 289 ??_C@_0M@KJELMDJD@Utf16ToUtf8@
6AF48 289 ??_C@_09LCEKPEGC@Utf8ToOem@
6AF54 289 ??_C@_0M@GJGCILHG@Utf8ToUtf16@
6AF60 289 ??_C@_04NDFIEGPL@Uuid@
6AF68 289 ??_C@_0BE@LJADKLBD@WideCharToMultiByte@
6AF7C 289 ??_C@_07JOJHCKGP@ustring@
6AF88 289 _ustring_funcs
6B080 290 ??_C@_0DJ@KKHMCMAP@bad?5field?5?$FL?$CFd?$FN?5in?5table?5stackpo@
6B0BC 290 ??_C@_0DJ@PFHHGAMM@bad?5field?5?8?$CFs?8?5in?5table?5stackpo@
6B0F8 290 ??_C@_06EBGNBFIA@number@
6B100 293 ??_C@_04CBBMIBLK@HKLM@
6B108 293 ??_C@_04LEMDOLAJ@HKCC@
6B110 293 ??_C@_04OHBKMIBJ@HKCR@
6B118 293 ??_C@_04KIFLFONO@HKCU@
6B120 293 ??_C@_03DLBIJLAB@HKU@
6B124 293 ??_C@_0DA@DKALLFDI@must?5be?5?8HKLM?8?0?5?8HKCC?8?0?5?8HKCR?8?0@
6B154 293 ??_C@_05KDALNKAH@dword@
6B15C 293 ??_C@_06FNFBAEBE@binary@
6B164 293 ??_C@_0N@CBOMHLPN@expandstring@
6B174 293 ??_C@_0M@PEGIPCHN@multistring@
6B180 293 ??_C@_0BH@NOJOGNJM@unsupported?5value?5type@
6B198 293 ??_C@_0BD@MJODDCFG@OpenRegKey?5failed?4@
6B1AC 293 ??_C@_0BI@COLHBIIE@RegQueryValueEx?5failed?4@
6B1C4 293 ??_C@_1BK@BIGILECK@?$AAA?$AAd?$AAv?$AAa?$AAp?$AAi?$AA3?$AA2?$AA?4?$AAd?$AAl?$AAl@
6B1E0 293 ??_C@_0BA@LILAPHGE@RegDeleteKeyExW@
6B1F0 293 ??_C@_0BG@HHFHBIKG@RegOpenKeyExW?5failed?4@
6B208 293 ??_C@_05DFPNHDMN@wYear@
6B210 293 ??_C@_06MGNNJGBJ@wMonth@
6B218 293 ??_C@_0L@OAHPHHP@wDayOfWeek@
6B224 293 ??_C@_04NBLBJIPP@wDay@
6B22C 293 ??_C@_05BMOPCGDH@wHour@
6B234 293 ??_C@_07HPODENI@wMinute@
6B23C 293 ??_C@_07IIEDHHJN@wSecond@
6B244 293 ??_C@_0O@HBAPEOKP@wMilliseconds@
6B254 293 ??_C@_01LKDEMHDF@s@
6B258 293 ??_C@_0BA@IAFODGNM@CursorPositionX@
6B268 293 ??_C@_0BA@JJEFAHJN@CursorPositionY@
6B278 293 ??_C@_0L@NFCEOFBF@WindowLeft@
6B284 293 ??_C@_09JHGOALHG@WindowTop@
6B290 293 ??_C@_0M@HHPHMPGH@WindowRight@
6B29C 293 ??_C@_0N@JPIJCAOJ@WindowBottom@
6B2AC 293 ??_C@_0BD@DOLDEII@MaximumWindowSizeX@
6B2C0 293 ??_C@_0BD@BKPAAFMJ@MaximumWindowSizeY@
6B2D4 293 ??_C@_01PFHFFBPC@t@
6B2D8 293 ??_C@_0BJ@LPJMBJJL@directory?5already?5exists@
6B2F4 293 ??_C@_02NIKKAELB@XP@
6B2F8 293 ??_C@_05OFKKJCED@XPSP1@
6B300 293 ??_C@_05MOIHMBIA@XPSP2@
6B308 293 ??_C@_05NHJMPAMB@XPSP3@
6B310 293 ??_C@_05FGFMDFJC@Vista@
6B318 293 ??_C@_08ENCCDKOP@VistaSP1@
6B324 293 ??_C@_08GGAPGJCM@VistaSP2@
6B330 293 ??_C@_02PJEKLOOM@W7@
6B334 293 ??_C@_05DPOOILML@W7SP1@
6B33C 293 ??_C@_02HONCKCCD@W8@
6B340 293 ??_C@_04HCPPKHCP@W8?41@
6B348 293 ??_C@_03HCIOKOKM@W10@
6B34C 293 ??_C@_06LGMEBDBC@Server@
6B354 293 ??_C@_0BH@CNFJKJGO@invalid?5argument?5value@
6B36C 293 ??_C@_0BK@LNHOAEDA@must?5be?5string?5or?5integer@
6B388 293 ??_C@_0BK@JGAEKFII@invalid?5value?5at?5key?5?8?$CFs?8@
6B3A4 293 ??_C@_0O@CFPMOCDP@CompareString@
6B3B4 293 ??_C@_08PPLNFCGA@CopyFile@
6B3C0 293 ??_C@_09INHPLKKM@CreateDir@
6B3CC 293 ??_C@_0L@GPLPOFDC@DeleteFile@
6B3D8 293 ??_C@_0N@FOJPHHPH@DeleteRegKey@
6B3E8 293 ??_C@_0P@PCCDOIAL@DeleteRegValue@
6B3F8 293 ??_C@_0L@DGAGCFOP@EnumRegKey@
6B404 293 ??_C@_0N@PFFNCIBD@EnumRegValue@
6B414 293 ??_C@_0L@MGMEFCAE@ExtractKey@
6B420 293 ??_C@_0N@HALOIPMN@ExtractKeyEx@
6B430 293 ??_C@_0BI@EKFDIGHI@FileTimeToLocalFileTime@
6B448 293 ??_C@_0BF@KPJNHALE@FileTimeToSystemTime@
6B460 293 ??_C@_0BL@NAIJNMLL@GetConsoleScreenBufferInfo@
6B47C 293 ??_C@_06CALCCDMF@GetEnv@
6B484 293 ??_C@_0M@EINGHLOA@GetFileInfo@
6B490 293 ??_C@_0N@HDKONBLE@GetFileTimes@
6B4A0 293 ??_C@_0N@BGIIIEIH@GetLocalTime@
6B4B0 293 ??_C@_09GFGIAJLD@GetRegKey@
6B4BC 293 ??_C@_0O@IKEIBEBH@GetSystemTime@
6B4CC 293 ??_C@_0BI@ENMDHCMK@GetSystemTimeAsFileTime@
6B4E4 293 ??_C@_0P@GGGHOPAD@GetVirtualKeys@
6B4F4 293 ??_C@_0P@MIPPOCAO@IsProcess64bit@
6B504 293 ??_C@_0N@DNBFBBHK@IsWinVersion@
6B514 293 ??_C@_08DCAEMJEN@JoinPath@
6B520 293 ??_C@_08CALLHOCI@MoveFile@
6B52C 293 ??_C@_09EDKALOCB@RemoveDir@
6B538 293 ??_C@_0L@HBAGBENL@RenameFile@
6B544 293 ??_C@_0M@PALOACD@ReplaceFile@
6B550 293 ??_C@_06LDCDJLBI@SetEnv@
6B558 293 ??_C@_0N@HBABNPI@SetFileTimes@
6B568 293 ??_C@_09ELCNCICB@SetRegKey@
6B574 293 ??_C@_0N@BFFIJKHB@ShellExecute@
6B584 293 ??_C@_0BF@HBHGIPOG@SystemTimeToFileTime@
6B59C 293 ??_C@_0N@OCKOJJEP@WriteConsole@
6B5AC 293 ??_C@_06DNONFAKH@wcscmp@
6B5B8 293 _win_funcs
6B6D8 272 ??_C@_06BJLFLCGP@?$CIa?5?$CFs?$CJ@
6B6E0 272 ??_C@_0CF@NOFJMCHJ@rule?5?8?$CFs?8?5undefined?5in?5given?5gr@
6B708 272 ??_C@_0CB@GNCMLCLN@rule?5?8?$CFs?8?5used?5outside?5a?5gramma@
6B72C 272 ??_C@_0BP@ICAMENII@too?5many?5Lua?5values?5in?5pattern@
6B74C 272 ??_C@_0N@JMANDJJE@lpeg?9pattern@
6B75C 272 ??_C@_0CC@DLBMAAAG@loop?5body?5may?5accept?5empty?5stri@
6B780 272 ??_C@_0BP@KFLAFMKL@range?5must?5have?5two?5characters@
6B7A0 272 ??_C@_0BD@CJNLJOLI@invalid?5code?5point@
6B7B4 272 ??_C@_0M@OEGMGNJB@empty?5range@
6B7C0 272 ??_C@_0CC@EIMHBAIE@pattern?5may?5not?5have?5fixed?5leng@
6B7E4 272 ??_C@_0BG@EADNJHN@pattern?5have?5captures@
6B7FC 272 ??_C@_0CA@NHPEDECH@pattern?5too?5long?5to?5look?5behind@
6B81C 272 ??_C@_0BH@CPKACNNJ@non?9nil?5value?5expected@
6B834 272 ??_C@_0P@FOPLFLLJ@invalid?5number@
6B844 272 ??_C@_0CJ@CKOEMFDF@unexpected?5?$CFs?5as?52nd?5operand?5to@
6B870 272 ??_C@_0BH@HLHHGJHC@invalid?5argument?5index@
6B888 272 ??_C@_0BM@DINGODHD@grammar?5has?5no?5initial?5rule@
6B8A4 272 ??_C@_0CD@DBPCMHPF@initial?5rule?5?8?$CFs?8?5is?5not?5a?5patt@
6B8C8 272 ??_C@_0BL@LOEOBGMI@rule?5?8?$CFs?8?5is?5not?5a?5pattern@
6B8E4 272 ??_C@_0BL@KCCKAGDN@grammar?5has?5too?5many?5rules@
6B900 272 ??_C@_0CA@JHMDKDNP@rule?5?8?$CFs?8?5may?5be?5left?5recursive@
6B920 272 ??_C@_0BP@OPHDDENG@too?5many?5left?5calls?5in?5grammar@
6B940 272 ??_C@_0BI@LFIICHLG@empty?5loop?5in?5rule?5?8?$CFs?8@
6B958 272 ??_C@_0CI@NOBPMMPF@function?5only?5implemented?5in?5de@
6B980 272 ??_C@_0BB@NEEBNOMJ@subject?5too?5long@
6B994 272 ??_C@_0O@OBCJMCPC@lpeg?9maxstack@
6B9A4 272 ??_C@_07CHFOACKJ@pattern@
6B9AC 272 ??_C@_05IIMHCHIO@alnum@
6B9B4 272 ??_C@_05IAEKHIAN@alpha@
6B9BC 272 ??_C@_05JMDPEFNK@cntrl@
6B9C4 272 ??_C@_05ODNOIFML@digit@
6B9CC 272 ??_C@_05KCJBMLII@graph@
6B9D4 272 ??_C@_05IJDJACGD@print@
6B9DC 272 ??_C@_05KOBGHFJJ@punct@
6B9E4 272 ??_C@_05OLNILLAB@space@
6B9EC 272 ??_C@_06BAPHGFFK@xdigit@
6B9F4 272 ??_C@_05NOONOLKM@ptree@
6B9FC 272 ??_C@_05KPJMEFEL@pcode@
6BA04 272 ??_C@_02DMLCCNBA@Cc@
6BA08 272 ??_C@_03FMEGDDLB@Cmt@
6BA0C 272 ??_C@_02CFKJBMFB@Cb@
6BA10 272 ??_C@_04NINNPLED@Carg@
6BA18 272 ??_C@_02FNFNGMIC@Cp@
6BA1C 272 ??_C@_02HGHADPEB@Cs@
6BA20 272 ??_C@_02DJDBKJIG@Ct@
6BA24 272 ??_C@_02EBMFNJFF@Cf@
6BA28 272 ??_C@_02FINOOIBE@Cg@
6BA2C 272 ??_C@_04CIGFNINC@utfR@
6BA34 272 ??_C@_06NDGIILMC@locale@
6BA3C 272 ??_C@_07CPCPJPKL@version@
6BA44 272 ??_C@_0M@KJNDEDIF@setmaxstack@
6BA50 272 ??_C@_05EBGMHPNE@__pow@
6BA58 272 ??_C@_0L@OGIMJABG@LPeg?51?41?40@
6BA70 272 _numsiblings
6BA84 269 ??_C@_0BO@HIOGGNCC@back?5reference?5?8?$CFs?8?5not?5found@
6BAA4 269 ??_C@_0CC@JDMJHODF@no?5initial?5value?5for?5fold?5captu@
6BAC8 269 ??_C@_0CK@PHOELLKI@no?5previous?5value?5for?5accumulat@
6BAF4 269 ??_C@_0BA@CLGONLEE@no?5capture?5?8?$CFd?8@
6BB04 269 ??_C@_0BK@GNKFCFOI@too?5many?5runtime?5captures@
6BB20 269 ??_C@_0BL@MFMPDBPM@invalid?5capture?5index?5?$CI?$CFd?$CJ@
6BB3C 269 ??_C@_07PNBGPICD@capture@
6BB44 269 ??_C@_0BO@BFMCOGFG@no?5values?5in?5capture?5index?5?$CFd@
6BB64 269 ??_C@_0M@LLKAGNAI@replacement@
6BB70 269 ??_C@_0CL@JHJHOHJH@invalid?5context?5for?5an?5accumula@
6BB9C 269 ??_C@_0BI@BDJGHCJM@invalid?5?$CFs?5value?5?$CIa?5?$CFs?$CJ@
6BBB4 269 ??_C@_0BM@GGPCKFPD@subcapture?5nesting?5too?5deep@
6BBD0 269 ??_C@_0CH@PDHHHMLB@reference?5to?5absent?5extra?5argum@
6BBF8 270 ??_C@_0BC@ENOOLCNF@not?5enough?5memory@
6BC0C 270 ??_C@_0BH@FNMHAEPO@pattern?5code?5too?5large@
6BC30 270 _fullset_
6BC50 273 ??_C@_0CP@OMEMJCMG@backtrack?5stack?5overflow?5?$CIcurre@
6BC80 273 ??_C@_0DA@HMFICOAG@invalid?5position?5returned?5by?5ma@
6BCB0 273 ??_C@_0CH@IODICBPM@too?5many?5results?5in?5match?9time?5@
6BCD8 273 _giveup
6BCDC 273 ?limits@?1??utf8_decode@@9@9
6BCEC 292 ??_C@_0BG@JGJIBIIG@Wrapper_EncodePointer@
6BD04 292 ??_C@_0BG@OMFOEGFD@Wrapper_DecodePointer@
6BD1C 292 ??_C@_0BL@BBEHGDBL@Wrapper_GetModuleHandleExW@
6BD38 292 ??_C@_0BM@EDOCFJPK@Wrapper_InitializeSListHead@
6BD54 292 ??_C@_0BO@MMMKJFKC@Wrapper_InterlockedFlushSList@
6BD74 292 ??_C@_0CC@NAEDINGB@Wrapper_InterlockedPushEntrySLi@
6BD98 292 ??_C@_0CB@CBAMEEON@Wrapper_GetNumaHighestNodeNumbe@
6BDBC 292 ??_C@_0CH@OPPPOLHC@Wrapper_GetLogicalProcessorInfo@
6BDE4 292 ??_C@_0CA@MMHMBOOA@Wrapper_SetThreadStackGuarantee@
6BE04 292 ??_C@_0CE@LIGPHONN@Wrapper_InitializeCriticalSecti@
6BE28 292 ??_C@_1CM@BFAMBNFD@?$AA?$CB?$AAx?$AA?9?$AAs?$AAy?$AAs?$AA?9?$AAd?$AAe?$AAf?$AAa?$AAu?$AAl?$AAt?$AA?9@
6BE54 292 ??_C@_0BI@OMKKJAOO@Wrapper_CompareStringEx@
6BE6C 292 ??_C@_0BG@OHLPLANO@Wrapper_LCMapStringEx@
6BE84 292 ??_C@_0CC@PDCHIDAD@Wrapper_SleepConditionVariableS@
6BEA8 292 ??_C@_0CB@MCGLLAP@Wrapper_WakeAllConditionVariabl@
6BECC 292 ??_C@_0CA@DKBCMHCP@Wrapper_AcquireSRWLockExclusive@
6BEEC 292 ??_C@_0CA@KKENLMMH@Wrapper_ReleaseSRWLockExclusive@
6BF0C 292 ??_C@_0CD@HMIPNKOD@Wrapper_TryAcquireSRWLockExclus@
6BF30 292 ??_C@_0BK@DDPOCJPI@Wrapper_InitializeSRWLock@
6BF4C 292 ??_C@_0BB@OCIMNOFH@Wrapper_FlsAlloc@
6BF60 292 ??_C@_0BE@MINHNHKC@Wrapper_FlsGetValue@
6BF74 292 ??_C@_0BE@DJPLMENP@Wrapper_FlsSetValue@
6BF88 292 ??_C@_0BA@BHMHFMJC@Wrapper_FlsFree@
6BF98 292 ?kernel32@modules@@3QB_WB
6BFB0 283 __real@3ff0000000000000
6BFB8 283 __real@4059000000000000
6BFC0 272 __real@4079000000000000
6BFC8 283 __real@41e0000000000000
6BFD0 283 __real@41f0000000000000
6BFD8 42 __real@4330000000000000
6BFE0 43 __real@bff0000000000000
6BFE8 42 __real@c330000000000000
6BFF0 27 __load_config_used
6C140 247 ??_R4exception@std@@6B@
6C154 247 ??_R3exception@std@@8
6C164 247 ??_R2exception@std@@8
6C16C 247 ??_R1A@?0A@EA@exception@std@@8
6C188 247 ??_R4bad_exception@std@@6B@
6C19C 247 ??_R3bad_exception@std@@8
6C1AC 247 ??_R2bad_exception@std@@8
6C1B8 247 ??_R1A@?0A@EA@bad_exception@std@@8
6C1D4 32 ??_R4type_info@@6B@
6C1E8 32 ??_R3type_info@@8
6C1F8 32 ??_R2type_info@@8
6C200 32 ??_R1A@?0A@EA@type_info@@8
6C21C 2 ___safe_se_handler_table
6C244 2 ___volatile_metadata
6C5F8 21 ___rtc_iaa
6C5FC 21 ___rtc_izz
6C600 21 ___rtc_taa
6C604 21 ___rtc_tzz
6C608 11 __sehtable$?dllmain_crt_process_attach@@YAHQAUHINSTANCE__@@QAX@Z
6C628 11 __sehtable$?dllmain_crt_process_detach@@YAH_N@Z
6C650 11 __sehtable$?dllmain_dispatch@@YAHQAUHINSTANCE__@@KQAX@Z
6C670 38 __sehtable$___scrt_is_nonwritable_in_current_image
6C690 243 __sehtable$___DestructExceptionObject
6C6B0 247 __sehtable$?FrameUnwindToState@__FrameHandler3@@SAXPAUEHRegistrationNode@@PAXPBU_s_FuncInfo@@H@Z
6C6D8 247 __sehtable$?CallCatchBlock@@YAPAXPAUEHExceptionRecord@@PAUEHRegistrationNode@@PAU_CONTEXT@@PBU_s_FuncInfo@@PAXHK@Z
6C700 247 __catchsym$?CallUnexpected@@YAXPBU_s_ESTypeList@@@Z$2
6C710 247 __unwindtable$?CallUnexpected@@YAXPBU_s_ESTypeList@@@Z
6C720 247 __tryblocktable$?CallUnexpected@@YAXPBU_s_ESTypeList@@@Z
6C734 247 __ehfuncinfo$?CallUnexpected@@YAXPBU_s_ESTypeList@@@Z
6C758 247 __sehtable$??$BuildCatchObjectHelperInternal@V__FrameHandler3@@@@YAHPAUEHExceptionRecord@@PAXPBU_s_HandlerType@@PBU_s_CatchableType@@@Z
6C778 247 __sehtable$??$BuildCatchObjectInternal@V__FrameHandler3@@@@YAXPAUEHExceptionRecord@@PAXPBU_s_HandlerType@@PBU_s_CatchableType@@@Z
6C794 247 __TI2?AVbad_exception@std@@
6C7A4 247 __CTA2?AVbad_exception@std@@
6C7B0 247 __CT??_R0?AVbad_exception@std@@@8??0bad_exception@std@@QAE@ABV01@@Z12
6C7CC 247 __CT??_R0?AVexception@std@@@8??0exception@std@@QAE@ABV01@@Z12
6C7E8 175 __sehtable$??$?RV<lambda_62491a2101a2aba6cc4a769149c84f1f>@@AAV<lambda_826c27fce7726908515bbc79a5266961>@@V<lambda_4e64bbd54b50a7b070e3ea8d795375b6>@@@?$__crt_seh_guarded_call@H@@QAEH$$QAV<lambda_62491a2101a2aba6cc4a769149c84f1f>@@AAV<lambda_826c27fce7726908515bbc79a5266961>@@$$QAV<lambda_4e64bbd54b50a7b070e3ea8d795375b6>@@@Z
6C808 91 __sehtable$?_fclose_internal@@YAHQAU_iobuf@@AAV__crt_cached_ptd_host@@@Z
6C828 103 __sehtable$??$common_fsopen@_W@@YAPAU_iobuf@@QB_W0H@Z
6C848 99 __sehtable$_fgetc
6C868 111 __sehtable$??$common_freopen@_W@@YAHQAPAU_iobuf@@QB_W1V__crt_stdio_stream@@H@Z
6C888 189 __sehtable$?_rewind_internal@@YAXQAU_iobuf@@AAV__crt_cached_ptd_host@@@Z
6C8A8 222 __sehtable$_ungetc
6C8C8 108 __sehtable$_fread_s
6C8E8 179 __sehtable$__pclose
6C908 179 __sehtable$??$common_popen@_W@@YAPAU_iobuf@@QB_W0@Z
6C928 98 __sehtable$??$?RV<lambda_2866be3712abc81a800a822484c830d8>@@AAV<lambda_39ca0ed439415581b5b15c265174cece>@@V<lambda_2b24c74d71094a6cd0cb82e44167d71b>@@@?$__crt_seh_guarded_call@X@@QAEX$$QAV<lambda_2866be3712abc81a800a822484c830d8>@@AAV<lambda_39ca0ed439415581b5b15c265174cece>@@$$QAV<lambda_2b24c74d71094a6cd0cb82e44167d71b>@@@Z
6C948 98 __sehtable$??$?RV<lambda_2cc53f568c5a2bb6f192f930a45d44ea>@@AAV<lambda_ab61a845afdef5b7c387490eaf3616ee>@@V<lambda_c2ffc0b7726aa6be21d5f0026187e748>@@@?$__crt_seh_guarded_call@X@@QAEX$$QAV<lambda_2cc53f568c5a2bb6f192f930a45d44ea>@@AAV<lambda_ab61a845afdef5b7c387490eaf3616ee>@@$$QAV<lambda_c2ffc0b7726aa6be21d5f0026187e748>@@@Z
6C968 98 __sehtable$??$?RV<lambda_6d20deecaf4856105ebacbad442d1079>@@AAV<lambda_9a32fed5bf61b6b509b2d3f6003082a1>@@V<lambda_63ea2239ed67c638ddbae41947fdf875>@@@?$__crt_seh_guarded_call@H@@QAEH$$QAV<lambda_6d20deecaf4856105ebacbad442d1079>@@AAV<lambda_9a32fed5bf61b6b509b2d3f6003082a1>@@$$QAV<lambda_63ea2239ed67c638ddbae41947fdf875>@@@Z
6C988 75 __sehtable$_clearerr_s
6C9A8 100 __sehtable$??$common_fgets@D@@YAPADQADHV__crt_stdio_stream@@@Z
6C9C8 216 __sehtable$?common_tmpfile_nolock@@YAHQAPAU_iobuf@@H@Z
6C9E8 216 __sehtable$?common_tmpfile@@YAHQAPAU_iobuf@@H@Z
6CA08 115 __sehtable$??$?RV<lambda_76055cf4b68c1f980da8b7496a3ae623>@@AAV<lambda_26974eb511f701c600fccfa2a97a8e1b>@@V<lambda_0062726809bb3c529c0733aa37379daf>@@@?$__crt_seh_guarded_call@I@@QAEI$$QAV<lambda_76055cf4b68c1f980da8b7496a3ae623>@@AAV<lambda_26974eb511f701c600fccfa2a97a8e1b>@@$$QAV<lambda_0062726809bb3c529c0733aa37379daf>@@@Z
6CA28 193 __sehtable$??$?RV<lambda_c390c0748f48a7db46f6ce5cc3c796da>@@AAV<lambda_703a5c3f7c88128b7f5f7a8861b0a6e0>@@V<lambda_c16a91f8771b304e2b1164fb4c043437>@@@?$__crt_seh_guarded_call@H@@QAEH$$QAV<lambda_c390c0748f48a7db46f6ce5cc3c796da>@@AAV<lambda_703a5c3f7c88128b7f5f7a8861b0a6e0>@@$$QAV<lambda_c16a91f8771b304e2b1164fb4c043437>@@@Z
6CA48 135 __sehtable$??$?RV<lambda_274ecf0a8038e561263518ab346655e8>@@AAV<lambda_21448eb78dd3c4a522ed7c65a98d88e6>@@V<lambda_0ca1de2171e49cefb1e8dc85c06db622>@@@?$__crt_seh_guarded_call@H@@QAEH$$QAV<lambda_274ecf0a8038e561263518ab346655e8>@@AAV<lambda_21448eb78dd3c4a522ed7c65a98d88e6>@@$$QAV<lambda_0ca1de2171e49cefb1e8dc85c06db622>@@@Z
6CA68 114 __sehtable$??$common_ftell@_J@@YA_JV__crt_stdio_stream@@AAV__crt_cached_ptd_host@@@Z
6CA88 113 __sehtable$?common_fseek@@YAHV__crt_stdio_stream@@_JHAAV__crt_cached_ptd_host@@@Z
6CAA8 119 __sehtable$??$common_getenv@_W@@YAPA_WQB_W@Z
6CAC8 119 __sehtable$??$common_dupenv_s@_W@@YAHQAPA_WQAIQB_WHQBDH@Z
6CAE4 239 __ehfuncinfo$?write_double_translated_ansi_nolock@@YA?AUwrite_result@?A0x17268360@@HQBDIAAV__crt_cached_ptd_host@@@Z
6CB08 90 __unwindtable$?common_exit@@YAXHW4_crt_exit_cleanup_mode@@W4_crt_exit_return_mode@@@Z
6CB10 90 __ehfuncinfo$?common_exit@@YAXHW4_crt_exit_cleanup_mode@@W4_crt_exit_return_mode@@@Z
6CB38 90 __sehtable$??R<lambda_6e4b09c48022b2350581041d5f6b0c4c>@@QBE@XZ
6CB58 90 __sehtable$??$?RV<lambda_03b1d95aef87969028cfba75ccab2455>@@AAV<lambda_6e4b09c48022b2350581041d5f6b0c4c>@@V<lambda_22bdf7517842c4b3e53723af5aa32b9e>@@@?$__crt_seh_guarded_call@X@@QAEX$$QAV<lambda_03b1d95aef87969028cfba75ccab2455>@@AAV<lambda_6e4b09c48022b2350581041d5f6b0c4c>@@$$QAV<lambda_22bdf7517842c4b3e53723af5aa32b9e>@@@Z
6CB74 87 __unwindtable$___dcrt_uninitialize_environments_nolock
6CB84 87 __ehfuncinfo$___dcrt_uninitialize_environments_nolock
6CBA8 171 __unwindtable$__execute_onexit_table
6CBB0 171 __ehfuncinfo$__execute_onexit_table
6CBD8 171 __sehtable$??$?RV<lambda_69a2805e680e0e292e8ba93315fe43a8>@@AAV<lambda_f03950bc5685219e0bcd2087efbe011e>@@V<lambda_03fcd07e894ec930e3f35da366ca99d6>@@@?$__crt_seh_guarded_call@H@@QAEH$$QAV<lambda_69a2805e680e0e292e8ba93315fe43a8>@@AAV<lambda_f03950bc5685219e0bcd2087efbe011e>@@$$QAV<lambda_03fcd07e894ec930e3f35da366ca99d6>@@@Z
6CBF8 215 __sehtable$_terminate
6CC18 177 __sehtable$??$?RV<lambda_15ade71b0218206bbe3333a0c9b79046>@@AAV<lambda_da44e0f8b0f19ba52fefafb335991732>@@V<lambda_207f2d024fc103971653565357d6cd41>@@@?$__crt_seh_guarded_call@X@@QAEX$$QAV<lambda_15ade71b0218206bbe3333a0c9b79046>@@AAV<lambda_da44e0f8b0f19ba52fefafb335991732>@@$$QAV<lambda_207f2d024fc103971653565357d6cd41>@@@Z
6CC38 177 __sehtable$??$?RV<lambda_a7e850c220f1c8d1e6efeecdedd162c6>@@AAV<lambda_46720907175c18b6c9d2717bc0d2d362>@@V<lambda_9048902d66e8d99359bc9897bbb930a8>@@@?$__crt_seh_guarded_call@X@@QAEX$$QAV<lambda_a7e850c220f1c8d1e6efeecdedd162c6>@@AAV<lambda_46720907175c18b6c9d2717bc0d2d362>@@$$QAV<lambda_9048902d66e8d99359bc9897bbb930a8>@@@Z
6CC58 177 __sehtable$??$?RV<lambda_38edbb1296d33220d7e4dd0ed76b244a>@@AAV<lambda_5ce1d447e08cb34b2473517608e21441>@@V<lambda_fb385d3da700c9147fc39e65dd577a8c>@@@?$__crt_seh_guarded_call@X@@QAEX$$QAV<lambda_38edbb1296d33220d7e4dd0ed76b244a>@@AAV<lambda_5ce1d447e08cb34b2473517608e21441>@@$$QAV<lambda_fb385d3da700c9147fc39e65dd577a8c>@@@Z
6CC78 177 __sehtable$??$?RV<lambda_6affb1475c98b40b75cdec977db92e3c>@@AAV<lambda_b8d4b9c228a6ecc3f80208dbb4b4a104>@@V<lambda_608742c3c92a14382c1684fc64f96c88>@@@?$__crt_seh_guarded_call@X@@QAEX$$QAV<lambda_6affb1475c98b40b75cdec977db92e3c>@@AAV<lambda_b8d4b9c228a6ecc3f80208dbb4b4a104>@@$$QAV<lambda_608742c3c92a14382c1684fc64f96c88>@@@Z
6CC98 240 __sehtable$??$?RV<lambda_e5124f882df8998aaf41531e079ba474>@@AAV<lambda_3e16ef9562a7dcce91392c22ab16ea36>@@V<lambda_e25ca0880e6ef98be67edffd8c599615>@@@?$__crt_seh_guarded_call@X@@QAEX$$QAV<lambda_e5124f882df8998aaf41531e079ba474>@@AAV<lambda_3e16ef9562a7dcce91392c22ab16ea36>@@$$QAV<lambda_e25ca0880e6ef98be67edffd8c599615>@@@Z
6CCB8 137 __sehtable$___acrt_initialize_lowio
6CCD8 76 __sehtable$??$?RV<lambda_d422a76eb4c3bf3ad751449ab71a6ea4>@@AAV<lambda_c9ba49e555ba839a7b07aa3fbecb7617>@@V<lambda_9476263c8ee91a25d21c55370bdb50de>@@@?$__crt_seh_guarded_call@H@@QAEH$$QAV<lambda_d422a76eb4c3bf3ad751449ab71a6ea4>@@AAV<lambda_c9ba49e555ba839a7b07aa3fbecb7617>@@$$QAV<lambda_9476263c8ee91a25d21c55370bdb50de>@@@Z
6CCF8 202 __sehtable$?__acrt_stdio_allocate_stream@@YA?AV__crt_stdio_stream@@XZ
6CD18 195 __sehtable$_raise
6CD38 195 __sehtable$??$?RV<lambda_cbab9ec6f41b0180b23cc171c22676b0>@@AAV<lambda_44731a7d0e6d81c3e6aa82d741081786>@@V<lambda_4b292cb8dd18144e164572427af410ab>@@@?$__crt_seh_guarded_call@P6AXH@Z@@QAEP6AXH@Z$$QAV<lambda_cbab9ec6f41b0180b23cc171c22676b0>@@AAV<lambda_44731a7d0e6d81c3e6aa82d741081786>@@$$QAV<lambda_4b292cb8dd18144e164572427af410ab>@@@Z
6CD58 105 __sehtable$___set_fpsr_sse2
6CD78 77 __sehtable$__fcloseall
6CD98 154 __sehtable$??$common_lseek@J@@YAJHJHAAV__crt_cached_ptd_host@@@Z
6CDB8 154 __sehtable$??$common_lseek@_J@@YA_JH_JHAAV__crt_cached_ptd_host@@@Z
6CDD8 184 __sehtable$__read
6CDF8 178 __sehtable$__pipe
6CE20 92 __sehtable$??$common_fdopen@_W@@YAPAU_iobuf@@HQB_W@Z
6CE40 78 __sehtable$??$?RV<lambda_9e9de3de5fa147e2223d7db92bc10aa6>@@AAV<lambda_38ce7e780aa69e748d6df282ebc68efe>@@V<lambda_8ca6da459f0f6780f1cff60fdc3d00e5>@@@?$__crt_seh_guarded_call@H@@QAEH$$QAV<lambda_9e9de3de5fa147e2223d7db92bc10aa6>@@AAV<lambda_38ce7e780aa69e748d6df282ebc68efe>@@$$QAV<lambda_8ca6da459f0f6780f1cff60fdc3d00e5>@@@Z
6CE60 239 __sehtable$__write_internal
6CE80 172 __sehtable$??$common_sopen_dispatch@D@@YAHQBDHHHQAHH@Z
6CEA0 172 __sehtable$??$common_sopen_dispatch@_W@@YAHQB_WHHHQAHH@Z
6CEC0 190 __sehtable$__rmtmp
6CEE8 196 __sehtable$??$?RV<lambda_1f7e3ac85ca3635646511ad93ac0febe>@@AAV<lambda_555255fdfb9471e5fa7bfca50021c162>@@V<lambda_24f51f8b0c33fe186c624e6675644b7a>@@@?$__crt_seh_guarded_call@_N@@QAE_N$$QAV<lambda_1f7e3ac85ca3635646511ad93ac0febe>@@AAV<lambda_555255fdfb9471e5fa7bfca50021c162>@@$$QAV<lambda_24f51f8b0c33fe186c624e6675644b7a>@@@Z
6CF08 159 __sehtable$?update_thread_multibyte_data_internal@@YAPAU__crt_multibyte_data@@QAU__acrt_ptd@@QAPAU1@@Z
6CF28 159 __sehtable$??$?RV<lambda_ceb1ee4838e85a9d631eb091e2fbe199>@@AAV<lambda_ae742caa10f662c28703da3d2ea5e57e>@@V<lambda_cd08b5d6af4937fe54fc07d0c9bf6b37>@@@?$__crt_seh_guarded_call@X@@QAEX$$QAV<lambda_ceb1ee4838e85a9d631eb091e2fbe199>@@AAV<lambda_ae742caa10f662c28703da3d2ea5e57e>@@$$QAV<lambda_cd08b5d6af4937fe54fc07d0c9bf6b37>@@@Z
6CF48 168 __sehtable$__query_new_handler
6CF68 147 __sehtable$___acrt_update_thread_locale_data
6CF88 174 __sehtable$__alloc_osfhnd
6CFA8 174 __sehtable$___acrt_lowio_ensure_fh_exists
6CFC8 28 __sehtable$__IsNonwritableInCurrentImage
6CFF0 276 .edata
6D018 276 rgpv
6D0C0 276 rgszName
6D168 276 rgwOrd
6D1BC 276 szName
6D1C8 276 $N00001
6D1D3 276 $N00002
6D1E3 276 $N00003
6D1F1 276 $N00004
6D1FC 276 $N00005
6D209 276 $N00006
6D218 276 $N00007
6D223 276 $N00008
6D22D 276 $N00009
6D238 276 $N00010
6D24B 276 $N00011
6D25B 276 $N00012
6D26D 276 $N00013
6D281 276 $N00014
6D28D 276 $N00015
6D29C 276 $N00016
6D2AD 276 $N00017
6D2BD 276 $N00018
6D2D1 276 $N00019
6D2E2 276 $N00020
6D2EA 276 $N00021
6D2FB 276 $N00022
6D30C 276 $N00023
6D318 276 $N00024
6D329 276 $N00025
6D33A 276 $N00026
6D345 276 $N00027
6D34D 276 $N00028
6D364 276 $N00029
6D37A 276 $N00030
6D390 276 $N00031
6D3A6 276 $N00032
6D3B9 276 $N00033
6D3CE 276 $N00034
6D3E3 276 $N00035
6D3FA 276 $N00036
6D410 276 $N00037
6D41C 276 $N00038
6D430 276 $N00039
6D441 276 $N00040
6D451 276 $N00041
6D460 276 $N00042
6D470 46 __IMPORT_DESCRIPTOR_KERNEL32
6D484 41 __IMPORT_DESCRIPTOR_ADVAPI32
6D498 288 __IMPORT_DESCRIPTOR_USER32
6D4AC 284 __IMPORT_DESCRIPTOR_SHELL32
6D4C0 282 __IMPORT_DESCRIPTOR_RPCRT4
6D4D4 275 __IMPORT_DESCRIPTOR_lua51
6D4E8 46 __NULL_IMPORT_DESCRIPTOR
6DE0C 46 .idata$6
6DEB2 41 .idata$6
6DECE 288 .idata$6
6DEFE 284 .idata$6
6DF4C 282 .idata$6
6E506 275 .idata$6
6F000 16 ___security_cookie
6F040 16 ___security_cookie_complement
6F044 38 ___scrt_native_dllmain_reason
6F050 7 ___isa_inverted
6F058 7 ___isa_enabled
6F060 255 ?__vcrt_flsindex@@3KA
6F070 245 __NLG_Destination
6F080 55 __iob
6F128 88 ?errno_no_memory@@3HA
6F12C 88 ?doserrno_no_memory@@3KA
6F130 62 ___abort_behavior
6F134 177 ?__acrt_flsindex@@3KA
6F138 170 ___acrt_initial_locale_data
6F1F0 170 ___acrt_initial_locale_pointers
6F1F8 170 ___acrt_wide_c_locale_string
6F200 137 ___badioinfo
6F238 105 ?__DAZ_ENABLED@?1??__set_fpsr_sse2@@9@9
6F240 184 __lookuptrailbytes
6F340 85 __pwctype
6F348 159 ___acrt_initial_multibyte_data
6F568 159 __mbctypes
6F670 159 __mbcasemaps
6F770 159 ?__rgctypeflag@@3PADA
6F778 159 ?__rgcode_page_info@@3PAUcode_page_info@@A
6F868 125 ___globallocalestatus
6F870 149 ___acrt_lconv_c
6F8C0 149 ___acrt_lconv_static_decimal
6F8C4 149 ___acrt_lconv_static_W_decimal
6F8D0 129 ?__dcrt_lowio_console_output_handle@@3PAXA
6F8E0 14 __fltused
6F8F0 283 _InsideFarManager
6F900 280 _unprintable_table
6F9C0 280 _tolower_table
704E0 280 _alpha_table
725D0 280 _doublewidth_table
72AF0 280 _toupper_table
73700 280 _nfc_decompose_table
771D0 280 _xdigit_table
77220 280 _nfc_combining_table
78420 280 _upper_table
78B70 280 _digit_table
78E70 280 _nfc_quickcheck_table
7DB60 280 _cntrl_table
7DCA0 280 _compose_table
7EBA0 280 _totitle_table
7F7D0 280 _alnum_extend_table
7FE30 280 _graph_table
825A0 280 _lower_table
82DF0 280 _nfc_composite_table
868C0 280 _tofold_table
87550 280 _punct_table
87F50 280 _space_table
87FB0 280 _ambiwidth_table
88650 272 _metareg
886A0 272 _pattreg
88760 247 ??_R0?AVbad_exception@std@@@8
88780 247 ??_R0?AVexception@std@@@8
8879C 32 ??_R0?AVtype_info@@@8
887B8 17 _GS_ExceptionRecord
88808 17 _GS_ContextRecord
88AD4 11 ?__proc_attached@@3HA
88AD8 33 ?__type_info_root_node@@3U__type_info_node@@A
88AE0 38 ___scrt_current_native_startup_state
88AE4 38 ___scrt_native_startup_lock
88AE8 38 ?is_initialized_as_dll@@3_NA
88AE9 38 ?module_local_atexit_table_initialized@@3_NA
88AEC 38 ?module_local_atexit_table@@3U_onexit_table_t@@A
88AF8 38 ?module_local_at_quick_exit_table@@3U_onexit_table_t@@A
88B04 39 ___scrt_debugger_hook_flag
88B08 7 ___avx10_version
88B0C 7 ___isa_available
88B10 7 ___favor
88B14 243 ?__WinRTOutOfMemoryExceptionCallback@@3P6GPAXXZA
88B18 255 ?__vcrt_startup_thread_ptd@@3U__vcrt_ptd@@A
88B40 263 ?pArgList@UnDecorator@@0PAVReplicator@@A
88B44 263 ?pZNameList@UnDecorator@@0PAVReplicator@@A
88B48 263 ?pTemplateArgList@UnDecorator@@0PAVReplicator@@A
88B4C 263 ?gName@UnDecorator@@0PBDB
88B50 263 ?name@UnDecorator@@0PBDB
88B54 263 ?disableFlags@UnDecorator@@0KA
88B58 263 ?fExplicitTemplateParams@UnDecorator@@0_NA
88B59 263 ?fGetTemplateArgumentList@UnDecorator@@0_NA
88B5C 263 ?m_pGetParameter@UnDecorator@@0P6APADJ@ZA
88B60 263 ?m_CHPENameOffset@UnDecorator@@0KA
88B64 263 ?m_recursionLevel@UnDecorator@@0KA
88B68 263 ?heap@@3V_HeapManager@@A
88B7C 250 ___vcrt_lock_table
88B94 250 ___vcrt_locks_initialized
88B98 268 ?module_handles@@3PAPAUHINSTANCE__@@A
88BA4 268 ?function_pointers@@3PAPAXA
88BB8 256 ___pPurecall
88BBC 55 __nstream
88BC0 55 ___piob
88BC4 55 __cflush
88BC8 179 ?__idtabsiz@@3IA
88BCC 179 ?__idpairs@@3PAUprocess_handle_pair@?A0xe43b7539@@A
88BD0 216 ?narrow_tmpfile_buffer_pointers@@3PAPADA
88BDC 216 ?wide_tmpfile_buffer_pointers@@3PAPA_WA
88BE8 90 ?c_termination_complete@@3JA
88BEC 90 ?thread_local_exit_callback_func@@3P6GXPAXK0@ZA
88BF0 90 ?c_exit_complete@?1???R<lambda_6e4b09c48022b2350581041d5f6b0c4c>@@QBE@XZ@4_NA
88BF8 64 ?program_name@?1???$common_configure_argv@D@@YAHW4_crt_argv_mode@@@Z@4PADA
88D00 87 __environ_table
88D04 87 __wenviron_table
88D08 87 ___dcrt_initial_wide_environment
88D0C 87 ___dcrt_initial_narrow_environment
88D10 171 ___acrt_atexit_table
88D1C 171 ___acrt_at_quick_exit_table
88D28 136 ?__acrt_invalid_parameter_handler@@3V?$dual_state_global@P6AXPB_W00II@Z@__crt_state_management@@A
88D2C 163 ?internal_state@?1??_mbtowc_internal@@9@4U_Mbstatet@@A
88D34 181 ?enable_percent_n@@3IA
88D38 60 ___acrt_stdout_buffer
88D3C 60 ___acrt_stderr_buffer
88D40 240 ___acrt_locale_changed_data
88D44 170 ___acrt_current_locale_data
88D48 137 ___pioinfo
88F48 137 __nhandle
88F4C 195 ?ctrlc_action@@3V?$dual_state_global@P6AXH@Z@__crt_state_management@@A
88F50 195 ?ctrlbreak_action@@3V?$dual_state_global@P6AXH@Z@__crt_state_management@@A
88F54 195 ?abort_action@@3V?$dual_state_global@P6AXH@Z@__crt_state_management@@A
88F58 195 ?term_action@@3V?$dual_state_global@P6AXH@Z@__crt_state_management@@A
88F60 238 ?module_handles@@3PAPAUHINSTANCE__@@A
88FB8 238 ?encoded_function_pointers@@3PAPAXA
89048 150 ?__acrt_lock_table@@3PAU_RTL_CRITICAL_SECTION@@A
89198 150 ?__acrt_locks_initialized@@3IA
8919C 167 __commode
891A0 159 __mbctype
891A4 159 __mbcasemap
891A8 159 ___acrt_current_multibyte_data
891AC 159 ?fSystemSet@@3HA
891B0 159 ?initialized@?1??__acrt_initialize_multibyte@@9@4_NA
891B4 63 __pgmptr
891B8 63 ___argc
891BC 63 ___argv
891C0 63 ___wargv
891C4 63 __acmdln
891C8 63 __wcmdln
891CC 126 ___acrt_heap
891D0 168 ?__acrt_new_handler@@3V?$dual_state_global@P6AHI@Z@__crt_state_management@@A
891D4 157 ?user_matherr@@3V?$dual_state_global@P6AHPAU_exception@@@Z@__crt_state_management@@A
891D8 169 ?__acrt_global_new_mode@@3V?$dual_state_global@J@__crt_state_management@@A
891DC 149 ___acrt_lconv_static_null
891E0 149 ___acrt_lconv_static_W_null
891E4 221 __umaskval
891E8 160 ?internal_pst@?1??__mbrtoc32_utf8@__crt_mbstring@@YAIPA_UPBDIPAU_Mbstatet@@AAV__crt_cached_ptd_host@@@Z@4U3@A
891F0 188 ?__acrt_app_type@@3W4_crt_app_type@@A
891F4 220 __fmode
891F8 104 ___fastflag
891FC 145 __pmatherr_set
89200 283 _luaopen_bit
89204 283 _luaopen_ffi
89208 283 _luaopen_jit
8920C 283 ?FakePluginData@?1??GetPluginData@@9@9
89234 292 ?FunctionPointer@?1??Wrapper_FlsAlloc@@9@4@4Q6GKP6GXPAX@Z@ZA
89238 292 ?FunctionPointer@?1??Wrapper_CompareStringEx@@9@36@4Q6GHPB_WK0H0HPAU_nlsversioninfo@@PAXJ@ZA
8923C 292 ?FunctionPointer@?1??Wrapper_InitializeSListHead@@9@4@4Q6GXPAT_SLIST_HEADER@@@ZA
89240 292 ?$S11@?1??Wrapper_InitializeCriticalSectionEx@@9@12@4IA
89244 292 ?$S6@?1??Wrapper_InterlockedFlushSList@@9@4@4IA
89248 292 ?FunctionPointer@?1??Wrapper_WakeAllConditionVariable@@9@4@4Q6GXPAU_RTL_CONDITION_VARIABLE@@@ZA
8924C 292 ?$S4@?1??Wrapper_GetModuleHandleExW@@9@12@4IA
89250 292 ?Cookie@?1??XorPointer@@YAPAXPAX@Z@4IB
89254 292 ?FunctionPointer@?1??Wrapper_GetLogicalProcessorInformation@@9@8@4Q6GHPAU_SYSTEM_LOGICAL_PROCESSOR_INFORMATION@@PAK@ZA
89258 292 ?$S1@?1??XorPointer@@YAPAXPAX@Z@4IA
8925C 292 ?FunctionPointer@?1??Wrapper_SleepConditionVariableSRW@@9@16@4Q6GHPAU_RTL_CONDITION_VARIABLE@@PAU_RTL_SRWLOCK@@KK@ZA
89260 292 ?$S13@?1??Wrapper_LCMapStringEx@@9@36@4IA
89264 292 ?$S10@?1??Wrapper_SetThreadStackGuarantee@@9@4@4IA
89268 292 ?FunctionPointer@?1??Wrapper_TryAcquireSRWLockExclusive@@9@4@4Q6GEPAU_RTL_SRWLOCK@@@ZA
8926C 292 ?$S12@?1??Wrapper_CompareStringEx@@9@36@4IA
89270 292 ?$S16@?1??Wrapper_AcquireSRWLockExclusive@@9@4@4IA
89274 292 ?FunctionPointer@?1??Wrapper_GetModuleHandleExW@@9@12@4Q6GHKPB_WPAPAUHINSTANCE__@@@ZA
89278 292 ?$S7@?1??Wrapper_InterlockedPushEntrySList@@9@8@4IA
8927C 292 ?$S9@?1??Wrapper_GetLogicalProcessorInformation@@9@8@4IA
89280 292 ?$S23@?1??Wrapper_FlsFree@@9@4@4IA
89284 292 ?$S8@?1??Wrapper_GetNumaHighestNodeNumber@@9@4@4IA
89288 292 ?$S5@?1??Wrapper_InitializeSListHead@@9@4@4IA
8928C 292 ?FunctionPointer@?1??Wrapper_FlsGetValue@@9@4@4Q6GPAXK@ZA
89290 292 ?FunctionPointer@?1??Wrapper_DecodePointer@@9@4@4Q6GPAXPAX@ZA
89294 292 ?FunctionPointer@?1??Wrapper_SetThreadStackGuarantee@@9@4@4Q6GHPAK@ZA
89298 292 ?$S14@?1??Wrapper_SleepConditionVariableSRW@@9@16@4IA
8929C 292 ?$S21@?1??Wrapper_FlsGetValue@@9@4@4IA
892A0 292 ?$S18@?1??Wrapper_TryAcquireSRWLockExclusive@@9@4@4IA
892A4 292 ?$S15@?1??Wrapper_WakeAllConditionVariable@@9@4@4IA
892A8 292 ?FunctionPointer@?1??Wrapper_FlsFree@@9@4@4Q6GHK@ZA
892AC 292 ?$S3@?1??Wrapper_DecodePointer@@9@4@4IA
892B0 292 ?$S20@?1??Wrapper_FlsAlloc@@9@4@4IA
892B4 292 ?$S19@?1??Wrapper_InitializeSRWLock@@9@4@4IA
892B8 292 ?FunctionPointer@?1??Wrapper_InterlockedFlushSList@@9@4@4Q6GPAU_SINGLE_LIST_ENTRY@@PAT_SLIST_HEADER@@@ZA
892BC 292 ?FunctionPointer@?1??Wrapper_InterlockedPushEntrySList@@9@8@4Q6GPAU_SINGLE_LIST_ENTRY@@PAT_SLIST_HEADER@@PAU2@@ZA
892C0 292 ?$S17@?1??Wrapper_ReleaseSRWLockExclusive@@9@4@4IA
892C4 292 ?$S2@?1??Wrapper_EncodePointer@@9@4@4IA
892C8 292 ?FunctionPointer@?1??Wrapper_InitializeSRWLock@@9@4@4Q6GXPAU_RTL_SRWLOCK@@@ZA
892CC 292 ?Ptr@?1???R<lambda_1>@?1??XorPointer@@YAPAXPAX@Z@QBE@XZ@4PAXA
892D0 292 ?FunctionPointer@?1??Wrapper_EncodePointer@@9@4@4Q6GPAXPAX@ZA
892D4 292 ?$S22@?1??Wrapper_FlsSetValue@@9@8@4IA
892D8 292 ?FunctionPointer@?1??Wrapper_InitializeCriticalSectionEx@@9@12@4Q6GHPAU_RTL_CRITICAL_SECTION@@KK@ZA
892DC 292 ?FunctionPointer@?1??Wrapper_ReleaseSRWLockExclusive@@9@4@4Q6GXPAU_RTL_SRWLOCK@@@ZA
892E0 292 ?FunctionPointer@?1??Wrapper_LCMapStringEx@@9@36@4Q6GHPB_WK0HPA_WHPAU_nlsversioninfo@@PAXJ@ZA
892E4 292 ?FunctionPointer@?1??Wrapper_GetNumaHighestNodeNumber@@9@4@4Q6GHPAK@ZA
892E8 292 ?FunctionPointer@?1??Wrapper_AcquireSRWLockExclusive@@9@4@4Q6GXPAU_RTL_SRWLOCK@@@ZA
892EC 292 ?FunctionPointer@?1??Wrapper_FlsSetValue@@9@8@4Q6GHKPAX@ZA
892F0 1 ___scrt_ucrt_dll_is_in_use
892F4 1 ___dyn_tls_init_callback
892F8 1 __pmatherr
892FC 1 ___use_sse2_mathfcns
89300 1 _EnumCP
89308 1 ?_OptionsStorage@?1??__local_stdio_printf_options@@9@9
89310 1 ?_OptionsStorage@?1??__local_stdio_scanf_options@@9@9
8A060 277 $R000000
